; ModuleID = '47mem9q2d6p1mvtu0iveyp842'
source_filename = "47mem9q2d6p1mvtu0iveyp842"
target datalayout = "e-m:e-p270:32:32-p271:32:32-p272:64:64-i64:64-i128:128-f80:128-n8:16:32:64-S128"
target triple = "x86_64-unknown-linux-gnu"

@alloc_978f9197b71b71a3c70d91a8ac6e22c6 = private unnamed_addr constant <{ [94 x i8] }> <{ [94 x i8] c"/home/np/.cargo/registry/src/index.crates.io-1949cf8c6b5b557f/rand-0.9.2/src/rngs/reseeding.rs" }>, align 1
@alloc_9505a23425195b91b5552603198516f9 = private unnamed_addr constant <{ ptr, [16 x i8] }> <{ ptr @alloc_978f9197b71b71a3c70d91a8ac6e22c6, [16 x i8] c"^\00\00\00\00\00\00\00\AA\00\00\00\09\00\00\00" }>, align 8
@vtable.0 = private constant <{ [24 x i8], ptr, ptr, ptr }> <{ [24 x i8] c"\00\00\00\00\00\00\00\00\08\00\00\00\00\00\00\00\08\00\00\00\00\00\00\00", ptr @"_ZN4core3ops8function6FnOnce40call_once$u7b$$u7b$vtable.shim$u7d$$u7d$17hb06e99ac8656f6d6E", ptr @"_ZN3std2rt10lang_start28_$u7b$$u7b$closure$u7d$$u7d$17h975e66f67ae81916E", ptr @"_ZN3std2rt10lang_start28_$u7b$$u7b$closure$u7d$$u7d$17h975e66f67ae81916E" }>, align 8, !dbg !0
@alloc_0f452729da712ce8d3f5ab443d8c0d6b = private unnamed_addr constant <{ ptr, [16 x i8] }> <{ ptr @alloc_978f9197b71b71a3c70d91a8ac6e22c6, [16 x i8] c"^\00\00\00\00\00\00\00\E2\00\00\00#\00\00\00" }>, align 8
@alloc_a00c1e355cf6117950aaf1d34d8ab09b = private unnamed_addr constant <{ [91 x i8] }> <{ [91 x i8] c"/home/np/.cargo/registry/src/index.crates.io-1949cf8c6b5b557f/rand-0.9.2/src/rngs/thread.rs" }>, align 1
@alloc_44e88542c34eba4578126ec36d62313a = private unnamed_addr constant <{ ptr, [16 x i8] }> <{ ptr @alloc_a00c1e355cf6117950aaf1d34d8ab09b, [16 x i8] c"[\00\00\00\00\00\00\00\AD\00\00\00\1C\00\00\00" }>, align 8
@alloc_4f42d7e320ffc255965ae1a961a67211 = private unnamed_addr constant <{ [90 x i8] }> <{ [90 x i8] c"/home/np/.cargo/registry/src/index.crates.io-1949cf8c6b5b557f/rand_core-0.9.3/src/block.rs" }>, align 1
@alloc_4369ed36148cc5f7d43728cca87a7ae1 = private unnamed_addr constant <{ ptr, [16 x i8] }> <{ ptr @alloc_4f42d7e320ffc255965ae1a961a67211, [16 x i8] c"Z\00\00\00\00\00\00\00\BF\00\00\00\15\00\00\00" }>, align 8
@alloc_7c5011c76e44913c13e04d8d1e6d96d0 = private unnamed_addr constant <{ ptr, [16 x i8] }> <{ ptr @alloc_4f42d7e320ffc255965ae1a961a67211, [16 x i8] c"Z\00\00\00\00\00\00\00\C0\00\00\00\09\00\00\00" }>, align 8
@alloc_b5ecac47f1e18ea8d6fd4b5387a95943 = private unnamed_addr constant <{ [53 x i8] }> <{ [53 x i8] c"assertion failed: index < self.results.as_ref().len()" }>, align 1
@alloc_6905b1c9ddc3800ad9fabbcb13977105 = private unnamed_addr constant <{ ptr, [16 x i8] }> <{ ptr @alloc_4f42d7e320ffc255965ae1a961a67211, [16 x i8] c"Z\00\00\00\00\00\00\00\B2\00\00\00\09\00\00\00" }>, align 8
@alloc_2b182a67d4f9402d603ef3e7f72e2431 = private unnamed_addr constant <{ [5 x i8] }> <{ [5 x i8] c"woof\0A" }>, align 1
@alloc_ec4fa215300b117d5ab20e2368000be2 = private unnamed_addr constant <{ ptr, [8 x i8] }> <{ ptr @alloc_2b182a67d4f9402d603ef3e7f72e2431, [8 x i8] c"\05\00\00\00\00\00\00\00" }>, align 8
@alloc_3f95fa5fe64159c0ca66f05c35f35619 = private unnamed_addr constant <{ [5 x i8] }> <{ [5 x i8] c"meow\0A" }>, align 1
@alloc_000bc512779c9a763a8aa84ee52b6421 = private unnamed_addr constant <{ ptr, [8 x i8] }> <{ ptr @alloc_3f95fa5fe64159c0ca66f05c35f35619, [8 x i8] c"\05\00\00\00\00\00\00\00" }>, align 8
@vtable.1 = private constant <{ [24 x i8], ptr }> <{ [24 x i8] c"\00\00\00\00\00\00\00\00\00\00\00\00\00\00\00\00\01\00\00\00\00\00\00\00", ptr @"_ZN44_$LT$dp_ex..Dog$u20$as$u20$dp_ex..Animal$GT$5speak17had468e7662b92aa1E" }>, align 8, !dbg !24
@vtable.2 = private constant <{ [24 x i8], ptr }> <{ [24 x i8] c"\00\00\00\00\00\00\00\00\00\00\00\00\00\00\00\00\01\00\00\00\00\00\00\00", ptr @"_ZN44_$LT$dp_ex..Cat$u20$as$u20$dp_ex..Animal$GT$5speak17h504ab8d43430beb1E" }>, align 8, !dbg !34
@__rustc_debug_gdb_scripts_section__ = linkonce_odr unnamed_addr constant [34 x i8] c"\01gdb_load_rust_pretty_printers.py\00", section ".debug_gdb_scripts", align 1

; <rand::rngs::reseeding::ReseedingCore<R,Rsdr> as rand_core::block::BlockRngCore>::generate
; Function Attrs: nonlazybind uwtable
define internal void @"_ZN103_$LT$rand..rngs..reseeding..ReseedingCore$LT$R$C$Rsdr$GT$$u20$as$u20$rand_core..block..BlockRngCore$GT$8generate17h65f4881e2030d610E"(ptr align 16 %self, ptr align 4 %0) unnamed_addr #0 !dbg !52 {
start:
  %num_bytes.dbg.spill = alloca [8 x i8], align 8
  %self.dbg.spill = alloca [8 x i8], align 8
  %results = alloca [8 x i8], align 8
  store ptr %0, ptr %results, align 8
  store ptr %self, ptr %self.dbg.spill, align 8
    #dbg_declare(ptr %self.dbg.spill, !122, !DIExpression(), !126)
    #dbg_declare(ptr %results, !123, !DIExpression(), !127)
  %1 = getelementptr inbounds i8, ptr %self, i64 56, !dbg !128
  %_4 = load i64, ptr %1, align 8, !dbg !128
  %_3 = icmp sle i64 %_4, 0, !dbg !128
  br i1 %_3, label %bb1, label %bb2, !dbg !128

bb2:                                              ; preds = %start
; call <&mut T as core::convert::AsRef<U>>::as_ref
  %2 = call { ptr, i64 } @"_ZN63_$LT$$RF$mut$u20$T$u20$as$u20$core..convert..AsRef$LT$U$GT$$GT$6as_ref17hcf4f85feb7206a28E"(ptr align 8 %results), !dbg !129
  %_6.0 = extractvalue { ptr, i64 } %2, 0, !dbg !129
  %_6.1 = extractvalue { ptr, i64 } %2, 1, !dbg !129
; call core::mem::size_of_val
  %num_bytes = call i64 @_ZN4core3mem11size_of_val17h6d9e552afa58affdE(ptr align 4 %_6.0, i64 %_6.1), !dbg !130
  store i64 %num_bytes, ptr %num_bytes.dbg.spill, align 8, !dbg !130
    #dbg_declare(ptr %num_bytes.dbg.spill, !124, !DIExpression(), !131)
  %3 = getelementptr inbounds i8, ptr %self, i64 56, !dbg !132
  %4 = load i64, ptr %3, align 8, !dbg !132
  %5 = call { i64, i1 } @llvm.ssub.with.overflow.i64(i64 %4, i64 %num_bytes), !dbg !132
  %_9.0 = extractvalue { i64, i1 } %5, 0, !dbg !132
  %_9.1 = extractvalue { i64, i1 } %5, 1, !dbg !132
  br i1 %_9.1, label %panic, label %bb5, !dbg !132

bb1:                                              ; preds = %start
  %6 = load ptr, ptr %results, align 8, !dbg !133
; call rand::rngs::reseeding::ReseedingCore<R,Rsdr>::reseed_and_generate
  call void @"_ZN4rand4rngs9reseeding29ReseedingCore$LT$R$C$Rsdr$GT$19reseed_and_generate17h13935bc7e637f19cE"(ptr align 16 %self, ptr align 4 %6), !dbg !133
  br label %bb6, !dbg !133

bb5:                                              ; preds = %bb2
  %7 = getelementptr inbounds i8, ptr %self, i64 56, !dbg !132
  store i64 %_9.0, ptr %7, align 8, !dbg !132
  %8 = load ptr, ptr %results, align 8, !dbg !134
; call <rand_chacha::chacha::ChaCha12Core as rand_core::block::BlockRngCore>::generate
  call void @"_ZN84_$LT$rand_chacha..chacha..ChaCha12Core$u20$as$u20$rand_core..block..BlockRngCore$GT$8generate17h30baf41324780ba0E"(ptr align 16 %self, ptr align 4 %8), !dbg !134
  br label %bb6, !dbg !134

panic:                                            ; preds = %bb2
; call core::panicking::panic_const::panic_const_sub_overflow
  call void @_ZN4core9panicking11panic_const24panic_const_sub_overflow17hab14e776658d8858E(ptr align 8 @alloc_9505a23425195b91b5552603198516f9) #9, !dbg !132
  unreachable, !dbg !132

bb6:                                              ; preds = %bb1, %bb5
  ret void, !dbg !135
}

; std::rt::lang_start
; Function Attrs: nonlazybind uwtable
define hidden i64 @_ZN3std2rt10lang_start17h27e2b9e2c6bd9d09E(ptr %main, i64 %argc, ptr %argv, i8 %sigpipe) unnamed_addr #0 !dbg !136 {
start:
  %sigpipe.dbg.spill = alloca [1 x i8], align 1
  %argv.dbg.spill = alloca [8 x i8], align 8
  %argc.dbg.spill = alloca [8 x i8], align 8
  %main.dbg.spill = alloca [8 x i8], align 8
  %_7 = alloca [8 x i8], align 8
  store ptr %main, ptr %main.dbg.spill, align 8
    #dbg_declare(ptr %main.dbg.spill, !145, !DIExpression(), !151)
  store i64 %argc, ptr %argc.dbg.spill, align 8
    #dbg_declare(ptr %argc.dbg.spill, !146, !DIExpression(), !152)
  store ptr %argv, ptr %argv.dbg.spill, align 8
    #dbg_declare(ptr %argv.dbg.spill, !147, !DIExpression(), !153)
  store i8 %sigpipe, ptr %sigpipe.dbg.spill, align 1
    #dbg_declare(ptr %sigpipe.dbg.spill, !148, !DIExpression(), !154)
  store ptr %main, ptr %_7, align 8, !dbg !155
; call std::rt::lang_start_internal
  %_0 = call i64 @_ZN3std2rt19lang_start_internal17h179a86731aa5c4aaE(ptr align 1 %_7, ptr align 8 @vtable.0, i64 %argc, ptr %argv, i8 %sigpipe), !dbg !156
  ret i64 %_0, !dbg !157
}

; std::rt::lang_start::{{closure}}
; Function Attrs: inlinehint nonlazybind uwtable
define internal i32 @"_ZN3std2rt10lang_start28_$u7b$$u7b$closure$u7d$$u7d$17h975e66f67ae81916E"(ptr align 8 %_1) unnamed_addr #1 !dbg !158 {
start:
  %self.dbg.spill = alloca [1 x i8], align 1
  %_1.dbg.spill = alloca [8 x i8], align 8
  store ptr %_1, ptr %_1.dbg.spill, align 8
    #dbg_declare(ptr %_1.dbg.spill, !164, !DIExpression(DW_OP_deref), !165)
  %_4 = load ptr, ptr %_1, align 8, !dbg !166
; call std::sys::backtrace::__rust_begin_short_backtrace
  call void @_ZN3std3sys9backtrace28__rust_begin_short_backtrace17h2afd2c7d0674a96fE(ptr %_4), !dbg !167
; call <() as std::process::Termination>::report
  %self = call i8 @"_ZN54_$LT$$LP$$RP$$u20$as$u20$std..process..Termination$GT$6report17h61953a0fd5719ceaE"(), !dbg !167
  store i8 %self, ptr %self.dbg.spill, align 1, !dbg !167
    #dbg_declare(ptr %self.dbg.spill, !168, !DIExpression(), !187)
  %_0 = zext i8 %self to i32, !dbg !189
  ret i32 %_0, !dbg !197
}

; std::sys::backtrace::__rust_begin_short_backtrace
; Function Attrs: noinline nonlazybind uwtable
define internal void @_ZN3std3sys9backtrace28__rust_begin_short_backtrace17h2afd2c7d0674a96fE(ptr %f) unnamed_addr #2 !dbg !198 {
start:
  %dummy.dbg.spill = alloca [0 x i8], align 1
  %f.dbg.spill = alloca [8 x i8], align 8
  %result.dbg.spill = alloca [0 x i8], align 1
    #dbg_declare(ptr %result.dbg.spill, !205, !DIExpression(), !209)
  store ptr %f, ptr %f.dbg.spill, align 8
    #dbg_declare(ptr %f.dbg.spill, !204, !DIExpression(), !210)
    #dbg_declare(ptr %dummy.dbg.spill, !211, !DIExpression(), !218)
; call core::ops::function::FnOnce::call_once
  call void @_ZN4core3ops8function6FnOnce9call_once17hd703a48edda16cd5E(ptr %f), !dbg !220
  call void asm sideeffect "", "~{memory}"(), !dbg !221, !srcloc !222
  ret void, !dbg !223
}

; core::mem::size_of_val
; Function Attrs: inlinehint nonlazybind uwtable
define internal i64 @_ZN4core3mem11size_of_val17h6d9e552afa58affdE(ptr align 4 %val.0, i64 %val.1) unnamed_addr #1 !dbg !224 {
start:
  %0 = alloca [8 x i8], align 8
  %val.dbg.spill = alloca [16 x i8], align 8
  store ptr %val.0, ptr %val.dbg.spill, align 8
  %1 = getelementptr inbounds i8, ptr %val.dbg.spill, i64 8
  store i64 %val.1, ptr %1, align 8
    #dbg_declare(ptr %val.dbg.spill, !235, !DIExpression(), !236)
  %2 = mul nuw nsw i64 %val.1, 4, !dbg !237
  store i64 %2, ptr %0, align 8, !dbg !237
  %_0 = load i64, ptr %0, align 8, !dbg !237
  ret i64 %_0, !dbg !238
}

; core::ops::function::FnOnce::call_once{{vtable.shim}}
; Function Attrs: inlinehint nonlazybind uwtable
define internal i32 @"_ZN4core3ops8function6FnOnce40call_once$u7b$$u7b$vtable.shim$u7d$$u7d$17hb06e99ac8656f6d6E"(ptr %_1) unnamed_addr #1 !dbg !239 {
start:
  %_1.dbg.spill = alloca [8 x i8], align 8
  %_2 = alloca [0 x i8], align 1
  store ptr %_1, ptr %_1.dbg.spill, align 8
    #dbg_declare(ptr %_1.dbg.spill, !248, !DIExpression(), !253)
    #dbg_declare(ptr %_2, !249, !DIExpression(), !253)
  %0 = load ptr, ptr %_1, align 8, !dbg !253
; call core::ops::function::FnOnce::call_once
  %_0 = call i32 @_ZN4core3ops8function6FnOnce9call_once17h1c445d99f54a92d5E(ptr %0), !dbg !253
  ret i32 %_0, !dbg !253
}

; core::ops::function::FnOnce::call_once
; Function Attrs: inlinehint nonlazybind uwtable
define internal i32 @_ZN4core3ops8function6FnOnce9call_once17h1c445d99f54a92d5E(ptr %0) unnamed_addr #1 personality ptr @rust_eh_personality !dbg !254 {
start:
  %1 = alloca [16 x i8], align 8
  %_2 = alloca [0 x i8], align 1
  %_1 = alloca [8 x i8], align 8
  store ptr %0, ptr %_1, align 8
    #dbg_declare(ptr %_1, !258, !DIExpression(), !260)
    #dbg_declare(ptr %_2, !259, !DIExpression(), !260)
; invoke std::rt::lang_start::{{closure}}
  %_0 = invoke i32 @"_ZN3std2rt10lang_start28_$u7b$$u7b$closure$u7d$$u7d$17h975e66f67ae81916E"(ptr align 8 %_1)
          to label %bb1 unwind label %cleanup, !dbg !260

bb3:                                              ; preds = %cleanup
  %2 = load ptr, ptr %1, align 8, !dbg !260
  %3 = getelementptr inbounds i8, ptr %1, i64 8, !dbg !260
  %4 = load i32, ptr %3, align 8, !dbg !260
  %5 = insertvalue { ptr, i32 } poison, ptr %2, 0, !dbg !260
  %6 = insertvalue { ptr, i32 } %5, i32 %4, 1, !dbg !260
  resume { ptr, i32 } %6, !dbg !260

cleanup:                                          ; preds = %start
  %7 = landingpad { ptr, i32 }
          cleanup
  %8 = extractvalue { ptr, i32 } %7, 0
  %9 = extractvalue { ptr, i32 } %7, 1
  store ptr %8, ptr %1, align 8
  %10 = getelementptr inbounds i8, ptr %1, i64 8
  store i32 %9, ptr %10, align 8
  br label %bb3

bb1:                                              ; preds = %start
  ret i32 %_0, !dbg !260
}

; core::ops::function::FnOnce::call_once
; Function Attrs: inlinehint nonlazybind uwtable
define internal void @_ZN4core3ops8function6FnOnce9call_once17hd703a48edda16cd5E(ptr %_1) unnamed_addr #1 !dbg !261 {
start:
  %_1.dbg.spill = alloca [8 x i8], align 8
  %_2 = alloca [0 x i8], align 1
  store ptr %_1, ptr %_1.dbg.spill, align 8
    #dbg_declare(ptr %_1.dbg.spill, !263, !DIExpression(), !267)
    #dbg_declare(ptr %_2, !264, !DIExpression(), !267)
  call void %_1(), !dbg !267
  ret void, !dbg !267
}

; core::ptr::drop_in_place<dp_ex::Cat>
; Function Attrs: inlinehint nonlazybind uwtable
define internal void @"_ZN4core3ptr31drop_in_place$LT$dp_ex..Cat$GT$17h9aa1b5c63807ed14E"(ptr align 1 %_1) unnamed_addr #1 !dbg !268 {
start:
  %_1.dbg.spill = alloca [8 x i8], align 8
  store ptr %_1, ptr %_1.dbg.spill, align 8
    #dbg_declare(ptr %_1.dbg.spill, !275, !DIExpression(), !278)
  ret void, !dbg !278
}

; core::ptr::drop_in_place<dp_ex::Dog>
; Function Attrs: inlinehint nonlazybind uwtable
define internal void @"_ZN4core3ptr31drop_in_place$LT$dp_ex..Dog$GT$17haa225f289cc6a195E"(ptr align 1 %_1) unnamed_addr #1 !dbg !279 {
start:
  %_1.dbg.spill = alloca [8 x i8], align 8
  store ptr %_1, ptr %_1.dbg.spill, align 8
    #dbg_declare(ptr %_1.dbg.spill, !284, !DIExpression(), !287)
  ret void, !dbg !287
}

; core::ptr::drop_in_place<rand::rngs::thread::ThreadRng>
; Function Attrs: nonlazybind uwtable
define internal void @"_ZN4core3ptr50drop_in_place$LT$rand..rngs..thread..ThreadRng$GT$17h4290c5a380cfe87dE"(ptr align 8 %_1) unnamed_addr #0 !dbg !288 {
start:
  %_1.dbg.spill = alloca [8 x i8], align 8
  store ptr %_1, ptr %_1.dbg.spill, align 8
    #dbg_declare(ptr %_1.dbg.spill, !349, !DIExpression(), !352)
; call core::ptr::drop_in_place<alloc::rc::Rc<core::cell::UnsafeCell<rand::rngs::reseeding::ReseedingRng<rand_chacha::chacha::ChaCha12Core,rand_core::os::OsRng>>>>
  call void @"_ZN4core3ptr171drop_in_place$LT$alloc..rc..Rc$LT$core..cell..UnsafeCell$LT$rand..rngs..reseeding..ReseedingRng$LT$rand_chacha..chacha..ChaCha12Core$C$rand_core..os..OsRng$GT$$GT$$GT$$GT$17h7cd476027919055aE"(ptr align 8 %_1), !dbg !352
  ret void, !dbg !352
}

; core::ptr::drop_in_place<std::rt::lang_start<()>::{{closure}}>
; Function Attrs: inlinehint nonlazybind uwtable
define internal void @"_ZN4core3ptr85drop_in_place$LT$std..rt..lang_start$LT$$LP$$RP$$GT$..$u7b$$u7b$closure$u7d$$u7d$$GT$17h0c91bb19f0a043fdE"(ptr align 8 %_1) unnamed_addr #1 !dbg !353 {
start:
  %_1.dbg.spill = alloca [8 x i8], align 8
  store ptr %_1, ptr %_1.dbg.spill, align 8
    #dbg_declare(ptr %_1.dbg.spill, !357, !DIExpression(), !360)
  ret void, !dbg !360
}

; rand::rng::Rng::random
; Function Attrs: inlinehint nonlazybind uwtable
define internal zeroext i1 @_ZN4rand3rng3Rng6random17he47c0a49024989aaE(ptr align 8 %self) unnamed_addr #1 !dbg !361 {
start:
  %self.dbg.spill = alloca [8 x i8], align 8
  store ptr %self, ptr %self.dbg.spill, align 8
    #dbg_declare(ptr %self.dbg.spill, !370, !DIExpression(), !374)
; call rand::distr::other::<impl rand::distr::distribution::Distribution<bool> for rand::distr::StandardUniform>::sample
  %_0 = call zeroext i1 @"_ZN4rand5distr5other110_$LT$impl$u20$rand..distr..distribution..Distribution$LT$bool$GT$$u20$for$u20$rand..distr..StandardUniform$GT$6sample17he90ea3740add583dE"(ptr align 1 inttoptr (i64 1 to ptr), ptr align 8 %self), !dbg !375
  ret i1 %_0, !dbg !376
}

; rand::rngs::reseeding::ReseedingCore<R,Rsdr>::reseed_and_generate
; Function Attrs: noinline nonlazybind uwtable
define internal void @"_ZN4rand4rngs9reseeding29ReseedingCore$LT$R$C$Rsdr$GT$19reseed_and_generate17h13935bc7e637f19cE"(ptr align 16 %self, ptr align 4 %0) unnamed_addr #2 !dbg !377 {
start:
  %e.dbg.spill = alloca [4 x i8], align 4
  %num_bytes.dbg.spill = alloca [8 x i8], align 8
  %self.dbg.spill = alloca [8 x i8], align 8
  %_14 = alloca [1 x i8], align 1
  %_6 = alloca [4 x i8], align 4
  %results = alloca [8 x i8], align 8
  store ptr %0, ptr %results, align 8
  store ptr %self, ptr %self.dbg.spill, align 8
    #dbg_declare(ptr %self.dbg.spill, !380, !DIExpression(), !405)
    #dbg_declare(ptr %results, !381, !DIExpression(), !406)
  store i8 0, ptr %_14, align 1, !dbg !407
; call <&mut T as core::convert::AsRef<U>>::as_ref
  %1 = call { ptr, i64 } @"_ZN63_$LT$$RF$mut$u20$T$u20$as$u20$core..convert..AsRef$LT$U$GT$$GT$6as_ref17hcf4f85feb7206a28E"(ptr align 8 %results), !dbg !408
  %_4.0 = extractvalue { ptr, i64 } %1, 0, !dbg !408
  %_4.1 = extractvalue { ptr, i64 } %1, 1, !dbg !408
; call core::mem::size_of_val
  %num_bytes = call i64 @_ZN4core3mem11size_of_val17h6d9e552afa58affdE(ptr align 4 %_4.0, i64 %_4.1), !dbg !409
  store i64 %num_bytes, ptr %num_bytes.dbg.spill, align 8, !dbg !409
    #dbg_declare(ptr %num_bytes.dbg.spill, !382, !DIExpression(), !410)
  store i8 1, ptr %_14, align 1, !dbg !411
; call rand::rngs::reseeding::ReseedingCore<R,Rsdr>::reseed
  %2 = call i32 @"_ZN4rand4rngs9reseeding29ReseedingCore$LT$R$C$Rsdr$GT$6reseed17h8e26f388e23e8972E"(ptr align 16 %self), !dbg !411
  store i32 %2, ptr %_6, align 4, !dbg !411
  %3 = load i32, ptr %_6, align 4, !dbg !411
  %4 = icmp eq i32 %3, 0, !dbg !411
  %_7 = select i1 %4, i64 0, i64 1, !dbg !411
  %5 = trunc nuw i64 %_7 to i1, !dbg !412
  br i1 %5, label %bb4, label %bb10, !dbg !412

bb4:                                              ; preds = %start
  store i8 0, ptr %_14, align 1, !dbg !413
  %e = load i32, ptr %_6, align 4, !dbg !413
  store i32 %e, ptr %e.dbg.spill, align 4, !dbg !413
    #dbg_declare(ptr %e.dbg.spill, !384, !DIExpression(), !413)
  br label %bb10, !dbg !414

bb10:                                             ; preds = %bb4, %start
  %6 = load i32, ptr %_6, align 4, !dbg !414
  %7 = icmp eq i32 %6, 0, !dbg !414
  %_15 = select i1 %7, i64 0, i64 1, !dbg !414
  %8 = trunc nuw i64 %_15 to i1, !dbg !414
  br i1 %8, label %bb8, label %bb7, !dbg !414

bb8:                                              ; preds = %bb10
  %9 = load i8, ptr %_14, align 1, !dbg !414
  %10 = trunc nuw i8 %9 to i1, !dbg !414
  br i1 %10, label %bb9, label %bb7, !dbg !414

bb7:                                              ; preds = %bb9, %bb8, %bb10
  store i8 0, ptr %_14, align 1, !dbg !414
  %11 = getelementptr inbounds i8, ptr %self, i64 48, !dbg !415
  %_9 = load i64, ptr %11, align 16, !dbg !415
  %12 = call { i64, i1 } @llvm.ssub.with.overflow.i64(i64 %_9, i64 %num_bytes), !dbg !415
  %_11.0 = extractvalue { i64, i1 } %12, 0, !dbg !415
  %_11.1 = extractvalue { i64, i1 } %12, 1, !dbg !415
  br i1 %_11.1, label %panic, label %bb5, !dbg !415

bb9:                                              ; preds = %bb8
  br label %bb7, !dbg !414

bb5:                                              ; preds = %bb7
  %13 = getelementptr inbounds i8, ptr %self, i64 56, !dbg !416
  store i64 %_11.0, ptr %13, align 8, !dbg !416
  %14 = load ptr, ptr %results, align 8, !dbg !417
; call <rand_chacha::chacha::ChaCha12Core as rand_core::block::BlockRngCore>::generate
  call void @"_ZN84_$LT$rand_chacha..chacha..ChaCha12Core$u20$as$u20$rand_core..block..BlockRngCore$GT$8generate17h30baf41324780ba0E"(ptr align 16 %self, ptr align 4 %14), !dbg !417
  ret void, !dbg !418

panic:                                            ; preds = %bb7
; call core::panicking::panic_const::panic_const_sub_overflow
  call void @_ZN4core9panicking11panic_const24panic_const_sub_overflow17hab14e776658d8858E(ptr align 8 @alloc_0f452729da712ce8d3f5ab443d8c0d6b) #9, !dbg !415
  unreachable, !dbg !415

bb11:                                             ; No predecessors!
  unreachable, !dbg !419
}

; rand::distr::other::<impl rand::distr::distribution::Distribution<bool> for rand::distr::StandardUniform>::sample
; Function Attrs: inlinehint nonlazybind uwtable
define internal zeroext i1 @"_ZN4rand5distr5other110_$LT$impl$u20$rand..distr..distribution..Distribution$LT$bool$GT$$u20$for$u20$rand..distr..StandardUniform$GT$6sample17he90ea3740add583dE"(ptr align 1 %self, ptr align 8 %rng) unnamed_addr #1 !dbg !420 {
start:
  %self.dbg.spill.i3 = alloca [8 x i8], align 8
  %self.dbg.spill.i1 = alloca [8 x i8], align 8
  %self.dbg.spill.i.i = alloca [8 x i8], align 8
  %rng.dbg.spill.i = alloca [8 x i8], align 8
  %self.dbg.spill.i = alloca [8 x i8], align 8
  %rng.dbg.spill = alloca [8 x i8], align 8
  %self.dbg.spill = alloca [8 x i8], align 8
  store ptr %self, ptr %self.dbg.spill, align 8
    #dbg_declare(ptr %self.dbg.spill, !430, !DIExpression(), !434)
  store ptr %rng, ptr %rng.dbg.spill, align 8
    #dbg_declare(ptr %rng.dbg.spill, !431, !DIExpression(), !435)
  store ptr %rng, ptr %self.dbg.spill.i, align 8
    #dbg_declare(ptr %self.dbg.spill.i, !436, !DIExpression(), !446)
  store ptr %rng, ptr %self.dbg.spill.i1, align 8
    #dbg_declare(ptr %self.dbg.spill.i1, !448, !DIExpression(), !457)
    #dbg_declare(ptr %self.dbg.spill.i1, !459, !DIExpression(), !466)
  %_3.i = load ptr, ptr %rng, align 8, !dbg !468
  %_0.i2 = getelementptr inbounds i8, ptr %_3.i, i64 16, !dbg !476
  store ptr %_0.i2, ptr %self.dbg.spill.i.i, align 8
    #dbg_declare(ptr %self.dbg.spill.i.i, !477, !DIExpression(), !485)
  %_7.i = ptrtoint ptr %_0.i2 to i64, !dbg !487
  %_8.i = icmp eq i64 %_7.i, 0, !dbg !487
  %_10.i = xor i1 %_8.i, true, !dbg !487
  br i1 %_10.i, label %"_ZN68_$LT$rand..rngs..thread..ThreadRng$u20$as$u20$rand_core..RngCore$GT$8next_u3217h096f0839c6fdbe67E.exit", label %panic.i, !dbg !487

panic.i:                                          ; preds = %start
; call core::panicking::panic_null_pointer_dereference
  call void @_ZN4core9panicking30panic_null_pointer_dereference17hf679854e69c25502E(ptr align 8 @alloc_44e88542c34eba4578126ec36d62313a) #10, !dbg !487
  unreachable, !dbg !487

"_ZN68_$LT$rand..rngs..thread..ThreadRng$u20$as$u20$rand_core..RngCore$GT$8next_u3217h096f0839c6fdbe67E.exit": ; preds = %start
  store ptr %_0.i2, ptr %rng.dbg.spill.i, align 8, !dbg !487
    #dbg_declare(ptr %rng.dbg.spill.i, !443, !DIExpression(), !488)
  store ptr %_0.i2, ptr %self.dbg.spill.i3, align 8
    #dbg_declare(ptr %self.dbg.spill.i3, !489, !DIExpression(), !495)
; call <rand_core::block::BlockRng<R> as rand_core::RngCore>::next_u32
  %_0.i4 = call i32 @"_ZN74_$LT$rand_core..block..BlockRng$LT$R$GT$$u20$as$u20$rand_core..RngCore$GT$8next_u3217h5ba689e9c842bbddE"(ptr align 16 %_0.i2), !dbg !497
  %_0 = icmp slt i32 %_0.i4, 0, !dbg !498
  ret i1 %_0, !dbg !499
}

; <() as std::process::Termination>::report
; Function Attrs: inlinehint nonlazybind uwtable
define internal i8 @"_ZN54_$LT$$LP$$RP$$u20$as$u20$std..process..Termination$GT$6report17h61953a0fd5719ceaE"() unnamed_addr #1 !dbg !500 {
start:
  %_1.dbg.spill = alloca [0 x i8], align 1
    #dbg_declare(ptr %_1.dbg.spill, !505, !DIExpression(), !506)
  ret i8 0, !dbg !507
}

; <&mut T as core::convert::AsRef<U>>::as_ref
; Function Attrs: inlinehint nonlazybind uwtable
define internal { ptr, i64 } @"_ZN63_$LT$$RF$mut$u20$T$u20$as$u20$core..convert..AsRef$LT$U$GT$$GT$6as_ref17hcf4f85feb7206a28E"(ptr align 8 %self) unnamed_addr #1 !dbg !508 {
start:
  %self.dbg.spill = alloca [8 x i8], align 8
  store ptr %self, ptr %self.dbg.spill, align 8
    #dbg_declare(ptr %self.dbg.spill, !516, !DIExpression(), !520)
  %_3 = load ptr, ptr %self, align 8, !dbg !521
; call <rand_chacha::chacha::Array64<T> as core::convert::AsRef<[T]>>::as_ref
  %0 = call { ptr, i64 } @"_ZN97_$LT$rand_chacha..chacha..Array64$LT$T$GT$$u20$as$u20$core..convert..AsRef$LT$$u5b$T$u5d$$GT$$GT$6as_ref17hc3771d368a6e604aE"(ptr align 4 %_3), !dbg !522
  %_0.0 = extractvalue { ptr, i64 } %0, 0, !dbg !522
  %_0.1 = extractvalue { ptr, i64 } %0, 1, !dbg !522
  %1 = insertvalue { ptr, i64 } poison, ptr %_0.0, 0, !dbg !523
  %2 = insertvalue { ptr, i64 } %1, i64 %_0.1, 1, !dbg !523
  ret { ptr, i64 } %2, !dbg !523
}

; <rand_core::block::BlockRng<R> as rand_core::RngCore>::next_u32
; Function Attrs: inlinehint nonlazybind uwtable
define internal i32 @"_ZN74_$LT$rand_core..block..BlockRng$LT$R$GT$$u20$as$u20$rand_core..RngCore$GT$8next_u3217h5ba689e9c842bbddE"(ptr align 16 %self) unnamed_addr #1 !dbg !524 {
start:
  %value.dbg.spill = alloca [4 x i8], align 4
  %self.dbg.spill = alloca [8 x i8], align 8
  store ptr %self, ptr %self.dbg.spill, align 8
    #dbg_declare(ptr %self.dbg.spill, !531, !DIExpression(), !534)
  %0 = getelementptr inbounds i8, ptr %self, i64 320, !dbg !535
  %_3 = load i64, ptr %0, align 16, !dbg !535
; call <rand_chacha::chacha::Array64<T> as core::convert::AsRef<[T]>>::as_ref
  %1 = call { ptr, i64 } @"_ZN97_$LT$rand_chacha..chacha..Array64$LT$T$GT$$u20$as$u20$core..convert..AsRef$LT$$u5b$T$u5d$$GT$$GT$6as_ref17hc3771d368a6e604aE"(ptr align 4 %self), !dbg !536
  %_5.0 = extractvalue { ptr, i64 } %1, 0, !dbg !536
  %_5.1 = extractvalue { ptr, i64 } %1, 1, !dbg !536
  %_2 = icmp uge i64 %_3, %_5.1, !dbg !535
  br i1 %_2, label %bb2, label %bb3, !dbg !535

bb3:                                              ; preds = %bb2, %start
; call <rand_chacha::chacha::Array64<T> as core::convert::AsRef<[T]>>::as_ref
  %2 = call { ptr, i64 } @"_ZN97_$LT$rand_chacha..chacha..Array64$LT$T$GT$$u20$as$u20$core..convert..AsRef$LT$$u5b$T$u5d$$GT$$GT$6as_ref17hc3771d368a6e604aE"(ptr align 4 %self), !dbg !537
  %_8.0 = extractvalue { ptr, i64 } %2, 0, !dbg !537
  %_8.1 = extractvalue { ptr, i64 } %2, 1, !dbg !537
  %3 = getelementptr inbounds i8, ptr %self, i64 320, !dbg !538
  %_10 = load i64, ptr %3, align 16, !dbg !538
  %_12 = icmp ult i64 %_10, %_8.1, !dbg !537
  br i1 %_12, label %bb5, label %panic, !dbg !537

bb2:                                              ; preds = %start
; call rand_core::block::BlockRng<R>::generate_and_set
  call void @"_ZN9rand_core5block17BlockRng$LT$R$GT$16generate_and_set17h815b35b30d5e012dE"(ptr align 16 %self, i64 0), !dbg !539
  br label %bb3, !dbg !539

bb5:                                              ; preds = %bb3
  %4 = getelementptr inbounds nuw i32, ptr %_8.0, i64 %_10, !dbg !537
  %value = load i32, ptr %4, align 4, !dbg !537
  store i32 %value, ptr %value.dbg.spill, align 4, !dbg !537
    #dbg_declare(ptr %value.dbg.spill, !532, !DIExpression(), !540)
  %5 = getelementptr inbounds i8, ptr %self, i64 320, !dbg !541
  %6 = load i64, ptr %5, align 16, !dbg !541
  %7 = call { i64, i1 } @llvm.uadd.with.overflow.i64(i64 %6, i64 1), !dbg !541
  %_13.0 = extractvalue { i64, i1 } %7, 0, !dbg !541
  %_13.1 = extractvalue { i64, i1 } %7, 1, !dbg !541
  br i1 %_13.1, label %panic1, label %bb6, !dbg !541

panic:                                            ; preds = %bb3
; call core::panicking::panic_bounds_check
  call void @_ZN4core9panicking18panic_bounds_check17h8ced4c0cdca08f31E(i64 %_10, i64 %_8.1, ptr align 8 @alloc_4369ed36148cc5f7d43728cca87a7ae1) #9, !dbg !537
  unreachable, !dbg !537

bb6:                                              ; preds = %bb5
  %8 = getelementptr inbounds i8, ptr %self, i64 320, !dbg !541
  store i64 %_13.0, ptr %8, align 16, !dbg !541
  ret i32 %value, !dbg !542

panic1:                                           ; preds = %bb5
; call core::panicking::panic_const::panic_const_add_overflow
  call void @_ZN4core9panicking11panic_const24panic_const_add_overflow17hf9fdf5c752a7aa23E(ptr align 8 @alloc_7c5011c76e44913c13e04d8d1e6d96d0) #9, !dbg !541
  unreachable, !dbg !541
}

; <rand_chacha::chacha::ChaCha12Core as rand_core::block::BlockRngCore>::generate
; Function Attrs: inlinehint nonlazybind uwtable
define internal void @"_ZN84_$LT$rand_chacha..chacha..ChaCha12Core$u20$as$u20$rand_core..block..BlockRngCore$GT$8generate17h30baf41324780ba0E"(ptr align 16 %self, ptr align 4 %r) unnamed_addr #1 !dbg !543 {
start:
  %out.dbg.spill.i = alloca [8 x i8], align 8
  %drounds.dbg.spill.i = alloca [4 x i8], align 4
  %self.dbg.spill.i = alloca [8 x i8], align 8
  %r.dbg.spill = alloca [8 x i8], align 8
  %self.dbg.spill = alloca [8 x i8], align 8
  store ptr %self, ptr %self.dbg.spill, align 8
    #dbg_declare(ptr %self.dbg.spill, !550, !DIExpression(), !552)
  store ptr %r, ptr %r.dbg.spill, align 8
    #dbg_declare(ptr %r.dbg.spill, !551, !DIExpression(), !553)
  store ptr %self, ptr %self.dbg.spill.i, align 8
    #dbg_declare(ptr %self.dbg.spill.i, !554, !DIExpression(), !565)
  store i32 6, ptr %drounds.dbg.spill.i, align 4
    #dbg_declare(ptr %drounds.dbg.spill.i, !563, !DIExpression(), !567)
  store ptr %r, ptr %out.dbg.spill.i, align 8
    #dbg_declare(ptr %out.dbg.spill.i, !564, !DIExpression(), !568)
; call rand_chacha::guts::refill_wide
  call void @_ZN11rand_chacha4guts11refill_wide17hb2f7c5a521484136E(ptr align 16 %self, i32 6, ptr align 4 %r), !dbg !569
  ret void, !dbg !570
}

; rand_core::block::BlockRng<R>::generate_and_set
; Function Attrs: inlinehint nonlazybind uwtable
define internal void @"_ZN9rand_core5block17BlockRng$LT$R$GT$16generate_and_set17h815b35b30d5e012dE"(ptr align 16 %self, i64 %index) unnamed_addr #1 !dbg !571 {
start:
  %index.dbg.spill = alloca [8 x i8], align 8
  %self.dbg.spill = alloca [8 x i8], align 8
  store ptr %self, ptr %self.dbg.spill, align 8
    #dbg_declare(ptr %self.dbg.spill, !576, !DIExpression(), !578)
  store i64 %index, ptr %index.dbg.spill, align 8
    #dbg_declare(ptr %index.dbg.spill, !577, !DIExpression(), !579)
; call <rand_chacha::chacha::Array64<T> as core::convert::AsRef<[T]>>::as_ref
  %0 = call { ptr, i64 } @"_ZN97_$LT$rand_chacha..chacha..Array64$LT$T$GT$$u20$as$u20$core..convert..AsRef$LT$$u5b$T$u5d$$GT$$GT$6as_ref17hc3771d368a6e604aE"(ptr align 4 %self), !dbg !580
  %_5.0 = extractvalue { ptr, i64 } %0, 0, !dbg !580
  %_5.1 = extractvalue { ptr, i64 } %0, 1, !dbg !580
  %_3 = icmp ult i64 %index, %_5.1, !dbg !581
  br i1 %_3, label %bb2, label %bb3, !dbg !581

bb3:                                              ; preds = %start
; call core::panicking::panic
  call void @_ZN4core9panicking5panic17h4e529a542afba437E(ptr align 1 @alloc_b5ecac47f1e18ea8d6fd4b5387a95943, i64 53, ptr align 8 @alloc_6905b1c9ddc3800ad9fabbcb13977105) #9, !dbg !582
  unreachable, !dbg !582

bb2:                                              ; preds = %start
  %_9 = getelementptr inbounds i8, ptr %self, i64 256, !dbg !583
; call <rand::rngs::reseeding::ReseedingCore<R,Rsdr> as rand_core::block::BlockRngCore>::generate
  call void @"_ZN103_$LT$rand..rngs..reseeding..ReseedingCore$LT$R$C$Rsdr$GT$$u20$as$u20$rand_core..block..BlockRngCore$GT$8generate17h65f4881e2030d610E"(ptr align 16 %_9, ptr align 4 %self), !dbg !583
  %1 = getelementptr inbounds i8, ptr %self, i64 320, !dbg !584
  store i64 %index, ptr %1, align 16, !dbg !584
  ret void, !dbg !585
}

; <dp_ex::Dog as dp_ex::Animal>::speak
; Function Attrs: nonlazybind uwtable
define internal void @"_ZN44_$LT$dp_ex..Dog$u20$as$u20$dp_ex..Animal$GT$5speak17had468e7662b92aa1E"(ptr align 1 %self) unnamed_addr #0 !dbg !586 {
start:
  %self.dbg.spill = alloca [8 x i8], align 8
  %_3 = alloca [48 x i8], align 8
  store ptr %self, ptr %self.dbg.spill, align 8
    #dbg_declare(ptr %self.dbg.spill, !593, !DIExpression(), !594)
; call core::fmt::Arguments::new_const
  call void @_ZN4core3fmt9Arguments9new_const17h5a4b4947710cd61bE(ptr sret([48 x i8]) align 8 %_3, ptr align 8 @alloc_ec4fa215300b117d5ab20e2368000be2), !dbg !595
; call std::io::stdio::_print
  call void @_ZN3std2io5stdio6_print17he3d109100110923bE(ptr align 8 %_3), !dbg !595
  ret void, !dbg !596
}

; <dp_ex::Cat as dp_ex::Animal>::speak
; Function Attrs: nonlazybind uwtable
define internal void @"_ZN44_$LT$dp_ex..Cat$u20$as$u20$dp_ex..Animal$GT$5speak17h504ab8d43430beb1E"(ptr align 1 %self) unnamed_addr #0 !dbg !597 {
start:
  %self.dbg.spill = alloca [8 x i8], align 8
  %_3 = alloca [48 x i8], align 8
  store ptr %self, ptr %self.dbg.spill, align 8
    #dbg_declare(ptr %self.dbg.spill, !603, !DIExpression(), !604)
; call core::fmt::Arguments::new_const
  call void @_ZN4core3fmt9Arguments9new_const17h5a4b4947710cd61bE(ptr sret([48 x i8]) align 8 %_3, ptr align 8 @alloc_000bc512779c9a763a8aa84ee52b6421), !dbg !605
; call std::io::stdio::_print
  call void @_ZN3std2io5stdio6_print17he3d109100110923bE(ptr align 8 %_3), !dbg !605
  ret void, !dbg !606
}

; dp_ex::dyn_dp
; Function Attrs: nonlazybind uwtable
define internal void @_ZN5dp_ex6dyn_dp17h2163eacfb0f4ef0dE() unnamed_addr #0 personality ptr @rust_eh_personality !dbg !607 {
start:
  %0 = alloca [16 x i8], align 8
  %rng = alloca [8 x i8], align 8
  %a = alloca [16 x i8], align 8
    #dbg_declare(ptr %a, !609, !DIExpression(), !621)
    #dbg_declare(ptr %rng, !619, !DIExpression(), !622)
; call rand::rngs::thread::rng
  %1 = call ptr @_ZN4rand4rngs6thread3rng17h445d2230ed7f88faE(), !dbg !623
  store ptr %1, ptr %rng, align 8, !dbg !623
; invoke rand::rng::Rng::random
  %_3 = invoke zeroext i1 @_ZN4rand3rng3Rng6random17he47c0a49024989aaE(ptr align 8 %rng)
          to label %bb2 unwind label %cleanup, !dbg !624

bb8:                                              ; preds = %cleanup
; invoke core::ptr::drop_in_place<rand::rngs::thread::ThreadRng>
  invoke void @"_ZN4core3ptr50drop_in_place$LT$rand..rngs..thread..ThreadRng$GT$17h4290c5a380cfe87dE"(ptr align 8 %rng) #11
          to label %bb9 unwind label %terminate, !dbg !625

cleanup:                                          ; preds = %bb5, %start
  %2 = landingpad { ptr, i32 }
          cleanup
  %3 = extractvalue { ptr, i32 } %2, 0
  %4 = extractvalue { ptr, i32 } %2, 1
  store ptr %3, ptr %0, align 8
  %5 = getelementptr inbounds i8, ptr %0, i64 8
  store i32 %4, ptr %5, align 8
  br label %bb8

bb2:                                              ; preds = %start
  br i1 %_3, label %bb3, label %bb4, !dbg !624

bb4:                                              ; preds = %bb2
  store ptr inttoptr (i64 1 to ptr), ptr %a, align 8, !dbg !626
  %6 = getelementptr inbounds i8, ptr %a, i64 8, !dbg !626
  store ptr @vtable.1, ptr %6, align 8, !dbg !626
  br label %bb5, !dbg !627

bb3:                                              ; preds = %bb2
  store ptr inttoptr (i64 1 to ptr), ptr %a, align 8, !dbg !628
  %7 = getelementptr inbounds i8, ptr %a, i64 8, !dbg !628
  store ptr @vtable.2, ptr %7, align 8, !dbg !628
  br label %bb5, !dbg !627

bb5:                                              ; preds = %bb3, %bb4
  %_8.0 = load ptr, ptr %a, align 8, !dbg !629
  %8 = getelementptr inbounds i8, ptr %a, i64 8, !dbg !629
  %_8.1 = load ptr, ptr %8, align 8, !dbg !629
  %9 = getelementptr inbounds i8, ptr %_8.1, i64 24, !dbg !629
  %10 = load ptr, ptr %9, align 8, !dbg !629, !invariant.load !23, !nonnull !23
  invoke void %10(ptr align 1 %_8.0)
          to label %bb6 unwind label %cleanup, !dbg !629

bb6:                                              ; preds = %bb5
; call core::ptr::drop_in_place<rand::rngs::thread::ThreadRng>
  call void @"_ZN4core3ptr50drop_in_place$LT$rand..rngs..thread..ThreadRng$GT$17h4290c5a380cfe87dE"(ptr align 8 %rng), !dbg !625
  ret void, !dbg !630

terminate:                                        ; preds = %bb8
  %11 = landingpad { ptr, i32 }
          filter [0 x ptr] zeroinitializer
  %12 = extractvalue { ptr, i32 } %11, 0
  %13 = extractvalue { ptr, i32 } %11, 1
; call core::panicking::panic_in_cleanup
  call void @_ZN4core9panicking16panic_in_cleanup17h4898e2af8dc1f529E() #12, !dbg !631
  unreachable, !dbg !631

bb9:                                              ; preds = %bb8
  %14 = load ptr, ptr %0, align 8, !dbg !631
  %15 = getelementptr inbounds i8, ptr %0, i64 8, !dbg !631
  %16 = load i32, ptr %15, align 8, !dbg !631
  %17 = insertvalue { ptr, i32 } poison, ptr %14, 0, !dbg !631
  %18 = insertvalue { ptr, i32 } %17, i32 %16, 1, !dbg !631
  resume { ptr, i32 } %18, !dbg !631
}

; dp_ex::static_dp
; Function Attrs: nonlazybind uwtable
define internal void @_ZN5dp_ex9static_dp17h12c823b24041d8eeE() unnamed_addr #0 !dbg !632 {
start:
  %cat.dbg.spill = alloca [8 x i8], align 8
  store ptr inttoptr (i64 1 to ptr), ptr %cat.dbg.spill, align 8, !dbg !636
    #dbg_declare(ptr %cat.dbg.spill, !634, !DIExpression(), !637)
; call <dp_ex::Cat as dp_ex::Animal>::speak
  call void @"_ZN44_$LT$dp_ex..Cat$u20$as$u20$dp_ex..Animal$GT$5speak17h504ab8d43430beb1E"(ptr align 1 inttoptr (i64 1 to ptr)), !dbg !638
  ret void, !dbg !639
}

; dp_ex::main
; Function Attrs: nonlazybind uwtable
define internal void @_ZN5dp_ex4main17hfaa1a74bb1a25d42E() unnamed_addr #0 !dbg !640 {
start:
; call dp_ex::dyn_dp
  call void @_ZN5dp_ex6dyn_dp17h2163eacfb0f4ef0dE(), !dbg !641
; call dp_ex::static_dp
  call void @_ZN5dp_ex9static_dp17h12c823b24041d8eeE(), !dbg !642
  ret void, !dbg !643
}

; Function Attrs: nocallback nofree nosync nounwind speculatable willreturn memory(none)
declare { i64, i1 } @llvm.ssub.with.overflow.i64(i64, i64) #3

; core::panicking::panic_const::panic_const_sub_overflow
; Function Attrs: cold noinline noreturn nonlazybind uwtable
declare void @_ZN4core9panicking11panic_const24panic_const_sub_overflow17hab14e776658d8858E(ptr align 8) unnamed_addr #4

; rand_chacha::guts::refill_wide
; Function Attrs: nonlazybind uwtable
declare void @_ZN11rand_chacha4guts11refill_wide17hb2f7c5a521484136E(ptr align 16, i32, ptr align 4) unnamed_addr #0

; std::rt::lang_start_internal
; Function Attrs: nonlazybind uwtable
declare i64 @_ZN3std2rt19lang_start_internal17h179a86731aa5c4aaE(ptr align 1, ptr align 8, i64, ptr, i8) unnamed_addr #0

; Function Attrs: nounwind nonlazybind uwtable
declare i32 @rust_eh_personality(i32, i32, i64, ptr, ptr) unnamed_addr #5

; core::ptr::drop_in_place<alloc::rc::Rc<core::cell::UnsafeCell<rand::rngs::reseeding::ReseedingRng<rand_chacha::chacha::ChaCha12Core,rand_core::os::OsRng>>>>
; Function Attrs: nonlazybind uwtable
declare void @"_ZN4core3ptr171drop_in_place$LT$alloc..rc..Rc$LT$core..cell..UnsafeCell$LT$rand..rngs..reseeding..ReseedingRng$LT$rand_chacha..chacha..ChaCha12Core$C$rand_core..os..OsRng$GT$$GT$$GT$$GT$17h7cd476027919055aE"(ptr align 8) unnamed_addr #0

; rand::rngs::reseeding::ReseedingCore<R,Rsdr>::reseed
; Function Attrs: nonlazybind uwtable
declare i32 @"_ZN4rand4rngs9reseeding29ReseedingCore$LT$R$C$Rsdr$GT$6reseed17h8e26f388e23e8972E"(ptr align 16) unnamed_addr #0

; <rand_chacha::chacha::Array64<T> as core::convert::AsRef<[T]>>::as_ref
; Function Attrs: nonlazybind uwtable
declare { ptr, i64 } @"_ZN97_$LT$rand_chacha..chacha..Array64$LT$T$GT$$u20$as$u20$core..convert..AsRef$LT$$u5b$T$u5d$$GT$$GT$6as_ref17hc3771d368a6e604aE"(ptr align 4) unnamed_addr #0

; core::panicking::panic_null_pointer_dereference
; Function Attrs: cold minsize noinline noreturn nounwind nonlazybind optsize uwtable
declare void @_ZN4core9panicking30panic_null_pointer_dereference17hf679854e69c25502E(ptr align 8) unnamed_addr #6

; core::panicking::panic_bounds_check
; Function Attrs: cold minsize noinline noreturn nonlazybind optsize uwtable
declare void @_ZN4core9panicking18panic_bounds_check17h8ced4c0cdca08f31E(i64, i64, ptr align 8) unnamed_addr #7

; Function Attrs: nocallback nofree nosync nounwind speculatable willreturn memory(none)
declare { i64, i1 } @llvm.uadd.with.overflow.i64(i64, i64) #3

; core::panicking::panic_const::panic_const_add_overflow
; Function Attrs: cold noinline noreturn nonlazybind uwtable
declare void @_ZN4core9panicking11panic_const24panic_const_add_overflow17hf9fdf5c752a7aa23E(ptr align 8) unnamed_addr #4

; core::panicking::panic
; Function Attrs: cold noinline noreturn nonlazybind uwtable
declare void @_ZN4core9panicking5panic17h4e529a542afba437E(ptr align 1, i64, ptr align 8) unnamed_addr #4

; core::fmt::Arguments::new_const
; Function Attrs: inlinehint nonlazybind uwtable
declare void @_ZN4core3fmt9Arguments9new_const17h5a4b4947710cd61bE(ptr sret([48 x i8]) align 8, ptr align 8) unnamed_addr #1

; std::io::stdio::_print
; Function Attrs: nonlazybind uwtable
declare void @_ZN3std2io5stdio6_print17he3d109100110923bE(ptr align 8) unnamed_addr #0

; rand::rngs::thread::rng
; Function Attrs: nonlazybind uwtable
declare ptr @_ZN4rand4rngs6thread3rng17h445d2230ed7f88faE() unnamed_addr #0

; core::panicking::panic_in_cleanup
; Function Attrs: cold minsize noinline noreturn nounwind nonlazybind optsize uwtable
declare void @_ZN4core9panicking16panic_in_cleanup17h4898e2af8dc1f529E() unnamed_addr #6

; Function Attrs: nonlazybind
define i32 @main(i32 %0, ptr %1) unnamed_addr #8 {
top:
  %2 = load volatile i8, ptr @__rustc_debug_gdb_scripts_section__, align 1
  %3 = sext i32 %0 to i64
; call std::rt::lang_start
  %4 = call i64 @_ZN3std2rt10lang_start17h27e2b9e2c6bd9d09E(ptr @_ZN5dp_ex4main17hfaa1a74bb1a25d42E, i64 %3, ptr %1, i8 0)
  %5 = trunc i64 %4 to i32
  ret i32 %5
}

attributes #0 = { nonlazybind uwtable "probe-stack"="inline-asm" "target-cpu"="x86-64" }
attributes #1 = { inlinehint nonlazybind uwtable "probe-stack"="inline-asm" "target-cpu"="x86-64" }
attributes #2 = { noinline nonlazybind uwtable "probe-stack"="inline-asm" "target-cpu"="x86-64" }
attributes #3 = { nocallback nofree nosync nounwind speculatable willreturn memory(none) }
attributes #4 = { cold noinline noreturn nonlazybind uwtable "probe-stack"="inline-asm" "target-cpu"="x86-64" }
attributes #5 = { nounwind nonlazybind uwtable "probe-stack"="inline-asm" "target-cpu"="x86-64" }
attributes #6 = { cold minsize noinline noreturn nounwind nonlazybind optsize uwtable "probe-stack"="inline-asm" "target-cpu"="x86-64" }
attributes #7 = { cold minsize noinline noreturn nonlazybind optsize uwtable "probe-stack"="inline-asm" "target-cpu"="x86-64" }
attributes #8 = { nonlazybind "target-cpu"="x86-64" }
attributes #9 = { noreturn }
attributes #10 = { noreturn nounwind }
attributes #11 = { cold }
attributes #12 = { cold noreturn nounwind }

!llvm.module.flags = !{!43, !44, !45, !46, !47}
!llvm.ident = !{!48}
!llvm.dbg.cu = !{!49}

!0 = !DIGlobalVariableExpression(var: !1, expr: !DIExpression())
!1 = distinct !DIGlobalVariable(name: "<std::rt::lang_start::{closure_env#0}<()> as core::ops::function::Fn<()>>::{vtable}", scope: null, file: !2, type: !3, isLocal: true, isDefinition: true)
!2 = !DIFile(filename: "<unknown>", directory: "")
!3 = !DICompositeType(tag: DW_TAG_structure_type, name: "<std::rt::lang_start::{closure_env#0}<()> as core::ops::function::Fn<()>>::{vtable_type}", file: !2, size: 384, align: 64, flags: DIFlagArtificial, elements: !4, vtableHolder: !14, templateParams: !23, identifier: "8c89ff4b196217e389d8cd2a9b7cc0bd")
!4 = !{!5, !8, !10, !11, !12, !13}
!5 = !DIDerivedType(tag: DW_TAG_member, name: "drop_in_place", scope: !3, file: !2, baseType: !6, size: 64, align: 64)
!6 = !DIDerivedType(tag: DW_TAG_pointer_type, name: "*const ()", baseType: !7, size: 64, align: 64, dwarfAddressSpace: 0)
!7 = !DIBasicType(name: "()", encoding: DW_ATE_unsigned)
!8 = !DIDerivedType(tag: DW_TAG_member, name: "size", scope: !3, file: !2, baseType: !9, size: 64, align: 64, offset: 64)
!9 = !DIBasicType(name: "usize", size: 64, encoding: DW_ATE_unsigned)
!10 = !DIDerivedType(tag: DW_TAG_member, name: "align", scope: !3, file: !2, baseType: !9, size: 64, align: 64, offset: 128)
!11 = !DIDerivedType(tag: DW_TAG_member, name: "__method3", scope: !3, file: !2, baseType: !6, size: 64, align: 64, offset: 192)
!12 = !DIDerivedType(tag: DW_TAG_member, name: "__method4", scope: !3, file: !2, baseType: !6, size: 64, align: 64, offset: 256)
!13 = !DIDerivedType(tag: DW_TAG_member, name: "__method5", scope: !3, file: !2, baseType: !6, size: 64, align: 64, offset: 320)
!14 = !DICompositeType(tag: DW_TAG_structure_type, name: "{closure_env#0}<()>", scope: !15, file: !2, size: 64, align: 64, elements: !18, templateParams: !23, identifier: "af6245bba15cb41add62c6071cc22fba")
!15 = !DINamespace(name: "lang_start", scope: !16)
!16 = !DINamespace(name: "rt", scope: !17)
!17 = !DINamespace(name: "std", scope: null)
!18 = !{!19}
!19 = !DIDerivedType(tag: DW_TAG_member, name: "main", scope: !14, file: !2, baseType: !20, size: 64, align: 64)
!20 = !DIDerivedType(tag: DW_TAG_pointer_type, name: "fn()", baseType: !21, size: 64, align: 64, dwarfAddressSpace: 0)
!21 = !DISubroutineType(types: !22)
!22 = !{null}
!23 = !{}
!24 = !DIGlobalVariableExpression(var: !25, expr: !DIExpression())
!25 = distinct !DIGlobalVariable(name: "<dp_ex::Dog as dp_ex::Animal>::{vtable}", scope: null, file: !2, type: !26, isLocal: true, isDefinition: true)
!26 = !DICompositeType(tag: DW_TAG_structure_type, name: "<dp_ex::Dog as dp_ex::Animal>::{vtable_type}", file: !2, size: 256, align: 64, flags: DIFlagArtificial, elements: !27, vtableHolder: !32, templateParams: !23, identifier: "91892a3d193450adcba404a6704a604d")
!27 = !{!28, !29, !30, !31}
!28 = !DIDerivedType(tag: DW_TAG_member, name: "drop_in_place", scope: !26, file: !2, baseType: !6, size: 64, align: 64)
!29 = !DIDerivedType(tag: DW_TAG_member, name: "size", scope: !26, file: !2, baseType: !9, size: 64, align: 64, offset: 64)
!30 = !DIDerivedType(tag: DW_TAG_member, name: "align", scope: !26, file: !2, baseType: !9, size: 64, align: 64, offset: 128)
!31 = !DIDerivedType(tag: DW_TAG_member, name: "__method3", scope: !26, file: !2, baseType: !6, size: 64, align: 64, offset: 192)
!32 = !DICompositeType(tag: DW_TAG_structure_type, name: "Dog", scope: !33, file: !2, align: 8, flags: DIFlagPrivate, elements: !23, identifier: "290d483013cc14e7360ca547b3c74908")
!33 = !DINamespace(name: "dp_ex", scope: null)
!34 = !DIGlobalVariableExpression(var: !35, expr: !DIExpression())
!35 = distinct !DIGlobalVariable(name: "<dp_ex::Cat as dp_ex::Animal>::{vtable}", scope: null, file: !2, type: !36, isLocal: true, isDefinition: true)
!36 = !DICompositeType(tag: DW_TAG_structure_type, name: "<dp_ex::Cat as dp_ex::Animal>::{vtable_type}", file: !2, size: 256, align: 64, flags: DIFlagArtificial, elements: !37, vtableHolder: !42, templateParams: !23, identifier: "205985ee30e2847c386464e7fd8ddc90")
!37 = !{!38, !39, !40, !41}
!38 = !DIDerivedType(tag: DW_TAG_member, name: "drop_in_place", scope: !36, file: !2, baseType: !6, size: 64, align: 64)
!39 = !DIDerivedType(tag: DW_TAG_member, name: "size", scope: !36, file: !2, baseType: !9, size: 64, align: 64, offset: 64)
!40 = !DIDerivedType(tag: DW_TAG_member, name: "align", scope: !36, file: !2, baseType: !9, size: 64, align: 64, offset: 128)
!41 = !DIDerivedType(tag: DW_TAG_member, name: "__method3", scope: !36, file: !2, baseType: !6, size: 64, align: 64, offset: 192)
!42 = !DICompositeType(tag: DW_TAG_structure_type, name: "Cat", scope: !33, file: !2, align: 8, flags: DIFlagPrivate, elements: !23, identifier: "59e5ee0445b939919f6064aa7b582b88")
!43 = !{i32 8, !"PIC Level", i32 2}
!44 = !{i32 7, !"PIE Level", i32 2}
!45 = !{i32 2, !"RtLibUseGOT", i32 1}
!46 = !{i32 7, !"Dwarf Version", i32 4}
!47 = !{i32 2, !"Debug Info Version", i32 3}
!48 = !{!"rustc version 1.87.0-nightly (ecade534c 2025-03-14)"}
!49 = distinct !DICompileUnit(language: DW_LANG_Rust, file: !50, producer: "clang LLVM (rustc version 1.87.0-nightly (ecade534c 2025-03-14))", isOptimized: false, runtimeVersion: 0, emissionKind: FullDebug, globals: !51, splitDebugInlining: false, nameTableKind: None)
!50 = !DIFile(filename: "src/main.rs/@/47mem9q2d6p1mvtu0iveyp842", directory: "/home/np/hack/verifopt/dp-ex")
!51 = !{!0, !24, !34}
!52 = distinct !DISubprogram(name: "generate<rand_chacha::chacha::ChaCha12Core, rand_core::os::OsRng>", linkageName: "_ZN103_$LT$rand..rngs..reseeding..ReseedingCore$LT$R$C$Rsdr$GT$$u20$as$u20$rand_core..block..BlockRngCore$GT$8generate17h65f4881e2030d610E", scope: !54, file: !53, line: 162, type: !58, scopeLine: 162, flags: DIFlagPrototyped, spFlags: DISPFlagLocalToUnit | DISPFlagDefinition, unit: !49, templateParams: !109, retainedNodes: !121)
!53 = !DIFile(filename: "/home/np/.cargo/registry/src/index.crates.io-1949cf8c6b5b557f/rand-0.9.2/src/rngs/reseeding.rs", directory: "", checksumkind: CSK_MD5, checksum: "b59ac7f2685a0e488478c11615cc2565")
!54 = !DINamespace(name: "{impl#4}", scope: !55)
!55 = !DINamespace(name: "reseeding", scope: !56)
!56 = !DINamespace(name: "rngs", scope: !57)
!57 = !DINamespace(name: "rand", scope: null)
!58 = !DISubroutineType(types: !59)
!59 = !{null, !60, !112}
!60 = !DIDerivedType(tag: DW_TAG_pointer_type, name: "&mut rand::rngs::reseeding::ReseedingCore<rand_chacha::chacha::ChaCha12Core, rand_core::os::OsRng>", baseType: !61, size: 64, align: 64, dwarfAddressSpace: 0)
!61 = !DICompositeType(tag: DW_TAG_structure_type, name: "ReseedingCore<rand_chacha::chacha::ChaCha12Core, rand_core::os::OsRng>", scope: !55, file: !2, size: 512, align: 128, flags: DIFlagPrivate, elements: !62, templateParams: !109, identifier: "938ddefd3d165d3356d9d83f9cab5ac4")
!62 = !{!63, !103, !107, !108}
!63 = !DIDerivedType(tag: DW_TAG_member, name: "inner", scope: !61, file: !2, baseType: !64, size: 384, align: 128, flags: DIFlagPrivate)
!64 = !DICompositeType(tag: DW_TAG_structure_type, name: "ChaCha12Core", scope: !65, file: !2, size: 384, align: 128, flags: DIFlagPublic, elements: !67, templateParams: !23, identifier: "733b8c02ec71e28b2aa9439551b35f48")
!65 = !DINamespace(name: "chacha", scope: !66)
!66 = !DINamespace(name: "rand_chacha", scope: null)
!67 = !{!68}
!68 = !DIDerivedType(tag: DW_TAG_member, name: "state", scope: !64, file: !2, baseType: !69, size: 384, align: 128, flags: DIFlagPrivate)
!69 = !DICompositeType(tag: DW_TAG_structure_type, name: "ChaCha", scope: !70, file: !2, size: 384, align: 128, flags: DIFlagPublic, elements: !71, templateParams: !23, identifier: "ec3595cc010c44df24fe6c7070976b76")
!70 = !DINamespace(name: "guts", scope: !66)
!71 = !{!72, !101, !102}
!72 = !DIDerivedType(tag: DW_TAG_member, name: "b", scope: !69, file: !2, baseType: !73, size: 128, align: 128, flags: DIFlagProtected)
!73 = !DICompositeType(tag: DW_TAG_union_type, name: "vec128_storage", scope: !74, file: !2, size: 128, align: 128, elements: !76, templateParams: !23, identifier: "5f668293eba0b644ab87dacb009a2b81")
!74 = !DINamespace(name: "x86_64", scope: !75)
!75 = !DINamespace(name: "ppv_lite86", scope: null)
!76 = !{!77, !82, !87, !92}
!77 = !DIDerivedType(tag: DW_TAG_member, name: "u32x4", scope: !73, file: !2, baseType: !78, size: 128, align: 32)
!78 = !DICompositeType(tag: DW_TAG_array_type, baseType: !79, size: 128, align: 32, elements: !80)
!79 = !DIBasicType(name: "u32", size: 32, encoding: DW_ATE_unsigned)
!80 = !{!81}
!81 = !DISubrange(count: 4, lowerBound: 0)
!82 = !DIDerivedType(tag: DW_TAG_member, name: "u64x2", scope: !73, file: !2, baseType: !83, size: 128, align: 64)
!83 = !DICompositeType(tag: DW_TAG_array_type, baseType: !84, size: 128, align: 64, elements: !85)
!84 = !DIBasicType(name: "u64", size: 64, encoding: DW_ATE_unsigned)
!85 = !{!86}
!86 = !DISubrange(count: 2, lowerBound: 0)
!87 = !DIDerivedType(tag: DW_TAG_member, name: "u128x1", scope: !73, file: !2, baseType: !88, size: 128, align: 128)
!88 = !DICompositeType(tag: DW_TAG_array_type, baseType: !89, size: 128, align: 128, elements: !90)
!89 = !DIBasicType(name: "u128", size: 128, encoding: DW_ATE_unsigned)
!90 = !{!91}
!91 = !DISubrange(count: 1, lowerBound: 0)
!92 = !DIDerivedType(tag: DW_TAG_member, name: "sse2", scope: !73, file: !2, baseType: !93, size: 128, align: 128)
!93 = !DICompositeType(tag: DW_TAG_structure_type, name: "__m128i", scope: !94, file: !2, size: 128, align: 128, flags: DIFlagPublic, elements: !97, templateParams: !23, identifier: "ab2da2cf8a57b425a31dcc9ff8b98d2e")
!94 = !DINamespace(name: "x86", scope: !95)
!95 = !DINamespace(name: "core_arch", scope: !96)
!96 = !DINamespace(name: "core", scope: null)
!97 = !{!98}
!98 = !DIDerivedType(tag: DW_TAG_member, name: "__0", scope: !93, file: !2, baseType: !99, size: 128, align: 64, flags: DIFlagPrivate)
!99 = !DICompositeType(tag: DW_TAG_array_type, baseType: !100, size: 128, align: 64, elements: !85)
!100 = !DIBasicType(name: "i64", size: 64, encoding: DW_ATE_signed)
!101 = !DIDerivedType(tag: DW_TAG_member, name: "c", scope: !69, file: !2, baseType: !73, size: 128, align: 128, offset: 128, flags: DIFlagProtected)
!102 = !DIDerivedType(tag: DW_TAG_member, name: "d", scope: !69, file: !2, baseType: !73, size: 128, align: 128, offset: 256, flags: DIFlagProtected)
!103 = !DIDerivedType(tag: DW_TAG_member, name: "reseeder", scope: !61, file: !2, baseType: !104, align: 8, offset: 512, flags: DIFlagPrivate)
!104 = !DICompositeType(tag: DW_TAG_structure_type, name: "OsRng", scope: !105, file: !2, align: 8, flags: DIFlagPublic, elements: !23, identifier: "9d74b902ebd59f17e34f200c0b06c1c6")
!105 = !DINamespace(name: "os", scope: !106)
!106 = !DINamespace(name: "rand_core", scope: null)
!107 = !DIDerivedType(tag: DW_TAG_member, name: "threshold", scope: !61, file: !2, baseType: !100, size: 64, align: 64, offset: 384, flags: DIFlagPrivate)
!108 = !DIDerivedType(tag: DW_TAG_member, name: "bytes_until_reseed", scope: !61, file: !2, baseType: !100, size: 64, align: 64, offset: 448, flags: DIFlagPrivate)
!109 = !{!110, !111}
!110 = !DITemplateTypeParameter(name: "R", type: !64)
!111 = !DITemplateTypeParameter(name: "Rsdr", type: !104)
!112 = !DIDerivedType(tag: DW_TAG_pointer_type, name: "&mut rand_chacha::chacha::Array64<u32>", baseType: !113, size: 64, align: 64, dwarfAddressSpace: 0)
!113 = !DICompositeType(tag: DW_TAG_structure_type, name: "Array64<u32>", scope: !65, file: !2, size: 2048, align: 32, flags: DIFlagPublic, elements: !114, templateParams: !119, identifier: "7c773f712898a1e813bf5c040fd6f724")
!114 = !{!115}
!115 = !DIDerivedType(tag: DW_TAG_member, name: "__0", scope: !113, file: !2, baseType: !116, size: 2048, align: 32, flags: DIFlagPrivate)
!116 = !DICompositeType(tag: DW_TAG_array_type, baseType: !79, size: 2048, align: 32, elements: !117)
!117 = !{!118}
!118 = !DISubrange(count: 64, lowerBound: 0)
!119 = !{!120}
!120 = !DITemplateTypeParameter(name: "T", type: !79)
!121 = !{!122, !123, !124}
!122 = !DILocalVariable(name: "self", arg: 1, scope: !52, file: !53, line: 162, type: !60)
!123 = !DILocalVariable(name: "results", arg: 2, scope: !52, file: !53, line: 162, type: !112)
!124 = !DILocalVariable(name: "num_bytes", scope: !125, file: !53, line: 169, type: !9, align: 64)
!125 = distinct !DILexicalBlock(scope: !52, file: !53, line: 169, column: 9)
!126 = !DILocation(line: 162, column: 17, scope: !52)
!127 = !DILocation(line: 162, column: 28, scope: !52)
!128 = !DILocation(line: 163, column: 12, scope: !52)
!129 = !DILocation(line: 169, column: 37, scope: !52)
!130 = !DILocation(line: 169, column: 25, scope: !52)
!131 = !DILocation(line: 169, column: 13, scope: !125)
!132 = !DILocation(line: 170, column: 9, scope: !125)
!133 = !DILocation(line: 167, column: 20, scope: !52)
!134 = !DILocation(line: 171, column: 9, scope: !125)
!135 = !DILocation(line: 172, column: 6, scope: !52)
!136 = distinct !DISubprogram(name: "lang_start<()>", linkageName: "_ZN3std2rt10lang_start17h27e2b9e2c6bd9d09E", scope: !16, file: !137, line: 192, type: !138, scopeLine: 192, flags: DIFlagPrototyped, spFlags: DISPFlagLocalToUnit | DISPFlagDefinition, unit: !49, templateParams: !149, retainedNodes: !144)
!137 = !DIFile(filename: "/rustc/ecade534c66478c51c5d3c1d3682dc4beb0ac972/library/std/src/rt.rs", directory: "", checksumkind: CSK_MD5, checksum: "5ed61ab28987f8860d5842313c6741b3")
!138 = !DISubroutineType(types: !139)
!139 = !{!140, !20, !140, !141, !143}
!140 = !DIBasicType(name: "isize", size: 64, encoding: DW_ATE_signed)
!141 = !DIDerivedType(tag: DW_TAG_pointer_type, name: "*const *const u8", baseType: !142, size: 64, align: 64, dwarfAddressSpace: 0)
!142 = !DIDerivedType(tag: DW_TAG_pointer_type, name: "*const u8", baseType: !143, size: 64, align: 64, dwarfAddressSpace: 0)
!143 = !DIBasicType(name: "u8", size: 8, encoding: DW_ATE_unsigned)
!144 = !{!145, !146, !147, !148}
!145 = !DILocalVariable(name: "main", arg: 1, scope: !136, file: !137, line: 193, type: !20)
!146 = !DILocalVariable(name: "argc", arg: 2, scope: !136, file: !137, line: 194, type: !140)
!147 = !DILocalVariable(name: "argv", arg: 3, scope: !136, file: !137, line: 195, type: !141)
!148 = !DILocalVariable(name: "sigpipe", arg: 4, scope: !136, file: !137, line: 196, type: !143)
!149 = !{!150}
!150 = !DITemplateTypeParameter(name: "T", type: !7)
!151 = !DILocation(line: 193, column: 5, scope: !136)
!152 = !DILocation(line: 194, column: 5, scope: !136)
!153 = !DILocation(line: 195, column: 5, scope: !136)
!154 = !DILocation(line: 196, column: 5, scope: !136)
!155 = !DILocation(line: 199, column: 10, scope: !136)
!156 = !DILocation(line: 198, column: 5, scope: !136)
!157 = !DILocation(line: 204, column: 2, scope: !136)
!158 = distinct !DISubprogram(name: "{closure#0}<()>", linkageName: "_ZN3std2rt10lang_start28_$u7b$$u7b$closure$u7d$$u7d$17h975e66f67ae81916E", scope: !15, file: !137, line: 199, type: !159, scopeLine: 199, flags: DIFlagPrototyped, spFlags: DISPFlagLocalToUnit | DISPFlagDefinition, unit: !49, templateParams: !149, retainedNodes: !163)
!159 = !DISubroutineType(types: !160)
!160 = !{!161, !162}
!161 = !DIBasicType(name: "i32", size: 32, encoding: DW_ATE_signed)
!162 = !DIDerivedType(tag: DW_TAG_pointer_type, name: "&std::rt::lang_start::{closure_env#0}<()>", baseType: !14, size: 64, align: 64, dwarfAddressSpace: 0)
!163 = !{!164}
!164 = !DILocalVariable(name: "main", scope: !158, file: !137, line: 193, type: !20, align: 64)
!165 = !DILocation(line: 193, column: 5, scope: !158)
!166 = !DILocation(line: 199, column: 70, scope: !158)
!167 = !DILocation(line: 199, column: 18, scope: !158)
!168 = !DILocalVariable(name: "self", arg: 1, scope: !169, file: !170, line: 2062, type: !171)
!169 = distinct !DISubprogram(name: "to_i32", linkageName: "_ZN3std7process8ExitCode6to_i3217h92b92dfd82d5f0cfE", scope: !171, file: !170, line: 2062, type: !183, scopeLine: 2062, flags: DIFlagPrototyped, spFlags: DISPFlagLocalToUnit | DISPFlagDefinition, unit: !49, templateParams: !23, declaration: !185, retainedNodes: !186)
!170 = !DIFile(filename: "/rustc/ecade534c66478c51c5d3c1d3682dc4beb0ac972/library/std/src/process.rs", directory: "", checksumkind: CSK_MD5, checksum: "dbc7956c9cbb5ca52b3803dc48bc1d09")
!171 = !DICompositeType(tag: DW_TAG_structure_type, name: "ExitCode", scope: !172, file: !2, size: 8, align: 8, flags: DIFlagPublic, elements: !173, templateParams: !23, identifier: "2a02b3ec593bc993a47dec2a49c45bc3")
!172 = !DINamespace(name: "process", scope: !17)
!173 = !{!174}
!174 = !DIDerivedType(tag: DW_TAG_member, name: "__0", scope: !171, file: !2, baseType: !175, size: 8, align: 8, flags: DIFlagPrivate)
!175 = !DICompositeType(tag: DW_TAG_structure_type, name: "ExitCode", scope: !176, file: !2, size: 8, align: 8, flags: DIFlagPublic, elements: !181, templateParams: !23, identifier: "15066b82b8b0ad8f3361e3f49fe0936a")
!176 = !DINamespace(name: "process_common", scope: !177)
!177 = !DINamespace(name: "process", scope: !178)
!178 = !DINamespace(name: "unix", scope: !179)
!179 = !DINamespace(name: "pal", scope: !180)
!180 = !DINamespace(name: "sys", scope: !17)
!181 = !{!182}
!182 = !DIDerivedType(tag: DW_TAG_member, name: "__0", scope: !175, file: !2, baseType: !143, size: 8, align: 8, flags: DIFlagPrivate)
!183 = !DISubroutineType(types: !184)
!184 = !{!161, !171}
!185 = !DISubprogram(name: "to_i32", linkageName: "_ZN3std7process8ExitCode6to_i3217h92b92dfd82d5f0cfE", scope: !171, file: !170, line: 2062, type: !183, scopeLine: 2062, flags: DIFlagPrototyped, spFlags: DISPFlagLocalToUnit, templateParams: !23)
!186 = !{!168}
!187 = !DILocation(line: 2062, column: 19, scope: !169, inlinedAt: !188)
!188 = !DILocation(line: 199, column: 85, scope: !158)
!189 = !DILocation(line: 631, column: 9, scope: !190, inlinedAt: !196)
!190 = distinct !DISubprogram(name: "as_i32", linkageName: "_ZN3std3sys3pal4unix7process14process_common8ExitCode6as_i3217hd6cb0c23f29c3e8aE", scope: !175, file: !191, line: 630, type: !192, scopeLine: 630, flags: DIFlagPrototyped, spFlags: DISPFlagLocalToUnit | DISPFlagDefinition, unit: !49, templateParams: !23, declaration: !195)
!191 = !DIFile(filename: "/rustc/ecade534c66478c51c5d3c1d3682dc4beb0ac972/library/std/src/sys/pal/unix/process/process_common.rs", directory: "", checksumkind: CSK_MD5, checksum: "53377008eaa564ea7afaa2596ee97e68")
!192 = !DISubroutineType(types: !193)
!193 = !{!161, !194}
!194 = !DIDerivedType(tag: DW_TAG_pointer_type, name: "&std::sys::pal::unix::process::process_common::ExitCode", baseType: !175, size: 64, align: 64, dwarfAddressSpace: 0)
!195 = !DISubprogram(name: "as_i32", linkageName: "_ZN3std3sys3pal4unix7process14process_common8ExitCode6as_i3217hd6cb0c23f29c3e8aE", scope: !175, file: !191, line: 630, type: !192, scopeLine: 630, flags: DIFlagPrototyped, spFlags: DISPFlagLocalToUnit, templateParams: !23)
!196 = !DILocation(line: 2063, column: 16, scope: !169, inlinedAt: !188)
!197 = !DILocation(line: 199, column: 93, scope: !158)
!198 = distinct !DISubprogram(name: "__rust_begin_short_backtrace<fn(), ()>", linkageName: "_ZN3std3sys9backtrace28__rust_begin_short_backtrace17h2afd2c7d0674a96fE", scope: !200, file: !199, line: 148, type: !201, scopeLine: 148, flags: DIFlagPrototyped, spFlags: DISPFlagLocalToUnit | DISPFlagDefinition, unit: !49, templateParams: !207, retainedNodes: !203)
!199 = !DIFile(filename: "/rustc/ecade534c66478c51c5d3c1d3682dc4beb0ac972/library/std/src/sys/backtrace.rs", directory: "", checksumkind: CSK_MD5, checksum: "9e30c70624c3cf40238860e740bd696f")
!200 = !DINamespace(name: "backtrace", scope: !180)
!201 = !DISubroutineType(types: !202)
!202 = !{null, !20}
!203 = !{!204, !205}
!204 = !DILocalVariable(name: "f", arg: 1, scope: !198, file: !199, line: 148, type: !20)
!205 = !DILocalVariable(name: "result", scope: !206, file: !199, line: 152, type: !7, align: 8)
!206 = distinct !DILexicalBlock(scope: !198, file: !199, line: 152, column: 5)
!207 = !{!208, !150}
!208 = !DITemplateTypeParameter(name: "F", type: !20)
!209 = !DILocation(line: 152, column: 9, scope: !206)
!210 = !DILocation(line: 148, column: 43, scope: !198)
!211 = !DILocalVariable(name: "dummy", scope: !212, file: !213, line: 476, type: !7, align: 8)
!212 = distinct !DISubprogram(name: "black_box<()>", linkageName: "_ZN4core4hint9black_box17h7da4fda42db8f900E", scope: !214, file: !213, line: 476, type: !215, scopeLine: 476, flags: DIFlagPrototyped, spFlags: DISPFlagLocalToUnit | DISPFlagDefinition, unit: !49, templateParams: !149, retainedNodes: !217)
!213 = !DIFile(filename: "/rustc/ecade534c66478c51c5d3c1d3682dc4beb0ac972/library/core/src/hint.rs", directory: "", checksumkind: CSK_MD5, checksum: "53e417654697d2a6fdb3b165cec3a4bf")
!214 = !DINamespace(name: "hint", scope: !96)
!215 = !DISubroutineType(types: !216)
!216 = !{null, !7}
!217 = !{!211}
!218 = !DILocation(line: 476, column: 27, scope: !212, inlinedAt: !219)
!219 = !DILocation(line: 155, column: 5, scope: !206)
!220 = !DILocation(line: 152, column: 18, scope: !198)
!221 = !DILocation(line: 477, column: 5, scope: !212, inlinedAt: !219)
!222 = !{i64 11330716434972951}
!223 = !DILocation(line: 158, column: 2, scope: !198)
!224 = distinct !DISubprogram(name: "size_of_val<[u32]>", linkageName: "_ZN4core3mem11size_of_val17h6d9e552afa58affdE", scope: !226, file: !225, line: 332, type: !227, scopeLine: 332, flags: DIFlagPrototyped, spFlags: DISPFlagLocalToUnit | DISPFlagDefinition, unit: !49, templateParams: !119, retainedNodes: !234)
!225 = !DIFile(filename: "/rustc/ecade534c66478c51c5d3c1d3682dc4beb0ac972/library/core/src/mem/mod.rs", directory: "", checksumkind: CSK_MD5, checksum: "f1c5365a2f0a05a42c44d469d395c8a1")
!226 = !DINamespace(name: "mem", scope: !96)
!227 = !DISubroutineType(types: !228)
!228 = !{!9, !229}
!229 = !DICompositeType(tag: DW_TAG_structure_type, name: "&[u32]", file: !2, size: 128, align: 64, elements: !230, templateParams: !23, identifier: "467923a08fc75332ca53cdba7e9dfffc")
!230 = !{!231, !233}
!231 = !DIDerivedType(tag: DW_TAG_member, name: "data_ptr", scope: !229, file: !2, baseType: !232, size: 64, align: 64)
!232 = !DIDerivedType(tag: DW_TAG_pointer_type, baseType: !79, size: 64, align: 64, dwarfAddressSpace: 0)
!233 = !DIDerivedType(tag: DW_TAG_member, name: "length", scope: !229, file: !2, baseType: !9, size: 64, align: 64, offset: 64)
!234 = !{!235}
!235 = !DILocalVariable(name: "val", arg: 1, scope: !224, file: !225, line: 332, type: !229)
!236 = !DILocation(line: 332, column: 37, scope: !224)
!237 = !DILocation(line: 334, column: 14, scope: !224)
!238 = !DILocation(line: 335, column: 2, scope: !224)
!239 = distinct !DISubprogram(name: "call_once<std::rt::lang_start::{closure_env#0}<()>, ()>", linkageName: "_ZN4core3ops8function6FnOnce40call_once$u7b$$u7b$vtable.shim$u7d$$u7d$17hb06e99ac8656f6d6E", scope: !241, file: !240, line: 250, type: !244, scopeLine: 250, flags: DIFlagPrototyped, spFlags: DISPFlagLocalToUnit | DISPFlagDefinition, unit: !49, templateParams: !250, retainedNodes: !247)
!240 = !DIFile(filename: "/rustc/ecade534c66478c51c5d3c1d3682dc4beb0ac972/library/core/src/ops/function.rs", directory: "", checksumkind: CSK_MD5, checksum: "27f40bbdeb6cc525c0d0d7cf434d92c4")
!241 = !DINamespace(name: "FnOnce", scope: !242)
!242 = !DINamespace(name: "function", scope: !243)
!243 = !DINamespace(name: "ops", scope: !96)
!244 = !DISubroutineType(types: !245)
!245 = !{!161, !246}
!246 = !DIDerivedType(tag: DW_TAG_pointer_type, name: "*mut std::rt::lang_start::{closure_env#0}<()>", baseType: !14, size: 64, align: 64, dwarfAddressSpace: 0)
!247 = !{!248, !249}
!248 = !DILocalVariable(arg: 1, scope: !239, file: !240, line: 250, type: !246)
!249 = !DILocalVariable(arg: 2, scope: !239, file: !240, line: 250, type: !7)
!250 = !{!251, !252}
!251 = !DITemplateTypeParameter(name: "Self", type: !14)
!252 = !DITemplateTypeParameter(name: "Args", type: !7)
!253 = !DILocation(line: 250, column: 5, scope: !239)
!254 = distinct !DISubprogram(name: "call_once<std::rt::lang_start::{closure_env#0}<()>, ()>", linkageName: "_ZN4core3ops8function6FnOnce9call_once17h1c445d99f54a92d5E", scope: !241, file: !240, line: 250, type: !255, scopeLine: 250, flags: DIFlagPrototyped, spFlags: DISPFlagLocalToUnit | DISPFlagDefinition, unit: !49, templateParams: !250, retainedNodes: !257)
!255 = !DISubroutineType(types: !256)
!256 = !{!161, !14}
!257 = !{!258, !259}
!258 = !DILocalVariable(arg: 1, scope: !254, file: !240, line: 250, type: !14)
!259 = !DILocalVariable(arg: 2, scope: !254, file: !240, line: 250, type: !7)
!260 = !DILocation(line: 250, column: 5, scope: !254)
!261 = distinct !DISubprogram(name: "call_once<fn(), ()>", linkageName: "_ZN4core3ops8function6FnOnce9call_once17hd703a48edda16cd5E", scope: !241, file: !240, line: 250, type: !201, scopeLine: 250, flags: DIFlagPrototyped, spFlags: DISPFlagLocalToUnit | DISPFlagDefinition, unit: !49, templateParams: !265, retainedNodes: !262)
!262 = !{!263, !264}
!263 = !DILocalVariable(arg: 1, scope: !261, file: !240, line: 250, type: !20)
!264 = !DILocalVariable(arg: 2, scope: !261, file: !240, line: 250, type: !7)
!265 = !{!266, !252}
!266 = !DITemplateTypeParameter(name: "Self", type: !20)
!267 = !DILocation(line: 250, column: 5, scope: !261)
!268 = distinct !DISubprogram(name: "drop_in_place<dp_ex::Cat>", linkageName: "_ZN4core3ptr31drop_in_place$LT$dp_ex..Cat$GT$17h9aa1b5c63807ed14E", scope: !270, file: !269, line: 523, type: !271, scopeLine: 523, flags: DIFlagPrototyped, spFlags: DISPFlagLocalToUnit | DISPFlagDefinition, unit: !49, templateParams: !276, retainedNodes: !274)
!269 = !DIFile(filename: "/rustc/ecade534c66478c51c5d3c1d3682dc4beb0ac972/library/core/src/ptr/mod.rs", directory: "", checksumkind: CSK_MD5, checksum: "a5cb8c8d2ea510166b9e600d925000e6")
!270 = !DINamespace(name: "ptr", scope: !96)
!271 = !DISubroutineType(types: !272)
!272 = !{null, !273}
!273 = !DIDerivedType(tag: DW_TAG_pointer_type, name: "*mut dp_ex::Cat", baseType: !42, size: 64, align: 64, dwarfAddressSpace: 0)
!274 = !{!275}
!275 = !DILocalVariable(arg: 1, scope: !268, file: !269, line: 523, type: !273)
!276 = !{!277}
!277 = !DITemplateTypeParameter(name: "T", type: !42)
!278 = !DILocation(line: 523, column: 1, scope: !268)
!279 = distinct !DISubprogram(name: "drop_in_place<dp_ex::Dog>", linkageName: "_ZN4core3ptr31drop_in_place$LT$dp_ex..Dog$GT$17haa225f289cc6a195E", scope: !270, file: !269, line: 523, type: !280, scopeLine: 523, flags: DIFlagPrototyped, spFlags: DISPFlagLocalToUnit | DISPFlagDefinition, unit: !49, templateParams: !285, retainedNodes: !283)
!280 = !DISubroutineType(types: !281)
!281 = !{null, !282}
!282 = !DIDerivedType(tag: DW_TAG_pointer_type, name: "*mut dp_ex::Dog", baseType: !32, size: 64, align: 64, dwarfAddressSpace: 0)
!283 = !{!284}
!284 = !DILocalVariable(arg: 1, scope: !279, file: !269, line: 523, type: !282)
!285 = !{!286}
!286 = !DITemplateTypeParameter(name: "T", type: !32)
!287 = !DILocation(line: 523, column: 1, scope: !279)
!288 = distinct !DISubprogram(name: "drop_in_place<rand::rngs::thread::ThreadRng>", linkageName: "_ZN4core3ptr50drop_in_place$LT$rand..rngs..thread..ThreadRng$GT$17h4290c5a380cfe87dE", scope: !270, file: !269, line: 523, type: !289, scopeLine: 523, flags: DIFlagPrototyped, spFlags: DISPFlagLocalToUnit | DISPFlagDefinition, unit: !49, templateParams: !350, retainedNodes: !348)
!289 = !DISubroutineType(types: !290)
!290 = !{null, !291}
!291 = !DIDerivedType(tag: DW_TAG_pointer_type, name: "*mut rand::rngs::thread::ThreadRng", baseType: !292, size: 64, align: 64, dwarfAddressSpace: 0)
!292 = !DICompositeType(tag: DW_TAG_structure_type, name: "ThreadRng", scope: !293, file: !2, size: 64, align: 64, flags: DIFlagPublic, elements: !294, templateParams: !23, identifier: "6fe9373e17b97faaf37e1193f5ced99c")
!293 = !DINamespace(name: "thread", scope: !56)
!294 = !{!295}
!295 = !DIDerivedType(tag: DW_TAG_member, name: "rng", scope: !292, file: !2, baseType: !296, size: 64, align: 64, flags: DIFlagPrivate)
!296 = !DICompositeType(tag: DW_TAG_structure_type, name: "Rc<core::cell::UnsafeCell<rand::rngs::reseeding::ReseedingRng<rand_chacha::chacha::ChaCha12Core, rand_core::os::OsRng>>, alloc::alloc::Global>", scope: !297, file: !2, size: 64, align: 64, flags: DIFlagPublic, elements: !299, templateParams: !346, identifier: "7365f6a0b17e2889176bb41a27a6d171")
!297 = !DINamespace(name: "rc", scope: !298)
!298 = !DINamespace(name: "alloc", scope: null)
!299 = !{!300, !340, !343}
!300 = !DIDerivedType(tag: DW_TAG_member, name: "ptr", scope: !296, file: !2, baseType: !301, size: 64, align: 64, flags: DIFlagPrivate)
!301 = !DICompositeType(tag: DW_TAG_structure_type, name: "NonNull<alloc::rc::RcInner<core::cell::UnsafeCell<rand::rngs::reseeding::ReseedingRng<rand_chacha::chacha::ChaCha12Core, rand_core::os::OsRng>>>>", scope: !302, file: !2, size: 64, align: 64, flags: DIFlagPublic, elements: !303, templateParams: !338, identifier: "9b88b5eb5cc543e39795dce9d321ffb1")
!302 = !DINamespace(name: "non_null", scope: !270)
!303 = !{!304}
!304 = !DIDerivedType(tag: DW_TAG_member, name: "pointer", scope: !301, file: !2, baseType: !305, size: 64, align: 64, flags: DIFlagPrivate)
!305 = !DIDerivedType(tag: DW_TAG_pointer_type, name: "*const alloc::rc::RcInner<core::cell::UnsafeCell<rand::rngs::reseeding::ReseedingRng<rand_chacha::chacha::ChaCha12Core, rand_core::os::OsRng>>>", baseType: !306, size: 64, align: 64, dwarfAddressSpace: 0)
!306 = !DICompositeType(tag: DW_TAG_structure_type, name: "RcInner<core::cell::UnsafeCell<rand::rngs::reseeding::ReseedingRng<rand_chacha::chacha::ChaCha12Core, rand_core::os::OsRng>>>", scope: !297, file: !2, size: 2816, align: 128, flags: DIFlagPrivate, elements: !307, templateParams: !336, identifier: "d80e3b5a999ca82fe32818d7a8e1b871")
!307 = !{!308, !318, !319}
!308 = !DIDerivedType(tag: DW_TAG_member, name: "strong", scope: !306, file: !2, baseType: !309, size: 64, align: 64, flags: DIFlagPrivate)
!309 = !DICompositeType(tag: DW_TAG_structure_type, name: "Cell<usize>", scope: !310, file: !2, size: 64, align: 64, flags: DIFlagPublic, elements: !311, templateParams: !316, identifier: "850821af38703e743ab2164fb52c6e1a")
!310 = !DINamespace(name: "cell", scope: !96)
!311 = !{!312}
!312 = !DIDerivedType(tag: DW_TAG_member, name: "value", scope: !309, file: !2, baseType: !313, size: 64, align: 64, flags: DIFlagPrivate)
!313 = !DICompositeType(tag: DW_TAG_structure_type, name: "UnsafeCell<usize>", scope: !310, file: !2, size: 64, align: 64, flags: DIFlagPublic, elements: !314, templateParams: !316, identifier: "13a2388050bdea621562362d97db0cb8")
!314 = !{!315}
!315 = !DIDerivedType(tag: DW_TAG_member, name: "value", scope: !313, file: !2, baseType: !9, size: 64, align: 64, flags: DIFlagPrivate)
!316 = !{!317}
!317 = !DITemplateTypeParameter(name: "T", type: !9)
!318 = !DIDerivedType(tag: DW_TAG_member, name: "weak", scope: !306, file: !2, baseType: !309, size: 64, align: 64, offset: 64, flags: DIFlagPrivate)
!319 = !DIDerivedType(tag: DW_TAG_member, name: "value", scope: !306, file: !2, baseType: !320, size: 2688, align: 128, offset: 128, flags: DIFlagPrivate)
!320 = !DICompositeType(tag: DW_TAG_structure_type, name: "UnsafeCell<rand::rngs::reseeding::ReseedingRng<rand_chacha::chacha::ChaCha12Core, rand_core::os::OsRng>>", scope: !310, file: !2, size: 2688, align: 128, flags: DIFlagPublic, elements: !321, templateParams: !334, identifier: "759ced4ae69409869bb187b4ba10c3d")
!321 = !{!322}
!322 = !DIDerivedType(tag: DW_TAG_member, name: "value", scope: !320, file: !2, baseType: !323, size: 2688, align: 128, flags: DIFlagPrivate)
!323 = !DICompositeType(tag: DW_TAG_structure_type, name: "ReseedingRng<rand_chacha::chacha::ChaCha12Core, rand_core::os::OsRng>", scope: !55, file: !2, size: 2688, align: 128, flags: DIFlagPublic, elements: !324, templateParams: !109, identifier: "6399b2941d395d1841016fc427d13963")
!324 = !{!325}
!325 = !DIDerivedType(tag: DW_TAG_member, name: "__0", scope: !323, file: !2, baseType: !326, size: 2688, align: 128, flags: DIFlagPrivate)
!326 = !DICompositeType(tag: DW_TAG_structure_type, name: "BlockRng<rand::rngs::reseeding::ReseedingCore<rand_chacha::chacha::ChaCha12Core, rand_core::os::OsRng>>", scope: !327, file: !2, size: 2688, align: 128, flags: DIFlagPublic, elements: !328, templateParams: !332, identifier: "579df5f19885aff29e2576bc9f927d64")
!327 = !DINamespace(name: "block", scope: !106)
!328 = !{!329, !330, !331}
!329 = !DIDerivedType(tag: DW_TAG_member, name: "results", scope: !326, file: !2, baseType: !113, size: 2048, align: 32, flags: DIFlagPrivate)
!330 = !DIDerivedType(tag: DW_TAG_member, name: "index", scope: !326, file: !2, baseType: !9, size: 64, align: 64, offset: 2560, flags: DIFlagPrivate)
!331 = !DIDerivedType(tag: DW_TAG_member, name: "core", scope: !326, file: !2, baseType: !61, size: 512, align: 128, offset: 2048, flags: DIFlagPublic)
!332 = !{!333}
!333 = !DITemplateTypeParameter(name: "R", type: !61)
!334 = !{!335}
!335 = !DITemplateTypeParameter(name: "T", type: !323)
!336 = !{!337}
!337 = !DITemplateTypeParameter(name: "T", type: !320)
!338 = !{!339}
!339 = !DITemplateTypeParameter(name: "T", type: !306)
!340 = !DIDerivedType(tag: DW_TAG_member, name: "phantom", scope: !296, file: !2, baseType: !341, align: 8, offset: 64, flags: DIFlagPrivate)
!341 = !DICompositeType(tag: DW_TAG_structure_type, name: "PhantomData<alloc::rc::RcInner<core::cell::UnsafeCell<rand::rngs::reseeding::ReseedingRng<rand_chacha::chacha::ChaCha12Core, rand_core::os::OsRng>>>>", scope: !342, file: !2, align: 8, flags: DIFlagPublic, elements: !23, templateParams: !338, identifier: "edd2db79d1a2e8f932f639cdfb056228")
!342 = !DINamespace(name: "marker", scope: !96)
!343 = !DIDerivedType(tag: DW_TAG_member, name: "alloc", scope: !296, file: !2, baseType: !344, align: 8, offset: 64, flags: DIFlagPrivate)
!344 = !DICompositeType(tag: DW_TAG_structure_type, name: "Global", scope: !345, file: !2, align: 8, flags: DIFlagPublic, elements: !23, identifier: "cc328e40098c35b06088ca0399a07f60")
!345 = !DINamespace(name: "alloc", scope: !298)
!346 = !{!337, !347}
!347 = !DITemplateTypeParameter(name: "A", type: !344)
!348 = !{!349}
!349 = !DILocalVariable(arg: 1, scope: !288, file: !269, line: 523, type: !291)
!350 = !{!351}
!351 = !DITemplateTypeParameter(name: "T", type: !292)
!352 = !DILocation(line: 523, column: 1, scope: !288)
!353 = distinct !DISubprogram(name: "drop_in_place<std::rt::lang_start::{closure_env#0}<()>>", linkageName: "_ZN4core3ptr85drop_in_place$LT$std..rt..lang_start$LT$$LP$$RP$$GT$..$u7b$$u7b$closure$u7d$$u7d$$GT$17h0c91bb19f0a043fdE", scope: !270, file: !269, line: 523, type: !354, scopeLine: 523, flags: DIFlagPrototyped, spFlags: DISPFlagLocalToUnit | DISPFlagDefinition, unit: !49, templateParams: !358, retainedNodes: !356)
!354 = !DISubroutineType(types: !355)
!355 = !{null, !246}
!356 = !{!357}
!357 = !DILocalVariable(arg: 1, scope: !353, file: !269, line: 523, type: !246)
!358 = !{!359}
!359 = !DITemplateTypeParameter(name: "T", type: !14)
!360 = !DILocation(line: 523, column: 1, scope: !353)
!361 = distinct !DISubprogram(name: "random<rand::rngs::thread::ThreadRng, bool>", linkageName: "_ZN4rand3rng3Rng6random17he47c0a49024989aaE", scope: !363, file: !362, line: 95, type: !365, scopeLine: 95, flags: DIFlagPrototyped, spFlags: DISPFlagLocalToUnit | DISPFlagDefinition, unit: !49, templateParams: !371, retainedNodes: !369)
!362 = !DIFile(filename: "/home/np/.cargo/registry/src/index.crates.io-1949cf8c6b5b557f/rand-0.9.2/src/rng.rs", directory: "", checksumkind: CSK_MD5, checksum: "502aa58ff0bfc907d978a28fc3e03a36")
!363 = !DINamespace(name: "Rng", scope: !364)
!364 = !DINamespace(name: "rng", scope: !57)
!365 = !DISubroutineType(types: !366)
!366 = !{!367, !368}
!367 = !DIBasicType(name: "bool", size: 8, encoding: DW_ATE_boolean)
!368 = !DIDerivedType(tag: DW_TAG_pointer_type, name: "&mut rand::rngs::thread::ThreadRng", baseType: !292, size: 64, align: 64, dwarfAddressSpace: 0)
!369 = !{!370}
!370 = !DILocalVariable(name: "self", arg: 1, scope: !361, file: !362, line: 95, type: !368)
!371 = !{!372, !373}
!372 = !DITemplateTypeParameter(name: "Self", type: !292)
!373 = !DITemplateTypeParameter(name: "T", type: !367)
!374 = !DILocation(line: 95, column: 18, scope: !361)
!375 = !DILocation(line: 99, column: 9, scope: !361)
!376 = !DILocation(line: 100, column: 6, scope: !361)
!377 = distinct !DISubprogram(name: "reseed_and_generate<rand_chacha::chacha::ChaCha12Core, rand_core::os::OsRng>", linkageName: "_ZN4rand4rngs9reseeding29ReseedingCore$LT$R$C$Rsdr$GT$19reseed_and_generate17h13935bc7e637f19cE", scope: !61, file: !53, line: 216, type: !58, scopeLine: 216, flags: DIFlagPrototyped, spFlags: DISPFlagLocalToUnit | DISPFlagDefinition, unit: !49, templateParams: !109, declaration: !378, retainedNodes: !379)
!378 = !DISubprogram(name: "reseed_and_generate<rand_chacha::chacha::ChaCha12Core, rand_core::os::OsRng>", linkageName: "_ZN4rand4rngs9reseeding29ReseedingCore$LT$R$C$Rsdr$GT$19reseed_and_generate17h13935bc7e637f19cE", scope: !61, file: !53, line: 216, type: !58, scopeLine: 216, flags: DIFlagPrototyped, spFlags: DISPFlagLocalToUnit, templateParams: !109)
!379 = !{!380, !381, !382, !384}
!380 = !DILocalVariable(name: "self", arg: 1, scope: !377, file: !53, line: 216, type: !60)
!381 = !DILocalVariable(name: "results", arg: 2, scope: !377, file: !53, line: 216, type: !112)
!382 = !DILocalVariable(name: "num_bytes", scope: !383, file: !53, line: 219, type: !9, align: 64)
!383 = distinct !DILexicalBlock(scope: !377, file: !53, line: 219, column: 9)
!384 = !DILocalVariable(name: "e", scope: !385, file: !53, line: 221, type: !386, align: 32)
!385 = distinct !DILexicalBlock(scope: !383, file: !53, line: 221, column: 39)
!386 = !DICompositeType(tag: DW_TAG_structure_type, name: "OsError", scope: !105, file: !2, size: 32, align: 32, flags: DIFlagPublic, elements: !387, templateParams: !23, identifier: "2eb910ff6e9f60f968226e5ce47899ca")
!387 = !{!388}
!388 = !DIDerivedType(tag: DW_TAG_member, name: "__0", scope: !386, file: !2, baseType: !389, size: 32, align: 32, flags: DIFlagPrivate)
!389 = !DICompositeType(tag: DW_TAG_structure_type, name: "Error", scope: !390, file: !2, size: 32, align: 32, flags: DIFlagPublic, elements: !392, templateParams: !23, identifier: "402f02bd7f217fd389768991aff62534")
!390 = !DINamespace(name: "error", scope: !391)
!391 = !DINamespace(name: "getrandom", scope: null)
!392 = !{!393}
!393 = !DIDerivedType(tag: DW_TAG_member, name: "__0", scope: !389, file: !2, baseType: !394, size: 32, align: 32, flags: DIFlagPrivate)
!394 = !DICompositeType(tag: DW_TAG_structure_type, name: "NonZero<i32>", scope: !395, file: !2, size: 32, align: 32, flags: DIFlagPublic, elements: !397, templateParams: !403, identifier: "32be11596a496ede934ffbdd9b95b3e8")
!395 = !DINamespace(name: "nonzero", scope: !396)
!396 = !DINamespace(name: "num", scope: !96)
!397 = !{!398}
!398 = !DIDerivedType(tag: DW_TAG_member, name: "__0", scope: !394, file: !2, baseType: !399, size: 32, align: 32, flags: DIFlagPrivate)
!399 = !DICompositeType(tag: DW_TAG_structure_type, name: "NonZeroI32Inner", scope: !400, file: !2, size: 32, align: 32, flags: DIFlagPublic, elements: !401, templateParams: !23, identifier: "7498a545642b9ccf8476c6ffe07e1717")
!400 = !DINamespace(name: "niche_types", scope: !396)
!401 = !{!402}
!402 = !DIDerivedType(tag: DW_TAG_member, name: "__0", scope: !399, file: !2, baseType: !161, size: 32, align: 32, flags: DIFlagPrivate)
!403 = !{!404}
!404 = !DITemplateTypeParameter(name: "T", type: !161)
!405 = !DILocation(line: 216, column: 28, scope: !377)
!406 = !DILocation(line: 216, column: 39, scope: !377)
!407 = !DILocation(line: 219, column: 13, scope: !377)
!408 = !DILocation(line: 219, column: 37, scope: !377)
!409 = !DILocation(line: 219, column: 25, scope: !377)
!410 = !DILocation(line: 219, column: 13, scope: !383)
!411 = !DILocation(line: 221, column: 25, scope: !385)
!412 = !DILocation(line: 221, column: 16, scope: !385)
!413 = !DILocation(line: 221, column: 20, scope: !385)
!414 = !DILocation(line: 224, column: 9, scope: !383)
!415 = !DILocation(line: 226, column: 35, scope: !383)
!416 = !DILocation(line: 226, column: 9, scope: !383)
!417 = !DILocation(line: 227, column: 9, scope: !383)
!418 = !DILocation(line: 228, column: 6, scope: !377)
!419 = !DILocation(line: 216, column: 5, scope: !377)
!420 = distinct !DISubprogram(name: "sample<rand::rngs::thread::ThreadRng>", linkageName: "_ZN4rand5distr5other110_$LT$impl$u20$rand..distr..distribution..Distribution$LT$bool$GT$$u20$for$u20$rand..distr..StandardUniform$GT$6sample17he90ea3740add583dE", scope: !422, file: !421, line: 198, type: !425, scopeLine: 198, flags: DIFlagPrototyped, spFlags: DISPFlagLocalToUnit | DISPFlagDefinition, unit: !49, templateParams: !432, retainedNodes: !429)
!421 = !DIFile(filename: "/home/np/.cargo/registry/src/index.crates.io-1949cf8c6b5b557f/rand-0.9.2/src/distr/other.rs", directory: "", checksumkind: CSK_MD5, checksum: "ec48bf9fde3f2913ed48dceedb97c641")
!422 = !DINamespace(name: "{impl#6}", scope: !423)
!423 = !DINamespace(name: "other", scope: !424)
!424 = !DINamespace(name: "distr", scope: !57)
!425 = !DISubroutineType(types: !426)
!426 = !{!367, !427, !368}
!427 = !DIDerivedType(tag: DW_TAG_pointer_type, name: "&rand::distr::StandardUniform", baseType: !428, size: 64, align: 64, dwarfAddressSpace: 0)
!428 = !DICompositeType(tag: DW_TAG_structure_type, name: "StandardUniform", scope: !424, file: !2, align: 8, flags: DIFlagPublic, elements: !23, identifier: "707d28ae7ccdc4ce4b04ff199bf99c21")
!429 = !{!430, !431}
!430 = !DILocalVariable(name: "self", arg: 1, scope: !420, file: !421, line: 198, type: !427)
!431 = !DILocalVariable(name: "rng", arg: 2, scope: !420, file: !421, line: 198, type: !368)
!432 = !{!433}
!433 = !DITemplateTypeParameter(name: "R", type: !292)
!434 = !DILocation(line: 198, column: 32, scope: !420)
!435 = !DILocation(line: 198, column: 39, scope: !420)
!436 = !DILocalVariable(name: "self", arg: 1, scope: !437, file: !438, line: 170, type: !368)
!437 = distinct !DISubprogram(name: "next_u32", linkageName: "_ZN68_$LT$rand..rngs..thread..ThreadRng$u20$as$u20$rand_core..RngCore$GT$8next_u3217h096f0839c6fdbe67E", scope: !439, file: !438, line: 170, type: !440, scopeLine: 170, flags: DIFlagPrototyped, spFlags: DISPFlagLocalToUnit | DISPFlagDefinition, unit: !49, templateParams: !23, retainedNodes: !442)
!438 = !DIFile(filename: "/home/np/.cargo/registry/src/index.crates.io-1949cf8c6b5b557f/rand-0.9.2/src/rngs/thread.rs", directory: "", checksumkind: CSK_MD5, checksum: "842ea45780d9ccda805de377693390ed")
!439 = !DINamespace(name: "{impl#3}", scope: !293)
!440 = !DISubroutineType(types: !441)
!441 = !{!79, !368}
!442 = !{!436, !443}
!443 = !DILocalVariable(name: "rng", scope: !444, file: !438, line: 173, type: !445, align: 64)
!444 = distinct !DILexicalBlock(scope: !437, file: !438, line: 173, column: 9)
!445 = !DIDerivedType(tag: DW_TAG_pointer_type, name: "&mut rand::rngs::reseeding::ReseedingRng<rand_chacha::chacha::ChaCha12Core, rand_core::os::OsRng>", baseType: !323, size: 64, align: 64, dwarfAddressSpace: 0)
!446 = !DILocation(line: 170, column: 17, scope: !437, inlinedAt: !447)
!447 = distinct !DILocation(line: 203, column: 10, scope: !420)
!448 = !DILocalVariable(name: "self", arg: 1, scope: !449, file: !450, line: 2243, type: !455)
!449 = distinct !DISubprogram(name: "deref<core::cell::UnsafeCell<rand::rngs::reseeding::ReseedingRng<rand_chacha::chacha::ChaCha12Core, rand_core::os::OsRng>>, alloc::alloc::Global>", linkageName: "_ZN70_$LT$alloc..rc..Rc$LT$T$C$A$GT$$u20$as$u20$core..ops..deref..Deref$GT$5deref17hb6ac6f99dbef582dE", scope: !451, file: !450, line: 2243, type: !452, scopeLine: 2243, flags: DIFlagPrototyped, spFlags: DISPFlagLocalToUnit | DISPFlagDefinition, unit: !49, templateParams: !346, retainedNodes: !456)
!450 = !DIFile(filename: "/rustc/ecade534c66478c51c5d3c1d3682dc4beb0ac972/library/alloc/src/rc.rs", directory: "", checksumkind: CSK_MD5, checksum: "3970992b02512b107ee6d682a0d1a233")
!451 = !DINamespace(name: "{impl#25}", scope: !297)
!452 = !DISubroutineType(types: !453)
!453 = !{!454, !455}
!454 = !DIDerivedType(tag: DW_TAG_pointer_type, name: "&core::cell::UnsafeCell<rand::rngs::reseeding::ReseedingRng<rand_chacha::chacha::ChaCha12Core, rand_core::os::OsRng>>", baseType: !320, size: 64, align: 64, dwarfAddressSpace: 0)
!455 = !DIDerivedType(tag: DW_TAG_pointer_type, name: "&alloc::rc::Rc<core::cell::UnsafeCell<rand::rngs::reseeding::ReseedingRng<rand_chacha::chacha::ChaCha12Core, rand_core::os::OsRng>>, alloc::alloc::Global>", baseType: !296, size: 64, align: 64, dwarfAddressSpace: 0)
!456 = !{!448}
!457 = !DILocation(line: 2243, column: 14, scope: !449, inlinedAt: !458)
!458 = distinct !DILocation(line: 173, column: 34, scope: !437, inlinedAt: !447)
!459 = !DILocalVariable(name: "self", arg: 1, scope: !460, file: !450, line: 355, type: !455)
!460 = distinct !DISubprogram(name: "inner<core::cell::UnsafeCell<rand::rngs::reseeding::ReseedingRng<rand_chacha::chacha::ChaCha12Core, rand_core::os::OsRng>>, alloc::alloc::Global>", linkageName: "_ZN5alloc2rc15Rc$LT$T$C$A$GT$5inner17h57fc78e9945e8c8dE", scope: !296, file: !450, line: 355, type: !461, scopeLine: 355, flags: DIFlagPrototyped, spFlags: DISPFlagLocalToUnit | DISPFlagDefinition, unit: !49, templateParams: !346, declaration: !464, retainedNodes: !465)
!461 = !DISubroutineType(types: !462)
!462 = !{!463, !455}
!463 = !DIDerivedType(tag: DW_TAG_pointer_type, name: "&alloc::rc::RcInner<core::cell::UnsafeCell<rand::rngs::reseeding::ReseedingRng<rand_chacha::chacha::ChaCha12Core, rand_core::os::OsRng>>>", baseType: !306, size: 64, align: 64, dwarfAddressSpace: 0)
!464 = !DISubprogram(name: "inner<core::cell::UnsafeCell<rand::rngs::reseeding::ReseedingRng<rand_chacha::chacha::ChaCha12Core, rand_core::os::OsRng>>, alloc::alloc::Global>", linkageName: "_ZN5alloc2rc15Rc$LT$T$C$A$GT$5inner17h57fc78e9945e8c8dE", scope: !296, file: !450, line: 355, type: !461, scopeLine: 355, flags: DIFlagPrototyped, spFlags: DISPFlagLocalToUnit, templateParams: !346)
!465 = !{!459}
!466 = !DILocation(line: 355, column: 14, scope: !460, inlinedAt: !467)
!467 = distinct !DILocation(line: 2244, column: 15, scope: !449, inlinedAt: !458)
!468 = !DILocation(line: 428, column: 20, scope: !469, inlinedAt: !475)
!469 = distinct !DISubprogram(name: "as_ref<alloc::rc::RcInner<core::cell::UnsafeCell<rand::rngs::reseeding::ReseedingRng<rand_chacha::chacha::ChaCha12Core, rand_core::os::OsRng>>>>", linkageName: "_ZN4core3ptr8non_null16NonNull$LT$T$GT$6as_ref17h2f0470cdcae54db3E", scope: !301, file: !470, line: 424, type: !471, scopeLine: 424, flags: DIFlagPrototyped, spFlags: DISPFlagLocalToUnit | DISPFlagDefinition, unit: !49, templateParams: !338, declaration: !474)
!470 = !DIFile(filename: "/rustc/ecade534c66478c51c5d3c1d3682dc4beb0ac972/library/core/src/ptr/non_null.rs", directory: "", checksumkind: CSK_MD5, checksum: "3b3cd84fd90af2705fa6d8309deb8eb9")
!471 = !DISubroutineType(types: !472)
!472 = !{!463, !473}
!473 = !DIDerivedType(tag: DW_TAG_pointer_type, name: "&core::ptr::non_null::NonNull<alloc::rc::RcInner<core::cell::UnsafeCell<rand::rngs::reseeding::ReseedingRng<rand_chacha::chacha::ChaCha12Core, rand_core::os::OsRng>>>>", baseType: !301, size: 64, align: 64, dwarfAddressSpace: 0)
!474 = !DISubprogram(name: "as_ref<alloc::rc::RcInner<core::cell::UnsafeCell<rand::rngs::reseeding::ReseedingRng<rand_chacha::chacha::ChaCha12Core, rand_core::os::OsRng>>>>", linkageName: "_ZN4core3ptr8non_null16NonNull$LT$T$GT$6as_ref17h2f0470cdcae54db3E", scope: !301, file: !470, line: 424, type: !471, scopeLine: 424, flags: DIFlagPrototyped, spFlags: DISPFlagLocalToUnit, templateParams: !338)
!475 = distinct !DILocation(line: 358, column: 27, scope: !460, inlinedAt: !467)
!476 = !DILocation(line: 2244, column: 9, scope: !449, inlinedAt: !458)
!477 = !DILocalVariable(name: "self", arg: 1, scope: !478, file: !479, line: 2194, type: !454)
!478 = distinct !DISubprogram(name: "get<rand::rngs::reseeding::ReseedingRng<rand_chacha::chacha::ChaCha12Core, rand_core::os::OsRng>>", linkageName: "_ZN4core4cell19UnsafeCell$LT$T$GT$3get17h17254be491f6afc9E", scope: !320, file: !479, line: 2194, type: !480, scopeLine: 2194, flags: DIFlagPrototyped, spFlags: DISPFlagLocalToUnit | DISPFlagDefinition, unit: !49, templateParams: !334, declaration: !483, retainedNodes: !484)
!479 = !DIFile(filename: "/rustc/ecade534c66478c51c5d3c1d3682dc4beb0ac972/library/core/src/cell.rs", directory: "", checksumkind: CSK_MD5, checksum: "64646115eb882926cf02189caaf4b938")
!480 = !DISubroutineType(types: !481)
!481 = !{!482, !454}
!482 = !DIDerivedType(tag: DW_TAG_pointer_type, name: "*mut rand::rngs::reseeding::ReseedingRng<rand_chacha::chacha::ChaCha12Core, rand_core::os::OsRng>", baseType: !323, size: 64, align: 64, dwarfAddressSpace: 0)
!483 = !DISubprogram(name: "get<rand::rngs::reseeding::ReseedingRng<rand_chacha::chacha::ChaCha12Core, rand_core::os::OsRng>>", linkageName: "_ZN4core4cell19UnsafeCell$LT$T$GT$3get17h17254be491f6afc9E", scope: !320, file: !479, line: 2194, type: !480, scopeLine: 2194, flags: DIFlagPrototyped, spFlags: DISPFlagLocalToUnit, templateParams: !334)
!484 = !{!477}
!485 = !DILocation(line: 2194, column: 22, scope: !478, inlinedAt: !486)
!486 = distinct !DILocation(line: 173, column: 34, scope: !437, inlinedAt: !447)
!487 = !DILocation(line: 173, column: 28, scope: !437, inlinedAt: !447)
!488 = !DILocation(line: 173, column: 13, scope: !444, inlinedAt: !447)
!489 = !DILocalVariable(name: "self", arg: 1, scope: !490, file: !53, line: 113, type: !445)
!490 = distinct !DISubprogram(name: "next_u32<rand_chacha::chacha::ChaCha12Core, rand_core::os::OsRng>", linkageName: "_ZN90_$LT$rand..rngs..reseeding..ReseedingRng$LT$R$C$Rsdr$GT$$u20$as$u20$rand_core..RngCore$GT$8next_u3217h9aaf76541b3e6963E", scope: !491, file: !53, line: 113, type: !492, scopeLine: 113, flags: DIFlagPrototyped, spFlags: DISPFlagLocalToUnit | DISPFlagDefinition, unit: !49, templateParams: !109, retainedNodes: !494)
!491 = !DINamespace(name: "{impl#1}", scope: !55)
!492 = !DISubroutineType(types: !493)
!493 = !{!79, !445}
!494 = !{!489}
!495 = !DILocation(line: 113, column: 17, scope: !490, inlinedAt: !496)
!496 = distinct !DILocation(line: 174, column: 9, scope: !444, inlinedAt: !447)
!497 = !DILocation(line: 114, column: 9, scope: !490, inlinedAt: !496)
!498 = !DILocation(line: 203, column: 9, scope: !420)
!499 = !DILocation(line: 204, column: 6, scope: !420)
!500 = distinct !DISubprogram(name: "report", linkageName: "_ZN54_$LT$$LP$$RP$$u20$as$u20$std..process..Termination$GT$6report17h61953a0fd5719ceaE", scope: !501, file: !170, line: 2432, type: !502, scopeLine: 2432, flags: DIFlagPrototyped, spFlags: DISPFlagLocalToUnit | DISPFlagDefinition, unit: !49, templateParams: !23, retainedNodes: !504)
!501 = !DINamespace(name: "{impl#57}", scope: !172)
!502 = !DISubroutineType(types: !503)
!503 = !{!171, !7}
!504 = !{!505}
!505 = !DILocalVariable(arg: 1, scope: !500, file: !170, line: 2432, type: !7)
!506 = !DILocation(line: 2432, column: 15, scope: !500)
!507 = !DILocation(line: 2434, column: 6, scope: !500)
!508 = distinct !DISubprogram(name: "as_ref<rand_chacha::chacha::Array64<u32>, [u32]>", linkageName: "_ZN63_$LT$$RF$mut$u20$T$u20$as$u20$core..convert..AsRef$LT$U$GT$$GT$6as_ref17hcf4f85feb7206a28E", scope: !510, file: !509, line: 715, type: !512, scopeLine: 715, flags: DIFlagPrototyped, spFlags: DISPFlagLocalToUnit | DISPFlagDefinition, unit: !49, templateParams: !517, retainedNodes: !515)
!509 = !DIFile(filename: "/rustc/ecade534c66478c51c5d3c1d3682dc4beb0ac972/library/core/src/convert/mod.rs", directory: "", checksumkind: CSK_MD5, checksum: "187a8de4578355139951e6682cebb029")
!510 = !DINamespace(name: "{impl#1}", scope: !511)
!511 = !DINamespace(name: "convert", scope: !96)
!512 = !DISubroutineType(types: !513)
!513 = !{!229, !514}
!514 = !DIDerivedType(tag: DW_TAG_pointer_type, name: "&&mut rand_chacha::chacha::Array64<u32>", baseType: !112, size: 64, align: 64, dwarfAddressSpace: 0)
!515 = !{!516}
!516 = !DILocalVariable(name: "self", arg: 1, scope: !508, file: !509, line: 715, type: !514)
!517 = !{!518, !519}
!518 = !DITemplateTypeParameter(name: "T", type: !113)
!519 = !DITemplateTypeParameter(name: "U", type: !79)
!520 = !DILocation(line: 715, column: 15, scope: !508)
!521 = !DILocation(line: 716, column: 33, scope: !508)
!522 = !DILocation(line: 716, column: 9, scope: !508)
!523 = !DILocation(line: 717, column: 6, scope: !508)
!524 = distinct !DISubprogram(name: "next_u32<rand::rngs::reseeding::ReseedingCore<rand_chacha::chacha::ChaCha12Core, rand_core::os::OsRng>>", linkageName: "_ZN74_$LT$rand_core..block..BlockRng$LT$R$GT$$u20$as$u20$rand_core..RngCore$GT$8next_u3217h5ba689e9c842bbddE", scope: !526, file: !525, line: 186, type: !527, scopeLine: 186, flags: DIFlagPrototyped, spFlags: DISPFlagLocalToUnit | DISPFlagDefinition, unit: !49, templateParams: !332, retainedNodes: !530)
!525 = !DIFile(filename: "/home/np/.cargo/registry/src/index.crates.io-1949cf8c6b5b557f/rand_core-0.9.3/src/block.rs", directory: "", checksumkind: CSK_MD5, checksum: "b5ef00244c22c51d50ecb2ae1bb4a1ae")
!526 = !DINamespace(name: "{impl#2}", scope: !327)
!527 = !DISubroutineType(types: !528)
!528 = !{!79, !529}
!529 = !DIDerivedType(tag: DW_TAG_pointer_type, name: "&mut rand_core::block::BlockRng<rand::rngs::reseeding::ReseedingCore<rand_chacha::chacha::ChaCha12Core, rand_core::os::OsRng>>", baseType: !326, size: 64, align: 64, dwarfAddressSpace: 0)
!530 = !{!531, !532}
!531 = !DILocalVariable(name: "self", arg: 1, scope: !524, file: !525, line: 186, type: !529)
!532 = !DILocalVariable(name: "value", scope: !533, file: !525, line: 191, type: !79, align: 32)
!533 = distinct !DILexicalBlock(scope: !524, file: !525, line: 191, column: 9)
!534 = !DILocation(line: 186, column: 17, scope: !524)
!535 = !DILocation(line: 187, column: 12, scope: !524)
!536 = !DILocation(line: 187, column: 26, scope: !524)
!537 = !DILocation(line: 191, column: 21, scope: !524)
!538 = !DILocation(line: 191, column: 43, scope: !524)
!539 = !DILocation(line: 188, column: 13, scope: !524)
!540 = !DILocation(line: 191, column: 13, scope: !533)
!541 = !DILocation(line: 192, column: 9, scope: !533)
!542 = !DILocation(line: 194, column: 6, scope: !524)
!543 = distinct !DISubprogram(name: "generate", linkageName: "_ZN84_$LT$rand_chacha..chacha..ChaCha12Core$u20$as$u20$rand_core..block..BlockRngCore$GT$8generate17h30baf41324780ba0E", scope: !545, file: !544, line: 90, type: !546, scopeLine: 90, flags: DIFlagPrototyped, spFlags: DISPFlagLocalToUnit | DISPFlagDefinition, unit: !49, templateParams: !23, retainedNodes: !549)
!544 = !DIFile(filename: "/home/np/.cargo/registry/src/index.crates.io-1949cf8c6b5b557f/rand_chacha-0.9.0/src/chacha.rs", directory: "", checksumkind: CSK_MD5, checksum: "7f4e0005afead6890469401ecfa5f424")
!545 = !DINamespace(name: "{impl#23}", scope: !65)
!546 = !DISubroutineType(types: !547)
!547 = !{null, !548, !112}
!548 = !DIDerivedType(tag: DW_TAG_pointer_type, name: "&mut rand_chacha::chacha::ChaCha12Core", baseType: !64, size: 64, align: 64, dwarfAddressSpace: 0)
!549 = !{!550, !551}
!550 = !DILocalVariable(name: "self", arg: 1, scope: !543, file: !544, line: 90, type: !548)
!551 = !DILocalVariable(name: "r", arg: 2, scope: !543, file: !544, line: 90, type: !112)
!552 = !DILocation(line: 90, column: 25, scope: !543)
!553 = !DILocation(line: 90, column: 36, scope: !543)
!554 = !DILocalVariable(name: "self", arg: 1, scope: !555, file: !556, line: 80, type: !559)
!555 = distinct !DISubprogram(name: "refill4", linkageName: "_ZN11rand_chacha4guts6ChaCha7refill417h7a24c7be9ffb049cE", scope: !69, file: !556, line: 80, type: !557, scopeLine: 80, flags: DIFlagPrototyped, spFlags: DISPFlagLocalToUnit | DISPFlagDefinition, unit: !49, templateParams: !23, declaration: !561, retainedNodes: !562)
!556 = !DIFile(filename: "/home/np/.cargo/registry/src/index.crates.io-1949cf8c6b5b557f/rand_chacha-0.9.0/src/guts.rs", directory: "", checksumkind: CSK_MD5, checksum: "d8991d5076408722f1c6dc41e4372770")
!557 = !DISubroutineType(types: !558)
!558 = !{null, !559, !79, !560}
!559 = !DIDerivedType(tag: DW_TAG_pointer_type, name: "&mut rand_chacha::guts::ChaCha", baseType: !69, size: 64, align: 64, dwarfAddressSpace: 0)
!560 = !DIDerivedType(tag: DW_TAG_pointer_type, name: "&mut [u32; 64]", baseType: !116, size: 64, align: 64, dwarfAddressSpace: 0)
!561 = !DISubprogram(name: "refill4", linkageName: "_ZN11rand_chacha4guts6ChaCha7refill417h7a24c7be9ffb049cE", scope: !69, file: !556, line: 80, type: !557, scopeLine: 80, flags: DIFlagPrototyped, spFlags: DISPFlagLocalToUnit, templateParams: !23)
!562 = !{!554, !563, !564}
!563 = !DILocalVariable(name: "drounds", arg: 2, scope: !555, file: !556, line: 80, type: !79)
!564 = !DILocalVariable(name: "out", arg: 3, scope: !555, file: !556, line: 80, type: !560)
!565 = !DILocation(line: 80, column: 20, scope: !555, inlinedAt: !566)
!566 = distinct !DILocation(line: 91, column: 17, scope: !543)
!567 = !DILocation(line: 80, column: 31, scope: !555, inlinedAt: !566)
!568 = !DILocation(line: 80, column: 45, scope: !555, inlinedAt: !566)
!569 = !DILocation(line: 81, column: 9, scope: !555, inlinedAt: !566)
!570 = !DILocation(line: 92, column: 14, scope: !543)
!571 = distinct !DISubprogram(name: "generate_and_set<rand::rngs::reseeding::ReseedingCore<rand_chacha::chacha::ChaCha12Core, rand_core::os::OsRng>>", linkageName: "_ZN9rand_core5block17BlockRng$LT$R$GT$16generate_and_set17h815b35b30d5e012dE", scope: !326, file: !525, line: 177, type: !572, scopeLine: 177, flags: DIFlagPrototyped, spFlags: DISPFlagLocalToUnit | DISPFlagDefinition, unit: !49, templateParams: !332, declaration: !574, retainedNodes: !575)
!572 = !DISubroutineType(types: !573)
!573 = !{null, !529, !9}
!574 = !DISubprogram(name: "generate_and_set<rand::rngs::reseeding::ReseedingCore<rand_chacha::chacha::ChaCha12Core, rand_core::os::OsRng>>", linkageName: "_ZN9rand_core5block17BlockRng$LT$R$GT$16generate_and_set17h815b35b30d5e012dE", scope: !326, file: !525, line: 177, type: !572, scopeLine: 177, flags: DIFlagPrototyped, spFlags: DISPFlagLocalToUnit, templateParams: !332)
!575 = !{!576, !577}
!576 = !DILocalVariable(name: "self", arg: 1, scope: !571, file: !525, line: 177, type: !529)
!577 = !DILocalVariable(name: "index", arg: 2, scope: !571, file: !525, line: 177, type: !9)
!578 = !DILocation(line: 177, column: 29, scope: !571)
!579 = !DILocation(line: 177, column: 40, scope: !571)
!580 = !DILocation(line: 178, column: 25, scope: !571)
!581 = !DILocation(line: 178, column: 17, scope: !571)
!582 = !DILocation(line: 178, column: 9, scope: !571)
!583 = !DILocation(line: 179, column: 9, scope: !571)
!584 = !DILocation(line: 180, column: 9, scope: !571)
!585 = !DILocation(line: 181, column: 6, scope: !571)
!586 = distinct !DISubprogram(name: "speak", linkageName: "_ZN44_$LT$dp_ex..Dog$u20$as$u20$dp_ex..Animal$GT$5speak17had468e7662b92aa1E", scope: !588, file: !587, line: 10, type: !589, scopeLine: 10, flags: DIFlagPrototyped, spFlags: DISPFlagLocalToUnit | DISPFlagDefinition, unit: !49, templateParams: !23, retainedNodes: !592)
!587 = !DIFile(filename: "src/main.rs", directory: "/home/np/hack/verifopt/dp-ex", checksumkind: CSK_MD5, checksum: "b3f97947870f94c9202daaf6fb1ed201")
!588 = !DINamespace(name: "{impl#0}", scope: !33)
!589 = !DISubroutineType(types: !590)
!590 = !{null, !591}
!591 = !DIDerivedType(tag: DW_TAG_pointer_type, name: "&dp_ex::Dog", baseType: !32, size: 64, align: 64, dwarfAddressSpace: 0)
!592 = !{!593}
!593 = !DILocalVariable(name: "self", arg: 1, scope: !586, file: !587, line: 10, type: !591)
!594 = !DILocation(line: 10, column: 14, scope: !586)
!595 = !DILocation(line: 11, column: 9, scope: !586)
!596 = !DILocation(line: 12, column: 6, scope: !586)
!597 = distinct !DISubprogram(name: "speak", linkageName: "_ZN44_$LT$dp_ex..Cat$u20$as$u20$dp_ex..Animal$GT$5speak17h504ab8d43430beb1E", scope: !598, file: !587, line: 18, type: !599, scopeLine: 18, flags: DIFlagPrototyped, spFlags: DISPFlagLocalToUnit | DISPFlagDefinition, unit: !49, templateParams: !23, retainedNodes: !602)
!598 = !DINamespace(name: "{impl#1}", scope: !33)
!599 = !DISubroutineType(types: !600)
!600 = !{null, !601}
!601 = !DIDerivedType(tag: DW_TAG_pointer_type, name: "&dp_ex::Cat", baseType: !42, size: 64, align: 64, dwarfAddressSpace: 0)
!602 = !{!603}
!603 = !DILocalVariable(name: "self", arg: 1, scope: !597, file: !587, line: 18, type: !601)
!604 = !DILocation(line: 18, column: 14, scope: !597)
!605 = !DILocation(line: 19, column: 9, scope: !597)
!606 = !DILocation(line: 20, column: 6, scope: !597)
!607 = distinct !DISubprogram(name: "dyn_dp", linkageName: "_ZN5dp_ex6dyn_dp17h2163eacfb0f4ef0dE", scope: !33, file: !587, line: 23, type: !21, scopeLine: 23, flags: DIFlagPrototyped, spFlags: DISPFlagLocalToUnit | DISPFlagDefinition, unit: !49, templateParams: !23, retainedNodes: !608)
!608 = !{!609, !619}
!609 = !DILocalVariable(name: "a", scope: !610, file: !587, line: 24, type: !611, align: 64)
!610 = distinct !DILexicalBlock(scope: !607, file: !587, line: 24, column: 5)
!611 = !DICompositeType(tag: DW_TAG_structure_type, name: "&dyn dp_ex::Animal", file: !2, size: 128, align: 64, elements: !612, templateParams: !23, identifier: "ad49a16fea53e689f14c8913b21fad35")
!612 = !{!613, !616}
!613 = !DIDerivedType(tag: DW_TAG_member, name: "pointer", scope: !611, file: !2, baseType: !614, size: 64, align: 64)
!614 = !DIDerivedType(tag: DW_TAG_pointer_type, baseType: !615, size: 64, align: 64, dwarfAddressSpace: 0)
!615 = !DICompositeType(tag: DW_TAG_structure_type, name: "dyn dp_ex::Animal", file: !2, align: 8, elements: !23, identifier: "8516c36f8b39633d54ae35703181130")
!616 = !DIDerivedType(tag: DW_TAG_member, name: "vtable", scope: !611, file: !2, baseType: !617, size: 64, align: 64, offset: 64)
!617 = !DIDerivedType(tag: DW_TAG_pointer_type, name: "&[usize; 4]", baseType: !618, size: 64, align: 64, dwarfAddressSpace: 0)
!618 = !DICompositeType(tag: DW_TAG_array_type, baseType: !9, size: 256, align: 64, elements: !80)
!619 = !DILocalVariable(name: "rng", scope: !620, file: !587, line: 26, type: !292, align: 64)
!620 = distinct !DILexicalBlock(scope: !610, file: !587, line: 26, column: 5)
!621 = !DILocation(line: 24, column: 9, scope: !610)
!622 = !DILocation(line: 26, column: 9, scope: !620)
!623 = !DILocation(line: 26, column: 19, scope: !610)
!624 = !DILocation(line: 27, column: 8, scope: !620)
!625 = !DILocation(line: 34, column: 1, scope: !610)
!626 = !DILocation(line: 30, column: 9, scope: !620)
!627 = !DILocation(line: 27, column: 5, scope: !620)
!628 = !DILocation(line: 28, column: 9, scope: !620)
!629 = !DILocation(line: 33, column: 5, scope: !620)
!630 = !DILocation(line: 34, column: 2, scope: !607)
!631 = !DILocation(line: 23, column: 1, scope: !607)
!632 = distinct !DISubprogram(name: "static_dp", linkageName: "_ZN5dp_ex9static_dp17h12c823b24041d8eeE", scope: !33, file: !587, line: 60, type: !21, scopeLine: 60, flags: DIFlagPrototyped, spFlags: DISPFlagLocalToUnit | DISPFlagDefinition, unit: !49, templateParams: !23, retainedNodes: !633)
!633 = !{!634}
!634 = !DILocalVariable(name: "cat", scope: !635, file: !587, line: 61, type: !601, align: 64)
!635 = distinct !DILexicalBlock(scope: !632, file: !587, line: 61, column: 5)
!636 = !DILocation(line: 61, column: 15, scope: !632)
!637 = !DILocation(line: 61, column: 9, scope: !635)
!638 = !DILocation(line: 62, column: 5, scope: !635)
!639 = !DILocation(line: 63, column: 2, scope: !632)
!640 = distinct !DISubprogram(name: "main", linkageName: "_ZN5dp_ex4main17hfaa1a74bb1a25d42E", scope: !33, file: !587, line: 65, type: !21, scopeLine: 65, flags: DIFlagPrototyped, spFlags: DISPFlagLocalToUnit | DISPFlagDefinition | DISPFlagMainSubprogram, unit: !49, templateParams: !23)
!641 = !DILocation(line: 80, column: 5, scope: !640)
!642 = !DILocation(line: 81, column: 5, scope: !640)
!643 = !DILocation(line: 82, column: 2, scope: !640)
