	.file	"47mem9q2d6p1mvtu0iveyp842"
	.section	".text._ZN103_$LT$rand..rngs..reseeding..ReseedingCore$LT$R$C$Rsdr$GT$$u20$as$u20$rand_core..block..BlockRngCore$GT$8generate17h65f4881e2030d610E","ax",@progbits
	.p2align	4
	.type	_ZN103_$LT$rand..rngs..reseeding..ReseedingCore$LT$R$C$Rsdr$GT$$u20$as$u20$rand_core..block..BlockRngCore$GT$8generate17h65f4881e2030d610E,@function
_ZN103_$LT$rand..rngs..reseeding..ReseedingCore$LT$R$C$Rsdr$GT$$u20$as$u20$rand_core..block..BlockRngCore$GT$8generate17h65f4881e2030d610E:
.Lfunc_begin0:
	.file	1 "/home/np/.cargo/registry/src/index.crates.io-1949cf8c6b5b557f/rand-0.9.2/src/rngs" "reseeding.rs"
	.loc	1 162 0
	.cfi_startproc
	subq	$40, %rsp
	.cfi_def_cfa_offset 48
	movq	%rdi, 8(%rsp)
	movq	%rsi, 16(%rsp)
	movq	%rdi, 24(%rsp)
.Ltmp0:
	.loc	1 163 12 prologue_end
	cmpq	$0, 56(%rdi)
	jle	.LBB0_2
	.loc	1 169 37
	leaq	16(%rsp), %rdi
	callq	_ZN63_$LT$$RF$mut$u20$T$u20$as$u20$core..convert..AsRef$LT$U$GT$$GT$6as_ref17hcf4f85feb7206a28E
	movq	%rax, %rdi
	movq	%rdx, %rsi
	.loc	1 169 25 is_stmt 0
	callq	_ZN4core3mem11size_of_val17h6d9e552afa58affdE
	movq	%rax, %rcx
	movq	8(%rsp), %rax
	movq	%rcx, 32(%rsp)
.Ltmp1:
	.loc	1 170 9 is_stmt 1
	movq	56(%rax), %rax
	subq	%rcx, %rax
	movq	%rax, (%rsp)
	seto	%al
	jo	.LBB0_4
	jmp	.LBB0_3
.Ltmp2:
.LBB0_2:
	.loc	1 0 9 is_stmt 0
	movq	8(%rsp), %rdi
	.loc	1 167 20 is_stmt 1
	movq	16(%rsp), %rsi
	callq	_ZN4rand4rngs9reseeding29ReseedingCore$LT$R$C$Rsdr$GT$19reseed_and_generate17h13935bc7e637f19cE
	jmp	.LBB0_5
.LBB0_3:
	.loc	1 0 20 is_stmt 0
	movq	8(%rsp), %rdi
	movq	(%rsp), %rax
.Ltmp3:
	.loc	1 170 9 is_stmt 1
	movq	%rax, 56(%rdi)
	.loc	1 171 9
	movq	16(%rsp), %rsi
	callq	_ZN84_$LT$rand_chacha..chacha..ChaCha12Core$u20$as$u20$rand_core..block..BlockRngCore$GT$8generate17h30baf41324780ba0E
	jmp	.LBB0_5
.LBB0_4:
	.loc	1 170 9
	leaq	.Lanon.a6fa456c9412015864d7783aa51b16ac.1(%rip), %rdi
	callq	*_ZN4core9panicking11panic_const24panic_const_sub_overflow17hab14e776658d8858E@GOTPCREL(%rip)
.Ltmp4:
.LBB0_5:
	.loc	1 172 6 epilogue_begin
	addq	$40, %rsp
	.cfi_def_cfa_offset 8
	retq
.Ltmp5:
.Lfunc_end0:
	.size	_ZN103_$LT$rand..rngs..reseeding..ReseedingCore$LT$R$C$Rsdr$GT$$u20$as$u20$rand_core..block..BlockRngCore$GT$8generate17h65f4881e2030d610E, .Lfunc_end0-_ZN103_$LT$rand..rngs..reseeding..ReseedingCore$LT$R$C$Rsdr$GT$$u20$as$u20$rand_core..block..BlockRngCore$GT$8generate17h65f4881e2030d610E
	.cfi_endproc

	.section	.text._ZN3std2rt10lang_start17h27e2b9e2c6bd9d09E,"ax",@progbits
	.hidden	_ZN3std2rt10lang_start17h27e2b9e2c6bd9d09E
	.globl	_ZN3std2rt10lang_start17h27e2b9e2c6bd9d09E
	.p2align	4
	.type	_ZN3std2rt10lang_start17h27e2b9e2c6bd9d09E,@function
_ZN3std2rt10lang_start17h27e2b9e2c6bd9d09E:
.Lfunc_begin1:
	.file	2 "/rustc/ecade534c66478c51c5d3c1d3682dc4beb0ac972/library/std/src" "rt.rs"
	.loc	2 192 0
	.cfi_startproc
	subq	$40, %rsp
	.cfi_def_cfa_offset 48
	movl	%ecx, %eax
	movq	%rdx, %rcx
	movq	%rsi, %rdx
	movq	%rdi, 8(%rsp)
	movq	%rdx, 16(%rsp)
	movq	%rcx, 24(%rsp)
	movb	%al, 39(%rsp)
.Ltmp6:
	.loc	2 199 10 prologue_end
	movq	%rdi, (%rsp)
	.loc	2 198 5
	movq	%rsp, %rdi
	leaq	.Lanon.a6fa456c9412015864d7783aa51b16ac.2(%rip), %rsi
	movzbl	%al, %r8d
	callq	*_ZN3std2rt19lang_start_internal17h179a86731aa5c4aaE@GOTPCREL(%rip)
	.loc	2 204 2 epilogue_begin
	addq	$40, %rsp
	.cfi_def_cfa_offset 8
	retq
.Ltmp7:
.Lfunc_end1:
	.size	_ZN3std2rt10lang_start17h27e2b9e2c6bd9d09E, .Lfunc_end1-_ZN3std2rt10lang_start17h27e2b9e2c6bd9d09E
	.cfi_endproc

	.section	".text._ZN3std2rt10lang_start28_$u7b$$u7b$closure$u7d$$u7d$17h975e66f67ae81916E","ax",@progbits
	.p2align	4
	.type	_ZN3std2rt10lang_start28_$u7b$$u7b$closure$u7d$$u7d$17h975e66f67ae81916E,@function
_ZN3std2rt10lang_start28_$u7b$$u7b$closure$u7d$$u7d$17h975e66f67ae81916E:
.Lfunc_begin2:
	.loc	2 199 0
	.cfi_startproc
	subq	$24, %rsp
	.cfi_def_cfa_offset 32
	movq	%rdi, 8(%rsp)
.Ltmp8:
	.loc	2 199 70 prologue_end
	movq	(%rdi), %rdi
	.loc	2 199 18 is_stmt 0
	callq	_ZN3std3sys9backtrace28__rust_begin_short_backtrace17h2afd2c7d0674a96fE
	callq	_ZN54_$LT$$LP$$RP$$u20$as$u20$std..process..Termination$GT$6report17h61953a0fd5719ceaE
	movb	%al, 23(%rsp)
.Ltmp9:
	.file	3 "/rustc/ecade534c66478c51c5d3c1d3682dc4beb0ac972/library/std/src/sys/pal/unix/process" "process_common.rs"
	.loc	3 631 9 is_stmt 1
	movzbl	%al, %eax
.Ltmp10:
	.loc	2 199 93 epilogue_begin
	addq	$24, %rsp
	.cfi_def_cfa_offset 8
	retq
.Ltmp11:
.Lfunc_end2:
	.size	_ZN3std2rt10lang_start28_$u7b$$u7b$closure$u7d$$u7d$17h975e66f67ae81916E, .Lfunc_end2-_ZN3std2rt10lang_start28_$u7b$$u7b$closure$u7d$$u7d$17h975e66f67ae81916E
	.cfi_endproc
	.file	4 "/rustc/ecade534c66478c51c5d3c1d3682dc4beb0ac972/library/std/src" "process.rs"

	.section	.text._ZN3std3sys9backtrace28__rust_begin_short_backtrace17h2afd2c7d0674a96fE,"ax",@progbits
	.p2align	4
	.type	_ZN3std3sys9backtrace28__rust_begin_short_backtrace17h2afd2c7d0674a96fE,@function
_ZN3std3sys9backtrace28__rust_begin_short_backtrace17h2afd2c7d0674a96fE:
.Lfunc_begin3:
	.file	5 "/rustc/ecade534c66478c51c5d3c1d3682dc4beb0ac972/library/std/src/sys" "backtrace.rs"
	.loc	5 148 0
	.cfi_startproc
	subq	$24, %rsp
	.cfi_def_cfa_offset 32
	movq	%rdi, 8(%rsp)
.Ltmp12:
	.loc	5 152 18 prologue_end
	callq	_ZN4core3ops8function6FnOnce9call_once17hd703a48edda16cd5E
.Ltmp13:
	.file	6 "/rustc/ecade534c66478c51c5d3c1d3682dc4beb0ac972/library/core/src" "hint.rs"
	.loc	6 477 5
	#APP
	#NO_APP
.Ltmp14:
	.loc	5 158 2 epilogue_begin
	addq	$24, %rsp
	.cfi_def_cfa_offset 8
	retq
.Ltmp15:
.Lfunc_end3:
	.size	_ZN3std3sys9backtrace28__rust_begin_short_backtrace17h2afd2c7d0674a96fE, .Lfunc_end3-_ZN3std3sys9backtrace28__rust_begin_short_backtrace17h2afd2c7d0674a96fE
	.cfi_endproc

	.section	.text._ZN4core3mem11size_of_val17h6d9e552afa58affdE,"ax",@progbits
	.p2align	4
	.type	_ZN4core3mem11size_of_val17h6d9e552afa58affdE,@function
_ZN4core3mem11size_of_val17h6d9e552afa58affdE:
.Lfunc_begin4:
	.file	7 "/rustc/ecade534c66478c51c5d3c1d3682dc4beb0ac972/library/core/src/mem" "mod.rs"
	.loc	7 332 0
	.cfi_startproc
	movq	%rdi, -24(%rsp)
	movq	%rsi, -16(%rsp)
.Ltmp16:
	.loc	7 334 14 prologue_end
	shlq	$2, %rsi
	movq	%rsi, -8(%rsp)
	movq	-8(%rsp), %rax
	.loc	7 335 2
	retq
.Ltmp17:
.Lfunc_end4:
	.size	_ZN4core3mem11size_of_val17h6d9e552afa58affdE, .Lfunc_end4-_ZN4core3mem11size_of_val17h6d9e552afa58affdE
	.cfi_endproc

	.section	".text._ZN4core3ops8function6FnOnce40call_once$u7b$$u7b$vtable.shim$u7d$$u7d$17hb06e99ac8656f6d6E","ax",@progbits
	.p2align	4
	.type	_ZN4core3ops8function6FnOnce40call_once$u7b$$u7b$vtable.shim$u7d$$u7d$17hb06e99ac8656f6d6E,@function
_ZN4core3ops8function6FnOnce40call_once$u7b$$u7b$vtable.shim$u7d$$u7d$17hb06e99ac8656f6d6E:
.Lfunc_begin5:
	.file	8 "/rustc/ecade534c66478c51c5d3c1d3682dc4beb0ac972/library/core/src/ops" "function.rs"
	.loc	8 250 0
	.cfi_startproc
	subq	$24, %rsp
	.cfi_def_cfa_offset 32
	movq	%rdi, 16(%rsp)
.Ltmp18:
	.loc	8 250 5 prologue_end
	movq	(%rdi), %rdi
	callq	_ZN4core3ops8function6FnOnce9call_once17h1c445d99f54a92d5E
	.loc	8 250 5 epilogue_begin is_stmt 0
	addq	$24, %rsp
	.cfi_def_cfa_offset 8
	retq
.Ltmp19:
.Lfunc_end5:
	.size	_ZN4core3ops8function6FnOnce40call_once$u7b$$u7b$vtable.shim$u7d$$u7d$17hb06e99ac8656f6d6E, .Lfunc_end5-_ZN4core3ops8function6FnOnce40call_once$u7b$$u7b$vtable.shim$u7d$$u7d$17hb06e99ac8656f6d6E
	.cfi_endproc

	.section	.text._ZN4core3ops8function6FnOnce9call_once17h1c445d99f54a92d5E,"ax",@progbits
	.p2align	4
	.type	_ZN4core3ops8function6FnOnce9call_once17h1c445d99f54a92d5E,@function
_ZN4core3ops8function6FnOnce9call_once17h1c445d99f54a92d5E:
.Lfunc_begin6:
	.loc	8 250 0 is_stmt 1
	.cfi_startproc
	.cfi_personality 155, DW.ref.rust_eh_personality
	.cfi_lsda 27, .Lexception0
	subq	$40, %rsp
	.cfi_def_cfa_offset 48
	movq	%rdi, 8(%rsp)
.Ltmp20:
	leaq	8(%rsp), %rdi
.Ltmp23:
	.loc	8 250 5 prologue_end
	callq	_ZN3std2rt10lang_start28_$u7b$$u7b$closure$u7d$$u7d$17h975e66f67ae81916E
.Ltmp21:
	movl	%eax, 4(%rsp)
	jmp	.LBB6_3
.LBB6_1:
	.loc	8 250 5
	movq	24(%rsp), %rdi
	callq	_Unwind_Resume@PLT
.LBB6_2:
.Ltmp22:
	.loc	8 0 5 is_stmt 0
	movq	%rax, %rcx
	movl	%edx, %eax
	movq	%rcx, 24(%rsp)
	movl	%eax, 32(%rsp)
	jmp	.LBB6_1
.LBB6_3:
	movl	4(%rsp), %eax
	.loc	8 250 5 epilogue_begin
	addq	$40, %rsp
	.cfi_def_cfa_offset 8
	retq
.Ltmp24:
.Lfunc_end6:
	.size	_ZN4core3ops8function6FnOnce9call_once17h1c445d99f54a92d5E, .Lfunc_end6-_ZN4core3ops8function6FnOnce9call_once17h1c445d99f54a92d5E
	.cfi_endproc
	.section	.gcc_except_table._ZN4core3ops8function6FnOnce9call_once17h1c445d99f54a92d5E,"a",@progbits
	.p2align	2, 0x0
GCC_except_table6:
.Lexception0:
	.byte	255
	.byte	255
	.byte	1
	.uleb128 .Lcst_end0-.Lcst_begin0
.Lcst_begin0:
	.uleb128 .Ltmp20-.Lfunc_begin6
	.uleb128 .Ltmp21-.Ltmp20
	.uleb128 .Ltmp22-.Lfunc_begin6
	.byte	0
	.uleb128 .Ltmp21-.Lfunc_begin6
	.uleb128 .Lfunc_end6-.Ltmp21
	.byte	0
	.byte	0
.Lcst_end0:
	.p2align	2, 0x0

	.section	.text._ZN4core3ops8function6FnOnce9call_once17hd703a48edda16cd5E,"ax",@progbits
	.p2align	4
	.type	_ZN4core3ops8function6FnOnce9call_once17hd703a48edda16cd5E,@function
_ZN4core3ops8function6FnOnce9call_once17hd703a48edda16cd5E:
.Lfunc_begin7:
	.loc	8 250 0 is_stmt 1
	.cfi_startproc
	subq	$24, %rsp
	.cfi_def_cfa_offset 32
	movq	%rdi, 16(%rsp)
.Ltmp25:
	.loc	8 250 5 prologue_end
	callq	*%rdi
	.loc	8 250 5 epilogue_begin is_stmt 0
	addq	$24, %rsp
	.cfi_def_cfa_offset 8
	retq
.Ltmp26:
.Lfunc_end7:
	.size	_ZN4core3ops8function6FnOnce9call_once17hd703a48edda16cd5E, .Lfunc_end7-_ZN4core3ops8function6FnOnce9call_once17hd703a48edda16cd5E
	.cfi_endproc

	.section	".text._ZN4core3ptr31drop_in_place$LT$dp_ex..Cat$GT$17h9aa1b5c63807ed14E","ax",@progbits
	.p2align	4
	.type	_ZN4core3ptr31drop_in_place$LT$dp_ex..Cat$GT$17h9aa1b5c63807ed14E,@function
_ZN4core3ptr31drop_in_place$LT$dp_ex..Cat$GT$17h9aa1b5c63807ed14E:
.Lfunc_begin8:
	.file	9 "/rustc/ecade534c66478c51c5d3c1d3682dc4beb0ac972/library/core/src/ptr" "mod.rs"
	.loc	9 523 0 is_stmt 1
	.cfi_startproc
	movq	%rdi, -8(%rsp)
.Ltmp27:
	.loc	9 523 1 prologue_end
	retq
.Ltmp28:
.Lfunc_end8:
	.size	_ZN4core3ptr31drop_in_place$LT$dp_ex..Cat$GT$17h9aa1b5c63807ed14E, .Lfunc_end8-_ZN4core3ptr31drop_in_place$LT$dp_ex..Cat$GT$17h9aa1b5c63807ed14E
	.cfi_endproc

	.section	".text._ZN4core3ptr31drop_in_place$LT$dp_ex..Dog$GT$17haa225f289cc6a195E","ax",@progbits
	.p2align	4
	.type	_ZN4core3ptr31drop_in_place$LT$dp_ex..Dog$GT$17haa225f289cc6a195E,@function
_ZN4core3ptr31drop_in_place$LT$dp_ex..Dog$GT$17haa225f289cc6a195E:
.Lfunc_begin9:
	.loc	9 523 0
	.cfi_startproc
	movq	%rdi, -8(%rsp)
.Ltmp29:
	.loc	9 523 1 prologue_end
	retq
.Ltmp30:
.Lfunc_end9:
	.size	_ZN4core3ptr31drop_in_place$LT$dp_ex..Dog$GT$17haa225f289cc6a195E, .Lfunc_end9-_ZN4core3ptr31drop_in_place$LT$dp_ex..Dog$GT$17haa225f289cc6a195E
	.cfi_endproc

	.section	".text._ZN4core3ptr50drop_in_place$LT$rand..rngs..thread..ThreadRng$GT$17h4290c5a380cfe87dE","ax",@progbits
	.p2align	4
	.type	_ZN4core3ptr50drop_in_place$LT$rand..rngs..thread..ThreadRng$GT$17h4290c5a380cfe87dE,@function
_ZN4core3ptr50drop_in_place$LT$rand..rngs..thread..ThreadRng$GT$17h4290c5a380cfe87dE:
.Lfunc_begin10:
	.loc	9 523 0
	.cfi_startproc
	pushq	%rax
	.cfi_def_cfa_offset 16
	movq	%rdi, (%rsp)
.Ltmp31:
	.loc	9 523 1 prologue_end
	callq	*_ZN4core3ptr171drop_in_place$LT$alloc..rc..Rc$LT$core..cell..UnsafeCell$LT$rand..rngs..reseeding..ReseedingRng$LT$rand_chacha..chacha..ChaCha12Core$C$rand_core..os..OsRng$GT$$GT$$GT$$GT$17h7cd476027919055aE@GOTPCREL(%rip)
	.loc	9 523 1 epilogue_begin is_stmt 0
	popq	%rax
	.cfi_def_cfa_offset 8
	retq
.Ltmp32:
.Lfunc_end10:
	.size	_ZN4core3ptr50drop_in_place$LT$rand..rngs..thread..ThreadRng$GT$17h4290c5a380cfe87dE, .Lfunc_end10-_ZN4core3ptr50drop_in_place$LT$rand..rngs..thread..ThreadRng$GT$17h4290c5a380cfe87dE
	.cfi_endproc

	.section	".text._ZN4core3ptr85drop_in_place$LT$std..rt..lang_start$LT$$LP$$RP$$GT$..$u7b$$u7b$closure$u7d$$u7d$$GT$17h0c91bb19f0a043fdE","ax",@progbits
	.p2align	4
	.type	_ZN4core3ptr85drop_in_place$LT$std..rt..lang_start$LT$$LP$$RP$$GT$..$u7b$$u7b$closure$u7d$$u7d$$GT$17h0c91bb19f0a043fdE,@function
_ZN4core3ptr85drop_in_place$LT$std..rt..lang_start$LT$$LP$$RP$$GT$..$u7b$$u7b$closure$u7d$$u7d$$GT$17h0c91bb19f0a043fdE:
.Lfunc_begin11:
	.loc	9 523 0 is_stmt 1
	.cfi_startproc
	movq	%rdi, -8(%rsp)
.Ltmp33:
	.loc	9 523 1 prologue_end
	retq
.Ltmp34:
.Lfunc_end11:
	.size	_ZN4core3ptr85drop_in_place$LT$std..rt..lang_start$LT$$LP$$RP$$GT$..$u7b$$u7b$closure$u7d$$u7d$$GT$17h0c91bb19f0a043fdE, .Lfunc_end11-_ZN4core3ptr85drop_in_place$LT$std..rt..lang_start$LT$$LP$$RP$$GT$..$u7b$$u7b$closure$u7d$$u7d$$GT$17h0c91bb19f0a043fdE
	.cfi_endproc

	.section	.text._ZN4rand3rng3Rng6random17he47c0a49024989aaE,"ax",@progbits
	.p2align	4
	.type	_ZN4rand3rng3Rng6random17he47c0a49024989aaE,@function
_ZN4rand3rng3Rng6random17he47c0a49024989aaE:
.Lfunc_begin12:
	.file	10 "/home/np/.cargo/registry/src/index.crates.io-1949cf8c6b5b557f/rand-0.9.2/src" "rng.rs"
	.loc	10 95 0
	.cfi_startproc
	pushq	%rax
	.cfi_def_cfa_offset 16
	movq	%rdi, %rsi
	movq	%rsi, (%rsp)
.Ltmp35:
	.loc	10 99 9 prologue_end
	movl	$1, %edi
	callq	_ZN4rand5distr5other110_$LT$impl$u20$rand..distr..distribution..Distribution$LT$bool$GT$$u20$for$u20$rand..distr..StandardUniform$GT$6sample17he90ea3740add583dE
	.loc	10 100 6
	andb	$1, %al
	.loc	10 100 6 epilogue_begin is_stmt 0
	popq	%rcx
	.cfi_def_cfa_offset 8
	retq
.Ltmp36:
.Lfunc_end12:
	.size	_ZN4rand3rng3Rng6random17he47c0a49024989aaE, .Lfunc_end12-_ZN4rand3rng3Rng6random17he47c0a49024989aaE
	.cfi_endproc

	.section	".text._ZN4rand4rngs9reseeding29ReseedingCore$LT$R$C$Rsdr$GT$19reseed_and_generate17h13935bc7e637f19cE","ax",@progbits
	.p2align	4
	.type	_ZN4rand4rngs9reseeding29ReseedingCore$LT$R$C$Rsdr$GT$19reseed_and_generate17h13935bc7e637f19cE,@function
_ZN4rand4rngs9reseeding29ReseedingCore$LT$R$C$Rsdr$GT$19reseed_and_generate17h13935bc7e637f19cE:
.Lfunc_begin13:
	.loc	1 216 0 is_stmt 1
	.cfi_startproc
	subq	$72, %rsp
	.cfi_def_cfa_offset 80
	movq	%rdi, 16(%rsp)
	movq	%rsi, 32(%rsp)
	movq	%rdi, 48(%rsp)
.Ltmp37:
	.loc	1 219 13 prologue_end
	movb	$0, 47(%rsp)
	.loc	1 219 37 is_stmt 0
	leaq	32(%rsp), %rdi
	callq	_ZN63_$LT$$RF$mut$u20$T$u20$as$u20$core..convert..AsRef$LT$U$GT$$GT$6as_ref17hcf4f85feb7206a28E
	movq	%rax, %rdi
	movq	%rdx, %rsi
	.loc	1 219 25
	callq	_ZN4core3mem11size_of_val17h6d9e552afa58affdE
	movq	16(%rsp), %rdi
	movq	%rax, 24(%rsp)
	movq	%rax, 56(%rsp)
.Ltmp38:
	.loc	1 221 25 is_stmt 1
	movb	$1, 47(%rsp)
	callq	*_ZN4rand4rngs9reseeding29ReseedingCore$LT$R$C$Rsdr$GT$6reseed17h8e26f388e23e8972E@GOTPCREL(%rip)
	movl	%eax, 40(%rsp)
	movl	$1, %eax
	xorl	%ecx, %ecx
	cmpl	$0, 40(%rsp)
	cmoveq	%rcx, %rax
	.loc	1 221 16 is_stmt 0
	testq	$1, %rax
	je	.LBB13_2
	.loc	1 221 20
	movb	$0, 47(%rsp)
	movl	40(%rsp), %eax
	movl	%eax, 68(%rsp)
.Ltmp39:
.LBB13_2:
	.loc	1 224 9 is_stmt 1
	movl	$1, %eax
	xorl	%ecx, %ecx
	cmpl	$0, 40(%rsp)
	cmoveq	%rcx, %rax
	testq	$1, %rax
	je	.LBB13_4
	testb	$1, 47(%rsp)
	jne	.LBB13_5
.LBB13_4:
	.loc	1 0 9 is_stmt 0
	movq	24(%rsp), %rcx
	movq	16(%rsp), %rax
	.loc	1 224 9
	movb	$0, 47(%rsp)
	.loc	1 226 35 is_stmt 1
	movq	48(%rax), %rax
	subq	%rcx, %rax
	movq	%rax, 8(%rsp)
	seto	%al
	jo	.LBB13_7
	jmp	.LBB13_6
.LBB13_5:
	.loc	1 224 9
	jmp	.LBB13_4
.LBB13_6:
	.loc	1 0 9 is_stmt 0
	movq	16(%rsp), %rdi
	movq	8(%rsp), %rax
	.loc	1 226 9 is_stmt 1
	movq	%rax, 56(%rdi)
	.loc	1 227 9
	movq	32(%rsp), %rsi
	callq	_ZN84_$LT$rand_chacha..chacha..ChaCha12Core$u20$as$u20$rand_core..block..BlockRngCore$GT$8generate17h30baf41324780ba0E
.Ltmp40:
	.loc	1 228 6 epilogue_begin
	addq	$72, %rsp
	.cfi_def_cfa_offset 8
	retq
.LBB13_7:
	.cfi_def_cfa_offset 80
.Ltmp41:
	.loc	1 226 35
	leaq	.Lanon.a6fa456c9412015864d7783aa51b16ac.3(%rip), %rdi
	callq	*_ZN4core9panicking11panic_const24panic_const_sub_overflow17hab14e776658d8858E@GOTPCREL(%rip)
.Ltmp42:
.Lfunc_end13:
	.size	_ZN4rand4rngs9reseeding29ReseedingCore$LT$R$C$Rsdr$GT$19reseed_and_generate17h13935bc7e637f19cE, .Lfunc_end13-_ZN4rand4rngs9reseeding29ReseedingCore$LT$R$C$Rsdr$GT$19reseed_and_generate17h13935bc7e637f19cE
	.cfi_endproc

	.section	".text._ZN4rand5distr5other110_$LT$impl$u20$rand..distr..distribution..Distribution$LT$bool$GT$$u20$for$u20$rand..distr..StandardUniform$GT$6sample17he90ea3740add583dE","ax",@progbits
	.p2align	4
	.type	_ZN4rand5distr5other110_$LT$impl$u20$rand..distr..distribution..Distribution$LT$bool$GT$$u20$for$u20$rand..distr..StandardUniform$GT$6sample17he90ea3740add583dE,@function
_ZN4rand5distr5other110_$LT$impl$u20$rand..distr..distribution..Distribution$LT$bool$GT$$u20$for$u20$rand..distr..StandardUniform$GT$6sample17he90ea3740add583dE:
.Lfunc_begin14:
	.file	11 "/home/np/.cargo/registry/src/index.crates.io-1949cf8c6b5b557f/rand-0.9.2/src/distr" "other.rs"
	.loc	11 198 0
	.cfi_startproc
	subq	$72, %rsp
	.cfi_def_cfa_offset 80
	movq	%rdi, 16(%rsp)
	movq	%rsi, 24(%rsp)
	movq	%rsi, 32(%rsp)
	movq	%rsi, 56(%rsp)
.Ltmp43:
	.file	12 "/rustc/ecade534c66478c51c5d3c1d3682dc4beb0ac972/library/core/src/ptr" "non_null.rs"
	.loc	12 428 20 prologue_end
	movq	(%rsi), %rax
.Ltmp44:
	.file	13 "/rustc/ecade534c66478c51c5d3c1d3682dc4beb0ac972/library/alloc/src" "rc.rs"
	.loc	13 2244 9
	addq	$16, %rax
	movq	%rax, 8(%rsp)
	movq	%rax, 48(%rsp)
.Ltmp45:
	.file	14 "/home/np/.cargo/registry/src/index.crates.io-1949cf8c6b5b557f/rand-0.9.2/src/rngs" "thread.rs"
	.loc	14 173 28
	cmpq	$0, %rax
	sete	%al
	xorb	$-1, %al
	testb	$1, %al
	jne	.LBB14_2
	leaq	.Lanon.a6fa456c9412015864d7783aa51b16ac.5(%rip), %rdi
	callq	*_ZN4core9panicking30panic_null_pointer_dereference17hf679854e69c25502E@GOTPCREL(%rip)
.LBB14_2:
	.loc	14 0 28 is_stmt 0
	movq	8(%rsp), %rdi
	.loc	14 173 28
	movq	%rdi, 40(%rsp)
	movq	%rdi, 64(%rsp)
.Ltmp46:
	.loc	1 114 9 is_stmt 1
	callq	_ZN74_$LT$rand_core..block..BlockRng$LT$R$GT$$u20$as$u20$rand_core..RngCore$GT$8next_u3217h5ba689e9c842bbddE
.Ltmp47:
	.loc	11 203 9
	cmpl	$0, %eax
	setl	%al
	.loc	11 204 6
	andb	$1, %al
	.loc	11 204 6 epilogue_begin is_stmt 0
	addq	$72, %rsp
	.cfi_def_cfa_offset 8
	retq
.Ltmp48:
.Lfunc_end14:
	.size	_ZN4rand5distr5other110_$LT$impl$u20$rand..distr..distribution..Distribution$LT$bool$GT$$u20$for$u20$rand..distr..StandardUniform$GT$6sample17he90ea3740add583dE, .Lfunc_end14-_ZN4rand5distr5other110_$LT$impl$u20$rand..distr..distribution..Distribution$LT$bool$GT$$u20$for$u20$rand..distr..StandardUniform$GT$6sample17he90ea3740add583dE
	.cfi_endproc

	.section	".text._ZN54_$LT$$LP$$RP$$u20$as$u20$std..process..Termination$GT$6report17h61953a0fd5719ceaE","ax",@progbits
	.p2align	4
	.type	_ZN54_$LT$$LP$$RP$$u20$as$u20$std..process..Termination$GT$6report17h61953a0fd5719ceaE,@function
_ZN54_$LT$$LP$$RP$$u20$as$u20$std..process..Termination$GT$6report17h61953a0fd5719ceaE:
.Lfunc_begin15:
	.cfi_startproc
	.loc	4 2434 6 prologue_end is_stmt 1
	xorl	%eax, %eax
	retq
.Ltmp49:
.Lfunc_end15:
	.size	_ZN54_$LT$$LP$$RP$$u20$as$u20$std..process..Termination$GT$6report17h61953a0fd5719ceaE, .Lfunc_end15-_ZN54_$LT$$LP$$RP$$u20$as$u20$std..process..Termination$GT$6report17h61953a0fd5719ceaE
	.cfi_endproc

	.section	".text._ZN63_$LT$$RF$mut$u20$T$u20$as$u20$core..convert..AsRef$LT$U$GT$$GT$6as_ref17hcf4f85feb7206a28E","ax",@progbits
	.p2align	4
	.type	_ZN63_$LT$$RF$mut$u20$T$u20$as$u20$core..convert..AsRef$LT$U$GT$$GT$6as_ref17hcf4f85feb7206a28E,@function
_ZN63_$LT$$RF$mut$u20$T$u20$as$u20$core..convert..AsRef$LT$U$GT$$GT$6as_ref17hcf4f85feb7206a28E:
.Lfunc_begin16:
	.file	15 "/rustc/ecade534c66478c51c5d3c1d3682dc4beb0ac972/library/core/src/convert" "mod.rs"
	.loc	15 715 0
	.cfi_startproc
	pushq	%rax
	.cfi_def_cfa_offset 16
	movq	%rdi, (%rsp)
.Ltmp50:
	.loc	15 716 33 prologue_end
	movq	(%rdi), %rdi
	.loc	15 716 9 is_stmt 0
	movq	_ZN97_$LT$rand_chacha..chacha..Array64$LT$T$GT$$u20$as$u20$core..convert..AsRef$LT$$u5b$T$u5d$$GT$$GT$6as_ref17hc3771d368a6e604aE@GOTPCREL(%rip), %rax
	callq	*%rax
	.loc	15 717 6 epilogue_begin is_stmt 1
	popq	%rcx
	.cfi_def_cfa_offset 8
	retq
.Ltmp51:
.Lfunc_end16:
	.size	_ZN63_$LT$$RF$mut$u20$T$u20$as$u20$core..convert..AsRef$LT$U$GT$$GT$6as_ref17hcf4f85feb7206a28E, .Lfunc_end16-_ZN63_$LT$$RF$mut$u20$T$u20$as$u20$core..convert..AsRef$LT$U$GT$$GT$6as_ref17hcf4f85feb7206a28E
	.cfi_endproc

	.section	".text._ZN74_$LT$rand_core..block..BlockRng$LT$R$GT$$u20$as$u20$rand_core..RngCore$GT$8next_u3217h5ba689e9c842bbddE","ax",@progbits
	.p2align	4
	.type	_ZN74_$LT$rand_core..block..BlockRng$LT$R$GT$$u20$as$u20$rand_core..RngCore$GT$8next_u3217h5ba689e9c842bbddE,@function
_ZN74_$LT$rand_core..block..BlockRng$LT$R$GT$$u20$as$u20$rand_core..RngCore$GT$8next_u3217h5ba689e9c842bbddE:
.Lfunc_begin17:
	.file	16 "/home/np/.cargo/registry/src/index.crates.io-1949cf8c6b5b557f/rand_core-0.9.3/src" "block.rs"
	.loc	16 186 0
	.cfi_startproc
	subq	$72, %rsp
	.cfi_def_cfa_offset 80
	movq	%rdi, 40(%rsp)
	movq	%rdi, 56(%rsp)
.Ltmp52:
	.loc	16 187 12 prologue_end
	movq	320(%rdi), %rax
	movq	%rax, 48(%rsp)
	.loc	16 187 26 is_stmt 0
	callq	*_ZN97_$LT$rand_chacha..chacha..Array64$LT$T$GT$$u20$as$u20$core..convert..AsRef$LT$$u5b$T$u5d$$GT$$GT$6as_ref17hc3771d368a6e604aE@GOTPCREL(%rip)
	movq	48(%rsp), %rax
	.loc	16 187 12
	cmpq	%rdx, %rax
	jae	.LBB17_2
.LBB17_1:
	.loc	16 0 12
	movq	40(%rsp), %rdi
	.loc	16 191 21 is_stmt 1
	callq	*_ZN97_$LT$rand_chacha..chacha..Array64$LT$T$GT$$u20$as$u20$core..convert..AsRef$LT$$u5b$T$u5d$$GT$$GT$6as_ref17hc3771d368a6e604aE@GOTPCREL(%rip)
	movq	%rax, %rcx
	movq	40(%rsp), %rax
	movq	%rcx, 16(%rsp)
	movq	%rdx, 24(%rsp)
	.loc	16 191 43 is_stmt 0
	movq	320(%rax), %rax
	movq	%rax, 32(%rsp)
	.loc	16 191 21
	cmpq	%rdx, %rax
	jb	.LBB17_3
	jmp	.LBB17_4
.LBB17_2:
	.loc	16 0 21
	movq	40(%rsp), %rdi
	.loc	16 188 13 is_stmt 1
	xorl	%eax, %eax
	movl	%eax, %esi
	callq	_ZN9rand_core5block17BlockRng$LT$R$GT$16generate_and_set17h815b35b30d5e012dE
	jmp	.LBB17_1
.LBB17_3:
	.loc	16 0 13 is_stmt 0
	movq	40(%rsp), %rax
	movq	16(%rsp), %rcx
	movq	32(%rsp), %rdx
	.loc	16 191 21 is_stmt 1
	movl	(%rcx,%rdx,4), %ecx
	movl	%ecx, 4(%rsp)
	movl	%ecx, 68(%rsp)
.Ltmp53:
	.loc	16 192 9
	movq	320(%rax), %rax
	addq	$1, %rax
	movq	%rax, 8(%rsp)
	setb	%al
	jb	.LBB17_6
	jmp	.LBB17_5
.Ltmp54:
.LBB17_4:
	.loc	16 0 9 is_stmt 0
	movq	24(%rsp), %rsi
	movq	32(%rsp), %rdi
	.loc	16 191 21 is_stmt 1
	leaq	.Lanon.a6fa456c9412015864d7783aa51b16ac.7(%rip), %rdx
	callq	*_ZN4core9panicking18panic_bounds_check17h8ced4c0cdca08f31E@GOTPCREL(%rip)
.LBB17_5:
	.loc	16 0 21 is_stmt 0
	movl	4(%rsp), %eax
	movq	40(%rsp), %rcx
	movq	8(%rsp), %rdx
.Ltmp55:
	.loc	16 192 9 is_stmt 1
	movq	%rdx, 320(%rcx)
.Ltmp56:
	.loc	16 194 6 epilogue_begin
	addq	$72, %rsp
	.cfi_def_cfa_offset 8
	retq
.LBB17_6:
	.cfi_def_cfa_offset 80
.Ltmp57:
	.loc	16 192 9
	leaq	.Lanon.a6fa456c9412015864d7783aa51b16ac.8(%rip), %rdi
	callq	*_ZN4core9panicking11panic_const24panic_const_add_overflow17hf9fdf5c752a7aa23E@GOTPCREL(%rip)
.Ltmp58:
.Lfunc_end17:
	.size	_ZN74_$LT$rand_core..block..BlockRng$LT$R$GT$$u20$as$u20$rand_core..RngCore$GT$8next_u3217h5ba689e9c842bbddE, .Lfunc_end17-_ZN74_$LT$rand_core..block..BlockRng$LT$R$GT$$u20$as$u20$rand_core..RngCore$GT$8next_u3217h5ba689e9c842bbddE
	.cfi_endproc

	.section	".text._ZN84_$LT$rand_chacha..chacha..ChaCha12Core$u20$as$u20$rand_core..block..BlockRngCore$GT$8generate17h30baf41324780ba0E","ax",@progbits
	.p2align	4
	.type	_ZN84_$LT$rand_chacha..chacha..ChaCha12Core$u20$as$u20$rand_core..block..BlockRngCore$GT$8generate17h30baf41324780ba0E,@function
_ZN84_$LT$rand_chacha..chacha..ChaCha12Core$u20$as$u20$rand_core..block..BlockRngCore$GT$8generate17h30baf41324780ba0E:
.Lfunc_begin18:
	.file	17 "/home/np/.cargo/registry/src/index.crates.io-1949cf8c6b5b557f/rand_chacha-0.9.0/src" "chacha.rs"
	.loc	17 90 0
	.cfi_startproc
	subq	$40, %rsp
	.cfi_def_cfa_offset 48
	movq	%rsi, %rdx
	movq	%rdi, (%rsp)
	movq	%rdx, 8(%rsp)
	movq	%rdi, 16(%rsp)
	movl	$6, 28(%rsp)
	movq	%rdx, 32(%rsp)
.Ltmp59:
	.file	18 "/home/np/.cargo/registry/src/index.crates.io-1949cf8c6b5b557f/rand_chacha-0.9.0/src" "guts.rs"
	.loc	18 81 9 prologue_end
	movl	$6, %esi
	callq	*_ZN11rand_chacha4guts11refill_wide17hb2f7c5a521484136E@GOTPCREL(%rip)
.Ltmp60:
	.loc	17 92 14 epilogue_begin
	addq	$40, %rsp
	.cfi_def_cfa_offset 8
	retq
.Ltmp61:
.Lfunc_end18:
	.size	_ZN84_$LT$rand_chacha..chacha..ChaCha12Core$u20$as$u20$rand_core..block..BlockRngCore$GT$8generate17h30baf41324780ba0E, .Lfunc_end18-_ZN84_$LT$rand_chacha..chacha..ChaCha12Core$u20$as$u20$rand_core..block..BlockRngCore$GT$8generate17h30baf41324780ba0E
	.cfi_endproc

	.section	".text._ZN9rand_core5block17BlockRng$LT$R$GT$16generate_and_set17h815b35b30d5e012dE","ax",@progbits
	.p2align	4
	.type	_ZN9rand_core5block17BlockRng$LT$R$GT$16generate_and_set17h815b35b30d5e012dE,@function
_ZN9rand_core5block17BlockRng$LT$R$GT$16generate_and_set17h815b35b30d5e012dE:
.Lfunc_begin19:
	.loc	16 177 0
	.cfi_startproc
	subq	$40, %rsp
	.cfi_def_cfa_offset 48
	movq	%rdi, 8(%rsp)
	movq	%rsi, 16(%rsp)
	movq	%rdi, 24(%rsp)
	movq	%rsi, 32(%rsp)
.Ltmp62:
	.loc	16 178 25 prologue_end
	callq	*_ZN97_$LT$rand_chacha..chacha..Array64$LT$T$GT$$u20$as$u20$core..convert..AsRef$LT$$u5b$T$u5d$$GT$$GT$6as_ref17hc3771d368a6e604aE@GOTPCREL(%rip)
	movq	16(%rsp), %rsi
	.loc	16 178 17 is_stmt 0
	cmpq	%rdx, %rsi
	jb	.LBB19_2
	.loc	16 178 9
	leaq	.Lanon.a6fa456c9412015864d7783aa51b16ac.9(%rip), %rdi
	movl	$53, %esi
	leaq	.Lanon.a6fa456c9412015864d7783aa51b16ac.10(%rip), %rdx
	callq	*_ZN4core9panicking5panic17h4e529a542afba437E@GOTPCREL(%rip)
.LBB19_2:
	.loc	16 0 9
	movq	8(%rsp), %rsi
	.loc	16 179 9 is_stmt 1
	movq	%rsi, %rdi
	addq	$256, %rdi
	callq	_ZN103_$LT$rand..rngs..reseeding..ReseedingCore$LT$R$C$Rsdr$GT$$u20$as$u20$rand_core..block..BlockRngCore$GT$8generate17h65f4881e2030d610E
	movq	16(%rsp), %rcx
	movq	8(%rsp), %rax
	.loc	16 180 9
	movq	%rcx, 320(%rax)
	.loc	16 181 6 epilogue_begin
	addq	$40, %rsp
	.cfi_def_cfa_offset 8
	retq
.Ltmp63:
.Lfunc_end19:
	.size	_ZN9rand_core5block17BlockRng$LT$R$GT$16generate_and_set17h815b35b30d5e012dE, .Lfunc_end19-_ZN9rand_core5block17BlockRng$LT$R$GT$16generate_and_set17h815b35b30d5e012dE
	.cfi_endproc

	.section	".text._ZN44_$LT$dp_ex..Dog$u20$as$u20$dp_ex..Animal$GT$5speak17had468e7662b92aa1E","ax",@progbits
	.p2align	4
	.type	_ZN44_$LT$dp_ex..Dog$u20$as$u20$dp_ex..Animal$GT$5speak17had468e7662b92aa1E,@function
_ZN44_$LT$dp_ex..Dog$u20$as$u20$dp_ex..Animal$GT$5speak17had468e7662b92aa1E:
.Lfunc_begin20:
	.file	19 "/home/np/hack/verifopt/dp-ex" "src/main.rs"
	.loc	19 10 0
	.cfi_startproc
	subq	$56, %rsp
	.cfi_def_cfa_offset 64
	movq	%rdi, 48(%rsp)
.Ltmp64:
	.loc	19 11 9 prologue_end
	movq	%rsp, %rdi
	leaq	.Lanon.a6fa456c9412015864d7783aa51b16ac.12(%rip), %rsi
	callq	*_ZN4core3fmt9Arguments9new_const17h5a4b4947710cd61bE@GOTPCREL(%rip)
	movq	%rsp, %rdi
	callq	*_ZN3std2io5stdio6_print17he3d109100110923bE@GOTPCREL(%rip)
	.loc	19 12 6 epilogue_begin
	addq	$56, %rsp
	.cfi_def_cfa_offset 8
	retq
.Ltmp65:
.Lfunc_end20:
	.size	_ZN44_$LT$dp_ex..Dog$u20$as$u20$dp_ex..Animal$GT$5speak17had468e7662b92aa1E, .Lfunc_end20-_ZN44_$LT$dp_ex..Dog$u20$as$u20$dp_ex..Animal$GT$5speak17had468e7662b92aa1E
	.cfi_endproc

	.section	".text._ZN44_$LT$dp_ex..Cat$u20$as$u20$dp_ex..Animal$GT$5speak17h504ab8d43430beb1E","ax",@progbits
	.p2align	4
	.type	_ZN44_$LT$dp_ex..Cat$u20$as$u20$dp_ex..Animal$GT$5speak17h504ab8d43430beb1E,@function
_ZN44_$LT$dp_ex..Cat$u20$as$u20$dp_ex..Animal$GT$5speak17h504ab8d43430beb1E:
.Lfunc_begin21:
	.loc	19 18 0
	.cfi_startproc
	subq	$56, %rsp
	.cfi_def_cfa_offset 64
	movq	%rdi, 48(%rsp)
.Ltmp66:
	.loc	19 19 9 prologue_end
	movq	%rsp, %rdi
	leaq	.Lanon.a6fa456c9412015864d7783aa51b16ac.14(%rip), %rsi
	callq	*_ZN4core3fmt9Arguments9new_const17h5a4b4947710cd61bE@GOTPCREL(%rip)
	movq	%rsp, %rdi
	callq	*_ZN3std2io5stdio6_print17he3d109100110923bE@GOTPCREL(%rip)
	.loc	19 20 6 epilogue_begin
	addq	$56, %rsp
	.cfi_def_cfa_offset 8
	retq
.Ltmp67:
.Lfunc_end21:
	.size	_ZN44_$LT$dp_ex..Cat$u20$as$u20$dp_ex..Animal$GT$5speak17h504ab8d43430beb1E, .Lfunc_end21-_ZN44_$LT$dp_ex..Cat$u20$as$u20$dp_ex..Animal$GT$5speak17h504ab8d43430beb1E
	.cfi_endproc

	.section	.text._ZN5dp_ex6dyn_dp17h2163eacfb0f4ef0dE,"ax",@progbits
	.p2align	4
	.type	_ZN5dp_ex6dyn_dp17h2163eacfb0f4ef0dE,@function
_ZN5dp_ex6dyn_dp17h2163eacfb0f4ef0dE:
.Lfunc_begin22:
	.loc	19 23 0
	.cfi_startproc
	.cfi_personality 155, DW.ref.rust_eh_personality
	.cfi_lsda 27, .Lexception1
	subq	$56, %rsp
	.cfi_def_cfa_offset 64
.Ltmp76:
	.loc	19 26 19 prologue_end
	movq	_ZN4rand4rngs6thread3rng17h445d2230ed7f88faE@GOTPCREL(%rip), %rax
	callq	*%rax
	movq	%rax, 32(%rsp)
.Ltmp68:
	leaq	32(%rsp), %rdi
.Ltmp77:
	.loc	19 27 8
	callq	_ZN4rand3rng3Rng6random17he47c0a49024989aaE
.Ltmp69:
	movb	%al, 15(%rsp)
	jmp	.LBB22_3
.Ltmp78:
.LBB22_1:
.Ltmp73:
	.loc	19 0 8 is_stmt 0
	leaq	32(%rsp), %rdi
	.loc	19 34 1 is_stmt 1
	callq	_ZN4core3ptr50drop_in_place$LT$rand..rngs..thread..ThreadRng$GT$17h4290c5a380cfe87dE
.Ltmp74:
	jmp	.LBB22_9
.LBB22_2:
.Ltmp72:
	.loc	19 0 1 is_stmt 0
	movq	%rax, %rcx
	movl	%edx, %eax
	movq	%rcx, 40(%rsp)
	movl	%eax, 48(%rsp)
	jmp	.LBB22_1
.LBB22_3:
	movb	15(%rsp), %al
.Ltmp79:
	.loc	19 27 8 is_stmt 1
	testb	$1, %al
	jne	.LBB22_5
	jmp	.LBB22_4
.LBB22_4:
	.loc	19 30 9
	movl	$1, %eax
	movq	%rax, 16(%rsp)
	leaq	.Lanon.a6fa456c9412015864d7783aa51b16ac.15(%rip), %rax
	movq	%rax, 24(%rsp)
	.loc	19 27 5
	jmp	.LBB22_6
.LBB22_5:
	.loc	19 28 9
	movl	$1, %eax
	movq	%rax, 16(%rsp)
	leaq	.Lanon.a6fa456c9412015864d7783aa51b16ac.16(%rip), %rax
	movq	%rax, 24(%rsp)
.LBB22_6:
	.loc	19 33 5
	movq	16(%rsp), %rdi
	movq	24(%rsp), %rax
	movq	24(%rax), %rax
.Ltmp70:
	callq	*%rax
.Ltmp71:
	jmp	.LBB22_7
.Ltmp80:
.LBB22_7:
	.loc	19 34 1
	leaq	32(%rsp), %rdi
	callq	_ZN4core3ptr50drop_in_place$LT$rand..rngs..thread..ThreadRng$GT$17h4290c5a380cfe87dE
.Ltmp81:
	.loc	19 34 2 epilogue_begin is_stmt 0
	addq	$56, %rsp
	.cfi_def_cfa_offset 8
	retq
.LBB22_8:
	.cfi_def_cfa_offset 64
.Ltmp75:
	.loc	19 23 1 is_stmt 1
	callq	*_ZN4core9panicking16panic_in_cleanup17h4898e2af8dc1f529E@GOTPCREL(%rip)
.LBB22_9:
	.loc	19 23 1
	movq	40(%rsp), %rdi
	callq	_Unwind_Resume@PLT
.Ltmp82:
.Lfunc_end22:
	.size	_ZN5dp_ex6dyn_dp17h2163eacfb0f4ef0dE, .Lfunc_end22-_ZN5dp_ex6dyn_dp17h2163eacfb0f4ef0dE
	.cfi_endproc
	.section	.gcc_except_table._ZN5dp_ex6dyn_dp17h2163eacfb0f4ef0dE,"a",@progbits
	.p2align	2, 0x0
GCC_except_table22:
.Lexception1:
	.byte	255
	.byte	155
	.uleb128 .Lttbase0-.Lttbaseref0
.Lttbaseref0:
	.byte	1
	.uleb128 .Lcst_end1-.Lcst_begin1
.Lcst_begin1:
	.uleb128 .Lfunc_begin22-.Lfunc_begin22
	.uleb128 .Ltmp68-.Lfunc_begin22
	.byte	0
	.byte	0
	.uleb128 .Ltmp68-.Lfunc_begin22
	.uleb128 .Ltmp69-.Ltmp68
	.uleb128 .Ltmp72-.Lfunc_begin22
	.byte	0
	.uleb128 .Ltmp73-.Lfunc_begin22
	.uleb128 .Ltmp74-.Ltmp73
	.uleb128 .Ltmp75-.Lfunc_begin22
	.byte	1
	.uleb128 .Ltmp70-.Lfunc_begin22
	.uleb128 .Ltmp71-.Ltmp70
	.uleb128 .Ltmp72-.Lfunc_begin22
	.byte	0
	.uleb128 .Ltmp71-.Lfunc_begin22
	.uleb128 .Lfunc_end22-.Ltmp71
	.byte	0
	.byte	0
.Lcst_end1:
	.byte	127
	.byte	0
	.p2align	2, 0x0
.Lttbase0:
	.byte	0
	.p2align	2, 0x0

	.section	.text._ZN5dp_ex9static_dp17h12c823b24041d8eeE,"ax",@progbits
	.p2align	4
	.type	_ZN5dp_ex9static_dp17h12c823b24041d8eeE,@function
_ZN5dp_ex9static_dp17h12c823b24041d8eeE:
.Lfunc_begin23:
	.loc	19 60 0
	.cfi_startproc
	pushq	%rax
	.cfi_def_cfa_offset 16
.Ltmp83:
	.loc	19 61 15 prologue_end
	movl	$1, %eax
	movq	%rax, (%rsp)
.Ltmp84:
	.loc	19 62 5
	movl	$1, %edi
	callq	_ZN44_$LT$dp_ex..Cat$u20$as$u20$dp_ex..Animal$GT$5speak17h504ab8d43430beb1E
.Ltmp85:
	.loc	19 63 2 epilogue_begin
	popq	%rax
	.cfi_def_cfa_offset 8
	retq
.Ltmp86:
.Lfunc_end23:
	.size	_ZN5dp_ex9static_dp17h12c823b24041d8eeE, .Lfunc_end23-_ZN5dp_ex9static_dp17h12c823b24041d8eeE
	.cfi_endproc

	.section	.text._ZN5dp_ex4main17hfaa1a74bb1a25d42E,"ax",@progbits
	.p2align	4
	.type	_ZN5dp_ex4main17hfaa1a74bb1a25d42E,@function
_ZN5dp_ex4main17hfaa1a74bb1a25d42E:
.Lfunc_begin24:
	.loc	19 65 0
	.cfi_startproc
	pushq	%rax
	.cfi_def_cfa_offset 16
.Ltmp87:
	.loc	19 80 5 prologue_end
	callq	_ZN5dp_ex6dyn_dp17h2163eacfb0f4ef0dE
	.loc	19 81 5
	callq	_ZN5dp_ex9static_dp17h12c823b24041d8eeE
	.loc	19 82 2 epilogue_begin
	popq	%rax
	.cfi_def_cfa_offset 8
	retq
.Ltmp88:
.Lfunc_end24:
	.size	_ZN5dp_ex4main17hfaa1a74bb1a25d42E, .Lfunc_end24-_ZN5dp_ex4main17hfaa1a74bb1a25d42E
	.cfi_endproc

	.section	.text.main,"ax",@progbits
	.globl	main
	.p2align	4
	.type	main,@function
main:
.Lfunc_begin25:
	.cfi_startproc
	pushq	%rax
	.cfi_def_cfa_offset 16
	movq	%rsi, %rdx
	movq	__rustc_debug_gdb_scripts_section__@GOTPCREL(%rip), %rax
	movb	(%rax), %al
	movslq	%edi, %rsi
	leaq	_ZN5dp_ex4main17hfaa1a74bb1a25d42E(%rip), %rdi
	xorl	%ecx, %ecx
	callq	_ZN3std2rt10lang_start17h27e2b9e2c6bd9d09E
	popq	%rcx
	.cfi_def_cfa_offset 8
	retq
.Lfunc_end25:
	.size	main, .Lfunc_end25-main
	.cfi_endproc

	.type	.Lanon.a6fa456c9412015864d7783aa51b16ac.0,@object
	.section	.rodata..Lanon.a6fa456c9412015864d7783aa51b16ac.0,"a",@progbits
.Lanon.a6fa456c9412015864d7783aa51b16ac.0:
	.ascii	"/home/np/.cargo/registry/src/index.crates.io-1949cf8c6b5b557f/rand-0.9.2/src/rngs/reseeding.rs"
	.size	.Lanon.a6fa456c9412015864d7783aa51b16ac.0, 94

	.type	.Lanon.a6fa456c9412015864d7783aa51b16ac.1,@object
	.section	.data.rel.ro..Lanon.a6fa456c9412015864d7783aa51b16ac.1,"aw",@progbits
	.p2align	3, 0x0
.Lanon.a6fa456c9412015864d7783aa51b16ac.1:
	.quad	.Lanon.a6fa456c9412015864d7783aa51b16ac.0
	.asciz	"^\000\000\000\000\000\000\000\252\000\000\000\t\000\000"
	.size	.Lanon.a6fa456c9412015864d7783aa51b16ac.1, 24

	.type	.Lanon.a6fa456c9412015864d7783aa51b16ac.2,@object
	.section	.data.rel.ro..Lanon.a6fa456c9412015864d7783aa51b16ac.2,"aw",@progbits
	.p2align	3, 0x0
.Lanon.a6fa456c9412015864d7783aa51b16ac.2:
	.asciz	"\000\000\000\000\000\000\000\000\b\000\000\000\000\000\000\000\b\000\000\000\000\000\000"
	.quad	_ZN4core3ops8function6FnOnce40call_once$u7b$$u7b$vtable.shim$u7d$$u7d$17hb06e99ac8656f6d6E
	.quad	_ZN3std2rt10lang_start28_$u7b$$u7b$closure$u7d$$u7d$17h975e66f67ae81916E
	.quad	_ZN3std2rt10lang_start28_$u7b$$u7b$closure$u7d$$u7d$17h975e66f67ae81916E
	.size	.Lanon.a6fa456c9412015864d7783aa51b16ac.2, 48

	.type	.Lanon.a6fa456c9412015864d7783aa51b16ac.3,@object
	.section	.data.rel.ro..Lanon.a6fa456c9412015864d7783aa51b16ac.3,"aw",@progbits
	.p2align	3, 0x0
.Lanon.a6fa456c9412015864d7783aa51b16ac.3:
	.quad	.Lanon.a6fa456c9412015864d7783aa51b16ac.0
	.asciz	"^\000\000\000\000\000\000\000\342\000\000\000#\000\000"
	.size	.Lanon.a6fa456c9412015864d7783aa51b16ac.3, 24

	.type	.Lanon.a6fa456c9412015864d7783aa51b16ac.4,@object
	.section	.rodata..Lanon.a6fa456c9412015864d7783aa51b16ac.4,"a",@progbits
.Lanon.a6fa456c9412015864d7783aa51b16ac.4:
	.ascii	"/home/np/.cargo/registry/src/index.crates.io-1949cf8c6b5b557f/rand-0.9.2/src/rngs/thread.rs"
	.size	.Lanon.a6fa456c9412015864d7783aa51b16ac.4, 91

	.type	.Lanon.a6fa456c9412015864d7783aa51b16ac.5,@object
	.section	.data.rel.ro..Lanon.a6fa456c9412015864d7783aa51b16ac.5,"aw",@progbits
	.p2align	3, 0x0
.Lanon.a6fa456c9412015864d7783aa51b16ac.5:
	.quad	.Lanon.a6fa456c9412015864d7783aa51b16ac.4
	.asciz	"[\000\000\000\000\000\000\000\255\000\000\000\034\000\000"
	.size	.Lanon.a6fa456c9412015864d7783aa51b16ac.5, 24

	.type	.Lanon.a6fa456c9412015864d7783aa51b16ac.6,@object
	.section	.rodata..Lanon.a6fa456c9412015864d7783aa51b16ac.6,"a",@progbits
.Lanon.a6fa456c9412015864d7783aa51b16ac.6:
	.ascii	"/home/np/.cargo/registry/src/index.crates.io-1949cf8c6b5b557f/rand_core-0.9.3/src/block.rs"
	.size	.Lanon.a6fa456c9412015864d7783aa51b16ac.6, 90

	.type	.Lanon.a6fa456c9412015864d7783aa51b16ac.7,@object
	.section	.data.rel.ro..Lanon.a6fa456c9412015864d7783aa51b16ac.7,"aw",@progbits
	.p2align	3, 0x0
.Lanon.a6fa456c9412015864d7783aa51b16ac.7:
	.quad	.Lanon.a6fa456c9412015864d7783aa51b16ac.6
	.asciz	"Z\000\000\000\000\000\000\000\277\000\000\000\025\000\000"
	.size	.Lanon.a6fa456c9412015864d7783aa51b16ac.7, 24

	.type	.Lanon.a6fa456c9412015864d7783aa51b16ac.8,@object
	.section	.data.rel.ro..Lanon.a6fa456c9412015864d7783aa51b16ac.8,"aw",@progbits
	.p2align	3, 0x0
.Lanon.a6fa456c9412015864d7783aa51b16ac.8:
	.quad	.Lanon.a6fa456c9412015864d7783aa51b16ac.6
	.asciz	"Z\000\000\000\000\000\000\000\300\000\000\000\t\000\000"
	.size	.Lanon.a6fa456c9412015864d7783aa51b16ac.8, 24

	.type	.Lanon.a6fa456c9412015864d7783aa51b16ac.9,@object
	.section	.rodata..Lanon.a6fa456c9412015864d7783aa51b16ac.9,"a",@progbits
.Lanon.a6fa456c9412015864d7783aa51b16ac.9:
	.ascii	"assertion failed: index < self.results.as_ref().len()"
	.size	.Lanon.a6fa456c9412015864d7783aa51b16ac.9, 53

	.type	.Lanon.a6fa456c9412015864d7783aa51b16ac.10,@object
	.section	.data.rel.ro..Lanon.a6fa456c9412015864d7783aa51b16ac.10,"aw",@progbits
	.p2align	3, 0x0
.Lanon.a6fa456c9412015864d7783aa51b16ac.10:
	.quad	.Lanon.a6fa456c9412015864d7783aa51b16ac.6
	.asciz	"Z\000\000\000\000\000\000\000\262\000\000\000\t\000\000"
	.size	.Lanon.a6fa456c9412015864d7783aa51b16ac.10, 24

	.type	.Lanon.a6fa456c9412015864d7783aa51b16ac.11,@object
	.section	.rodata..Lanon.a6fa456c9412015864d7783aa51b16ac.11,"a",@progbits
.Lanon.a6fa456c9412015864d7783aa51b16ac.11:
	.ascii	"woof\n"
	.size	.Lanon.a6fa456c9412015864d7783aa51b16ac.11, 5

	.type	.Lanon.a6fa456c9412015864d7783aa51b16ac.12,@object
	.section	.data.rel.ro..Lanon.a6fa456c9412015864d7783aa51b16ac.12,"aw",@progbits
	.p2align	3, 0x0
.Lanon.a6fa456c9412015864d7783aa51b16ac.12:
	.quad	.Lanon.a6fa456c9412015864d7783aa51b16ac.11
	.asciz	"\005\000\000\000\000\000\000"
	.size	.Lanon.a6fa456c9412015864d7783aa51b16ac.12, 16

	.type	.Lanon.a6fa456c9412015864d7783aa51b16ac.13,@object
	.section	.rodata..Lanon.a6fa456c9412015864d7783aa51b16ac.13,"a",@progbits
.Lanon.a6fa456c9412015864d7783aa51b16ac.13:
	.ascii	"meow\n"
	.size	.Lanon.a6fa456c9412015864d7783aa51b16ac.13, 5

	.type	.Lanon.a6fa456c9412015864d7783aa51b16ac.14,@object
	.section	.data.rel.ro..Lanon.a6fa456c9412015864d7783aa51b16ac.14,"aw",@progbits
	.p2align	3, 0x0
.Lanon.a6fa456c9412015864d7783aa51b16ac.14:
	.quad	.Lanon.a6fa456c9412015864d7783aa51b16ac.13
	.asciz	"\005\000\000\000\000\000\000"
	.size	.Lanon.a6fa456c9412015864d7783aa51b16ac.14, 16

	.type	.Lanon.a6fa456c9412015864d7783aa51b16ac.15,@object
	.section	.data.rel.ro..Lanon.a6fa456c9412015864d7783aa51b16ac.15,"aw",@progbits
	.p2align	3, 0x0
.Lanon.a6fa456c9412015864d7783aa51b16ac.15:
	.asciz	"\000\000\000\000\000\000\000\000\000\000\000\000\000\000\000\000\001\000\000\000\000\000\000"
	.quad	_ZN44_$LT$dp_ex..Dog$u20$as$u20$dp_ex..Animal$GT$5speak17had468e7662b92aa1E
	.size	.Lanon.a6fa456c9412015864d7783aa51b16ac.15, 32

	.type	.Lanon.a6fa456c9412015864d7783aa51b16ac.16,@object
	.section	.data.rel.ro..Lanon.a6fa456c9412015864d7783aa51b16ac.16,"aw",@progbits
	.p2align	3, 0x0
.Lanon.a6fa456c9412015864d7783aa51b16ac.16:
	.asciz	"\000\000\000\000\000\000\000\000\000\000\000\000\000\000\000\000\001\000\000\000\000\000\000"
	.quad	_ZN44_$LT$dp_ex..Cat$u20$as$u20$dp_ex..Animal$GT$5speak17h504ab8d43430beb1E
	.size	.Lanon.a6fa456c9412015864d7783aa51b16ac.16, 32

	.type	__rustc_debug_gdb_scripts_section__,@object
	.section	.debug_gdb_scripts,"aMS",@progbits,1,unique,1
	.weak	__rustc_debug_gdb_scripts_section__
__rustc_debug_gdb_scripts_section__:
	.asciz	"\001gdb_load_rust_pretty_printers.py"
	.size	__rustc_debug_gdb_scripts_section__, 34

	.section	.data.rel.ro..Lanon.a6fa456c9412015864d7783aa51b16ac.2,"aw",@progbits
.Lsec_end0:
	.section	.data.rel.ro..Lanon.a6fa456c9412015864d7783aa51b16ac.15,"aw",@progbits
.Lsec_end1:
	.section	.data.rel.ro..Lanon.a6fa456c9412015864d7783aa51b16ac.16,"aw",@progbits
.Lsec_end2:
	.section	".text._ZN103_$LT$rand..rngs..reseeding..ReseedingCore$LT$R$C$Rsdr$GT$$u20$as$u20$rand_core..block..BlockRngCore$GT$8generate17h65f4881e2030d610E","ax",@progbits
.Lsec_end3:
	.section	.text._ZN3std2rt10lang_start17h27e2b9e2c6bd9d09E,"ax",@progbits
.Lsec_end4:
	.section	".text._ZN3std2rt10lang_start28_$u7b$$u7b$closure$u7d$$u7d$17h975e66f67ae81916E","ax",@progbits
.Lsec_end5:
	.section	.text._ZN3std3sys9backtrace28__rust_begin_short_backtrace17h2afd2c7d0674a96fE,"ax",@progbits
.Lsec_end6:
	.section	.text._ZN4core3mem11size_of_val17h6d9e552afa58affdE,"ax",@progbits
.Lsec_end7:
	.section	".text._ZN4core3ops8function6FnOnce40call_once$u7b$$u7b$vtable.shim$u7d$$u7d$17hb06e99ac8656f6d6E","ax",@progbits
.Lsec_end8:
	.section	.text._ZN4core3ops8function6FnOnce9call_once17h1c445d99f54a92d5E,"ax",@progbits
.Lsec_end9:
	.section	.text._ZN4core3ops8function6FnOnce9call_once17hd703a48edda16cd5E,"ax",@progbits
.Lsec_end10:
	.section	".text._ZN4core3ptr31drop_in_place$LT$dp_ex..Cat$GT$17h9aa1b5c63807ed14E","ax",@progbits
.Lsec_end11:
	.section	".text._ZN4core3ptr31drop_in_place$LT$dp_ex..Dog$GT$17haa225f289cc6a195E","ax",@progbits
.Lsec_end12:
	.section	".text._ZN4core3ptr50drop_in_place$LT$rand..rngs..thread..ThreadRng$GT$17h4290c5a380cfe87dE","ax",@progbits
.Lsec_end13:
	.section	".text._ZN4core3ptr85drop_in_place$LT$std..rt..lang_start$LT$$LP$$RP$$GT$..$u7b$$u7b$closure$u7d$$u7d$$GT$17h0c91bb19f0a043fdE","ax",@progbits
.Lsec_end14:
	.section	.text._ZN4rand3rng3Rng6random17he47c0a49024989aaE,"ax",@progbits
.Lsec_end15:
	.section	".text._ZN4rand4rngs9reseeding29ReseedingCore$LT$R$C$Rsdr$GT$19reseed_and_generate17h13935bc7e637f19cE","ax",@progbits
.Lsec_end16:
	.section	".text._ZN4rand5distr5other110_$LT$impl$u20$rand..distr..distribution..Distribution$LT$bool$GT$$u20$for$u20$rand..distr..StandardUniform$GT$6sample17he90ea3740add583dE","ax",@progbits
.Lsec_end17:
	.section	".text._ZN54_$LT$$LP$$RP$$u20$as$u20$std..process..Termination$GT$6report17h61953a0fd5719ceaE","ax",@progbits
.Lsec_end18:
	.section	".text._ZN63_$LT$$RF$mut$u20$T$u20$as$u20$core..convert..AsRef$LT$U$GT$$GT$6as_ref17hcf4f85feb7206a28E","ax",@progbits
.Lsec_end19:
	.section	".text._ZN74_$LT$rand_core..block..BlockRng$LT$R$GT$$u20$as$u20$rand_core..RngCore$GT$8next_u3217h5ba689e9c842bbddE","ax",@progbits
.Lsec_end20:
	.section	".text._ZN84_$LT$rand_chacha..chacha..ChaCha12Core$u20$as$u20$rand_core..block..BlockRngCore$GT$8generate17h30baf41324780ba0E","ax",@progbits
.Lsec_end21:
	.section	".text._ZN9rand_core5block17BlockRng$LT$R$GT$16generate_and_set17h815b35b30d5e012dE","ax",@progbits
.Lsec_end22:
	.section	".text._ZN44_$LT$dp_ex..Dog$u20$as$u20$dp_ex..Animal$GT$5speak17had468e7662b92aa1E","ax",@progbits
.Lsec_end23:
	.section	".text._ZN44_$LT$dp_ex..Cat$u20$as$u20$dp_ex..Animal$GT$5speak17h504ab8d43430beb1E","ax",@progbits
.Lsec_end24:
	.section	.text._ZN5dp_ex6dyn_dp17h2163eacfb0f4ef0dE,"ax",@progbits
.Lsec_end25:
	.section	.text._ZN5dp_ex9static_dp17h12c823b24041d8eeE,"ax",@progbits
.Lsec_end26:
	.section	.text._ZN5dp_ex4main17hfaa1a74bb1a25d42E,"ax",@progbits
.Lsec_end27:
	.section	.data.DW.ref.rust_eh_personality,"awG",@progbits,DW.ref.rust_eh_personality,comdat
	.p2align	3, 0x0
	.type	DW.ref.rust_eh_personality,@object
	.size	DW.ref.rust_eh_personality, 8
DW.ref.rust_eh_personality:
	.quad	rust_eh_personality
	.ident	"rustc version 1.87.0-nightly (ecade534c 2025-03-14)"
	.section	".note.GNU-stack","",@progbits