
target/release/same-crate:     file format elf64-x86-64


Disassembly of section .init:

0000000000006000 <_init>:
    6000:	f3 0f 1e fa          	endbr64
    6004:	48 83 ec 08          	sub    $0x8,%rsp
    6008:	48 8b 05 c9 0c 05 00 	mov    0x50cc9(%rip),%rax        # 56cd8 <__gmon_start__@Base>
    600f:	48 85 c0             	test   %rax,%rax
    6012:	74 02                	je     6016 <_init+0x16>
    6014:	ff d0                	call   *%rax
    6016:	48 83 c4 08          	add    $0x8,%rsp
    601a:	c3                   	ret

Disassembly of section .plt:

0000000000006020 <__tls_get_addr@plt-0x10>:
    6020:	ff 35 72 09 05 00    	push   0x50972(%rip)        # 56998 <_GLOBAL_OFFSET_TABLE_+0x8>
    6026:	ff 25 74 09 05 00    	jmp    *0x50974(%rip)        # 569a0 <_GLOBAL_OFFSET_TABLE_+0x10>
    602c:	0f 1f 40 00          	nopl   0x0(%rax)

0000000000006030 <__tls_get_addr@plt>:
    6030:	ff 25 72 09 05 00    	jmp    *0x50972(%rip)        # 569a8 <__tls_get_addr@GLIBC_2.3>
    6036:	68 00 00 00 00       	push   $0x0
    603b:	e9 e0 ff ff ff       	jmp    6020 <_init+0x20>

0000000000006040 <_Unwind_Resume@plt>:
    6040:	ff 25 6a 09 05 00    	jmp    *0x5096a(%rip)        # 569b0 <_Unwind_Resume@GCC_3.0>
    6046:	68 01 00 00 00       	push   $0x1
    604b:	e9 d0 ff ff ff       	jmp    6020 <_init+0x20>

Disassembly of section .plt.got:

0000000000006050 <__cxa_finalize@plt>:
    6050:	ff 25 3a 0f 05 00    	jmp    *0x50f3a(%rip)        # 56f90 <__cxa_finalize@GLIBC_2.2.5>
    6056:	66 90                	xchg   %ax,%ax

Disassembly of section .text:

0000000000006060 <_ZN4core3str7pattern13simd_contains28_$u7b$$u7b$closure$u7d$$u7d$17h5dd5927e6947e943E>:
    6060:	31 c0                	xor    %eax,%eax
    6062:	66 85 d2             	test   %dx,%dx
    6065:	0f 84 19 01 00 00    	je     6184 <_ZN4core3str7pattern13simd_contains28_$u7b$$u7b$closure$u7d$$u7d$17h5dd5927e6947e943E+0x124>
    606b:	84 c9                	test   %cl,%cl
    606d:	0f 85 11 01 00 00    	jne    6184 <_ZN4core3str7pattern13simd_contains28_$u7b$$u7b$closure$u7d$$u7d$17h5dd5927e6947e943E+0x124>
    6073:	53                   	push   %rbx
    6074:	48 ff c6             	inc    %rsi
    6077:	4c 8b 07             	mov    (%rdi),%r8
    607a:	4c 8b 4f 10          	mov    0x10(%rdi),%r9
    607e:	48 8b 7f 18          	mov    0x18(%rdi),%rdi
    6082:	48 89 f8             	mov    %rdi,%rax
    6085:	48 83 e8 04          	sub    $0x4,%rax
    6089:	0f 82 ad 00 00 00    	jb     613c <_ZN4core3str7pattern13simd_contains28_$u7b$$u7b$closure$u7d$$u7d$17h5dd5927e6947e943E+0xdc>
    608f:	48 85 c0             	test   %rax,%rax
    6092:	7f 4c                	jg     60e0 <_ZN4core3str7pattern13simd_contains28_$u7b$$u7b$closure$u7d$$u7d$17h5dd5927e6947e943E+0x80>
    6094:	49 01 c0             	add    %rax,%r8
    6097:	41 8b 3c 01          	mov    (%r9,%rax,1),%edi
    609b:	0f 1f 44 00 00       	nopl   0x0(%rax,%rax,1)
    60a0:	f3 0f bc ca          	tzcnt  %edx,%ecx
    60a4:	48 8d 04 0e          	lea    (%rsi,%rcx,1),%rax
    60a8:	41 39 3c 00          	cmp    %edi,(%r8,%rax,1)
    60ac:	0f 94 c0             	sete   %al
    60af:	0f 84 ce 00 00 00    	je     6183 <_ZN4core3str7pattern13simd_contains28_$u7b$$u7b$closure$u7d$$u7d$17h5dd5927e6947e943E+0x123>
    60b5:	66 41 b9 fe ff       	mov    $0xfffe,%r9w
    60ba:	66 41 d3 c1          	rol    %cl,%r9w
    60be:	66 44 21 ca          	and    %r9w,%dx
    60c2:	75 dc                	jne    60a0 <_ZN4core3str7pattern13simd_contains28_$u7b$$u7b$closure$u7d$$u7d$17h5dd5927e6947e943E+0x40>
    60c4:	e9 ba 00 00 00       	jmp    6183 <_ZN4core3str7pattern13simd_contains28_$u7b$$u7b$closure$u7d$$u7d$17h5dd5927e6947e943E+0x123>
    60c9:	0f 1f 80 00 00 00 00 	nopl   0x0(%rax)
    60d0:	66 bf fe ff          	mov    $0xfffe,%di
    60d4:	66 d3 c7             	rol    %cl,%di
    60d7:	66 21 fa             	and    %di,%dx
    60da:	0f 84 a1 00 00 00    	je     6181 <_ZN4core3str7pattern13simd_contains28_$u7b$$u7b$closure$u7d$$u7d$17h5dd5927e6947e943E+0x121>
    60e0:	f3 0f bc ca          	tzcnt  %edx,%ecx
    60e4:	48 89 cf             	mov    %rcx,%rdi
    60e7:	48 01 f7             	add    %rsi,%rdi
    60ea:	4c 01 c7             	add    %r8,%rdi
    60ed:	4c 8d 14 07          	lea    (%rdi,%rax,1),%r10
    60f1:	4d 89 cb             	mov    %r9,%r11
    60f4:	66 66 66 2e 0f 1f 84 	data16 data16 cs nopw 0x0(%rax,%rax,1)
    60fb:	00 00 00 00 00 
    6100:	8b 1f                	mov    (%rdi),%ebx
    6102:	41 3b 1b             	cmp    (%r11),%ebx
    6105:	75 c9                	jne    60d0 <_ZN4core3str7pattern13simd_contains28_$u7b$$u7b$closure$u7d$$u7d$17h5dd5927e6947e943E+0x70>
    6107:	48 83 c7 04          	add    $0x4,%rdi
    610b:	49 83 c3 04          	add    $0x4,%r11
    610f:	4c 39 d7             	cmp    %r10,%rdi
    6112:	72 ec                	jb     6100 <_ZN4core3str7pattern13simd_contains28_$u7b$$u7b$closure$u7d$$u7d$17h5dd5927e6947e943E+0xa0>
    6114:	41 8b 3a             	mov    (%r10),%edi
    6117:	41 3b 3c 01          	cmp    (%r9,%rax,1),%edi
    611b:	75 b3                	jne    60d0 <_ZN4core3str7pattern13simd_contains28_$u7b$$u7b$closure$u7d$$u7d$17h5dd5927e6947e943E+0x70>
    611d:	b0 01                	mov    $0x1,%al
    611f:	eb 62                	jmp    6183 <_ZN4core3str7pattern13simd_contains28_$u7b$$u7b$closure$u7d$$u7d$17h5dd5927e6947e943E+0x123>
    6121:	66 66 66 66 66 66 2e 	data16 data16 data16 data16 data16 cs nopw 0x0(%rax,%rax,1)
    6128:	0f 1f 84 00 00 00 00 
    612f:	00 
    6130:	66 b8 fe ff          	mov    $0xfffe,%ax
    6134:	66 d3 c0             	rol    %cl,%ax
    6137:	66 21 c2             	and    %ax,%dx
    613a:	74 45                	je     6181 <_ZN4core3str7pattern13simd_contains28_$u7b$$u7b$closure$u7d$$u7d$17h5dd5927e6947e943E+0x121>
    613c:	b0 01                	mov    $0x1,%al
    613e:	48 85 ff             	test   %rdi,%rdi
    6141:	74 40                	je     6183 <_ZN4core3str7pattern13simd_contains28_$u7b$$u7b$closure$u7d$$u7d$17h5dd5927e6947e943E+0x123>
    6143:	f3 0f bc ca          	tzcnt  %edx,%ecx
    6147:	4c 8d 14 0e          	lea    (%rsi,%rcx,1),%r10
    614b:	47 0f b6 1c 10       	movzbl (%r8,%r10,1),%r11d
    6150:	45 3a 19             	cmp    (%r9),%r11b
    6153:	75 db                	jne    6130 <_ZN4core3str7pattern13simd_contains28_$u7b$$u7b$closure$u7d$$u7d$17h5dd5927e6947e943E+0xd0>
    6155:	48 83 ff 01          	cmp    $0x1,%rdi
    6159:	74 28                	je     6183 <_ZN4core3str7pattern13simd_contains28_$u7b$$u7b$closure$u7d$$u7d$17h5dd5927e6947e943E+0x123>
    615b:	47 0f b6 5c 10 01    	movzbl 0x1(%r8,%r10,1),%r11d
    6161:	45 3a 59 01          	cmp    0x1(%r9),%r11b
    6165:	75 c9                	jne    6130 <_ZN4core3str7pattern13simd_contains28_$u7b$$u7b$closure$u7d$$u7d$17h5dd5927e6947e943E+0xd0>
    6167:	48 83 ff 02          	cmp    $0x2,%rdi
    616b:	74 16                	je     6183 <_ZN4core3str7pattern13simd_contains28_$u7b$$u7b$closure$u7d$$u7d$17h5dd5927e6947e943E+0x123>
    616d:	47 0f b6 54 10 02    	movzbl 0x2(%r8,%r10,1),%r10d
    6173:	45 3a 51 02          	cmp    0x2(%r9),%r10b
    6177:	75 b7                	jne    6130 <_ZN4core3str7pattern13simd_contains28_$u7b$$u7b$closure$u7d$$u7d$17h5dd5927e6947e943E+0xd0>
    6179:	48 83 ff 03          	cmp    $0x3,%rdi
    617d:	75 b1                	jne    6130 <_ZN4core3str7pattern13simd_contains28_$u7b$$u7b$closure$u7d$$u7d$17h5dd5927e6947e943E+0xd0>
    617f:	eb 02                	jmp    6183 <_ZN4core3str7pattern13simd_contains28_$u7b$$u7b$closure$u7d$$u7d$17h5dd5927e6947e943E+0x123>
    6181:	31 c0                	xor    %eax,%eax
    6183:	5b                   	pop    %rbx
    6184:	c3                   	ret
    6185:	66 2e 0f 1f 84 00 00 	cs nopw 0x0(%rax,%rax,1)
    618c:	00 00 00 
    618f:	90                   	nop

0000000000006190 <_ZN4core5slice4sort14break_patterns17h7895a672bbdbc7f0E>:
    6190:	48 83 ec 18          	sub    $0x18,%rsp
    6194:	48 8d 46 ff          	lea    -0x1(%rsi),%rax
    6198:	48 0f bd c8          	bsr    %rax,%rcx
    619c:	f7 d1                	not    %ecx
    619e:	49 c7 c0 ff ff ff ff 	mov    $0xffffffffffffffff,%r8
    61a5:	49 d3 e8             	shr    %cl,%r8
    61a8:	48 89 f2             	mov    %rsi,%rdx
    61ab:	48 d1 ea             	shr    %rdx
    61ae:	49 89 d1             	mov    %rdx,%r9
    61b1:	49 83 e1 fe          	and    $0xfffffffffffffffe,%r9
    61b5:	49 8d 49 ff          	lea    -0x1(%r9),%rcx
    61b9:	48 89 f0             	mov    %rsi,%rax
    61bc:	48 c1 e0 0d          	shl    $0xd,%rax
    61c0:	48 31 f0             	xor    %rsi,%rax
    61c3:	49 89 c3             	mov    %rax,%r11
    61c6:	49 c1 eb 07          	shr    $0x7,%r11
    61ca:	49 31 c3             	xor    %rax,%r11
    61cd:	4d 89 da             	mov    %r11,%r10
    61d0:	49 c1 e2 11          	shl    $0x11,%r10
    61d4:	4d 31 da             	xor    %r11,%r10
    61d7:	4c 89 d0             	mov    %r10,%rax
    61da:	4c 21 c0             	and    %r8,%rax
    61dd:	45 31 db             	xor    %r11d,%r11d
    61e0:	48 39 f0             	cmp    %rsi,%rax
    61e3:	4c 0f 43 de          	cmovae %rsi,%r11
    61e7:	48 39 f1             	cmp    %rsi,%rcx
    61ea:	0f 83 71 01 00 00    	jae    6361 <_ZN4core5slice4sort14break_patterns17h7895a672bbdbc7f0E+0x1d1>
    61f0:	4c 29 d8             	sub    %r11,%rax
    61f3:	48 39 f0             	cmp    %rsi,%rax
    61f6:	0f 83 3f 01 00 00    	jae    633b <_ZN4core5slice4sort14break_patterns17h7895a672bbdbc7f0E+0x1ab>
    61fc:	48 8d 0c 49          	lea    (%rcx,%rcx,2),%rcx
    6200:	48 8d 04 40          	lea    (%rax,%rax,2),%rax
    6204:	4c 8b 5c cf 10       	mov    0x10(%rdi,%rcx,8),%r11
    6209:	4c 89 5c 24 10       	mov    %r11,0x10(%rsp)
    620e:	0f 10 04 cf          	movups (%rdi,%rcx,8),%xmm0
    6212:	0f 29 04 24          	movaps %xmm0,(%rsp)
    6216:	4c 8b 5c c7 10       	mov    0x10(%rdi,%rax,8),%r11
    621b:	0f 10 04 c7          	movups (%rdi,%rax,8),%xmm0
    621f:	0f 11 04 cf          	movups %xmm0,(%rdi,%rcx,8)
    6223:	4c 89 5c cf 10       	mov    %r11,0x10(%rdi,%rcx,8)
    6228:	48 8b 4c 24 10       	mov    0x10(%rsp),%rcx
    622d:	48 89 4c c7 10       	mov    %rcx,0x10(%rdi,%rax,8)
    6232:	0f 28 04 24          	movaps (%rsp),%xmm0
    6236:	0f 11 04 c7          	movups %xmm0,(%rdi,%rax,8)
    623a:	4c 89 d0             	mov    %r10,%rax
    623d:	48 c1 e0 0d          	shl    $0xd,%rax
    6241:	4c 31 d0             	xor    %r10,%rax
    6244:	49 89 c2             	mov    %rax,%r10
    6247:	49 c1 ea 07          	shr    $0x7,%r10
    624b:	49 31 c2             	xor    %rax,%r10
    624e:	4c 89 d1             	mov    %r10,%rcx
    6251:	48 c1 e1 11          	shl    $0x11,%rcx
    6255:	4c 31 d1             	xor    %r10,%rcx
    6258:	48 89 c8             	mov    %rcx,%rax
    625b:	4c 21 c0             	and    %r8,%rax
    625e:	45 31 d2             	xor    %r10d,%r10d
    6261:	48 39 f0             	cmp    %rsi,%rax
    6264:	4c 0f 43 d6          	cmovae %rsi,%r10
    6268:	49 39 f1             	cmp    %rsi,%r9
    626b:	0f 83 da 00 00 00    	jae    634b <_ZN4core5slice4sort14break_patterns17h7895a672bbdbc7f0E+0x1bb>
    6271:	4c 29 d0             	sub    %r10,%rax
    6274:	48 39 f0             	cmp    %rsi,%rax
    6277:	0f 83 be 00 00 00    	jae    633b <_ZN4core5slice4sort14break_patterns17h7895a672bbdbc7f0E+0x1ab>
    627d:	4f 8d 0c 49          	lea    (%r9,%r9,2),%r9
    6281:	48 8d 04 40          	lea    (%rax,%rax,2),%rax
    6285:	4e 8b 54 cf 10       	mov    0x10(%rdi,%r9,8),%r10
    628a:	4c 89 54 24 10       	mov    %r10,0x10(%rsp)
    628f:	42 0f 10 04 cf       	movups (%rdi,%r9,8),%xmm0
    6294:	0f 29 04 24          	movaps %xmm0,(%rsp)
    6298:	4c 8b 54 c7 10       	mov    0x10(%rdi,%rax,8),%r10
    629d:	0f 10 04 c7          	movups (%rdi,%rax,8),%xmm0
    62a1:	42 0f 11 04 cf       	movups %xmm0,(%rdi,%r9,8)
    62a6:	4e 89 54 cf 10       	mov    %r10,0x10(%rdi,%r9,8)
    62ab:	4c 8b 4c 24 10       	mov    0x10(%rsp),%r9
    62b0:	4c 89 4c c7 10       	mov    %r9,0x10(%rdi,%rax,8)
    62b5:	0f 28 04 24          	movaps (%rsp),%xmm0
    62b9:	0f 11 04 c7          	movups %xmm0,(%rdi,%rax,8)
    62bd:	48 89 c8             	mov    %rcx,%rax
    62c0:	48 c1 e0 0d          	shl    $0xd,%rax
    62c4:	48 31 c8             	xor    %rcx,%rax
    62c7:	48 89 c1             	mov    %rax,%rcx
    62ca:	48 c1 e9 07          	shr    $0x7,%rcx
    62ce:	48 31 c1             	xor    %rax,%rcx
    62d1:	48 89 c8             	mov    %rcx,%rax
    62d4:	48 c1 e0 11          	shl    $0x11,%rax
    62d8:	48 31 c8             	xor    %rcx,%rax
    62db:	4c 21 c0             	and    %r8,%rax
    62de:	31 c9                	xor    %ecx,%ecx
    62e0:	48 39 f0             	cmp    %rsi,%rax
    62e3:	48 0f 43 ce          	cmovae %rsi,%rcx
    62e7:	48 83 ca 01          	or     $0x1,%rdx
    62eb:	48 39 f2             	cmp    %rsi,%rdx
    62ee:	73 6e                	jae    635e <_ZN4core5slice4sort14break_patterns17h7895a672bbdbc7f0E+0x1ce>
    62f0:	48 29 c8             	sub    %rcx,%rax
    62f3:	48 39 f0             	cmp    %rsi,%rax
    62f6:	73 43                	jae    633b <_ZN4core5slice4sort14break_patterns17h7895a672bbdbc7f0E+0x1ab>
    62f8:	48 8d 0c 52          	lea    (%rdx,%rdx,2),%rcx
    62fc:	48 8d 04 40          	lea    (%rax,%rax,2),%rax
    6300:	48 8b 54 cf 10       	mov    0x10(%rdi,%rcx,8),%rdx
    6305:	48 89 54 24 10       	mov    %rdx,0x10(%rsp)
    630a:	0f 10 04 cf          	movups (%rdi,%rcx,8),%xmm0
    630e:	0f 29 04 24          	movaps %xmm0,(%rsp)
    6312:	48 8b 54 c7 10       	mov    0x10(%rdi,%rax,8),%rdx
    6317:	0f 10 04 c7          	movups (%rdi,%rax,8),%xmm0
    631b:	0f 11 04 cf          	movups %xmm0,(%rdi,%rcx,8)
    631f:	48 89 54 cf 10       	mov    %rdx,0x10(%rdi,%rcx,8)
    6324:	48 8b 4c 24 10       	mov    0x10(%rsp),%rcx
    6329:	48 89 4c c7 10       	mov    %rcx,0x10(%rdi,%rax,8)
    632e:	0f 28 04 24          	movaps (%rsp),%xmm0
    6332:	0f 11 04 c7          	movups %xmm0,(%rdi,%rax,8)
    6336:	48 83 c4 18          	add    $0x18,%rsp
    633a:	c3                   	ret
    633b:	48 8d 15 26 e2 04 00 	lea    0x4e226(%rip),%rdx        # 54568 <__do_global_dtors_aux_fini_array_entry+0x220>
    6342:	48 89 c7             	mov    %rax,%rdi
    6345:	ff 15 4d 0b 05 00    	call   *0x50b4d(%rip)        # 56e98 <_GLOBAL_OFFSET_TABLE_+0x508>
    634b:	4c 89 c9             	mov    %r9,%rcx
    634e:	48 8d 15 13 e2 04 00 	lea    0x4e213(%rip),%rdx        # 54568 <__do_global_dtors_aux_fini_array_entry+0x220>
    6355:	48 89 cf             	mov    %rcx,%rdi
    6358:	ff 15 3a 0b 05 00    	call   *0x50b3a(%rip)        # 56e98 <_GLOBAL_OFFSET_TABLE_+0x508>
    635e:	48 89 d1             	mov    %rdx,%rcx
    6361:	48 8d 15 00 e2 04 00 	lea    0x4e200(%rip),%rdx        # 54568 <__do_global_dtors_aux_fini_array_entry+0x220>
    6368:	48 89 cf             	mov    %rcx,%rdi
    636b:	ff 15 27 0b 05 00    	call   *0x50b27(%rip)        # 56e98 <_GLOBAL_OFFSET_TABLE_+0x508>
    6371:	66 2e 0f 1f 84 00 00 	cs nopw 0x0(%rax,%rax,1)
    6378:	00 00 00 
    637b:	0f 1f 44 00 00       	nopl   0x0(%rax,%rax,1)

0000000000006380 <_ZN4core5slice4sort22partial_insertion_sort17ha7cd5f2001de5525E>:
    6380:	55                   	push   %rbp
    6381:	41 57                	push   %r15
    6383:	41 56                	push   %r14
    6385:	41 55                	push   %r13
    6387:	41 54                	push   %r12
    6389:	53                   	push   %rbx
    638a:	48 83 ec 18          	sub    $0x18,%rsp
    638e:	48 89 f3             	mov    %rsi,%rbx
    6391:	49 89 fe             	mov    %rdi,%r14
    6394:	48 83 fe 31          	cmp    $0x31,%rsi
    6398:	77 5b                	ja     63f5 <_ZN4core5slice4sort22partial_insertion_sort17ha7cd5f2001de5525E+0x75>
    639a:	b8 01 00 00 00       	mov    $0x1,%eax
    639f:	48 83 fb 01          	cmp    $0x1,%rbx
    63a3:	0f 86 3d 02 00 00    	jbe    65e6 <_ZN4core5slice4sort22partial_insertion_sort17ha7cd5f2001de5525E+0x266>
    63a9:	49 8b 4e 18          	mov    0x18(%r14),%rcx
    63ad:	49 3b 0e             	cmp    (%r14),%rcx
    63b0:	0f 82 30 02 00 00    	jb     65e6 <_ZN4core5slice4sort22partial_insertion_sort17ha7cd5f2001de5525E+0x266>
    63b6:	ba 02 00 00 00       	mov    $0x2,%edx
    63bb:	48 29 da             	sub    %rbx,%rdx
    63be:	49 83 c6 30          	add    $0x30,%r14
    63c2:	66 66 66 66 66 2e 0f 	data16 data16 data16 data16 cs nopw 0x0(%rax,%rax,1)
    63c9:	1f 84 00 00 00 00 00 
    63d0:	48 8d 34 02          	lea    (%rdx,%rax,1),%rsi
    63d4:	48 83 fe 01          	cmp    $0x1,%rsi
    63d8:	0f 84 05 02 00 00    	je     65e3 <_ZN4core5slice4sort22partial_insertion_sort17ha7cd5f2001de5525E+0x263>
    63de:	48 ff c0             	inc    %rax
    63e1:	49 8b 36             	mov    (%r14),%rsi
    63e4:	49 83 c6 18          	add    $0x18,%r14
    63e8:	48 39 ce             	cmp    %rcx,%rsi
    63eb:	48 89 f1             	mov    %rsi,%rcx
    63ee:	73 e0                	jae    63d0 <_ZN4core5slice4sort22partial_insertion_sort17ha7cd5f2001de5525E+0x50>
    63f0:	e9 f1 01 00 00       	jmp    65e6 <_ZN4core5slice4sort22partial_insertion_sort17ha7cd5f2001de5525E+0x266>
    63f5:	49 8b 46 18          	mov    0x18(%r14),%rax
    63f9:	41 bf 01 00 00 00    	mov    $0x1,%r15d
    63ff:	40 b5 01             	mov    $0x1,%bpl
    6402:	b1 01                	mov    $0x1,%cl
    6404:	49 3b 06             	cmp    (%r14),%rax
    6407:	72 3d                	jb     6446 <_ZN4core5slice4sort22partial_insertion_sort17ha7cd5f2001de5525E+0xc6>
    6409:	49 8d 4e 30          	lea    0x30(%r14),%rcx
    640d:	ba 02 00 00 00       	mov    $0x2,%edx
    6412:	48 29 da             	sub    %rbx,%rdx
    6415:	66 66 2e 0f 1f 84 00 	data16 cs nopw 0x0(%rax,%rax,1)
    641c:	00 00 00 00 
    6420:	4a 8d 34 3a          	lea    (%rdx,%r15,1),%rsi
    6424:	48 83 fe 01          	cmp    $0x1,%rsi
    6428:	0f 84 42 03 00 00    	je     6770 <_ZN4core5slice4sort22partial_insertion_sort17ha7cd5f2001de5525E+0x3f0>
    642e:	48 8b 31             	mov    (%rcx),%rsi
    6431:	48 83 c1 18          	add    $0x18,%rcx
    6435:	49 ff c7             	inc    %r15
    6438:	48 39 c6             	cmp    %rax,%rsi
    643b:	48 89 f0             	mov    %rsi,%rax
    643e:	73 e0                	jae    6420 <_ZN4core5slice4sort22partial_insertion_sort17ha7cd5f2001de5525E+0xa0>
    6440:	49 39 df             	cmp    %rbx,%r15
    6443:	0f 92 c1             	setb   %cl
    6446:	49 39 df             	cmp    %rbx,%r15
    6449:	0f 84 24 03 00 00    	je     6773 <_ZN4core5slice4sort22partial_insertion_sort17ha7cd5f2001de5525E+0x3f3>
    644f:	49 8d 57 ff          	lea    -0x1(%r15),%rdx
    6453:	48 39 da             	cmp    %rbx,%rdx
    6456:	0f 83 a1 03 00 00    	jae    67fd <_ZN4core5slice4sort22partial_insertion_sort17ha7cd5f2001de5525E+0x47d>
    645c:	84 c9                	test   %cl,%cl
    645e:	0f 84 af 03 00 00    	je     6813 <_ZN4core5slice4sort22partial_insertion_sort17ha7cd5f2001de5525E+0x493>
    6464:	4c 8d 2c 52          	lea    (%rdx,%rdx,2),%r13
    6468:	4f 8d 24 7f          	lea    (%r15,%r15,2),%r12
    646c:	4b 8b 44 ee 10       	mov    0x10(%r14,%r13,8),%rax
    6471:	48 89 44 24 10       	mov    %rax,0x10(%rsp)
    6476:	43 0f 10 04 ee       	movups (%r14,%r13,8),%xmm0
    647b:	0f 29 04 24          	movaps %xmm0,(%rsp)
    647f:	4b 8b 44 e6 10       	mov    0x10(%r14,%r12,8),%rax
    6484:	4b 89 44 ee 10       	mov    %rax,0x10(%r14,%r13,8)
    6489:	43 0f 10 04 e6       	movups (%r14,%r12,8),%xmm0
    648e:	43 0f 11 04 ee       	movups %xmm0,(%r14,%r13,8)
    6493:	48 8b 44 24 10       	mov    0x10(%rsp),%rax
    6498:	4b 89 44 e6 10       	mov    %rax,0x10(%r14,%r12,8)
    649d:	0f 28 04 24          	movaps (%rsp),%xmm0
    64a1:	43 0f 11 04 e6       	movups %xmm0,(%r14,%r12,8)
    64a6:	49 83 ff 02          	cmp    $0x2,%r15
    64aa:	72 16                	jb     64c2 <_ZN4core5slice4sort22partial_insertion_sort17ha7cd5f2001de5525E+0x142>
    64ac:	4c 89 f7             	mov    %r14,%rdi
    64af:	4c 89 fe             	mov    %r15,%rsi
    64b2:	e8 a9 44 00 00       	call   a960 <_ZN4core5slice4sort25insertion_sort_shift_left17hd4978829c24437bfE>
    64b7:	4c 89 f7             	mov    %r14,%rdi
    64ba:	4c 89 fe             	mov    %r15,%rsi
    64bd:	e8 3e 47 00 00       	call   ac00 <_ZN4core5slice4sort26insertion_sort_shift_right17h6ae74bc42432757cE>
    64c2:	49 39 df             	cmp    %rbx,%r15
    64c5:	73 54                	jae    651b <_ZN4core5slice4sort22partial_insertion_sort17ha7cd5f2001de5525E+0x19b>
    64c7:	4b 8d 14 ee          	lea    (%r14,%r13,8),%rdx
    64cb:	4b 8b 04 e6          	mov    (%r14,%r12,8),%rax
    64cf:	b1 01                	mov    $0x1,%cl
    64d1:	48 3b 02             	cmp    (%rdx),%rax
    64d4:	72 3b                	jb     6511 <_ZN4core5slice4sort22partial_insertion_sort17ha7cd5f2001de5525E+0x191>
    64d6:	4b 8d 0c e6          	lea    (%r14,%r12,8),%rcx
    64da:	48 83 c1 18          	add    $0x18,%rcx
    64de:	48 8d 53 ff          	lea    -0x1(%rbx),%rdx
    64e2:	66 66 66 66 66 2e 0f 	data16 data16 data16 data16 cs nopw 0x0(%rax,%rax,1)
    64e9:	1f 84 00 00 00 00 00 
    64f0:	4c 39 fa             	cmp    %r15,%rdx
    64f3:	0f 84 77 02 00 00    	je     6770 <_ZN4core5slice4sort22partial_insertion_sort17ha7cd5f2001de5525E+0x3f0>
    64f9:	48 8b 31             	mov    (%rcx),%rsi
    64fc:	48 83 c1 18          	add    $0x18,%rcx
    6500:	49 ff c7             	inc    %r15
    6503:	48 39 c6             	cmp    %rax,%rsi
    6506:	48 89 f0             	mov    %rsi,%rax
    6509:	73 e5                	jae    64f0 <_ZN4core5slice4sort22partial_insertion_sort17ha7cd5f2001de5525E+0x170>
    650b:	49 39 df             	cmp    %rbx,%r15
    650e:	0f 92 c1             	setb   %cl
    6511:	49 39 df             	cmp    %rbx,%r15
    6514:	75 10                	jne    6526 <_ZN4core5slice4sort22partial_insertion_sort17ha7cd5f2001de5525E+0x1a6>
    6516:	e9 58 02 00 00       	jmp    6773 <_ZN4core5slice4sort22partial_insertion_sort17ha7cd5f2001de5525E+0x3f3>
    651b:	31 c9                	xor    %ecx,%ecx
    651d:	49 39 df             	cmp    %rbx,%r15
    6520:	0f 84 4d 02 00 00    	je     6773 <_ZN4core5slice4sort22partial_insertion_sort17ha7cd5f2001de5525E+0x3f3>
    6526:	49 8d 57 ff          	lea    -0x1(%r15),%rdx
    652a:	48 39 da             	cmp    %rbx,%rdx
    652d:	0f 83 ca 02 00 00    	jae    67fd <_ZN4core5slice4sort22partial_insertion_sort17ha7cd5f2001de5525E+0x47d>
    6533:	84 c9                	test   %cl,%cl
    6535:	0f 84 d8 02 00 00    	je     6813 <_ZN4core5slice4sort22partial_insertion_sort17ha7cd5f2001de5525E+0x493>
    653b:	4c 8d 2c 52          	lea    (%rdx,%rdx,2),%r13
    653f:	4f 8d 24 7f          	lea    (%r15,%r15,2),%r12
    6543:	4b 8b 44 ee 10       	mov    0x10(%r14,%r13,8),%rax
    6548:	48 89 44 24 10       	mov    %rax,0x10(%rsp)
    654d:	43 0f 10 04 ee       	movups (%r14,%r13,8),%xmm0
    6552:	0f 29 04 24          	movaps %xmm0,(%rsp)
    6556:	4b 8b 44 e6 10       	mov    0x10(%r14,%r12,8),%rax
    655b:	4b 89 44 ee 10       	mov    %rax,0x10(%r14,%r13,8)
    6560:	43 0f 10 04 e6       	movups (%r14,%r12,8),%xmm0
    6565:	43 0f 11 04 ee       	movups %xmm0,(%r14,%r13,8)
    656a:	48 8b 44 24 10       	mov    0x10(%rsp),%rax
    656f:	4b 89 44 e6 10       	mov    %rax,0x10(%r14,%r12,8)
    6574:	0f 28 04 24          	movaps (%rsp),%xmm0
    6578:	43 0f 11 04 e6       	movups %xmm0,(%r14,%r12,8)
    657d:	49 83 ff 02          	cmp    $0x2,%r15
    6581:	72 16                	jb     6599 <_ZN4core5slice4sort22partial_insertion_sort17ha7cd5f2001de5525E+0x219>
    6583:	4c 89 f7             	mov    %r14,%rdi
    6586:	4c 89 fe             	mov    %r15,%rsi
    6589:	e8 d2 43 00 00       	call   a960 <_ZN4core5slice4sort25insertion_sort_shift_left17hd4978829c24437bfE>
    658e:	4c 89 f7             	mov    %r14,%rdi
    6591:	4c 89 fe             	mov    %r15,%rsi
    6594:	e8 67 46 00 00       	call   ac00 <_ZN4core5slice4sort26insertion_sort_shift_right17h6ae74bc42432757cE>
    6599:	49 39 df             	cmp    %rbx,%r15
    659c:	73 54                	jae    65f2 <_ZN4core5slice4sort22partial_insertion_sort17ha7cd5f2001de5525E+0x272>
    659e:	4b 8d 14 ee          	lea    (%r14,%r13,8),%rdx
    65a2:	4b 8b 04 e6          	mov    (%r14,%r12,8),%rax
    65a6:	b1 01                	mov    $0x1,%cl
    65a8:	48 3b 02             	cmp    (%rdx),%rax
    65ab:	72 47                	jb     65f4 <_ZN4core5slice4sort22partial_insertion_sort17ha7cd5f2001de5525E+0x274>
    65ad:	4b 8d 0c e6          	lea    (%r14,%r12,8),%rcx
    65b1:	48 83 c1 18          	add    $0x18,%rcx
    65b5:	48 8d 53 ff          	lea    -0x1(%rbx),%rdx
    65b9:	0f 1f 80 00 00 00 00 	nopl   0x0(%rax)
    65c0:	4c 39 fa             	cmp    %r15,%rdx
    65c3:	0f 84 a7 01 00 00    	je     6770 <_ZN4core5slice4sort22partial_insertion_sort17ha7cd5f2001de5525E+0x3f0>
    65c9:	48 8b 31             	mov    (%rcx),%rsi
    65cc:	48 83 c1 18          	add    $0x18,%rcx
    65d0:	49 ff c7             	inc    %r15
    65d3:	48 39 c6             	cmp    %rax,%rsi
    65d6:	48 89 f0             	mov    %rsi,%rax
    65d9:	73 e5                	jae    65c0 <_ZN4core5slice4sort22partial_insertion_sort17ha7cd5f2001de5525E+0x240>
    65db:	49 39 df             	cmp    %rbx,%r15
    65de:	0f 92 c1             	setb   %cl
    65e1:	eb 11                	jmp    65f4 <_ZN4core5slice4sort22partial_insertion_sort17ha7cd5f2001de5525E+0x274>
    65e3:	48 89 d8             	mov    %rbx,%rax
    65e6:	48 39 d8             	cmp    %rbx,%rax
    65e9:	40 0f 94 c5          	sete   %bpl
    65ed:	e9 81 01 00 00       	jmp    6773 <_ZN4core5slice4sort22partial_insertion_sort17ha7cd5f2001de5525E+0x3f3>
    65f2:	31 c9                	xor    %ecx,%ecx
    65f4:	49 39 df             	cmp    %rbx,%r15
    65f7:	0f 84 76 01 00 00    	je     6773 <_ZN4core5slice4sort22partial_insertion_sort17ha7cd5f2001de5525E+0x3f3>
    65fd:	49 8d 57 ff          	lea    -0x1(%r15),%rdx
    6601:	48 39 da             	cmp    %rbx,%rdx
    6604:	0f 83 f3 01 00 00    	jae    67fd <_ZN4core5slice4sort22partial_insertion_sort17ha7cd5f2001de5525E+0x47d>
    660a:	84 c9                	test   %cl,%cl
    660c:	0f 84 01 02 00 00    	je     6813 <_ZN4core5slice4sort22partial_insertion_sort17ha7cd5f2001de5525E+0x493>
    6612:	4c 8d 2c 52          	lea    (%rdx,%rdx,2),%r13
    6616:	4f 8d 24 7f          	lea    (%r15,%r15,2),%r12
    661a:	4b 8b 44 ee 10       	mov    0x10(%r14,%r13,8),%rax
    661f:	48 89 44 24 10       	mov    %rax,0x10(%rsp)
    6624:	43 0f 10 04 ee       	movups (%r14,%r13,8),%xmm0
    6629:	0f 29 04 24          	movaps %xmm0,(%rsp)
    662d:	4b 8b 44 e6 10       	mov    0x10(%r14,%r12,8),%rax
    6632:	4b 89 44 ee 10       	mov    %rax,0x10(%r14,%r13,8)
    6637:	43 0f 10 04 e6       	movups (%r14,%r12,8),%xmm0
    663c:	43 0f 11 04 ee       	movups %xmm0,(%r14,%r13,8)
    6641:	48 8b 44 24 10       	mov    0x10(%rsp),%rax
    6646:	4b 89 44 e6 10       	mov    %rax,0x10(%r14,%r12,8)
    664b:	0f 28 04 24          	movaps (%rsp),%xmm0
    664f:	43 0f 11 04 e6       	movups %xmm0,(%r14,%r12,8)
    6654:	49 83 ff 02          	cmp    $0x2,%r15
    6658:	72 16                	jb     6670 <_ZN4core5slice4sort22partial_insertion_sort17ha7cd5f2001de5525E+0x2f0>
    665a:	4c 89 f7             	mov    %r14,%rdi
    665d:	4c 89 fe             	mov    %r15,%rsi
    6660:	e8 fb 42 00 00       	call   a960 <_ZN4core5slice4sort25insertion_sort_shift_left17hd4978829c24437bfE>
    6665:	4c 89 f7             	mov    %r14,%rdi
    6668:	4c 89 fe             	mov    %r15,%rsi
    666b:	e8 90 45 00 00       	call   ac00 <_ZN4core5slice4sort26insertion_sort_shift_right17h6ae74bc42432757cE>
    6670:	49 39 df             	cmp    %rbx,%r15
    6673:	73 3e                	jae    66b3 <_ZN4core5slice4sort22partial_insertion_sort17ha7cd5f2001de5525E+0x333>
    6675:	4b 8d 14 ee          	lea    (%r14,%r13,8),%rdx
    6679:	4b 8b 04 e6          	mov    (%r14,%r12,8),%rax
    667d:	b1 01                	mov    $0x1,%cl
    667f:	48 3b 02             	cmp    (%rdx),%rax
    6682:	72 31                	jb     66b5 <_ZN4core5slice4sort22partial_insertion_sort17ha7cd5f2001de5525E+0x335>
    6684:	4b 8d 0c e6          	lea    (%r14,%r12,8),%rcx
    6688:	48 83 c1 18          	add    $0x18,%rcx
    668c:	48 8d 53 ff          	lea    -0x1(%rbx),%rdx
    6690:	4c 39 fa             	cmp    %r15,%rdx
    6693:	0f 84 d7 00 00 00    	je     6770 <_ZN4core5slice4sort22partial_insertion_sort17ha7cd5f2001de5525E+0x3f0>
    6699:	48 8b 31             	mov    (%rcx),%rsi
    669c:	48 83 c1 18          	add    $0x18,%rcx
    66a0:	49 ff c7             	inc    %r15
    66a3:	48 39 c6             	cmp    %rax,%rsi
    66a6:	48 89 f0             	mov    %rsi,%rax
    66a9:	73 e5                	jae    6690 <_ZN4core5slice4sort22partial_insertion_sort17ha7cd5f2001de5525E+0x310>
    66ab:	49 39 df             	cmp    %rbx,%r15
    66ae:	0f 92 c1             	setb   %cl
    66b1:	eb 02                	jmp    66b5 <_ZN4core5slice4sort22partial_insertion_sort17ha7cd5f2001de5525E+0x335>
    66b3:	31 c9                	xor    %ecx,%ecx
    66b5:	49 39 df             	cmp    %rbx,%r15
    66b8:	0f 84 b5 00 00 00    	je     6773 <_ZN4core5slice4sort22partial_insertion_sort17ha7cd5f2001de5525E+0x3f3>
    66be:	49 8d 57 ff          	lea    -0x1(%r15),%rdx
    66c2:	48 39 da             	cmp    %rbx,%rdx
    66c5:	0f 83 32 01 00 00    	jae    67fd <_ZN4core5slice4sort22partial_insertion_sort17ha7cd5f2001de5525E+0x47d>
    66cb:	84 c9                	test   %cl,%cl
    66cd:	0f 84 40 01 00 00    	je     6813 <_ZN4core5slice4sort22partial_insertion_sort17ha7cd5f2001de5525E+0x493>
    66d3:	4c 8d 2c 52          	lea    (%rdx,%rdx,2),%r13
    66d7:	4f 8d 24 7f          	lea    (%r15,%r15,2),%r12
    66db:	4b 8b 44 ee 10       	mov    0x10(%r14,%r13,8),%rax
    66e0:	48 89 44 24 10       	mov    %rax,0x10(%rsp)
    66e5:	43 0f 10 04 ee       	movups (%r14,%r13,8),%xmm0
    66ea:	0f 29 04 24          	movaps %xmm0,(%rsp)
    66ee:	4b 8b 44 e6 10       	mov    0x10(%r14,%r12,8),%rax
    66f3:	4b 89 44 ee 10       	mov    %rax,0x10(%r14,%r13,8)
    66f8:	43 0f 10 04 e6       	movups (%r14,%r12,8),%xmm0
    66fd:	43 0f 11 04 ee       	movups %xmm0,(%r14,%r13,8)
    6702:	48 8b 44 24 10       	mov    0x10(%rsp),%rax
    6707:	4b 89 44 e6 10       	mov    %rax,0x10(%r14,%r12,8)
    670c:	0f 28 04 24          	movaps (%rsp),%xmm0
    6710:	43 0f 11 04 e6       	movups %xmm0,(%r14,%r12,8)
    6715:	49 83 ff 02          	cmp    $0x2,%r15
    6719:	72 16                	jb     6731 <_ZN4core5slice4sort22partial_insertion_sort17ha7cd5f2001de5525E+0x3b1>
    671b:	4c 89 f7             	mov    %r14,%rdi
    671e:	4c 89 fe             	mov    %r15,%rsi
    6721:	e8 3a 42 00 00       	call   a960 <_ZN4core5slice4sort25insertion_sort_shift_left17hd4978829c24437bfE>
    6726:	4c 89 f7             	mov    %r14,%rdi
    6729:	4c 89 fe             	mov    %r15,%rsi
    672c:	e8 cf 44 00 00       	call   ac00 <_ZN4core5slice4sort26insertion_sort_shift_right17h6ae74bc42432757cE>
    6731:	49 39 df             	cmp    %rbx,%r15
    6734:	73 4e                	jae    6784 <_ZN4core5slice4sort22partial_insertion_sort17ha7cd5f2001de5525E+0x404>
    6736:	4b 8d 14 ee          	lea    (%r14,%r13,8),%rdx
    673a:	4b 8b 04 e6          	mov    (%r14,%r12,8),%rax
    673e:	b1 01                	mov    $0x1,%cl
    6740:	48 3b 02             	cmp    (%rdx),%rax
    6743:	72 41                	jb     6786 <_ZN4core5slice4sort22partial_insertion_sort17ha7cd5f2001de5525E+0x406>
    6745:	4b 8d 0c e6          	lea    (%r14,%r12,8),%rcx
    6749:	48 83 c1 18          	add    $0x18,%rcx
    674d:	48 8d 53 ff          	lea    -0x1(%rbx),%rdx
    6751:	4c 39 fa             	cmp    %r15,%rdx
    6754:	74 1a                	je     6770 <_ZN4core5slice4sort22partial_insertion_sort17ha7cd5f2001de5525E+0x3f0>
    6756:	48 8b 31             	mov    (%rcx),%rsi
    6759:	48 83 c1 18          	add    $0x18,%rcx
    675d:	49 ff c7             	inc    %r15
    6760:	48 39 c6             	cmp    %rax,%rsi
    6763:	48 89 f0             	mov    %rsi,%rax
    6766:	73 e9                	jae    6751 <_ZN4core5slice4sort22partial_insertion_sort17ha7cd5f2001de5525E+0x3d1>
    6768:	49 39 df             	cmp    %rbx,%r15
    676b:	0f 92 c1             	setb   %cl
    676e:	eb 16                	jmp    6786 <_ZN4core5slice4sort22partial_insertion_sort17ha7cd5f2001de5525E+0x406>
    6770:	40 b5 01             	mov    $0x1,%bpl
    6773:	89 e8                	mov    %ebp,%eax
    6775:	48 83 c4 18          	add    $0x18,%rsp
    6779:	5b                   	pop    %rbx
    677a:	41 5c                	pop    %r12
    677c:	41 5d                	pop    %r13
    677e:	41 5e                	pop    %r14
    6780:	41 5f                	pop    %r15
    6782:	5d                   	pop    %rbp
    6783:	c3                   	ret
    6784:	31 c9                	xor    %ecx,%ecx
    6786:	49 39 df             	cmp    %rbx,%r15
    6789:	74 e8                	je     6773 <_ZN4core5slice4sort22partial_insertion_sort17ha7cd5f2001de5525E+0x3f3>
    678b:	49 8d 57 ff          	lea    -0x1(%r15),%rdx
    678f:	48 39 da             	cmp    %rbx,%rdx
    6792:	73 69                	jae    67fd <_ZN4core5slice4sort22partial_insertion_sort17ha7cd5f2001de5525E+0x47d>
    6794:	84 c9                	test   %cl,%cl
    6796:	74 7b                	je     6813 <_ZN4core5slice4sort22partial_insertion_sort17ha7cd5f2001de5525E+0x493>
    6798:	48 8d 04 52          	lea    (%rdx,%rdx,2),%rax
    679c:	4b 8d 0c 7f          	lea    (%r15,%r15,2),%rcx
    67a0:	49 8b 74 c6 10       	mov    0x10(%r14,%rax,8),%rsi
    67a5:	48 89 74 24 10       	mov    %rsi,0x10(%rsp)
    67aa:	41 0f 10 04 c6       	movups (%r14,%rax,8),%xmm0
    67af:	0f 29 04 24          	movaps %xmm0,(%rsp)
    67b3:	49 8b 74 ce 10       	mov    0x10(%r14,%rcx,8),%rsi
    67b8:	49 89 74 c6 10       	mov    %rsi,0x10(%r14,%rax,8)
    67bd:	41 0f 10 04 ce       	movups (%r14,%rcx,8),%xmm0
    67c2:	41 0f 11 04 c6       	movups %xmm0,(%r14,%rax,8)
    67c7:	48 8b 44 24 10       	mov    0x10(%rsp),%rax
    67cc:	49 89 44 ce 10       	mov    %rax,0x10(%r14,%rcx,8)
    67d1:	0f 28 04 24          	movaps (%rsp),%xmm0
    67d5:	41 0f 11 04 ce       	movups %xmm0,(%r14,%rcx,8)
    67da:	49 83 ff 02          	cmp    $0x2,%r15
    67de:	72 16                	jb     67f6 <_ZN4core5slice4sort22partial_insertion_sort17ha7cd5f2001de5525E+0x476>
    67e0:	4c 89 f7             	mov    %r14,%rdi
    67e3:	4c 89 fe             	mov    %r15,%rsi
    67e6:	e8 75 41 00 00       	call   a960 <_ZN4core5slice4sort25insertion_sort_shift_left17hd4978829c24437bfE>
    67eb:	4c 89 f7             	mov    %r14,%rdi
    67ee:	4c 89 fe             	mov    %r15,%rsi
    67f1:	e8 0a 44 00 00       	call   ac00 <_ZN4core5slice4sort26insertion_sort_shift_right17h6ae74bc42432757cE>
    67f6:	31 ed                	xor    %ebp,%ebp
    67f8:	e9 76 ff ff ff       	jmp    6773 <_ZN4core5slice4sort22partial_insertion_sort17ha7cd5f2001de5525E+0x3f3>
    67fd:	48 8d 05 ac dd 04 00 	lea    0x4ddac(%rip),%rax        # 545b0 <__do_global_dtors_aux_fini_array_entry+0x268>
    6804:	48 89 d7             	mov    %rdx,%rdi
    6807:	48 89 de             	mov    %rbx,%rsi
    680a:	48 89 c2             	mov    %rax,%rdx
    680d:	ff 15 85 06 05 00    	call   *0x50685(%rip)        # 56e98 <_GLOBAL_OFFSET_TABLE_+0x508>
    6813:	48 8d 15 96 dd 04 00 	lea    0x4dd96(%rip),%rdx        # 545b0 <__do_global_dtors_aux_fini_array_entry+0x268>
    681a:	4c 89 ff             	mov    %r15,%rdi
    681d:	48 89 de             	mov    %rbx,%rsi
    6820:	ff 15 72 06 05 00    	call   *0x50672(%rip)        # 56e98 <_GLOBAL_OFFSET_TABLE_+0x508>
    6826:	66 2e 0f 1f 84 00 00 	cs nopw 0x0(%rax,%rax,1)
    682d:	00 00 00 

0000000000006830 <_ZN4core5slice4sort8heapsort17h4ae21ad7e380d8a6E>:
    6830:	48 83 ec 18          	sub    $0x18,%rsp
    6834:	48 83 fe 02          	cmp    $0x2,%rsi
    6838:	0f 82 ff 01 00 00    	jb     6a3d <_ZN4core5slice4sort8heapsort17h4ae21ad7e380d8a6E+0x20d>
    683e:	48 89 f2             	mov    %rsi,%rdx
    6841:	48 d1 ea             	shr    %rdx
    6844:	eb 13                	jmp    6859 <_ZN4core5slice4sort8heapsort17h4ae21ad7e380d8a6E+0x29>
    6846:	66 2e 0f 1f 84 00 00 	cs nopw 0x0(%rax,%rax,1)
    684d:	00 00 00 
    6850:	48 85 d2             	test   %rdx,%rdx
    6853:	0f 84 c0 00 00 00    	je     6919 <_ZN4core5slice4sort8heapsort17h4ae21ad7e380d8a6E+0xe9>
    6859:	48 89 d0             	mov    %rdx,%rax
    685c:	48 ff ca             	dec    %rdx
    685f:	4c 8d 04 45 ff ff ff 	lea    -0x1(,%rax,2),%r8
    6866:	ff 
    6867:	49 39 f0             	cmp    %rsi,%r8
    686a:	73 e4                	jae    6850 <_ZN4core5slice4sort8heapsort17h4ae21ad7e380d8a6E+0x20>
    686c:	4c 8d 0c 45 fe ff ff 	lea    -0x2(,%rax,2),%r9
    6873:	ff 
    6874:	48 89 d1             	mov    %rdx,%rcx
    6877:	66 0f 1f 84 00 00 00 	nopw   0x0(%rax,%rax,1)
    687e:	00 00 
    6880:	49 83 c1 02          	add    $0x2,%r9
    6884:	49 39 f1             	cmp    %rsi,%r9
    6887:	73 14                	jae    689d <_ZN4core5slice4sort8heapsort17h4ae21ad7e380d8a6E+0x6d>
    6889:	4b 8d 04 40          	lea    (%r8,%r8,2),%rax
    688d:	4f 8d 0c 49          	lea    (%r9,%r9,2),%r9
    6891:	48 8b 04 c7          	mov    (%rdi,%rax,8),%rax
    6895:	4a 3b 04 cf          	cmp    (%rdi,%r9,8),%rax
    6899:	49 83 d0 00          	adc    $0x0,%r8
    689d:	4c 89 c0             	mov    %r8,%rax
    68a0:	48 39 f1             	cmp    %rsi,%rcx
    68a3:	0f 83 99 01 00 00    	jae    6a42 <_ZN4core5slice4sort8heapsort17h4ae21ad7e380d8a6E+0x212>
    68a9:	48 39 f0             	cmp    %rsi,%rax
    68ac:	0f 83 a0 01 00 00    	jae    6a52 <_ZN4core5slice4sort8heapsort17h4ae21ad7e380d8a6E+0x222>
    68b2:	48 8d 0c 49          	lea    (%rcx,%rcx,2),%rcx
    68b6:	4c 8d 04 40          	lea    (%rax,%rax,2),%r8
    68ba:	4c 8b 0c cf          	mov    (%rdi,%rcx,8),%r9
    68be:	4e 3b 0c c7          	cmp    (%rdi,%r8,8),%r9
    68c2:	73 8c                	jae    6850 <_ZN4core5slice4sort8heapsort17h4ae21ad7e380d8a6E+0x20>
    68c4:	48 8d 0c cf          	lea    (%rdi,%rcx,8),%rcx
    68c8:	4e 8d 04 c7          	lea    (%rdi,%r8,8),%r8
    68cc:	4c 8b 49 10          	mov    0x10(%rcx),%r9
    68d0:	4c 89 4c 24 10       	mov    %r9,0x10(%rsp)
    68d5:	0f 10 01             	movups (%rcx),%xmm0
    68d8:	0f 29 04 24          	movaps %xmm0,(%rsp)
    68dc:	4d 8b 48 10          	mov    0x10(%r8),%r9
    68e0:	41 0f 10 00          	movups (%r8),%xmm0
    68e4:	0f 11 01             	movups %xmm0,(%rcx)
    68e7:	4c 89 49 10          	mov    %r9,0x10(%rcx)
    68eb:	48 8b 4c 24 10       	mov    0x10(%rsp),%rcx
    68f0:	49 89 48 10          	mov    %rcx,0x10(%r8)
    68f4:	0f 28 04 24          	movaps (%rsp),%xmm0
    68f8:	41 0f 11 00          	movups %xmm0,(%r8)
    68fc:	4c 8d 0c 00          	lea    (%rax,%rax,1),%r9
    6900:	4c 8d 04 45 01 00 00 	lea    0x1(,%rax,2),%r8
    6907:	00 
    6908:	48 89 c1             	mov    %rax,%rcx
    690b:	49 39 f0             	cmp    %rsi,%r8
    690e:	0f 82 6c ff ff ff    	jb     6880 <_ZN4core5slice4sort8heapsort17h4ae21ad7e380d8a6E+0x50>
    6914:	e9 37 ff ff ff       	jmp    6850 <_ZN4core5slice4sort8heapsort17h4ae21ad7e380d8a6E+0x20>
    6919:	48 83 fe 02          	cmp    $0x2,%rsi
    691d:	0f 82 1a 01 00 00    	jb     6a3d <_ZN4core5slice4sort8heapsort17h4ae21ad7e380d8a6E+0x20d>
    6923:	48 89 f0             	mov    %rsi,%rax
    6926:	eb 12                	jmp    693a <_ZN4core5slice4sort8heapsort17h4ae21ad7e380d8a6E+0x10a>
    6928:	0f 1f 84 00 00 00 00 	nopl   0x0(%rax,%rax,1)
    692f:	00 
    6930:	48 83 f8 01          	cmp    $0x1,%rax
    6934:	0f 86 03 01 00 00    	jbe    6a3d <_ZN4core5slice4sort8heapsort17h4ae21ad7e380d8a6E+0x20d>
    693a:	48 ff c8             	dec    %rax
    693d:	48 39 f0             	cmp    %rsi,%rax
    6940:	0f 83 42 01 00 00    	jae    6a88 <_ZN4core5slice4sort8heapsort17h4ae21ad7e380d8a6E+0x258>
    6946:	48 8d 0c 40          	lea    (%rax,%rax,2),%rcx
    694a:	48 8b 57 10          	mov    0x10(%rdi),%rdx
    694e:	48 89 54 24 10       	mov    %rdx,0x10(%rsp)
    6953:	0f 10 07             	movups (%rdi),%xmm0
    6956:	0f 29 04 24          	movaps %xmm0,(%rsp)
    695a:	48 8b 54 cf 10       	mov    0x10(%rdi,%rcx,8),%rdx
    695f:	0f 10 04 cf          	movups (%rdi,%rcx,8),%xmm0
    6963:	0f 11 07             	movups %xmm0,(%rdi)
    6966:	48 89 57 10          	mov    %rdx,0x10(%rdi)
    696a:	48 8b 54 24 10       	mov    0x10(%rsp),%rdx
    696f:	48 89 54 cf 10       	mov    %rdx,0x10(%rdi,%rcx,8)
    6974:	0f 28 04 24          	movaps (%rsp),%xmm0
    6978:	0f 11 04 cf          	movups %xmm0,(%rdi,%rcx,8)
    697c:	48 83 f8 02          	cmp    $0x2,%rax
    6980:	0f 82 b7 00 00 00    	jb     6a3d <_ZN4core5slice4sort8heapsort17h4ae21ad7e380d8a6E+0x20d>
    6986:	ba 01 00 00 00       	mov    $0x1,%edx
    698b:	45 31 c9             	xor    %r9d,%r9d
    698e:	45 31 c0             	xor    %r8d,%r8d
    6991:	66 66 66 66 66 66 2e 	data16 data16 data16 data16 data16 cs nopw 0x0(%rax,%rax,1)
    6998:	0f 1f 84 00 00 00 00 
    699f:	00 
    69a0:	49 83 c1 02          	add    $0x2,%r9
    69a4:	49 39 c1             	cmp    %rax,%r9
    69a7:	73 14                	jae    69bd <_ZN4core5slice4sort8heapsort17h4ae21ad7e380d8a6E+0x18d>
    69a9:	48 8d 0c 52          	lea    (%rdx,%rdx,2),%rcx
    69ad:	4f 8d 0c 49          	lea    (%r9,%r9,2),%r9
    69b1:	48 8b 0c cf          	mov    (%rdi,%rcx,8),%rcx
    69b5:	4a 3b 0c cf          	cmp    (%rdi,%r9,8),%rcx
    69b9:	48 83 d2 00          	adc    $0x0,%rdx
    69bd:	48 89 d1             	mov    %rdx,%rcx
    69c0:	49 39 c0             	cmp    %rax,%r8
    69c3:	0f 83 99 00 00 00    	jae    6a62 <_ZN4core5slice4sort8heapsort17h4ae21ad7e380d8a6E+0x232>
    69c9:	48 39 c1             	cmp    %rax,%rcx
    69cc:	0f 83 a3 00 00 00    	jae    6a75 <_ZN4core5slice4sort8heapsort17h4ae21ad7e380d8a6E+0x245>
    69d2:	4b 8d 14 40          	lea    (%r8,%r8,2),%rdx
    69d6:	4c 8d 04 49          	lea    (%rcx,%rcx,2),%r8
    69da:	4c 8b 0c d7          	mov    (%rdi,%rdx,8),%r9
    69de:	4e 3b 0c c7          	cmp    (%rdi,%r8,8),%r9
    69e2:	0f 83 48 ff ff ff    	jae    6930 <_ZN4core5slice4sort8heapsort17h4ae21ad7e380d8a6E+0x100>
    69e8:	48 8d 14 d7          	lea    (%rdi,%rdx,8),%rdx
    69ec:	4e 8d 04 c7          	lea    (%rdi,%r8,8),%r8
    69f0:	4c 8b 4a 10          	mov    0x10(%rdx),%r9
    69f4:	4c 89 4c 24 10       	mov    %r9,0x10(%rsp)
    69f9:	0f 10 02             	movups (%rdx),%xmm0
    69fc:	0f 29 04 24          	movaps %xmm0,(%rsp)
    6a00:	4d 8b 48 10          	mov    0x10(%r8),%r9
    6a04:	41 0f 10 00          	movups (%r8),%xmm0
    6a08:	0f 11 02             	movups %xmm0,(%rdx)
    6a0b:	4c 89 4a 10          	mov    %r9,0x10(%rdx)
    6a0f:	48 8b 54 24 10       	mov    0x10(%rsp),%rdx
    6a14:	49 89 50 10          	mov    %rdx,0x10(%r8)
    6a18:	0f 28 04 24          	movaps (%rsp),%xmm0
    6a1c:	41 0f 11 00          	movups %xmm0,(%r8)
    6a20:	4c 8d 0c 09          	lea    (%rcx,%rcx,1),%r9
    6a24:	48 8d 14 4d 01 00 00 	lea    0x1(,%rcx,2),%rdx
    6a2b:	00 
    6a2c:	49 89 c8             	mov    %rcx,%r8
    6a2f:	48 39 c2             	cmp    %rax,%rdx
    6a32:	0f 82 68 ff ff ff    	jb     69a0 <_ZN4core5slice4sort8heapsort17h4ae21ad7e380d8a6E+0x170>
    6a38:	e9 f3 fe ff ff       	jmp    6930 <_ZN4core5slice4sort8heapsort17h4ae21ad7e380d8a6E+0x100>
    6a3d:	48 83 c4 18          	add    $0x18,%rsp
    6a41:	c3                   	ret
    6a42:	48 8d 15 f7 db 04 00 	lea    0x4dbf7(%rip),%rdx        # 54640 <__do_global_dtors_aux_fini_array_entry+0x2f8>
    6a49:	48 89 cf             	mov    %rcx,%rdi
    6a4c:	ff 15 46 04 05 00    	call   *0x50446(%rip)        # 56e98 <_GLOBAL_OFFSET_TABLE_+0x508>
    6a52:	48 8d 15 ff db 04 00 	lea    0x4dbff(%rip),%rdx        # 54658 <__do_global_dtors_aux_fini_array_entry+0x310>
    6a59:	48 89 c7             	mov    %rax,%rdi
    6a5c:	ff 15 36 04 05 00    	call   *0x50436(%rip)        # 56e98 <_GLOBAL_OFFSET_TABLE_+0x508>
    6a62:	48 8d 15 d7 db 04 00 	lea    0x4dbd7(%rip),%rdx        # 54640 <__do_global_dtors_aux_fini_array_entry+0x2f8>
    6a69:	4c 89 c7             	mov    %r8,%rdi
    6a6c:	48 89 c6             	mov    %rax,%rsi
    6a6f:	ff 15 23 04 05 00    	call   *0x50423(%rip)        # 56e98 <_GLOBAL_OFFSET_TABLE_+0x508>
    6a75:	48 8d 15 dc db 04 00 	lea    0x4dbdc(%rip),%rdx        # 54658 <__do_global_dtors_aux_fini_array_entry+0x310>
    6a7c:	48 89 cf             	mov    %rcx,%rdi
    6a7f:	48 89 c6             	mov    %rax,%rsi
    6a82:	ff 15 10 04 05 00    	call   *0x50410(%rip)        # 56e98 <_GLOBAL_OFFSET_TABLE_+0x508>
    6a88:	48 8d 15 99 db 04 00 	lea    0x4db99(%rip),%rdx        # 54628 <__do_global_dtors_aux_fini_array_entry+0x2e0>
    6a8f:	48 89 c7             	mov    %rax,%rdi
    6a92:	ff 15 00 04 05 00    	call   *0x50400(%rip)        # 56e98 <_GLOBAL_OFFSET_TABLE_+0x508>
    6a98:	0f 1f 84 00 00 00 00 	nopl   0x0(%rax,%rax,1)
    6a9f:	00 

0000000000006aa0 <_ZN4core9panicking13assert_failed17h8ab630e017395216E>:
    6aa0:	48 83 ec 18          	sub    $0x18,%rsp
    6aa4:	49 89 c9             	mov    %rcx,%r9
    6aa7:	48 89 74 24 08       	mov    %rsi,0x8(%rsp)
    6aac:	48 89 54 24 10       	mov    %rdx,0x10(%rsp)
    6ab1:	4c 89 04 24          	mov    %r8,(%rsp)
    6ab5:	48 8d 15 3c dc 04 00 	lea    0x4dc3c(%rip),%rdx        # 546f8 <__do_global_dtors_aux_fini_array_entry+0x3b0>
    6abc:	48 8d 74 24 08       	lea    0x8(%rsp),%rsi
    6ac1:	48 8d 4c 24 10       	lea    0x10(%rsp),%rcx
    6ac6:	49 89 d0             	mov    %rdx,%r8
    6ac9:	ff 15 a1 00 05 00    	call   *0x500a1(%rip)        # 56b70 <_GLOBAL_OFFSET_TABLE_+0x1e0>
    6acf:	90                   	nop

0000000000006ad0 <_ZN5alloc7raw_vec19RawVec$LT$T$C$A$GT$7reserve21do_reserve_and_handle17h02e53591be087eb6E>:
    6ad0:	41 56                	push   %r14
    6ad2:	53                   	push   %rbx
    6ad3:	48 83 ec 38          	sub    $0x38,%rsp
    6ad7:	48 01 d6             	add    %rdx,%rsi
    6ada:	0f 82 b8 00 00 00    	jb     6b98 <_ZN5alloc7raw_vec19RawVec$LT$T$C$A$GT$7reserve21do_reserve_and_handle17h02e53591be087eb6E+0xc8>
    6ae0:	48 89 fb             	mov    %rdi,%rbx
    6ae3:	48 8b 07             	mov    (%rdi),%rax
    6ae6:	48 8d 0c 00          	lea    (%rax,%rax,1),%rcx
    6aea:	48 39 f1             	cmp    %rsi,%rcx
    6aed:	48 0f 47 f1          	cmova  %rcx,%rsi
    6af1:	48 83 fe 05          	cmp    $0x5,%rsi
    6af5:	41 be 04 00 00 00    	mov    $0x4,%r14d
    6afb:	4c 0f 43 f6          	cmovae %rsi,%r14
    6aff:	48 b9 56 55 55 55 55 	movabs $0x555555555555556,%rcx
    6b06:	55 55 05 
    6b09:	31 f6                	xor    %esi,%esi
    6b0b:	49 39 ce             	cmp    %rcx,%r14
    6b0e:	40 0f 92 c6          	setb   %sil
    6b12:	4a 8d 0c f5 00 00 00 	lea    0x0(,%r14,8),%rcx
    6b19:	00 
    6b1a:	48 8d 14 49          	lea    (%rcx,%rcx,2),%rdx
    6b1e:	48 c1 e6 03          	shl    $0x3,%rsi
    6b22:	48 85 c0             	test   %rax,%rax
    6b25:	74 21                	je     6b48 <_ZN5alloc7raw_vec19RawVec$LT$T$C$A$GT$7reserve21do_reserve_and_handle17h02e53591be087eb6E+0x78>
    6b27:	48 8b 4b 08          	mov    0x8(%rbx),%rcx
    6b2b:	48 c1 e0 03          	shl    $0x3,%rax
    6b2f:	48 8d 04 40          	lea    (%rax,%rax,2),%rax
    6b33:	48 89 4c 24 08       	mov    %rcx,0x8(%rsp)
    6b38:	48 c7 44 24 10 08 00 	movq   $0x8,0x10(%rsp)
    6b3f:	00 00 
    6b41:	48 89 44 24 18       	mov    %rax,0x18(%rsp)
    6b46:	eb 09                	jmp    6b51 <_ZN5alloc7raw_vec19RawVec$LT$T$C$A$GT$7reserve21do_reserve_and_handle17h02e53591be087eb6E+0x81>
    6b48:	48 c7 44 24 10 00 00 	movq   $0x0,0x10(%rsp)
    6b4f:	00 00 
    6b51:	48 8d 7c 24 20       	lea    0x20(%rsp),%rdi
    6b56:	48 8d 4c 24 08       	lea    0x8(%rsp),%rcx
    6b5b:	e8 40 61 00 00       	call   cca0 <_ZN5alloc7raw_vec11finish_grow17h300fc1829b456a6bE>
    6b60:	48 83 7c 24 20 00    	cmpq   $0x0,0x20(%rsp)
    6b66:	48 8b 7c 24 28       	mov    0x28(%rsp),%rdi
    6b6b:	74 17                	je     6b84 <_ZN5alloc7raw_vec19RawVec$LT$T$C$A$GT$7reserve21do_reserve_and_handle17h02e53591be087eb6E+0xb4>
    6b6d:	48 b8 01 00 00 00 00 	movabs $0x8000000000000001,%rax
    6b74:	00 00 80 
    6b77:	48 39 c7             	cmp    %rax,%rdi
    6b7a:	75 17                	jne    6b93 <_ZN5alloc7raw_vec19RawVec$LT$T$C$A$GT$7reserve21do_reserve_and_handle17h02e53591be087eb6E+0xc3>
    6b7c:	48 83 c4 38          	add    $0x38,%rsp
    6b80:	5b                   	pop    %rbx
    6b81:	41 5e                	pop    %r14
    6b83:	c3                   	ret
    6b84:	48 89 7b 08          	mov    %rdi,0x8(%rbx)
    6b88:	4c 89 33             	mov    %r14,(%rbx)
    6b8b:	48 83 c4 38          	add    $0x38,%rsp
    6b8f:	5b                   	pop    %rbx
    6b90:	41 5e                	pop    %r14
    6b92:	c3                   	ret
    6b93:	48 85 ff             	test   %rdi,%rdi
    6b96:	75 06                	jne    6b9e <_ZN5alloc7raw_vec19RawVec$LT$T$C$A$GT$7reserve21do_reserve_and_handle17h02e53591be087eb6E+0xce>
    6b98:	ff 15 ca 02 05 00    	call   *0x502ca(%rip)        # 56e68 <_GLOBAL_OFFSET_TABLE_+0x4d8>
    6b9e:	48 8b 74 24 30       	mov    0x30(%rsp),%rsi
    6ba3:	ff 15 5f 03 05 00    	call   *0x5035f(%rip)        # 56f08 <_GLOBAL_OFFSET_TABLE_+0x578>
    6ba9:	0f 1f 80 00 00 00 00 	nopl   0x0(%rax)

0000000000006bb0 <_ZN5alloc7raw_vec19RawVec$LT$T$C$A$GT$7reserve21do_reserve_and_handle17h1ff048a962a85ec3E>:
    6bb0:	41 56                	push   %r14
    6bb2:	53                   	push   %rbx
    6bb3:	48 83 ec 38          	sub    $0x38,%rsp
    6bb7:	48 ff c6             	inc    %rsi
    6bba:	0f 84 b2 00 00 00    	je     6c72 <_ZN5alloc7raw_vec19RawVec$LT$T$C$A$GT$7reserve21do_reserve_and_handle17h1ff048a962a85ec3E+0xc2>
    6bc0:	48 89 fb             	mov    %rdi,%rbx
    6bc3:	48 8b 07             	mov    (%rdi),%rax
    6bc6:	48 8d 0c 00          	lea    (%rax,%rax,1),%rcx
    6bca:	48 39 f1             	cmp    %rsi,%rcx
    6bcd:	48 0f 47 f1          	cmova  %rcx,%rsi
    6bd1:	48 83 fe 05          	cmp    $0x5,%rsi
    6bd5:	41 be 04 00 00 00    	mov    $0x4,%r14d
    6bdb:	4c 0f 43 f6          	cmovae %rsi,%r14
    6bdf:	48 b9 c1 81 03 07 0e 	movabs $0x381c0e070381c1,%rcx
    6be6:	1c 38 00 
    6be9:	31 f6                	xor    %esi,%esi
    6beb:	49 39 ce             	cmp    %rcx,%r14
    6bee:	40 0f 92 c6          	setb   %sil
    6bf2:	49 69 d6 48 02 00 00 	imul   $0x248,%r14,%rdx
    6bf9:	48 c1 e6 03          	shl    $0x3,%rsi
    6bfd:	48 85 c0             	test   %rax,%rax
    6c00:	74 20                	je     6c22 <_ZN5alloc7raw_vec19RawVec$LT$T$C$A$GT$7reserve21do_reserve_and_handle17h1ff048a962a85ec3E+0x72>
    6c02:	48 8b 4b 08          	mov    0x8(%rbx),%rcx
    6c06:	48 69 c0 48 02 00 00 	imul   $0x248,%rax,%rax
    6c0d:	48 89 4c 24 08       	mov    %rcx,0x8(%rsp)
    6c12:	48 c7 44 24 10 08 00 	movq   $0x8,0x10(%rsp)
    6c19:	00 00 
    6c1b:	48 89 44 24 18       	mov    %rax,0x18(%rsp)
    6c20:	eb 09                	jmp    6c2b <_ZN5alloc7raw_vec19RawVec$LT$T$C$A$GT$7reserve21do_reserve_and_handle17h1ff048a962a85ec3E+0x7b>
    6c22:	48 c7 44 24 10 00 00 	movq   $0x0,0x10(%rsp)
    6c29:	00 00 
    6c2b:	48 8d 7c 24 20       	lea    0x20(%rsp),%rdi
    6c30:	48 8d 4c 24 08       	lea    0x8(%rsp),%rcx
    6c35:	e8 66 60 00 00       	call   cca0 <_ZN5alloc7raw_vec11finish_grow17h300fc1829b456a6bE>
    6c3a:	48 83 7c 24 20 00    	cmpq   $0x0,0x20(%rsp)
    6c40:	48 8b 7c 24 28       	mov    0x28(%rsp),%rdi
    6c45:	74 17                	je     6c5e <_ZN5alloc7raw_vec19RawVec$LT$T$C$A$GT$7reserve21do_reserve_and_handle17h1ff048a962a85ec3E+0xae>
    6c47:	48 b8 01 00 00 00 00 	movabs $0x8000000000000001,%rax
    6c4e:	00 00 80 
    6c51:	48 39 c7             	cmp    %rax,%rdi
    6c54:	75 17                	jne    6c6d <_ZN5alloc7raw_vec19RawVec$LT$T$C$A$GT$7reserve21do_reserve_and_handle17h1ff048a962a85ec3E+0xbd>
    6c56:	48 83 c4 38          	add    $0x38,%rsp
    6c5a:	5b                   	pop    %rbx
    6c5b:	41 5e                	pop    %r14
    6c5d:	c3                   	ret
    6c5e:	48 89 7b 08          	mov    %rdi,0x8(%rbx)
    6c62:	4c 89 33             	mov    %r14,(%rbx)
    6c65:	48 83 c4 38          	add    $0x38,%rsp
    6c69:	5b                   	pop    %rbx
    6c6a:	41 5e                	pop    %r14
    6c6c:	c3                   	ret
    6c6d:	48 85 ff             	test   %rdi,%rdi
    6c70:	75 06                	jne    6c78 <_ZN5alloc7raw_vec19RawVec$LT$T$C$A$GT$7reserve21do_reserve_and_handle17h1ff048a962a85ec3E+0xc8>
    6c72:	ff 15 f0 01 05 00    	call   *0x501f0(%rip)        # 56e68 <_GLOBAL_OFFSET_TABLE_+0x4d8>
    6c78:	48 8b 74 24 30       	mov    0x30(%rsp),%rsi
    6c7d:	ff 15 85 02 05 00    	call   *0x50285(%rip)        # 56f08 <_GLOBAL_OFFSET_TABLE_+0x578>
    6c83:	66 2e 0f 1f 84 00 00 	cs nopw 0x0(%rax,%rax,1)
    6c8a:	00 00 00 
    6c8d:	0f 1f 00             	nopl   (%rax)

0000000000006c90 <_ZN5alloc7raw_vec19RawVec$LT$T$C$A$GT$7reserve21do_reserve_and_handle17h46956677531e6d5bE>:
    6c90:	41 56                	push   %r14
    6c92:	53                   	push   %rbx
    6c93:	48 83 ec 38          	sub    $0x38,%rsp
    6c97:	48 01 d6             	add    %rdx,%rsi
    6c9a:	0f 82 9a 00 00 00    	jb     6d3a <_ZN5alloc7raw_vec19RawVec$LT$T$C$A$GT$7reserve21do_reserve_and_handle17h46956677531e6d5bE+0xaa>
    6ca0:	48 89 fb             	mov    %rdi,%rbx
    6ca3:	48 8b 07             	mov    (%rdi),%rax
    6ca6:	48 8d 0c 00          	lea    (%rax,%rax,1),%rcx
    6caa:	48 39 f1             	cmp    %rsi,%rcx
    6cad:	48 0f 47 f1          	cmova  %rcx,%rsi
    6cb1:	48 83 fe 09          	cmp    $0x9,%rsi
    6cb5:	41 be 08 00 00 00    	mov    $0x8,%r14d
    6cbb:	4c 0f 43 f6          	cmovae %rsi,%r14
    6cbf:	4c 89 f6             	mov    %r14,%rsi
    6cc2:	48 f7 d6             	not    %rsi
    6cc5:	48 c1 ee 3f          	shr    $0x3f,%rsi
    6cc9:	48 85 c0             	test   %rax,%rax
    6ccc:	74 19                	je     6ce7 <_ZN5alloc7raw_vec19RawVec$LT$T$C$A$GT$7reserve21do_reserve_and_handle17h46956677531e6d5bE+0x57>
    6cce:	48 8b 4b 08          	mov    0x8(%rbx),%rcx
    6cd2:	48 89 4c 24 08       	mov    %rcx,0x8(%rsp)
    6cd7:	48 c7 44 24 10 01 00 	movq   $0x1,0x10(%rsp)
    6cde:	00 00 
    6ce0:	48 89 44 24 18       	mov    %rax,0x18(%rsp)
    6ce5:	eb 09                	jmp    6cf0 <_ZN5alloc7raw_vec19RawVec$LT$T$C$A$GT$7reserve21do_reserve_and_handle17h46956677531e6d5bE+0x60>
    6ce7:	48 c7 44 24 10 00 00 	movq   $0x0,0x10(%rsp)
    6cee:	00 00 
    6cf0:	48 8d 7c 24 20       	lea    0x20(%rsp),%rdi
    6cf5:	48 8d 4c 24 08       	lea    0x8(%rsp),%rcx
    6cfa:	4c 89 f2             	mov    %r14,%rdx
    6cfd:	e8 9e 5f 00 00       	call   cca0 <_ZN5alloc7raw_vec11finish_grow17h300fc1829b456a6bE>
    6d02:	48 83 7c 24 20 00    	cmpq   $0x0,0x20(%rsp)
    6d08:	48 8b 7c 24 28       	mov    0x28(%rsp),%rdi
    6d0d:	74 17                	je     6d26 <_ZN5alloc7raw_vec19RawVec$LT$T$C$A$GT$7reserve21do_reserve_and_handle17h46956677531e6d5bE+0x96>
    6d0f:	48 b8 01 00 00 00 00 	movabs $0x8000000000000001,%rax
    6d16:	00 00 80 
    6d19:	48 39 c7             	cmp    %rax,%rdi
    6d1c:	75 17                	jne    6d35 <_ZN5alloc7raw_vec19RawVec$LT$T$C$A$GT$7reserve21do_reserve_and_handle17h46956677531e6d5bE+0xa5>
    6d1e:	48 83 c4 38          	add    $0x38,%rsp
    6d22:	5b                   	pop    %rbx
    6d23:	41 5e                	pop    %r14
    6d25:	c3                   	ret
    6d26:	48 89 7b 08          	mov    %rdi,0x8(%rbx)
    6d2a:	4c 89 33             	mov    %r14,(%rbx)
    6d2d:	48 83 c4 38          	add    $0x38,%rsp
    6d31:	5b                   	pop    %rbx
    6d32:	41 5e                	pop    %r14
    6d34:	c3                   	ret
    6d35:	48 85 ff             	test   %rdi,%rdi
    6d38:	75 06                	jne    6d40 <_ZN5alloc7raw_vec19RawVec$LT$T$C$A$GT$7reserve21do_reserve_and_handle17h46956677531e6d5bE+0xb0>
    6d3a:	ff 15 28 01 05 00    	call   *0x50128(%rip)        # 56e68 <_GLOBAL_OFFSET_TABLE_+0x4d8>
    6d40:	48 8b 74 24 30       	mov    0x30(%rsp),%rsi
    6d45:	ff 15 bd 01 05 00    	call   *0x501bd(%rip)        # 56f08 <_GLOBAL_OFFSET_TABLE_+0x578>
    6d4b:	0f 1f 44 00 00       	nopl   0x0(%rax,%rax,1)

0000000000006d50 <_ZN3std6thread8ThreadId3new9exhausted17h11ae9dda67c36ed9E>:
    6d50:	48 83 ec 38          	sub    $0x38,%rsp
    6d54:	48 8d 05 05 dd 04 00 	lea    0x4dd05(%rip),%rax        # 54a60 <__do_global_dtors_aux_fini_array_entry+0x718>
    6d5b:	48 89 44 24 08       	mov    %rax,0x8(%rsp)
    6d60:	48 c7 44 24 10 01 00 	movq   $0x1,0x10(%rsp)
    6d67:	00 00 
    6d69:	48 8d 05 98 0c 04 00 	lea    0x40c98(%rip),%rax        # 47a08 <_fini+0x2514>
    6d70:	48 89 44 24 18       	mov    %rax,0x18(%rsp)
    6d75:	0f 57 c0             	xorps  %xmm0,%xmm0
    6d78:	0f 11 44 24 20       	movups %xmm0,0x20(%rsp)
    6d7d:	48 8d 35 ec dc 04 00 	lea    0x4dcec(%rip),%rsi        # 54a70 <__do_global_dtors_aux_fini_array_entry+0x728>
    6d84:	48 8d 7c 24 08       	lea    0x8(%rsp),%rdi
    6d89:	ff 15 61 fc 04 00    	call   *0x4fc61(%rip)        # 569f0 <_GLOBAL_OFFSET_TABLE_+0x60>
    6d8f:	90                   	nop

0000000000006d90 <_ZN3std2io8buffered9bufwriter18BufWriter$LT$W$GT$14write_all_cold17h3e19e6e865ec8996E>:
    6d90:	41 57                	push   %r15
    6d92:	41 56                	push   %r14
    6d94:	41 54                	push   %r12
    6d96:	53                   	push   %rbx
    6d97:	50                   	push   %rax
    6d98:	49 89 d6             	mov    %rdx,%r14
    6d9b:	49 89 f7             	mov    %rsi,%r15
    6d9e:	48 89 fb             	mov    %rdi,%rbx
    6da1:	48 8b 07             	mov    (%rdi),%rax
    6da4:	48 89 c1             	mov    %rax,%rcx
    6da7:	48 2b 4f 10          	sub    0x10(%rdi),%rcx
    6dab:	48 39 d1             	cmp    %rdx,%rcx
    6dae:	73 10                	jae    6dc0 <_ZN3std2io8buffered9bufwriter18BufWriter$LT$W$GT$14write_all_cold17h3e19e6e865ec8996E+0x30>
    6db0:	48 89 df             	mov    %rbx,%rdi
    6db3:	e8 c8 90 01 00       	call   1fe80 <_ZN3std2io8buffered9bufwriter18BufWriter$LT$W$GT$9flush_buf17h9711718d2ff07647E>
    6db8:	48 85 c0             	test   %rax,%rax
    6dbb:	75 3e                	jne    6dfb <_ZN3std2io8buffered9bufwriter18BufWriter$LT$W$GT$14write_all_cold17h3e19e6e865ec8996E+0x6b>
    6dbd:	48 8b 03             	mov    (%rbx),%rax
    6dc0:	4c 39 f0             	cmp    %r14,%rax
    6dc3:	76 22                	jbe    6de7 <_ZN3std2io8buffered9bufwriter18BufWriter$LT$W$GT$14write_all_cold17h3e19e6e865ec8996E+0x57>
    6dc5:	4c 8b 63 10          	mov    0x10(%rbx),%r12
    6dc9:	48 8b 7b 08          	mov    0x8(%rbx),%rdi
    6dcd:	4c 01 e7             	add    %r12,%rdi
    6dd0:	4c 89 fe             	mov    %r15,%rsi
    6dd3:	4c 89 f2             	mov    %r14,%rdx
    6dd6:	ff 15 24 ff 04 00    	call   *0x4ff24(%rip)        # 56d00 <memcpy@GLIBC_2.14>
    6ddc:	4d 01 f4             	add    %r14,%r12
    6ddf:	4c 89 63 10          	mov    %r12,0x10(%rbx)
    6de3:	31 c0                	xor    %eax,%eax
    6de5:	eb 14                	jmp    6dfb <_ZN3std2io8buffered9bufwriter18BufWriter$LT$W$GT$14write_all_cold17h3e19e6e865ec8996E+0x6b>
    6de7:	c6 43 18 01          	movb   $0x1,0x18(%rbx)
    6deb:	4c 89 fe             	mov    %r15,%rsi
    6dee:	4c 89 f2             	mov    %r14,%rdx
    6df1:	ff 15 21 ff 04 00    	call   *0x4ff21(%rip)        # 56d18 <_GLOBAL_OFFSET_TABLE_+0x388>
    6df7:	c6 43 18 00          	movb   $0x0,0x18(%rbx)
    6dfb:	48 83 c4 08          	add    $0x8,%rsp
    6dff:	5b                   	pop    %rbx
    6e00:	41 5c                	pop    %r12
    6e02:	41 5e                	pop    %r14
    6e04:	41 5f                	pop    %r15
    6e06:	c3                   	ret
    6e07:	66 0f 1f 84 00 00 00 	nopw   0x0(%rax,%rax,1)
    6e0e:	00 00 

0000000000006e10 <_ZN3std7process5abort17h9edc0342cf7e9f7dE>:
    6e10:	50                   	push   %rax
    6e11:	ff 15 a9 ff 04 00    	call   *0x4ffa9(%rip)        # 56dc0 <_GLOBAL_OFFSET_TABLE_+0x430>
    6e17:	66 0f 1f 84 00 00 00 	nopw   0x0(%rax,%rax,1)
    6e1e:	00 00 

0000000000006e20 <_ZN3std4sync9once_lock17OnceLock$LT$T$GT$10initialize17h46a98800858dbaf6E>:
    6e20:	8b 05 82 02 05 00    	mov    0x50282(%rip),%eax        # 570a8 <_ZN3std2io5stdio6STDOUT17h4756a446a752c3adE+0x38>
    6e26:	83 f8 04             	cmp    $0x4,%eax
    6e29:	75 01                	jne    6e2c <_ZN3std4sync9once_lock17OnceLock$LT$T$GT$10initialize17h46a98800858dbaf6E+0xc>
    6e2b:	c3                   	ret
    6e2c:	48 83 ec 28          	sub    $0x28,%rsp
    6e30:	48 89 7c 24 10       	mov    %rdi,0x10(%rsp)
    6e35:	48 8d 05 34 02 05 00 	lea    0x50234(%rip),%rax        # 57070 <_ZN3std2io5stdio6STDOUT17h4756a446a752c3adE>
    6e3c:	48 89 44 24 18       	mov    %rax,0x18(%rsp)
    6e41:	48 8d 44 24 07       	lea    0x7(%rsp),%rax
    6e46:	48 89 44 24 20       	mov    %rax,0x20(%rsp)
    6e4b:	48 8d 44 24 10       	lea    0x10(%rsp),%rax
    6e50:	48 89 44 24 08       	mov    %rax,0x8(%rsp)
    6e55:	48 8d 7c 24 08       	lea    0x8(%rsp),%rdi
    6e5a:	e8 b1 06 00 00       	call   7510 <_ZN3std10sys_common4once5futex4Once4call17h2ef97a70fe108dbfE>
    6e5f:	48 83 c4 28          	add    $0x28,%rsp
    6e63:	c3                   	ret
    6e64:	66 2e 0f 1f 84 00 00 	cs nopw 0x0(%rax,%rax,1)
    6e6b:	00 00 00 
    6e6e:	66 90                	xchg   %ax,%ax

0000000000006e70 <_ZN3std4sync9once_lock17OnceLock$LT$T$GT$10initialize17hc145463dcfdef02bE>:
    6e70:	8b 05 32 02 05 00    	mov    0x50232(%rip),%eax        # 570a8 <_ZN3std2io5stdio6STDOUT17h4756a446a752c3adE+0x38>
    6e76:	83 f8 04             	cmp    $0x4,%eax
    6e79:	75 01                	jne    6e7c <_ZN3std4sync9once_lock17OnceLock$LT$T$GT$10initialize17hc145463dcfdef02bE+0xc>
    6e7b:	c3                   	ret
    6e7c:	48 83 ec 28          	sub    $0x28,%rsp
    6e80:	48 8d 05 e9 01 05 00 	lea    0x501e9(%rip),%rax        # 57070 <_ZN3std2io5stdio6STDOUT17h4756a446a752c3adE>
    6e87:	48 89 44 24 18       	mov    %rax,0x18(%rsp)
    6e8c:	48 8d 44 24 0f       	lea    0xf(%rsp),%rax
    6e91:	48 89 44 24 20       	mov    %rax,0x20(%rsp)
    6e96:	48 8d 44 24 18       	lea    0x18(%rsp),%rax
    6e9b:	48 89 44 24 10       	mov    %rax,0x10(%rsp)
    6ea0:	48 8d 7c 24 10       	lea    0x10(%rsp),%rdi
    6ea5:	e8 06 0d 00 00       	call   7bb0 <_ZN3std10sys_common4once5futex4Once4call17hf3533de8b7e8f70bE>
    6eaa:	48 83 c4 28          	add    $0x28,%rsp
    6eae:	c3                   	ret
    6eaf:	90                   	nop

0000000000006eb0 <_ZN3std3sys3pal6common14small_c_string24run_with_cstr_allocating17hb5d0961811e27147E>:
    6eb0:	41 57                	push   %r15
    6eb2:	41 56                	push   %r14
    6eb4:	53                   	push   %rbx
    6eb5:	48 81 ec d0 00 00 00 	sub    $0xd0,%rsp
    6ebc:	49 89 ff             	mov    %rdi,%r15
    6ebf:	48 89 e7             	mov    %rsp,%rdi
    6ec2:	ff 15 90 fc 04 00    	call   *0x4fc90(%rip)        # 56b58 <_GLOBAL_OFFSET_TABLE_+0x1c8>
    6ec8:	48 8b 34 24          	mov    (%rsp),%rsi
    6ecc:	48 b8 00 00 00 00 00 	movabs $0x8000000000000000,%rax
    6ed3:	00 00 80 
    6ed6:	48 39 c6             	cmp    %rax,%rsi
    6ed9:	0f 85 9e 00 00 00    	jne    6f7d <_ZN3std3sys3pal6common14small_c_string24run_with_cstr_allocating17hb5d0961811e27147E+0xcd>
    6edf:	48 8b 5c 24 08       	mov    0x8(%rsp),%rbx
    6ee4:	4c 8b 74 24 10       	mov    0x10(%rsp),%r14
    6ee9:	48 8d 7c 24 20       	lea    0x20(%rsp),%rdi
    6eee:	be 9c ff ff ff       	mov    $0xffffff9c,%esi
    6ef3:	48 89 da             	mov    %rbx,%rdx
    6ef6:	31 c9                	xor    %ecx,%ecx
    6ef8:	e8 33 fd 01 00       	call   26c30 <_ZN3std3sys3pal4unix2fs9try_statx17h291f742765736b8dE>
    6efd:	83 7c 24 20 03       	cmpl   $0x3,0x20(%rsp)
    6f02:	0f 85 98 00 00 00    	jne    6fa0 <_ZN3std3sys3pal6common14small_c_string24run_with_cstr_allocating17hb5d0961811e27147E+0xf0>
    6f08:	0f 57 c0             	xorps  %xmm0,%xmm0
    6f0b:	0f 29 84 24 a0 00 00 	movaps %xmm0,0xa0(%rsp)
    6f12:	00 
    6f13:	0f 29 84 24 90 00 00 	movaps %xmm0,0x90(%rsp)
    6f1a:	00 
    6f1b:	0f 29 84 24 80 00 00 	movaps %xmm0,0x80(%rsp)
    6f22:	00 
    6f23:	0f 29 44 24 70       	movaps %xmm0,0x70(%rsp)
    6f28:	0f 29 44 24 60       	movaps %xmm0,0x60(%rsp)
    6f2d:	0f 29 44 24 50       	movaps %xmm0,0x50(%rsp)
    6f32:	0f 29 44 24 40       	movaps %xmm0,0x40(%rsp)
    6f37:	0f 29 44 24 30       	movaps %xmm0,0x30(%rsp)
    6f3c:	0f 29 44 24 20       	movaps %xmm0,0x20(%rsp)
    6f41:	48 8d 74 24 20       	lea    0x20(%rsp),%rsi
    6f46:	48 89 df             	mov    %rbx,%rdi
    6f49:	ff 15 59 fc 04 00    	call   *0x4fc59(%rip)        # 56ba8 <stat64@GLIBC_2.33>
    6f4f:	83 f8 ff             	cmp    $0xffffffff,%eax
    6f52:	0f 84 80 00 00 00    	je     6fd8 <_ZN3std3sys3pal6common14small_c_string24run_with_cstr_allocating17hb5d0961811e27147E+0x128>
    6f58:	49 8d 7f 20          	lea    0x20(%r15),%rdi
    6f5c:	48 8d 74 24 20       	lea    0x20(%rsp),%rsi
    6f61:	ba 90 00 00 00       	mov    $0x90,%edx
    6f66:	ff 15 94 fd 04 00    	call   *0x4fd94(%rip)        # 56d00 <memcpy@GLIBC_2.14>
    6f6c:	49 c7 07 00 00 00 00 	movq   $0x0,(%r15)
    6f73:	c6 03 00             	movb   $0x0,(%rbx)
    6f76:	4d 85 f6             	test   %r14,%r14
    6f79:	75 40                	jne    6fbb <_ZN3std3sys3pal6common14small_c_string24run_with_cstr_allocating17hb5d0961811e27147E+0x10b>
    6f7b:	eb 7e                	jmp    6ffb <_ZN3std3sys3pal6common14small_c_string24run_with_cstr_allocating17hb5d0961811e27147E+0x14b>
    6f7d:	48 8d 05 8c de 04 00 	lea    0x4de8c(%rip),%rax        # 54e10 <__do_global_dtors_aux_fini_array_entry+0xac8>
    6f84:	49 89 47 08          	mov    %rax,0x8(%r15)
    6f88:	49 c7 07 02 00 00 00 	movq   $0x2,(%r15)
    6f8f:	48 85 f6             	test   %rsi,%rsi
    6f92:	74 67                	je     6ffb <_ZN3std3sys3pal6common14small_c_string24run_with_cstr_allocating17hb5d0961811e27147E+0x14b>
    6f94:	48 8b 7c 24 08       	mov    0x8(%rsp),%rdi
    6f99:	ba 01 00 00 00       	mov    $0x1,%edx
    6f9e:	eb 26                	jmp    6fc6 <_ZN3std3sys3pal6common14small_c_string24run_with_cstr_allocating17hb5d0961811e27147E+0x116>
    6fa0:	48 8d 74 24 20       	lea    0x20(%rsp),%rsi
    6fa5:	ba b0 00 00 00       	mov    $0xb0,%edx
    6faa:	4c 89 ff             	mov    %r15,%rdi
    6fad:	ff 15 4d fd 04 00    	call   *0x4fd4d(%rip)        # 56d00 <memcpy@GLIBC_2.14>
    6fb3:	c6 03 00             	movb   $0x0,(%rbx)
    6fb6:	4d 85 f6             	test   %r14,%r14
    6fb9:	74 40                	je     6ffb <_ZN3std3sys3pal6common14small_c_string24run_with_cstr_allocating17hb5d0961811e27147E+0x14b>
    6fbb:	ba 01 00 00 00       	mov    $0x1,%edx
    6fc0:	48 89 df             	mov    %rbx,%rdi
    6fc3:	4c 89 f6             	mov    %r14,%rsi
    6fc6:	48 81 c4 d0 00 00 00 	add    $0xd0,%rsp
    6fcd:	5b                   	pop    %rbx
    6fce:	41 5e                	pop    %r14
    6fd0:	41 5f                	pop    %r15
    6fd2:	ff 25 08 fc 04 00    	jmp    *0x4fc08(%rip)        # 56be0 <_GLOBAL_OFFSET_TABLE_+0x250>
    6fd8:	ff 15 52 fa 04 00    	call   *0x4fa52(%rip)        # 56a30 <__errno_location@GLIBC_2.2.5>
    6fde:	8b 00                	mov    (%rax),%eax
    6fe0:	48 c1 e0 20          	shl    $0x20,%rax
    6fe4:	48 83 c8 02          	or     $0x2,%rax
    6fe8:	49 89 47 08          	mov    %rax,0x8(%r15)
    6fec:	49 c7 07 02 00 00 00 	movq   $0x2,(%r15)
    6ff3:	c6 03 00             	movb   $0x0,(%rbx)
    6ff6:	4d 85 f6             	test   %r14,%r14
    6ff9:	75 c0                	jne    6fbb <_ZN3std3sys3pal6common14small_c_string24run_with_cstr_allocating17hb5d0961811e27147E+0x10b>
    6ffb:	48 81 c4 d0 00 00 00 	add    $0xd0,%rsp
    7002:	5b                   	pop    %rbx
    7003:	41 5e                	pop    %r14
    7005:	41 5f                	pop    %r15
    7007:	c3                   	ret
    7008:	49 89 c7             	mov    %rax,%r15
    700b:	c6 03 00             	movb   $0x0,(%rbx)
    700e:	4d 85 f6             	test   %r14,%r14
    7011:	74 11                	je     7024 <_ZN3std3sys3pal6common14small_c_string24run_with_cstr_allocating17hb5d0961811e27147E+0x174>
    7013:	ba 01 00 00 00       	mov    $0x1,%edx
    7018:	48 89 df             	mov    %rbx,%rdi
    701b:	4c 89 f6             	mov    %r14,%rsi
    701e:	ff 15 bc fb 04 00    	call   *0x4fbbc(%rip)        # 56be0 <_GLOBAL_OFFSET_TABLE_+0x250>
    7024:	4c 89 ff             	mov    %r15,%rdi
    7027:	e8 14 f0 ff ff       	call   6040 <_Unwind_Resume@plt>
    702c:	0f 1f 40 00          	nopl   0x0(%rax)

0000000000007030 <_ZN3std3sys3pal6common14small_c_string24run_with_cstr_allocating17hedf21b7bbd45136aE>:
    7030:	41 57                	push   %r15
    7032:	41 56                	push   %r14
    7034:	41 54                	push   %r12
    7036:	53                   	push   %rbx
    7037:	48 83 ec 28          	sub    $0x28,%rsp
    703b:	49 89 cf             	mov    %rcx,%r15
    703e:	49 89 fc             	mov    %rdi,%r12
    7041:	48 8d 7c 24 08       	lea    0x8(%rsp),%rdi
    7046:	ff 15 0c fb 04 00    	call   *0x4fb0c(%rip)        # 56b58 <_GLOBAL_OFFSET_TABLE_+0x1c8>
    704c:	48 8b 74 24 08       	mov    0x8(%rsp),%rsi
    7051:	48 b8 00 00 00 00 00 	movabs $0x8000000000000000,%rax
    7058:	00 00 80 
    705b:	48 39 c6             	cmp    %rax,%rsi
    705e:	75 2d                	jne    708d <_ZN3std3sys3pal6common14small_c_string24run_with_cstr_allocating17hedf21b7bbd45136aE+0x5d>
    7060:	48 8b 5c 24 10       	mov    0x10(%rsp),%rbx
    7065:	4c 8b 74 24 18       	mov    0x18(%rsp),%r14
    706a:	4c 89 e7             	mov    %r12,%rdi
    706d:	48 89 de             	mov    %rbx,%rsi
    7070:	4c 89 fa             	mov    %r15,%rdx
    7073:	e8 08 ed 01 00       	call   25d80 <_ZN3std3sys3pal4unix2fs4File6open_c17head047b9b49862e8E>
    7078:	c6 03 00             	movb   $0x0,(%rbx)
    707b:	4d 85 f6             	test   %r14,%r14
    707e:	74 41                	je     70c1 <_ZN3std3sys3pal6common14small_c_string24run_with_cstr_allocating17hedf21b7bbd45136aE+0x91>
    7080:	ba 01 00 00 00       	mov    $0x1,%edx
    7085:	48 89 df             	mov    %rbx,%rdi
    7088:	4c 89 f6             	mov    %r14,%rsi
    708b:	eb 23                	jmp    70b0 <_ZN3std3sys3pal6common14small_c_string24run_with_cstr_allocating17hedf21b7bbd45136aE+0x80>
    708d:	48 8d 05 7c dd 04 00 	lea    0x4dd7c(%rip),%rax        # 54e10 <__do_global_dtors_aux_fini_array_entry+0xac8>
    7094:	49 89 44 24 08       	mov    %rax,0x8(%r12)
    7099:	41 c7 04 24 01 00 00 	movl   $0x1,(%r12)
    70a0:	00 
    70a1:	48 85 f6             	test   %rsi,%rsi
    70a4:	74 1b                	je     70c1 <_ZN3std3sys3pal6common14small_c_string24run_with_cstr_allocating17hedf21b7bbd45136aE+0x91>
    70a6:	48 8b 7c 24 10       	mov    0x10(%rsp),%rdi
    70ab:	ba 01 00 00 00       	mov    $0x1,%edx
    70b0:	48 83 c4 28          	add    $0x28,%rsp
    70b4:	5b                   	pop    %rbx
    70b5:	41 5c                	pop    %r12
    70b7:	41 5e                	pop    %r14
    70b9:	41 5f                	pop    %r15
    70bb:	ff 25 1f fb 04 00    	jmp    *0x4fb1f(%rip)        # 56be0 <_GLOBAL_OFFSET_TABLE_+0x250>
    70c1:	48 83 c4 28          	add    $0x28,%rsp
    70c5:	5b                   	pop    %rbx
    70c6:	41 5c                	pop    %r12
    70c8:	41 5e                	pop    %r14
    70ca:	41 5f                	pop    %r15
    70cc:	c3                   	ret
    70cd:	49 89 c7             	mov    %rax,%r15
    70d0:	c6 03 00             	movb   $0x0,(%rbx)
    70d3:	4d 85 f6             	test   %r14,%r14
    70d6:	74 11                	je     70e9 <_ZN3std3sys3pal6common14small_c_string24run_with_cstr_allocating17hedf21b7bbd45136aE+0xb9>
    70d8:	ba 01 00 00 00       	mov    $0x1,%edx
    70dd:	48 89 df             	mov    %rbx,%rdi
    70e0:	4c 89 f6             	mov    %r14,%rsi
    70e3:	ff 15 f7 fa 04 00    	call   *0x4faf7(%rip)        # 56be0 <_GLOBAL_OFFSET_TABLE_+0x250>
    70e9:	4c 89 ff             	mov    %r15,%rdi
    70ec:	e8 4f ef ff ff       	call   6040 <_Unwind_Resume@plt>
    70f1:	66 2e 0f 1f 84 00 00 	cs nopw 0x0(%rax,%rax,1)
    70f8:	00 00 00 
    70fb:	0f 1f 44 00 00       	nopl   0x0(%rax,%rax,1)

0000000000007100 <_ZN3std3sys3pal6common14small_c_string24run_with_cstr_allocating17hf828ee6ca8a24f3aE>:
    7100:	41 57                	push   %r15
    7102:	41 56                	push   %r14
    7104:	41 54                	push   %r12
    7106:	53                   	push   %rbx
    7107:	48 83 ec 28          	sub    $0x28,%rsp
    710b:	48 89 f2             	mov    %rsi,%rdx
    710e:	48 89 fe             	mov    %rdi,%rsi
    7111:	48 8d 7c 24 08       	lea    0x8(%rsp),%rdi
    7116:	ff 15 3c fa 04 00    	call   *0x4fa3c(%rip)        # 56b58 <_GLOBAL_OFFSET_TABLE_+0x1c8>
    711c:	48 8b 74 24 08       	mov    0x8(%rsp),%rsi
    7121:	48 b8 00 00 00 00 00 	movabs $0x8000000000000000,%rax
    7128:	00 00 80 
    712b:	48 39 c6             	cmp    %rax,%rsi
    712e:	75 3a                	jne    716a <_ZN3std3sys3pal6common14small_c_string24run_with_cstr_allocating17hf828ee6ca8a24f3aE+0x6a>
    7130:	4c 8b 7c 24 10       	mov    0x10(%rsp),%r15
    7135:	4c 8b 64 24 18       	mov    0x18(%rsp),%r12
    713a:	45 31 f6             	xor    %r14d,%r14d
    713d:	4c 89 ff             	mov    %r15,%rdi
    7140:	31 f6                	xor    %esi,%esi
    7142:	ff 15 b0 fb 04 00    	call   *0x4fbb0(%rip)        # 56cf8 <realpath@GLIBC_2.3>
    7148:	48 89 c3             	mov    %rax,%rbx
    714b:	41 c6 07 00          	movb   $0x0,(%r15)
    714f:	4d 85 e4             	test   %r12,%r12
    7152:	74 40                	je     7194 <_ZN3std3sys3pal6common14small_c_string24run_with_cstr_allocating17hf828ee6ca8a24f3aE+0x94>
    7154:	ba 01 00 00 00       	mov    $0x1,%edx
    7159:	4c 89 ff             	mov    %r15,%rdi
    715c:	4c 89 e6             	mov    %r12,%rsi
    715f:	ff 15 7b fa 04 00    	call   *0x4fa7b(%rip)        # 56be0 <_GLOBAL_OFFSET_TABLE_+0x250>
    7165:	45 31 f6             	xor    %r14d,%r14d
    7168:	eb 2a                	jmp    7194 <_ZN3std3sys3pal6common14small_c_string24run_with_cstr_allocating17hf828ee6ca8a24f3aE+0x94>
    716a:	48 8d 1d 9f dc 04 00 	lea    0x4dc9f(%rip),%rbx        # 54e10 <__do_global_dtors_aux_fini_array_entry+0xac8>
    7171:	48 85 f6             	test   %rsi,%rsi
    7174:	74 18                	je     718e <_ZN3std3sys3pal6common14small_c_string24run_with_cstr_allocating17hf828ee6ca8a24f3aE+0x8e>
    7176:	48 8b 7c 24 10       	mov    0x10(%rsp),%rdi
    717b:	41 be 01 00 00 00    	mov    $0x1,%r14d
    7181:	ba 01 00 00 00       	mov    $0x1,%edx
    7186:	ff 15 54 fa 04 00    	call   *0x4fa54(%rip)        # 56be0 <_GLOBAL_OFFSET_TABLE_+0x250>
    718c:	eb 06                	jmp    7194 <_ZN3std3sys3pal6common14small_c_string24run_with_cstr_allocating17hf828ee6ca8a24f3aE+0x94>
    718e:	41 be 01 00 00 00    	mov    $0x1,%r14d
    7194:	4c 89 f0             	mov    %r14,%rax
    7197:	48 89 da             	mov    %rbx,%rdx
    719a:	48 83 c4 28          	add    $0x28,%rsp
    719e:	5b                   	pop    %rbx
    719f:	41 5c                	pop    %r12
    71a1:	41 5e                	pop    %r14
    71a3:	41 5f                	pop    %r15
    71a5:	c3                   	ret
    71a6:	66 2e 0f 1f 84 00 00 	cs nopw 0x0(%rax,%rax,1)
    71ad:	00 00 00 

00000000000071b0 <_ZN3std9panicking11panic_count17is_zero_slow_path17he380bf84e7b6ca19E>:
    71b0:	50                   	push   %rax
    71b1:	66 66 66 64 48 8b 04 	data16 data16 data16 mov %fs:0x0,%rax
    71b8:	25 00 00 00 00 
    71bd:	48 83 b8 b0 ff ff ff 	cmpq   $0x0,-0x50(%rax)
    71c4:	00 
    71c5:	0f 94 c0             	sete   %al
    71c8:	59                   	pop    %rcx
    71c9:	c3                   	ret
    71ca:	66 0f 1f 44 00 00    	nopw   0x0(%rax,%rax,1)

00000000000071d0 <_ZN3std3sys3pal4unix5locks11futex_mutex5Mutex14lock_contended17h638bdf2426d4d53cE>:
    71d0:	41 57                	push   %r15
    71d2:	41 56                	push   %r14
    71d4:	41 54                	push   %r12
    71d6:	53                   	push   %rbx
    71d7:	48 83 ec 28          	sub    $0x28,%rsp
    71db:	48 89 fb             	mov    %rdi,%rbx
    71de:	8b 07                	mov    (%rdi),%eax
    71e0:	83 f8 01             	cmp    $0x1,%eax
    71e3:	75 1d                	jne    7202 <_ZN3std3sys3pal4unix5locks11futex_mutex5Mutex14lock_contended17h638bdf2426d4d53cE+0x32>
    71e5:	b9 9d ff ff ff       	mov    $0xffffff9d,%ecx
    71ea:	66 0f 1f 44 00 00    	nopw   0x0(%rax,%rax,1)
    71f0:	f3 90                	pause
    71f2:	8b 03                	mov    (%rbx),%eax
    71f4:	83 f8 01             	cmp    $0x1,%eax
    71f7:	75 09                	jne    7202 <_ZN3std3sys3pal4unix5locks11futex_mutex5Mutex14lock_contended17h638bdf2426d4d53cE+0x32>
    71f9:	8d 51 01             	lea    0x1(%rcx),%edx
    71fc:	85 c9                	test   %ecx,%ecx
    71fe:	89 d1                	mov    %edx,%ecx
    7200:	75 ee                	jne    71f0 <_ZN3std3sys3pal4unix5locks11futex_mutex5Mutex14lock_contended17h638bdf2426d4d53cE+0x20>
    7202:	85 c0                	test   %eax,%eax
    7204:	75 19                	jne    721f <_ZN3std3sys3pal4unix5locks11futex_mutex5Mutex14lock_contended17h638bdf2426d4d53cE+0x4f>
    7206:	b9 01 00 00 00       	mov    $0x1,%ecx
    720b:	31 c0                	xor    %eax,%eax
    720d:	f0 0f b1 0b          	lock cmpxchg %ecx,(%rbx)
    7211:	75 0c                	jne    721f <_ZN3std3sys3pal4unix5locks11futex_mutex5Mutex14lock_contended17h638bdf2426d4d53cE+0x4f>
    7213:	48 83 c4 28          	add    $0x28,%rsp
    7217:	5b                   	pop    %rbx
    7218:	41 5c                	pop    %r12
    721a:	41 5e                	pop    %r14
    721c:	41 5f                	pop    %r15
    721e:	c3                   	ret
    721f:	4c 8d 74 24 18       	lea    0x18(%rsp),%r14
    7224:	4c 8b 3d 9d fa 04 00 	mov    0x4fa9d(%rip),%r15        # 56cc8 <syscall@GLIBC_2.2.5>
    722b:	4c 8b 25 fe f7 04 00 	mov    0x4f7fe(%rip),%r12        # 56a30 <__errno_location@GLIBC_2.2.5>
    7232:	66 66 66 66 66 2e 0f 	data16 data16 data16 data16 cs nopw 0x0(%rax,%rax,1)
    7239:	1f 84 00 00 00 00 00 
    7240:	83 f8 02             	cmp    $0x2,%eax
    7243:	74 0b                	je     7250 <_ZN3std3sys3pal4unix5locks11futex_mutex5Mutex14lock_contended17h638bdf2426d4d53cE+0x80>
    7245:	b8 02 00 00 00       	mov    $0x2,%eax
    724a:	87 03                	xchg   %eax,(%rbx)
    724c:	85 c0                	test   %eax,%eax
    724e:	74 c3                	je     7213 <_ZN3std3sys3pal4unix5locks11futex_mutex5Mutex14lock_contended17h638bdf2426d4d53cE+0x43>
    7250:	48 c7 44 24 10 00 00 	movq   $0x0,0x10(%rsp)
    7257:	00 00 
    7259:	0f 1f 80 00 00 00 00 	nopl   0x0(%rax)
    7260:	8b 03                	mov    (%rbx),%eax
    7262:	83 f8 02             	cmp    $0x2,%eax
    7265:	75 3a                	jne    72a1 <_ZN3std3sys3pal4unix5locks11futex_mutex5Mutex14lock_contended17h638bdf2426d4d53cE+0xd1>
    7267:	4c 8b 44 24 10       	mov    0x10(%rsp),%r8
    726c:	4d 85 c0             	test   %r8,%r8
    726f:	4d 0f 45 c6          	cmovne %r14,%r8
    7273:	c7 04 24 ff ff ff ff 	movl   $0xffffffff,(%rsp)
    727a:	bf ca 00 00 00       	mov    $0xca,%edi
    727f:	48 89 de             	mov    %rbx,%rsi
    7282:	ba 89 00 00 00       	mov    $0x89,%edx
    7287:	b9 02 00 00 00       	mov    $0x2,%ecx
    728c:	45 31 c9             	xor    %r9d,%r9d
    728f:	31 c0                	xor    %eax,%eax
    7291:	41 ff d7             	call   *%r15
    7294:	48 85 c0             	test   %rax,%rax
    7297:	79 08                	jns    72a1 <_ZN3std3sys3pal4unix5locks11futex_mutex5Mutex14lock_contended17h638bdf2426d4d53cE+0xd1>
    7299:	41 ff d4             	call   *%r12
    729c:	83 38 04             	cmpl   $0x4,(%rax)
    729f:	74 bf                	je     7260 <_ZN3std3sys3pal4unix5locks11futex_mutex5Mutex14lock_contended17h638bdf2426d4d53cE+0x90>
    72a1:	8b 03                	mov    (%rbx),%eax
    72a3:	83 f8 01             	cmp    $0x1,%eax
    72a6:	75 98                	jne    7240 <_ZN3std3sys3pal4unix5locks11futex_mutex5Mutex14lock_contended17h638bdf2426d4d53cE+0x70>
    72a8:	b9 9d ff ff ff       	mov    $0xffffff9d,%ecx
    72ad:	0f 1f 00             	nopl   (%rax)
    72b0:	f3 90                	pause
    72b2:	8b 03                	mov    (%rbx),%eax
    72b4:	8d 51 01             	lea    0x1(%rcx),%edx
    72b7:	83 f8 01             	cmp    $0x1,%eax
    72ba:	75 84                	jne    7240 <_ZN3std3sys3pal4unix5locks11futex_mutex5Mutex14lock_contended17h638bdf2426d4d53cE+0x70>
    72bc:	85 c9                	test   %ecx,%ecx
    72be:	89 d1                	mov    %edx,%ecx
    72c0:	75 ee                	jne    72b0 <_ZN3std3sys3pal4unix5locks11futex_mutex5Mutex14lock_contended17h638bdf2426d4d53cE+0xe0>
    72c2:	e9 79 ff ff ff       	jmp    7240 <_ZN3std3sys3pal4unix5locks11futex_mutex5Mutex14lock_contended17h638bdf2426d4d53cE+0x70>
    72c7:	66 0f 1f 84 00 00 00 	nopw   0x0(%rax,%rax,1)
    72ce:	00 00 

00000000000072d0 <_ZN3std3sys3pal4unix5locks12futex_rwlock6RwLock14read_contended17h1e4921fb8e0cf3e3E>:
    72d0:	55                   	push   %rbp
    72d1:	41 57                	push   %r15
    72d3:	41 56                	push   %r14
    72d5:	41 54                	push   %r12
    72d7:	53                   	push   %rbx
    72d8:	48 83 ec 40          	sub    $0x40,%rsp
    72dc:	48 89 fb             	mov    %rdi,%rbx
    72df:	8b 07                	mov    (%rdi),%eax
    72e1:	3d ff ff ff 3f       	cmp    $0x3fffffff,%eax
    72e6:	75 1c                	jne    7304 <_ZN3std3sys3pal4unix5locks12futex_rwlock6RwLock14read_contended17h1e4921fb8e0cf3e3E+0x34>
    72e8:	b9 9d ff ff ff       	mov    $0xffffff9d,%ecx
    72ed:	0f 1f 00             	nopl   (%rax)
    72f0:	f3 90                	pause
    72f2:	8b 03                	mov    (%rbx),%eax
    72f4:	3d ff ff ff 3f       	cmp    $0x3fffffff,%eax
    72f9:	75 09                	jne    7304 <_ZN3std3sys3pal4unix5locks12futex_rwlock6RwLock14read_contended17h1e4921fb8e0cf3e3E+0x34>
    72fb:	8d 51 01             	lea    0x1(%rcx),%edx
    72fe:	85 c9                	test   %ecx,%ecx
    7300:	89 d1                	mov    %edx,%ecx
    7302:	75 ec                	jne    72f0 <_ZN3std3sys3pal4unix5locks12futex_rwlock6RwLock14read_contended17h1e4921fb8e0cf3e3E+0x20>
    7304:	4c 8d 74 24 18       	lea    0x18(%rsp),%r14
    7309:	4c 8b 3d b8 f9 04 00 	mov    0x4f9b8(%rip),%r15        # 56cc8 <syscall@GLIBC_2.2.5>
    7310:	4c 8b 25 19 f7 04 00 	mov    0x4f719(%rip),%r12        # 56a30 <__errno_location@GLIBC_2.2.5>
    7317:	eb 14                	jmp    732d <_ZN3std3sys3pal4unix5locks12futex_rwlock6RwLock14read_contended17h1e4921fb8e0cf3e3E+0x5d>
    7319:	0f 1f 80 00 00 00 00 	nopl   0x0(%rax)
    7320:	8d 48 01             	lea    0x1(%rax),%ecx
    7323:	f0 0f b1 0b          	lock cmpxchg %ecx,(%rbx)
    7327:	0f 84 b0 00 00 00    	je     73dd <_ZN3std3sys3pal4unix5locks12futex_rwlock6RwLock14read_contended17h1e4921fb8e0cf3e3E+0x10d>
    732d:	89 c1                	mov    %eax,%ecx
    732f:	81 e1 ff ff ff 3f    	and    $0x3fffffff,%ecx
    7335:	3d ff ff ff 3f       	cmp    $0x3fffffff,%eax
    733a:	77 08                	ja     7344 <_ZN3std3sys3pal4unix5locks12futex_rwlock6RwLock14read_contended17h1e4921fb8e0cf3e3E+0x74>
    733c:	81 f9 fe ff ff 3f    	cmp    $0x3ffffffe,%ecx
    7342:	72 dc                	jb     7320 <_ZN3std3sys3pal4unix5locks12futex_rwlock6RwLock14read_contended17h1e4921fb8e0cf3e3E+0x50>
    7344:	81 f9 fe ff ff 3f    	cmp    $0x3ffffffe,%ecx
    734a:	0f 84 9a 00 00 00    	je     73ea <_ZN3std3sys3pal4unix5locks12futex_rwlock6RwLock14read_contended17h1e4921fb8e0cf3e3E+0x11a>
    7350:	89 c5                	mov    %eax,%ebp
    7352:	81 cd 00 00 00 40    	or     $0x40000000,%ebp
    7358:	a9 00 00 00 40       	test   $0x40000000,%eax
    735d:	75 06                	jne    7365 <_ZN3std3sys3pal4unix5locks12futex_rwlock6RwLock14read_contended17h1e4921fb8e0cf3e3E+0x95>
    735f:	f0 0f b1 2b          	lock cmpxchg %ebp,(%rbx)
    7363:	75 c8                	jne    732d <_ZN3std3sys3pal4unix5locks12futex_rwlock6RwLock14read_contended17h1e4921fb8e0cf3e3E+0x5d>
    7365:	48 c7 44 24 10 00 00 	movq   $0x0,0x10(%rsp)
    736c:	00 00 
    736e:	66 90                	xchg   %ax,%ax
    7370:	8b 03                	mov    (%rbx),%eax
    7372:	39 e8                	cmp    %ebp,%eax
    7374:	75 37                	jne    73ad <_ZN3std3sys3pal4unix5locks12futex_rwlock6RwLock14read_contended17h1e4921fb8e0cf3e3E+0xdd>
    7376:	4c 8b 44 24 10       	mov    0x10(%rsp),%r8
    737b:	4d 85 c0             	test   %r8,%r8
    737e:	4d 0f 45 c6          	cmovne %r14,%r8
    7382:	c7 04 24 ff ff ff ff 	movl   $0xffffffff,(%rsp)
    7389:	bf ca 00 00 00       	mov    $0xca,%edi
    738e:	48 89 de             	mov    %rbx,%rsi
    7391:	ba 89 00 00 00       	mov    $0x89,%edx
    7396:	89 e9                	mov    %ebp,%ecx
    7398:	45 31 c9             	xor    %r9d,%r9d
    739b:	31 c0                	xor    %eax,%eax
    739d:	41 ff d7             	call   *%r15
    73a0:	48 85 c0             	test   %rax,%rax
    73a3:	79 08                	jns    73ad <_ZN3std3sys3pal4unix5locks12futex_rwlock6RwLock14read_contended17h1e4921fb8e0cf3e3E+0xdd>
    73a5:	41 ff d4             	call   *%r12
    73a8:	83 38 04             	cmpl   $0x4,(%rax)
    73ab:	74 c3                	je     7370 <_ZN3std3sys3pal4unix5locks12futex_rwlock6RwLock14read_contended17h1e4921fb8e0cf3e3E+0xa0>
    73ad:	8b 03                	mov    (%rbx),%eax
    73af:	3d ff ff ff 3f       	cmp    $0x3fffffff,%eax
    73b4:	0f 85 73 ff ff ff    	jne    732d <_ZN3std3sys3pal4unix5locks12futex_rwlock6RwLock14read_contended17h1e4921fb8e0cf3e3E+0x5d>
    73ba:	b9 9d ff ff ff       	mov    $0xffffff9d,%ecx
    73bf:	90                   	nop
    73c0:	f3 90                	pause
    73c2:	8b 03                	mov    (%rbx),%eax
    73c4:	8d 51 01             	lea    0x1(%rcx),%edx
    73c7:	3d ff ff ff 3f       	cmp    $0x3fffffff,%eax
    73cc:	0f 85 5b ff ff ff    	jne    732d <_ZN3std3sys3pal4unix5locks12futex_rwlock6RwLock14read_contended17h1e4921fb8e0cf3e3E+0x5d>
    73d2:	85 c9                	test   %ecx,%ecx
    73d4:	89 d1                	mov    %edx,%ecx
    73d6:	75 e8                	jne    73c0 <_ZN3std3sys3pal4unix5locks12futex_rwlock6RwLock14read_contended17h1e4921fb8e0cf3e3E+0xf0>
    73d8:	e9 50 ff ff ff       	jmp    732d <_ZN3std3sys3pal4unix5locks12futex_rwlock6RwLock14read_contended17h1e4921fb8e0cf3e3E+0x5d>
    73dd:	48 83 c4 40          	add    $0x40,%rsp
    73e1:	5b                   	pop    %rbx
    73e2:	41 5c                	pop    %r12
    73e4:	41 5e                	pop    %r14
    73e6:	41 5f                	pop    %r15
    73e8:	5d                   	pop    %rbp
    73e9:	c3                   	ret
    73ea:	48 8d 05 cf df 04 00 	lea    0x4dfcf(%rip),%rax        # 553c0 <__do_global_dtors_aux_fini_array_entry+0x1078>
    73f1:	48 89 44 24 10       	mov    %rax,0x10(%rsp)
    73f6:	48 c7 44 24 18 01 00 	movq   $0x1,0x18(%rsp)
    73fd:	00 00 
    73ff:	48 8d 05 02 06 04 00 	lea    0x40602(%rip),%rax        # 47a08 <_fini+0x2514>
    7406:	48 89 44 24 20       	mov    %rax,0x20(%rsp)
    740b:	0f 57 c0             	xorps  %xmm0,%xmm0
    740e:	0f 11 44 24 28       	movups %xmm0,0x28(%rsp)
    7413:	48 8d 35 b6 df 04 00 	lea    0x4dfb6(%rip),%rsi        # 553d0 <__do_global_dtors_aux_fini_array_entry+0x1088>
    741a:	48 8d 7c 24 10       	lea    0x10(%rsp),%rdi
    741f:	ff 15 cb f5 04 00    	call   *0x4f5cb(%rip)        # 569f0 <_GLOBAL_OFFSET_TABLE_+0x60>
    7425:	66 2e 0f 1f 84 00 00 	cs nopw 0x0(%rax,%rax,1)
    742c:	00 00 00 
    742f:	90                   	nop

0000000000007430 <_ZN3std3sys3pal4unix5locks12futex_rwlock6RwLock22wake_writer_or_readers17h657669f01fd831e7E>:
    7430:	53                   	push   %rbx
    7431:	f7 c6 ff ff ff 3f    	test   $0x3fffffff,%esi
    7437:	0f 85 ab 00 00 00    	jne    74e8 <_ZN3std3sys3pal4unix5locks12futex_rwlock6RwLock22wake_writer_or_readers17h657669f01fd831e7E+0xb8>
    743d:	48 89 fb             	mov    %rdi,%rbx
    7440:	81 fe 00 00 00 80    	cmp    $0x80000000,%esi
    7446:	75 32                	jne    747a <_ZN3std3sys3pal4unix5locks12futex_rwlock6RwLock22wake_writer_or_readers17h657669f01fd831e7E+0x4a>
    7448:	31 c9                	xor    %ecx,%ecx
    744a:	b8 00 00 00 80       	mov    $0x80000000,%eax
    744f:	f0 0f b1 0b          	lock cmpxchg %ecx,(%rbx)
    7453:	75 23                	jne    7478 <_ZN3std3sys3pal4unix5locks12futex_rwlock6RwLock22wake_writer_or_readers17h657669f01fd831e7E+0x48>
    7455:	f0 ff 43 04          	lock incl 0x4(%rbx)
    7459:	48 83 c3 04          	add    $0x4,%rbx
    745d:	bf ca 00 00 00       	mov    $0xca,%edi
    7462:	48 89 de             	mov    %rbx,%rsi
    7465:	ba 81 00 00 00       	mov    $0x81,%edx
    746a:	b9 01 00 00 00       	mov    $0x1,%ecx
    746f:	31 c0                	xor    %eax,%eax
    7471:	5b                   	pop    %rbx
    7472:	ff 25 50 f8 04 00    	jmp    *0x4f850(%rip)        # 56cc8 <syscall@GLIBC_2.2.5>
    7478:	89 c6                	mov    %eax,%esi
    747a:	81 fe 00 00 00 c0    	cmp    $0xc0000000,%esi
    7480:	74 30                	je     74b2 <_ZN3std3sys3pal4unix5locks12futex_rwlock6RwLock22wake_writer_or_readers17h657669f01fd831e7E+0x82>
    7482:	81 fe 00 00 00 40    	cmp    $0x40000000,%esi
    7488:	75 5c                	jne    74e6 <_ZN3std3sys3pal4unix5locks12futex_rwlock6RwLock22wake_writer_or_readers17h657669f01fd831e7E+0xb6>
    748a:	31 c9                	xor    %ecx,%ecx
    748c:	b8 00 00 00 40       	mov    $0x40000000,%eax
    7491:	f0 0f b1 0b          	lock cmpxchg %ecx,(%rbx)
    7495:	75 4f                	jne    74e6 <_ZN3std3sys3pal4unix5locks12futex_rwlock6RwLock22wake_writer_or_readers17h657669f01fd831e7E+0xb6>
    7497:	bf ca 00 00 00       	mov    $0xca,%edi
    749c:	48 89 de             	mov    %rbx,%rsi
    749f:	ba 81 00 00 00       	mov    $0x81,%edx
    74a4:	b9 ff ff ff 7f       	mov    $0x7fffffff,%ecx
    74a9:	31 c0                	xor    %eax,%eax
    74ab:	5b                   	pop    %rbx
    74ac:	ff 25 16 f8 04 00    	jmp    *0x4f816(%rip)        # 56cc8 <syscall@GLIBC_2.2.5>
    74b2:	b9 00 00 00 40       	mov    $0x40000000,%ecx
    74b7:	b8 00 00 00 c0       	mov    $0xc0000000,%eax
    74bc:	f0 0f b1 0b          	lock cmpxchg %ecx,(%rbx)
    74c0:	75 24                	jne    74e6 <_ZN3std3sys3pal4unix5locks12futex_rwlock6RwLock22wake_writer_or_readers17h657669f01fd831e7E+0xb6>
    74c2:	48 8d 73 04          	lea    0x4(%rbx),%rsi
    74c6:	f0 ff 43 04          	lock incl 0x4(%rbx)
    74ca:	bf ca 00 00 00       	mov    $0xca,%edi
    74cf:	ba 81 00 00 00       	mov    $0x81,%edx
    74d4:	b9 01 00 00 00       	mov    $0x1,%ecx
    74d9:	31 c0                	xor    %eax,%eax
    74db:	ff 15 e7 f7 04 00    	call   *0x4f7e7(%rip)        # 56cc8 <syscall@GLIBC_2.2.5>
    74e1:	48 85 c0             	test   %rax,%rax
    74e4:	7e a4                	jle    748a <_ZN3std3sys3pal4unix5locks12futex_rwlock6RwLock22wake_writer_or_readers17h657669f01fd831e7E+0x5a>
    74e6:	5b                   	pop    %rbx
    74e7:	c3                   	ret
    74e8:	48 8d 3d c8 1a 04 00 	lea    0x41ac8(%rip),%rdi        # 48fb7 <str.5+0x1187>
    74ef:	48 8d 15 f2 de 04 00 	lea    0x4def2(%rip),%rdx        # 553e8 <__do_global_dtors_aux_fini_array_entry+0x10a0>
    74f6:	be 24 00 00 00       	mov    $0x24,%esi
    74fb:	ff 15 87 f6 04 00    	call   *0x4f687(%rip)        # 56b88 <_GLOBAL_OFFSET_TABLE_+0x1f8>
    7501:	66 2e 0f 1f 84 00 00 	cs nopw 0x0(%rax,%rax,1)
    7508:	00 00 00 
    750b:	0f 1f 44 00 00       	nopl   0x0(%rax,%rax,1)

0000000000007510 <_ZN3std10sys_common4once5futex4Once4call17h2ef97a70fe108dbfE>:
    7510:	55                   	push   %rbp
    7511:	41 57                	push   %r15
    7513:	41 56                	push   %r14
    7515:	41 55                	push   %r13
    7517:	41 54                	push   %r12
    7519:	53                   	push   %rbx
    751a:	48 83 ec 48          	sub    $0x48,%rsp
    751e:	48 89 7c 24 10       	mov    %rdi,0x10(%rsp)
    7523:	8b 05 7f fb 04 00    	mov    0x4fb7f(%rip),%eax        # 570a8 <_ZN3std2io5stdio6STDOUT17h4756a446a752c3adE+0x38>
    7529:	4c 8d 7c 24 20       	lea    0x20(%rsp),%r15
    752e:	4c 8d 25 9b 03 04 00 	lea    0x4039b(%rip),%r12        # 478d0 <_fini+0x23dc>
    7535:	bd 02 00 00 00       	mov    $0x2,%ebp
    753a:	4c 8d 35 67 fb 04 00 	lea    0x4fb67(%rip),%r14        # 570a8 <_ZN3std2io5stdio6STDOUT17h4756a446a752c3adE+0x38>
    7541:	48 8b 1d 80 f7 04 00 	mov    0x4f780(%rip),%rbx        # 56cc8 <syscall@GLIBC_2.2.5>
    7548:	4c 8b 2d e1 f4 04 00 	mov    0x4f4e1(%rip),%r13        # 56a30 <__errno_location@GLIBC_2.2.5>
    754f:	eb 15                	jmp    7566 <_ZN3std10sys_common4once5futex4Once4call17h2ef97a70fe108dbfE+0x56>
    7551:	66 66 66 66 66 66 2e 	data16 data16 data16 data16 data16 cs nopw 0x0(%rax,%rax,1)
    7558:	0f 1f 84 00 00 00 00 
    755f:	00 
    7560:	8b 05 42 fb 04 00    	mov    0x4fb42(%rip),%eax        # 570a8 <_ZN3std2io5stdio6STDOUT17h4756a446a752c3adE+0x38>
    7566:	83 f8 04             	cmp    $0x4,%eax
    7569:	0f 87 17 01 00 00    	ja     7686 <_ZN3std10sys_common4once5futex4Once4call17h2ef97a70fe108dbfE+0x176>
    756f:	89 c1                	mov    %eax,%ecx
    7571:	49 63 0c 8c          	movslq (%r12,%rcx,4),%rcx
    7575:	4c 01 e1             	add    %r12,%rcx
    7578:	ff e1                	jmp    *%rcx
    757a:	f0 0f b1 2d 26 fb 04 	lock cmpxchg %ebp,0x4fb26(%rip)        # 570a8 <_ZN3std2io5stdio6STDOUT17h4756a446a752c3adE+0x38>
    7581:	00 
    7582:	75 e2                	jne    7566 <_ZN3std10sys_common4once5futex4Once4call17h2ef97a70fe108dbfE+0x56>
    7584:	eb 77                	jmp    75fd <_ZN3std10sys_common4once5futex4Once4call17h2ef97a70fe108dbfE+0xed>
    7586:	66 2e 0f 1f 84 00 00 	cs nopw 0x0(%rax,%rax,1)
    758d:	00 00 00 
    7590:	b8 02 00 00 00       	mov    $0x2,%eax
    7595:	b9 03 00 00 00       	mov    $0x3,%ecx
    759a:	f0 0f b1 0d 06 fb 04 	lock cmpxchg %ecx,0x4fb06(%rip)        # 570a8 <_ZN3std2io5stdio6STDOUT17h4756a446a752c3adE+0x38>
    75a1:	00 
    75a2:	75 c2                	jne    7566 <_ZN3std10sys_common4once5futex4Once4call17h2ef97a70fe108dbfE+0x56>
    75a4:	48 c7 44 24 18 00 00 	movq   $0x0,0x18(%rsp)
    75ab:	00 00 
    75ad:	0f 1f 00             	nopl   (%rax)
    75b0:	8b 05 f2 fa 04 00    	mov    0x4faf2(%rip),%eax        # 570a8 <_ZN3std2io5stdio6STDOUT17h4756a446a752c3adE+0x38>
    75b6:	83 f8 03             	cmp    $0x3,%eax
    75b9:	75 a5                	jne    7560 <_ZN3std10sys_common4once5futex4Once4call17h2ef97a70fe108dbfE+0x50>
    75bb:	4c 8b 44 24 18       	mov    0x18(%rsp),%r8
    75c0:	4d 85 c0             	test   %r8,%r8
    75c3:	4d 0f 45 c7          	cmovne %r15,%r8
    75c7:	c7 04 24 ff ff ff ff 	movl   $0xffffffff,(%rsp)
    75ce:	bf ca 00 00 00       	mov    $0xca,%edi
    75d3:	4c 89 f6             	mov    %r14,%rsi
    75d6:	ba 89 00 00 00       	mov    $0x89,%edx
    75db:	b9 03 00 00 00       	mov    $0x3,%ecx
    75e0:	45 31 c9             	xor    %r9d,%r9d
    75e3:	31 c0                	xor    %eax,%eax
    75e5:	ff d3                	call   *%rbx
    75e7:	48 85 c0             	test   %rax,%rax
    75ea:	0f 89 70 ff ff ff    	jns    7560 <_ZN3std10sys_common4once5futex4Once4call17h2ef97a70fe108dbfE+0x50>
    75f0:	41 ff d5             	call   *%r13
    75f3:	83 38 04             	cmpl   $0x4,(%rax)
    75f6:	74 b8                	je     75b0 <_ZN3std10sys_common4once5futex4Once4call17h2ef97a70fe108dbfE+0xa0>
    75f8:	e9 63 ff ff ff       	jmp    7560 <_ZN3std10sys_common4once5futex4Once4call17h2ef97a70fe108dbfE+0x50>
    75fd:	48 8b 44 24 10       	mov    0x10(%rsp),%rax
    7602:	48 8b 10             	mov    (%rax),%rdx
    7605:	48 8b 0a             	mov    (%rdx),%rcx
    7608:	48 8b 42 08          	mov    0x8(%rdx),%rax
    760c:	48 c7 02 00 00 00 00 	movq   $0x0,(%rdx)
    7613:	48 85 c9             	test   %rcx,%rcx
    7616:	0f 84 a3 00 00 00    	je     76bf <_ZN3std10sys_common4once5futex4Once4call17h2ef97a70fe108dbfE+0x1af>
    761c:	c6 01 01             	movb   $0x1,(%rcx)
    761f:	0f 57 c0             	xorps  %xmm0,%xmm0
    7622:	0f 11 00             	movups %xmm0,(%rax)
    7625:	48 c7 40 10 00 00 00 	movq   $0x0,0x10(%rax)
    762c:	00 
    762d:	48 c7 40 18 01 00 00 	movq   $0x1,0x18(%rax)
    7634:	00 
    7635:	48 c7 40 20 00 00 00 	movq   $0x0,0x20(%rax)
    763c:	00 
    763d:	c6 40 28 00          	movb   $0x0,0x28(%rax)
    7641:	48 c7 40 30 00 00 00 	movq   $0x0,0x30(%rax)
    7648:	00 
    7649:	b8 04 00 00 00       	mov    $0x4,%eax
    764e:	87 05 54 fa 04 00    	xchg   %eax,0x4fa54(%rip)        # 570a8 <_ZN3std2io5stdio6STDOUT17h4756a446a752c3adE+0x38>
    7654:	83 f8 03             	cmp    $0x3,%eax
    7657:	75 1e                	jne    7677 <_ZN3std10sys_common4once5futex4Once4call17h2ef97a70fe108dbfE+0x167>
    7659:	48 8d 35 48 fa 04 00 	lea    0x4fa48(%rip),%rsi        # 570a8 <_ZN3std2io5stdio6STDOUT17h4756a446a752c3adE+0x38>
    7660:	bf ca 00 00 00       	mov    $0xca,%edi
    7665:	ba 81 00 00 00       	mov    $0x81,%edx
    766a:	b9 ff ff ff 7f       	mov    $0x7fffffff,%ecx
    766f:	31 c0                	xor    %eax,%eax
    7671:	ff 15 51 f6 04 00    	call   *0x4f651(%rip)        # 56cc8 <syscall@GLIBC_2.2.5>
    7677:	48 83 c4 48          	add    $0x48,%rsp
    767b:	5b                   	pop    %rbx
    767c:	41 5c                	pop    %r12
    767e:	41 5d                	pop    %r13
    7680:	41 5e                	pop    %r14
    7682:	41 5f                	pop    %r15
    7684:	5d                   	pop    %rbp
    7685:	c3                   	ret
    7686:	48 8d 05 e3 dd 04 00 	lea    0x4dde3(%rip),%rax        # 55470 <__do_global_dtors_aux_fini_array_entry+0x1128>
    768d:	48 89 44 24 18       	mov    %rax,0x18(%rsp)
    7692:	48 c7 44 24 20 01 00 	movq   $0x1,0x20(%rsp)
    7699:	00 00 
    769b:	48 8d 44 24 08       	lea    0x8(%rsp),%rax
    76a0:	48 89 44 24 28       	mov    %rax,0x28(%rsp)
    76a5:	0f 57 c0             	xorps  %xmm0,%xmm0
    76a8:	0f 11 44 24 30       	movups %xmm0,0x30(%rsp)
    76ad:	48 8d 35 14 d7 04 00 	lea    0x4d714(%rip),%rsi        # 54dc8 <__do_global_dtors_aux_fini_array_entry+0xa80>
    76b4:	48 8d 7c 24 18       	lea    0x18(%rsp),%rdi
    76b9:	ff 15 31 f3 04 00    	call   *0x4f331(%rip)        # 569f0 <_GLOBAL_OFFSET_TABLE_+0x60>
    76bf:	48 8d 3d 1a d7 04 00 	lea    0x4d71a(%rip),%rdi        # 54de0 <__do_global_dtors_aux_fini_array_entry+0xa98>
    76c6:	ff 15 c4 f3 04 00    	call   *0x4f3c4(%rip)        # 56a90 <_GLOBAL_OFFSET_TABLE_+0x100>
    76cc:	0f 0b                	ud2
    76ce:	48 89 c3             	mov    %rax,%rbx
    76d1:	b8 01 00 00 00       	mov    $0x1,%eax
    76d6:	87 05 cc f9 04 00    	xchg   %eax,0x4f9cc(%rip)        # 570a8 <_ZN3std2io5stdio6STDOUT17h4756a446a752c3adE+0x38>
    76dc:	83 f8 03             	cmp    $0x3,%eax
    76df:	75 1e                	jne    76ff <_ZN3std10sys_common4once5futex4Once4call17h2ef97a70fe108dbfE+0x1ef>
    76e1:	48 8d 35 c0 f9 04 00 	lea    0x4f9c0(%rip),%rsi        # 570a8 <_ZN3std2io5stdio6STDOUT17h4756a446a752c3adE+0x38>
    76e8:	bf ca 00 00 00       	mov    $0xca,%edi
    76ed:	ba 81 00 00 00       	mov    $0x81,%edx
    76f2:	b9 ff ff ff 7f       	mov    $0x7fffffff,%ecx
    76f7:	31 c0                	xor    %eax,%eax
    76f9:	ff 15 c9 f5 04 00    	call   *0x4f5c9(%rip)        # 56cc8 <syscall@GLIBC_2.2.5>
    76ff:	48 89 df             	mov    %rbx,%rdi
    7702:	e8 39 e9 ff ff       	call   6040 <_Unwind_Resume@plt>
    7707:	66 0f 1f 84 00 00 00 	nopw   0x0(%rax,%rax,1)
    770e:	00 00 

0000000000007710 <_ZN3std10sys_common4once5futex4Once4call17h37174e98a2cfe9bbE>:
    7710:	55                   	push   %rbp
    7711:	41 57                	push   %r15
    7713:	41 56                	push   %r14
    7715:	41 55                	push   %r13
    7717:	41 54                	push   %r12
    7719:	53                   	push   %rbx
    771a:	48 83 ec 58          	sub    $0x58,%rsp
    771e:	48 89 7c 24 50       	mov    %rdi,0x50(%rsp)
    7723:	8b 05 3b f9 04 00    	mov    0x4f93b(%rip),%eax        # 57064 <_ZN3std2rt7cleanup7CLEANUP17h7bfef8c219ad440fE>
    7729:	4c 8d 7c 24 20       	lea    0x20(%rsp),%r15
    772e:	4c 8d 25 af 01 04 00 	lea    0x401af(%rip),%r12        # 478e4 <_fini+0x23f0>
    7735:	41 bd 03 00 00 00    	mov    $0x3,%r13d
    773b:	4c 8d 35 22 f9 04 00 	lea    0x4f922(%rip),%r14        # 57064 <_ZN3std2rt7cleanup7CLEANUP17h7bfef8c219ad440fE>
    7742:	48 8b 1d 7f f5 04 00 	mov    0x4f57f(%rip),%rbx        # 56cc8 <syscall@GLIBC_2.2.5>
    7749:	48 8b 2d e0 f2 04 00 	mov    0x4f2e0(%rip),%rbp        # 56a30 <__errno_location@GLIBC_2.2.5>
    7750:	eb 14                	jmp    7766 <_ZN3std10sys_common4once5futex4Once4call17h37174e98a2cfe9bbE+0x56>
    7752:	66 66 66 66 66 2e 0f 	data16 data16 data16 data16 cs nopw 0x0(%rax,%rax,1)
    7759:	1f 84 00 00 00 00 00 
    7760:	8b 05 fe f8 04 00    	mov    0x4f8fe(%rip),%eax        # 57064 <_ZN3std2rt7cleanup7CLEANUP17h7bfef8c219ad440fE>
    7766:	83 f8 04             	cmp    $0x4,%eax
    7769:	0f 87 d1 02 00 00    	ja     7a40 <_ZN3std10sys_common4once5futex4Once4call17h37174e98a2cfe9bbE+0x330>
    776f:	89 c0                	mov    %eax,%eax
    7771:	49 63 04 84          	movslq (%r12,%rax,4),%rax
    7775:	4c 01 e0             	add    %r12,%rax
    7778:	ff e0                	jmp    *%rax
    777a:	31 c0                	xor    %eax,%eax
    777c:	b9 02 00 00 00       	mov    $0x2,%ecx
    7781:	f0 0f b1 0d db f8 04 	lock cmpxchg %ecx,0x4f8db(%rip)        # 57064 <_ZN3std2rt7cleanup7CLEANUP17h7bfef8c219ad440fE>
    7788:	00 
    7789:	75 db                	jne    7766 <_ZN3std10sys_common4once5futex4Once4call17h37174e98a2cfe9bbE+0x56>
    778b:	eb 6f                	jmp    77fc <_ZN3std10sys_common4once5futex4Once4call17h37174e98a2cfe9bbE+0xec>
    778d:	0f 1f 00             	nopl   (%rax)
    7790:	b8 02 00 00 00       	mov    $0x2,%eax
    7795:	f0 44 0f b1 2d c6 f8 	lock cmpxchg %r13d,0x4f8c6(%rip)        # 57064 <_ZN3std2rt7cleanup7CLEANUP17h7bfef8c219ad440fE>
    779c:	04 00 
    779e:	75 c6                	jne    7766 <_ZN3std10sys_common4once5futex4Once4call17h37174e98a2cfe9bbE+0x56>
    77a0:	48 c7 44 24 18 00 00 	movq   $0x0,0x18(%rsp)
    77a7:	00 00 
    77a9:	0f 1f 80 00 00 00 00 	nopl   0x0(%rax)
    77b0:	8b 05 ae f8 04 00    	mov    0x4f8ae(%rip),%eax        # 57064 <_ZN3std2rt7cleanup7CLEANUP17h7bfef8c219ad440fE>
    77b6:	83 f8 03             	cmp    $0x3,%eax
    77b9:	75 a5                	jne    7760 <_ZN3std10sys_common4once5futex4Once4call17h37174e98a2cfe9bbE+0x50>
    77bb:	4c 8b 44 24 18       	mov    0x18(%rsp),%r8
    77c0:	4d 85 c0             	test   %r8,%r8
    77c3:	4d 0f 45 c7          	cmovne %r15,%r8
    77c7:	c7 04 24 ff ff ff ff 	movl   $0xffffffff,(%rsp)
    77ce:	bf ca 00 00 00       	mov    $0xca,%edi
    77d3:	4c 89 f6             	mov    %r14,%rsi
    77d6:	ba 89 00 00 00       	mov    $0x89,%edx
    77db:	b9 03 00 00 00       	mov    $0x3,%ecx
    77e0:	45 31 c9             	xor    %r9d,%r9d
    77e3:	31 c0                	xor    %eax,%eax
    77e5:	ff d3                	call   *%rbx
    77e7:	48 85 c0             	test   %rax,%rax
    77ea:	0f 89 70 ff ff ff    	jns    7760 <_ZN3std10sys_common4once5futex4Once4call17h37174e98a2cfe9bbE+0x50>
    77f0:	ff d5                	call   *%rbp
    77f2:	83 38 04             	cmpl   $0x4,(%rax)
    77f5:	74 b9                	je     77b0 <_ZN3std10sys_common4once5futex4Once4call17h37174e98a2cfe9bbE+0xa0>
    77f7:	e9 64 ff ff ff       	jmp    7760 <_ZN3std10sys_common4once5futex4Once4call17h37174e98a2cfe9bbE+0x50>
    77fc:	48 8b 44 24 50       	mov    0x50(%rsp),%rax
    7801:	48 8b 00             	mov    (%rax),%rax
    7804:	80 38 00             	cmpb   $0x0,(%rax)
    7807:	c6 00 00             	movb   $0x0,(%rax)
    780a:	0f 84 69 02 00 00    	je     7a79 <_ZN3std10sys_common4once5futex4Once4call17h37174e98a2cfe9bbE+0x369>
    7810:	c6 44 24 0f 00       	movb   $0x0,0xf(%rsp)
    7815:	8b 05 8d f8 04 00    	mov    0x4f88d(%rip),%eax        # 570a8 <_ZN3std2io5stdio6STDOUT17h4756a446a752c3adE+0x38>
    781b:	83 f8 04             	cmp    $0x4,%eax
    781e:	74 0a                	je     782a <_ZN3std10sys_common4once5futex4Once4call17h37174e98a2cfe9bbE+0x11a>
    7820:	48 8d 7c 24 0f       	lea    0xf(%rsp),%rdi
    7825:	e8 f6 f5 ff ff       	call   6e20 <_ZN3std4sync9once_lock17OnceLock$LT$T$GT$10initialize17h46a98800858dbaf6E>
    782a:	80 7c 24 0f 00       	cmpb   $0x0,0xf(%rsp)
    782f:	0f 85 53 01 00 00    	jne    7988 <_ZN3std10sys_common4once5futex4Once4call17h37174e98a2cfe9bbE+0x278>
    7835:	48 8b 1d 34 f8 04 00 	mov    0x4f834(%rip),%rbx        # 57070 <_ZN3std2io5stdio6STDOUT17h4756a446a752c3adE>
    783c:	66 66 66 64 48 8b 04 	data16 data16 data16 mov %fs:0x0,%rax
    7843:	25 00 00 00 00 
    7848:	48 89 c1             	mov    %rax,%rcx
    784b:	48 8d 80 e1 ff ff ff 	lea    -0x1f(%rax),%rax
    7852:	48 39 c3             	cmp    %rax,%rbx
    7855:	75 28                	jne    787f <_ZN3std10sys_common4once5futex4Once4call17h37174e98a2cfe9bbE+0x16f>
    7857:	8b 15 47 f8 04 00    	mov    0x4f847(%rip),%edx        # 570a4 <_ZN3std2io5stdio6STDOUT17h4756a446a752c3adE+0x34>
    785d:	ff c2                	inc    %edx
    785f:	75 44                	jne    78a5 <_ZN3std10sys_common4once5futex4Once4call17h37174e98a2cfe9bbE+0x195>
    7861:	48 8d 3d af 10 04 00 	lea    0x410af(%rip),%rdi        # 48917 <str.5+0xae7>
    7868:	48 8d 15 89 d5 04 00 	lea    0x4d589(%rip),%rdx        # 54df8 <__do_global_dtors_aux_fini_array_entry+0xab0>
    786f:	be 26 00 00 00       	mov    $0x26,%esi
    7874:	ff 15 6e f6 04 00    	call   *0x4f66e(%rip)        # 56ee8 <_GLOBAL_OFFSET_TABLE_+0x558>
    787a:	e9 16 02 00 00       	jmp    7a95 <_ZN3std10sys_common4once5futex4Once4call17h37174e98a2cfe9bbE+0x385>
    787f:	ba 01 00 00 00       	mov    $0x1,%edx
    7884:	31 c0                	xor    %eax,%eax
    7886:	f0 0f b1 15 12 f8 04 	lock cmpxchg %edx,0x4f812(%rip)        # 570a0 <_ZN3std2io5stdio6STDOUT17h4756a446a752c3adE+0x30>
    788d:	00 
    788e:	0f 85 f4 00 00 00    	jne    7988 <_ZN3std10sys_common4once5futex4Once4call17h37174e98a2cfe9bbE+0x278>
    7894:	48 89 c8             	mov    %rcx,%rax
    7897:	48 8d 81 e1 ff ff ff 	lea    -0x1f(%rcx),%rax
    789e:	48 89 05 cb f7 04 00 	mov    %rax,0x4f7cb(%rip)        # 57070 <_ZN3std2io5stdio6STDOUT17h4756a446a752c3adE>
    78a5:	89 15 f9 f7 04 00    	mov    %edx,0x4f7f9(%rip)        # 570a4 <_ZN3std2io5stdio6STDOUT17h4756a446a752c3adE+0x34>
    78ab:	48 c7 44 24 18 00 00 	movq   $0x0,0x18(%rsp)
    78b2:	00 00 
    78b4:	48 c7 44 24 20 01 00 	movq   $0x1,0x20(%rsp)
    78bb:	00 00 
    78bd:	48 c7 44 24 28 00 00 	movq   $0x0,0x28(%rsp)
    78c4:	00 00 
    78c6:	c6 44 24 30 00       	movb   $0x0,0x30(%rsp)
    78cb:	48 83 3d a5 f7 04 00 	cmpq   $0x0,0x4f7a5(%rip)        # 57078 <_ZN3std2io5stdio6STDOUT17h4756a446a752c3adE+0x8>
    78d2:	00 
    78d3:	0f 85 af 01 00 00    	jne    7a88 <_ZN3std10sys_common4once5futex4Once4call17h37174e98a2cfe9bbE+0x378>
    78d9:	48 c7 05 94 f7 04 00 	movq   $0xffffffffffffffff,0x4f794(%rip)        # 57078 <_ZN3std2io5stdio6STDOUT17h4756a446a752c3adE+0x8>
    78e0:	ff ff ff ff 
    78e4:	80 3d ad f7 04 00 00 	cmpb   $0x0,0x4f7ad(%rip)        # 57098 <_ZN3std2io5stdio6STDOUT17h4756a446a752c3adE+0x28>
    78eb:	75 20                	jne    790d <_ZN3std10sys_common4once5futex4Once4call17h37174e98a2cfe9bbE+0x1fd>
    78ed:	48 8d 3d 8c f7 04 00 	lea    0x4f78c(%rip),%rdi        # 57080 <_ZN3std2io5stdio6STDOUT17h4756a446a752c3adE+0x10>
    78f4:	e8 87 85 01 00       	call   1fe80 <_ZN3std2io8buffered9bufwriter18BufWriter$LT$W$GT$9flush_buf17h9711718d2ff07647E>
    78f9:	48 89 44 24 48       	mov    %rax,0x48(%rsp)
    78fe:	48 85 c0             	test   %rax,%rax
    7901:	74 0a                	je     790d <_ZN3std10sys_common4once5futex4Once4call17h37174e98a2cfe9bbE+0x1fd>
    7903:	48 8d 7c 24 48       	lea    0x48(%rsp),%rdi
    7908:	e8 43 23 00 00       	call   9c50 <_ZN4core3ptr42drop_in_place$LT$std..io..error..Error$GT$17h98a145a7ffad09d8E>
    790d:	48 8b 35 6c f7 04 00 	mov    0x4f76c(%rip),%rsi        # 57080 <_ZN3std2io5stdio6STDOUT17h4756a446a752c3adE+0x10>
    7914:	48 85 f6             	test   %rsi,%rsi
    7917:	74 12                	je     792b <_ZN3std10sys_common4once5futex4Once4call17h37174e98a2cfe9bbE+0x21b>
    7919:	48 8b 3d 68 f7 04 00 	mov    0x4f768(%rip),%rdi        # 57088 <_ZN3std2io5stdio6STDOUT17h4756a446a752c3adE+0x18>
    7920:	ba 01 00 00 00       	mov    $0x1,%edx
    7925:	ff 15 b5 f2 04 00    	call   *0x4f2b5(%rip)        # 56be0 <_GLOBAL_OFFSET_TABLE_+0x250>
    792b:	0f 10 44 24 18       	movups 0x18(%rsp),%xmm0
    7930:	0f 10 4c 24 28       	movups 0x28(%rsp),%xmm1
    7935:	0f 11 0d 54 f7 04 00 	movups %xmm1,0x4f754(%rip)        # 57090 <_ZN3std2io5stdio6STDOUT17h4756a446a752c3adE+0x20>
    793c:	0f 11 05 3d f7 04 00 	movups %xmm0,0x4f73d(%rip)        # 57080 <_ZN3std2io5stdio6STDOUT17h4756a446a752c3adE+0x10>
    7943:	48 ff 05 2e f7 04 00 	incq   0x4f72e(%rip)        # 57078 <_ZN3std2io5stdio6STDOUT17h4756a446a752c3adE+0x8>
    794a:	ff 0d 54 f7 04 00    	decl   0x4f754(%rip)        # 570a4 <_ZN3std2io5stdio6STDOUT17h4756a446a752c3adE+0x34>
    7950:	75 36                	jne    7988 <_ZN3std10sys_common4once5futex4Once4call17h37174e98a2cfe9bbE+0x278>
    7952:	48 c7 05 13 f7 04 00 	movq   $0x0,0x4f713(%rip)        # 57070 <_ZN3std2io5stdio6STDOUT17h4756a446a752c3adE>
    7959:	00 00 00 00 
    795d:	31 c0                	xor    %eax,%eax
    795f:	87 05 3b f7 04 00    	xchg   %eax,0x4f73b(%rip)        # 570a0 <_ZN3std2io5stdio6STDOUT17h4756a446a752c3adE+0x30>
    7965:	83 f8 02             	cmp    $0x2,%eax
    7968:	75 1e                	jne    7988 <_ZN3std10sys_common4once5futex4Once4call17h37174e98a2cfe9bbE+0x278>
    796a:	48 8d 35 2f f7 04 00 	lea    0x4f72f(%rip),%rsi        # 570a0 <_ZN3std2io5stdio6STDOUT17h4756a446a752c3adE+0x30>
    7971:	bf ca 00 00 00       	mov    $0xca,%edi
    7976:	ba 81 00 00 00       	mov    $0x81,%edx
    797b:	b9 01 00 00 00       	mov    $0x1,%ecx
    7980:	31 c0                	xor    %eax,%eax
    7982:	ff 15 40 f3 04 00    	call   *0x4f340(%rip)        # 56cc8 <syscall@GLIBC_2.2.5>
    7988:	48 8b 1d 89 f7 04 00 	mov    0x4f789(%rip),%rbx        # 57118 <_ZN3std3sys3pal4unix14stack_overflow3imp13MAIN_ALTSTACK17h94980ba59364ed1eE.0>
    798f:	48 85 db             	test   %rbx,%rbx
    7992:	74 51                	je     79e5 <_ZN3std10sys_common4once5futex4Once4call17h37174e98a2cfe9bbE+0x2d5>
    7994:	48 c7 44 24 18 00 00 	movq   $0x0,0x18(%rsp)
    799b:	00 00 
    799d:	c7 44 24 20 02 00 00 	movl   $0x2,0x20(%rsp)
    79a4:	00 
    79a5:	48 c7 44 24 28 00 20 	movq   $0x2000,0x28(%rsp)
    79ac:	00 00 
    79ae:	48 8d 7c 24 18       	lea    0x18(%rsp),%rdi
    79b3:	31 f6                	xor    %esi,%esi
    79b5:	ff 15 bd f5 04 00    	call   *0x4f5bd(%rip)        # 56f78 <sigaltstack@GLIBC_2.2.5>
    79bb:	4c 8b 35 fe f4 04 00 	mov    0x4f4fe(%rip),%r14        # 56ec0 <sysconf@GLIBC_2.2.5>
    79c2:	bf 1e 00 00 00       	mov    $0x1e,%edi
    79c7:	41 ff d6             	call   *%r14
    79ca:	48 29 c3             	sub    %rax,%rbx
    79cd:	bf 1e 00 00 00       	mov    $0x1e,%edi
    79d2:	41 ff d6             	call   *%r14
    79d5:	48 8d b0 00 20 00 00 	lea    0x2000(%rax),%rsi
    79dc:	48 89 df             	mov    %rbx,%rdi
    79df:	ff 15 23 f4 04 00    	call   *0x4f423(%rip)        # 56e08 <munmap@GLIBC_2.2.5>
    79e5:	b8 04 00 00 00       	mov    $0x4,%eax
    79ea:	87 05 74 f6 04 00    	xchg   %eax,0x4f674(%rip)        # 57064 <_ZN3std2rt7cleanup7CLEANUP17h7bfef8c219ad440fE>
    79f0:	83 f8 03             	cmp    $0x3,%eax
    79f3:	75 1e                	jne    7a13 <_ZN3std10sys_common4once5futex4Once4call17h37174e98a2cfe9bbE+0x303>
    79f5:	48 8d 35 68 f6 04 00 	lea    0x4f668(%rip),%rsi        # 57064 <_ZN3std2rt7cleanup7CLEANUP17h7bfef8c219ad440fE>
    79fc:	bf ca 00 00 00       	mov    $0xca,%edi
    7a01:	ba 81 00 00 00       	mov    $0x81,%edx
    7a06:	b9 ff ff ff 7f       	mov    $0x7fffffff,%ecx
    7a0b:	31 c0                	xor    %eax,%eax
    7a0d:	ff 15 b5 f2 04 00    	call   *0x4f2b5(%rip)        # 56cc8 <syscall@GLIBC_2.2.5>
    7a13:	48 83 c4 58          	add    $0x58,%rsp
    7a17:	5b                   	pop    %rbx
    7a18:	41 5c                	pop    %r12
    7a1a:	41 5d                	pop    %r13
    7a1c:	41 5e                	pop    %r14
    7a1e:	41 5f                	pop    %r15
    7a20:	5d                   	pop    %rbp
    7a21:	c3                   	ret
    7a22:	48 8d 05 37 da 04 00 	lea    0x4da37(%rip),%rax        # 55460 <__do_global_dtors_aux_fini_array_entry+0x1118>
    7a29:	48 89 44 24 18       	mov    %rax,0x18(%rsp)
    7a2e:	48 c7 44 24 20 01 00 	movq   $0x1,0x20(%rsp)
    7a35:	00 00 
    7a37:	48 8d 05 ca ff 03 00 	lea    0x3ffca(%rip),%rax        # 47a08 <_fini+0x2514>
    7a3e:	eb 1a                	jmp    7a5a <_ZN3std10sys_common4once5futex4Once4call17h37174e98a2cfe9bbE+0x34a>
    7a40:	48 8d 05 29 da 04 00 	lea    0x4da29(%rip),%rax        # 55470 <__do_global_dtors_aux_fini_array_entry+0x1128>
    7a47:	48 89 44 24 18       	mov    %rax,0x18(%rsp)
    7a4c:	48 c7 44 24 20 01 00 	movq   $0x1,0x20(%rsp)
    7a53:	00 00 
    7a55:	48 8d 44 24 10       	lea    0x10(%rsp),%rax
    7a5a:	48 89 44 24 28       	mov    %rax,0x28(%rsp)
    7a5f:	0f 57 c0             	xorps  %xmm0,%xmm0
    7a62:	0f 11 44 24 30       	movups %xmm0,0x30(%rsp)
    7a67:	48 8d 35 a2 cf 04 00 	lea    0x4cfa2(%rip),%rsi        # 54a10 <__do_global_dtors_aux_fini_array_entry+0x6c8>
    7a6e:	48 8d 7c 24 18       	lea    0x18(%rsp),%rdi
    7a73:	ff 15 77 ef 04 00    	call   *0x4ef77(%rip)        # 569f0 <_GLOBAL_OFFSET_TABLE_+0x60>
    7a79:	48 8d 3d 30 d3 04 00 	lea    0x4d330(%rip),%rdi        # 54db0 <__do_global_dtors_aux_fini_array_entry+0xa68>
    7a80:	ff 15 0a f0 04 00    	call   *0x4f00a(%rip)        # 56a90 <_GLOBAL_OFFSET_TABLE_+0x100>
    7a86:	eb 0d                	jmp    7a95 <_ZN3std10sys_common4once5futex4Once4call17h37174e98a2cfe9bbE+0x385>
    7a88:	48 8d 3d 81 d0 04 00 	lea    0x4d081(%rip),%rdi        # 54b10 <__do_global_dtors_aux_fini_array_entry+0x7c8>
    7a8f:	ff 15 e3 f1 04 00    	call   *0x4f1e3(%rip)        # 56c78 <_GLOBAL_OFFSET_TABLE_+0x2e8>
    7a95:	0f 0b                	ud2
    7a97:	48 89 c3             	mov    %rax,%rbx
    7a9a:	48 8b 35 df f5 04 00 	mov    0x4f5df(%rip),%rsi        # 57080 <_ZN3std2io5stdio6STDOUT17h4756a446a752c3adE+0x10>
    7aa1:	48 85 f6             	test   %rsi,%rsi
    7aa4:	74 12                	je     7ab8 <_ZN3std10sys_common4once5futex4Once4call17h37174e98a2cfe9bbE+0x3a8>
    7aa6:	48 8b 3d db f5 04 00 	mov    0x4f5db(%rip),%rdi        # 57088 <_ZN3std2io5stdio6STDOUT17h4756a446a752c3adE+0x18>
    7aad:	ba 01 00 00 00       	mov    $0x1,%edx
    7ab2:	ff 15 28 f1 04 00    	call   *0x4f128(%rip)        # 56be0 <_GLOBAL_OFFSET_TABLE_+0x250>
    7ab8:	0f 10 44 24 18       	movups 0x18(%rsp),%xmm0
    7abd:	0f 10 4c 24 28       	movups 0x28(%rsp),%xmm1
    7ac2:	0f 11 0d c7 f5 04 00 	movups %xmm1,0x4f5c7(%rip)        # 57090 <_ZN3std2io5stdio6STDOUT17h4756a446a752c3adE+0x20>
    7ac9:	0f 11 05 b0 f5 04 00 	movups %xmm0,0x4f5b0(%rip)        # 57080 <_ZN3std2io5stdio6STDOUT17h4756a446a752c3adE+0x10>
    7ad0:	48 ff 05 a1 f5 04 00 	incq   0x4f5a1(%rip)        # 57078 <_ZN3std2io5stdio6STDOUT17h4756a446a752c3adE+0x8>
    7ad7:	eb 3b                	jmp    7b14 <_ZN3std10sys_common4once5futex4Once4call17h37174e98a2cfe9bbE+0x404>
    7ad9:	48 89 c3             	mov    %rax,%rbx
    7adc:	48 8d 7c 24 18       	lea    0x18(%rsp),%rdi
    7ae1:	e8 9a 83 01 00       	call   1fe80 <_ZN3std2io8buffered9bufwriter18BufWriter$LT$W$GT$9flush_buf17h9711718d2ff07647E>
    7ae6:	48 89 44 24 48       	mov    %rax,0x48(%rsp)
    7aeb:	48 85 c0             	test   %rax,%rax
    7aee:	74 0a                	je     7afa <_ZN3std10sys_common4once5futex4Once4call17h37174e98a2cfe9bbE+0x3ea>
    7af0:	48 8d 7c 24 48       	lea    0x48(%rsp),%rdi
    7af5:	e8 56 21 00 00       	call   9c50 <_ZN4core3ptr42drop_in_place$LT$std..io..error..Error$GT$17h98a145a7ffad09d8E>
    7afa:	48 8b 74 24 18       	mov    0x18(%rsp),%rsi
    7aff:	48 85 f6             	test   %rsi,%rsi
    7b02:	74 10                	je     7b14 <_ZN3std10sys_common4once5futex4Once4call17h37174e98a2cfe9bbE+0x404>
    7b04:	48 8b 7c 24 20       	mov    0x20(%rsp),%rdi
    7b09:	ba 01 00 00 00       	mov    $0x1,%edx
    7b0e:	ff 15 cc f0 04 00    	call   *0x4f0cc(%rip)        # 56be0 <_GLOBAL_OFFSET_TABLE_+0x250>
    7b14:	ff 0d 8a f5 04 00    	decl   0x4f58a(%rip)        # 570a4 <_ZN3std2io5stdio6STDOUT17h4756a446a752c3adE+0x34>
    7b1a:	75 5b                	jne    7b77 <_ZN3std10sys_common4once5futex4Once4call17h37174e98a2cfe9bbE+0x467>
    7b1c:	48 c7 05 49 f5 04 00 	movq   $0x0,0x4f549(%rip)        # 57070 <_ZN3std2io5stdio6STDOUT17h4756a446a752c3adE>
    7b23:	00 00 00 00 
    7b27:	31 c0                	xor    %eax,%eax
    7b29:	87 05 71 f5 04 00    	xchg   %eax,0x4f571(%rip)        # 570a0 <_ZN3std2io5stdio6STDOUT17h4756a446a752c3adE+0x30>
    7b2f:	83 f8 02             	cmp    $0x2,%eax
    7b32:	75 43                	jne    7b77 <_ZN3std10sys_common4once5futex4Once4call17h37174e98a2cfe9bbE+0x467>
    7b34:	48 8d 35 65 f5 04 00 	lea    0x4f565(%rip),%rsi        # 570a0 <_ZN3std2io5stdio6STDOUT17h4756a446a752c3adE+0x30>
    7b3b:	bf ca 00 00 00       	mov    $0xca,%edi
    7b40:	ba 81 00 00 00       	mov    $0x81,%edx
    7b45:	b9 01 00 00 00       	mov    $0x1,%ecx
    7b4a:	31 c0                	xor    %eax,%eax
    7b4c:	ff 15 76 f1 04 00    	call   *0x4f176(%rip)        # 56cc8 <syscall@GLIBC_2.2.5>
    7b52:	eb 23                	jmp    7b77 <_ZN3std10sys_common4once5futex4Once4call17h37174e98a2cfe9bbE+0x467>
    7b54:	48 8b 74 24 18       	mov    0x18(%rsp),%rsi
    7b59:	48 85 f6             	test   %rsi,%rsi
    7b5c:	74 10                	je     7b6e <_ZN3std10sys_common4once5futex4Once4call17h37174e98a2cfe9bbE+0x45e>
    7b5e:	48 8b 7c 24 20       	mov    0x20(%rsp),%rdi
    7b63:	ba 01 00 00 00       	mov    $0x1,%edx
    7b68:	ff 15 72 f0 04 00    	call   *0x4f072(%rip)        # 56be0 <_GLOBAL_OFFSET_TABLE_+0x250>
    7b6e:	ff 15 2c f0 04 00    	call   *0x4f02c(%rip)        # 56ba0 <_GLOBAL_OFFSET_TABLE_+0x210>
    7b74:	48 89 c3             	mov    %rax,%rbx
    7b77:	b8 01 00 00 00       	mov    $0x1,%eax
    7b7c:	87 05 e2 f4 04 00    	xchg   %eax,0x4f4e2(%rip)        # 57064 <_ZN3std2rt7cleanup7CLEANUP17h7bfef8c219ad440fE>
    7b82:	83 f8 03             	cmp    $0x3,%eax
    7b85:	75 1e                	jne    7ba5 <_ZN3std10sys_common4once5futex4Once4call17h37174e98a2cfe9bbE+0x495>
    7b87:	48 8d 35 d6 f4 04 00 	lea    0x4f4d6(%rip),%rsi        # 57064 <_ZN3std2rt7cleanup7CLEANUP17h7bfef8c219ad440fE>
    7b8e:	bf ca 00 00 00       	mov    $0xca,%edi
    7b93:	ba 81 00 00 00       	mov    $0x81,%edx
    7b98:	b9 ff ff ff 7f       	mov    $0x7fffffff,%ecx
    7b9d:	31 c0                	xor    %eax,%eax
    7b9f:	ff 15 23 f1 04 00    	call   *0x4f123(%rip)        # 56cc8 <syscall@GLIBC_2.2.5>
    7ba5:	48 89 df             	mov    %rbx,%rdi
    7ba8:	e8 93 e4 ff ff       	call   6040 <_Unwind_Resume@plt>
    7bad:	0f 1f 00             	nopl   (%rax)

0000000000007bb0 <_ZN3std10sys_common4once5futex4Once4call17hf3533de8b7e8f70bE>:
    7bb0:	55                   	push   %rbp
    7bb1:	41 57                	push   %r15
    7bb3:	41 56                	push   %r14
    7bb5:	41 55                	push   %r13
    7bb7:	41 54                	push   %r12
    7bb9:	53                   	push   %rbx
    7bba:	48 83 ec 48          	sub    $0x48,%rsp
    7bbe:	48 89 7c 24 10       	mov    %rdi,0x10(%rsp)
    7bc3:	8b 05 df f4 04 00    	mov    0x4f4df(%rip),%eax        # 570a8 <_ZN3std2io5stdio6STDOUT17h4756a446a752c3adE+0x38>
    7bc9:	4c 8d 7c 24 20       	lea    0x20(%rsp),%r15
    7bce:	4c 8d 25 23 fd 03 00 	lea    0x3fd23(%rip),%r12        # 478f8 <_fini+0x2404>
    7bd5:	bd 02 00 00 00       	mov    $0x2,%ebp
    7bda:	4c 8d 35 c7 f4 04 00 	lea    0x4f4c7(%rip),%r14        # 570a8 <_ZN3std2io5stdio6STDOUT17h4756a446a752c3adE+0x38>
    7be1:	48 8b 1d e0 f0 04 00 	mov    0x4f0e0(%rip),%rbx        # 56cc8 <syscall@GLIBC_2.2.5>
    7be8:	4c 8b 2d 41 ee 04 00 	mov    0x4ee41(%rip),%r13        # 56a30 <__errno_location@GLIBC_2.2.5>
    7bef:	eb 15                	jmp    7c06 <_ZN3std10sys_common4once5futex4Once4call17hf3533de8b7e8f70bE+0x56>
    7bf1:	66 66 66 66 66 66 2e 	data16 data16 data16 data16 data16 cs nopw 0x0(%rax,%rax,1)
    7bf8:	0f 1f 84 00 00 00 00 
    7bff:	00 
    7c00:	8b 05 a2 f4 04 00    	mov    0x4f4a2(%rip),%eax        # 570a8 <_ZN3std2io5stdio6STDOUT17h4756a446a752c3adE+0x38>
    7c06:	83 f8 04             	cmp    $0x4,%eax
    7c09:	0f 87 2f 01 00 00    	ja     7d3e <_ZN3std10sys_common4once5futex4Once4call17hf3533de8b7e8f70bE+0x18e>
    7c0f:	89 c1                	mov    %eax,%ecx
    7c11:	49 63 0c 8c          	movslq (%r12,%rcx,4),%rcx
    7c15:	4c 01 e1             	add    %r12,%rcx
    7c18:	ff e1                	jmp    *%rcx
    7c1a:	f0 0f b1 2d 86 f4 04 	lock cmpxchg %ebp,0x4f486(%rip)        # 570a8 <_ZN3std2io5stdio6STDOUT17h4756a446a752c3adE+0x38>
    7c21:	00 
    7c22:	75 e2                	jne    7c06 <_ZN3std10sys_common4once5futex4Once4call17hf3533de8b7e8f70bE+0x56>
    7c24:	eb 77                	jmp    7c9d <_ZN3std10sys_common4once5futex4Once4call17hf3533de8b7e8f70bE+0xed>
    7c26:	66 2e 0f 1f 84 00 00 	cs nopw 0x0(%rax,%rax,1)
    7c2d:	00 00 00 
    7c30:	b8 02 00 00 00       	mov    $0x2,%eax
    7c35:	b9 03 00 00 00       	mov    $0x3,%ecx
    7c3a:	f0 0f b1 0d 66 f4 04 	lock cmpxchg %ecx,0x4f466(%rip)        # 570a8 <_ZN3std2io5stdio6STDOUT17h4756a446a752c3adE+0x38>
    7c41:	00 
    7c42:	75 c2                	jne    7c06 <_ZN3std10sys_common4once5futex4Once4call17hf3533de8b7e8f70bE+0x56>
    7c44:	48 c7 44 24 18 00 00 	movq   $0x0,0x18(%rsp)
    7c4b:	00 00 
    7c4d:	0f 1f 00             	nopl   (%rax)
    7c50:	8b 05 52 f4 04 00    	mov    0x4f452(%rip),%eax        # 570a8 <_ZN3std2io5stdio6STDOUT17h4756a446a752c3adE+0x38>
    7c56:	83 f8 03             	cmp    $0x3,%eax
    7c59:	75 a5                	jne    7c00 <_ZN3std10sys_common4once5futex4Once4call17hf3533de8b7e8f70bE+0x50>
    7c5b:	4c 8b 44 24 18       	mov    0x18(%rsp),%r8
    7c60:	4d 85 c0             	test   %r8,%r8
    7c63:	4d 0f 45 c7          	cmovne %r15,%r8
    7c67:	c7 04 24 ff ff ff ff 	movl   $0xffffffff,(%rsp)
    7c6e:	bf ca 00 00 00       	mov    $0xca,%edi
    7c73:	4c 89 f6             	mov    %r14,%rsi
    7c76:	ba 89 00 00 00       	mov    $0x89,%edx
    7c7b:	b9 03 00 00 00       	mov    $0x3,%ecx
    7c80:	45 31 c9             	xor    %r9d,%r9d
    7c83:	31 c0                	xor    %eax,%eax
    7c85:	ff d3                	call   *%rbx
    7c87:	48 85 c0             	test   %rax,%rax
    7c8a:	0f 89 70 ff ff ff    	jns    7c00 <_ZN3std10sys_common4once5futex4Once4call17hf3533de8b7e8f70bE+0x50>
    7c90:	41 ff d5             	call   *%r13
    7c93:	83 38 04             	cmpl   $0x4,(%rax)
    7c96:	74 b8                	je     7c50 <_ZN3std10sys_common4once5futex4Once4call17hf3533de8b7e8f70bE+0xa0>
    7c98:	e9 63 ff ff ff       	jmp    7c00 <_ZN3std10sys_common4once5futex4Once4call17hf3533de8b7e8f70bE+0x50>
    7c9d:	48 8b 44 24 10       	mov    0x10(%rsp),%rax
    7ca2:	48 8b 00             	mov    (%rax),%rax
    7ca5:	48 8b 18             	mov    (%rax),%rbx
    7ca8:	48 c7 00 00 00 00 00 	movq   $0x0,(%rax)
    7caf:	48 85 db             	test   %rbx,%rbx
    7cb2:	0f 84 bf 00 00 00    	je     7d77 <_ZN3std10sys_common4once5futex4Once4call17hf3533de8b7e8f70bE+0x1c7>
    7cb8:	48 8d 05 a3 f3 04 00 	lea    0x4f3a3(%rip),%rax        # 57062 <__rust_no_alloc_shim_is_unstable>
    7cbf:	0f b6 00             	movzbl (%rax),%eax
    7cc2:	bf 00 04 00 00       	mov    $0x400,%edi
    7cc7:	be 01 00 00 00       	mov    $0x1,%esi
    7ccc:	ff 15 de ee 04 00    	call   *0x4eede(%rip)        # 56bb0 <_GLOBAL_OFFSET_TABLE_+0x220>
    7cd2:	48 85 c0             	test   %rax,%rax
    7cd5:	0f 84 ab 00 00 00    	je     7d86 <_ZN3std10sys_common4once5futex4Once4call17hf3533de8b7e8f70bE+0x1d6>
    7cdb:	0f 57 c0             	xorps  %xmm0,%xmm0
    7cde:	0f 11 03             	movups %xmm0,(%rbx)
    7ce1:	48 c7 43 10 00 04 00 	movq   $0x400,0x10(%rbx)
    7ce8:	00 
    7ce9:	48 89 43 18          	mov    %rax,0x18(%rbx)
    7ced:	48 c7 43 20 00 00 00 	movq   $0x0,0x20(%rbx)
    7cf4:	00 
    7cf5:	c6 43 28 00          	movb   $0x0,0x28(%rbx)
    7cf9:	48 c7 43 30 00 00 00 	movq   $0x0,0x30(%rbx)
    7d00:	00 
    7d01:	b8 04 00 00 00       	mov    $0x4,%eax
    7d06:	87 05 9c f3 04 00    	xchg   %eax,0x4f39c(%rip)        # 570a8 <_ZN3std2io5stdio6STDOUT17h4756a446a752c3adE+0x38>
    7d0c:	83 f8 03             	cmp    $0x3,%eax
    7d0f:	75 1e                	jne    7d2f <_ZN3std10sys_common4once5futex4Once4call17hf3533de8b7e8f70bE+0x17f>
    7d11:	48 8d 35 90 f3 04 00 	lea    0x4f390(%rip),%rsi        # 570a8 <_ZN3std2io5stdio6STDOUT17h4756a446a752c3adE+0x38>
    7d18:	bf ca 00 00 00       	mov    $0xca,%edi
    7d1d:	ba 81 00 00 00       	mov    $0x81,%edx
    7d22:	b9 ff ff ff 7f       	mov    $0x7fffffff,%ecx
    7d27:	31 c0                	xor    %eax,%eax
    7d29:	ff 15 99 ef 04 00    	call   *0x4ef99(%rip)        # 56cc8 <syscall@GLIBC_2.2.5>
    7d2f:	48 83 c4 48          	add    $0x48,%rsp
    7d33:	5b                   	pop    %rbx
    7d34:	41 5c                	pop    %r12
    7d36:	41 5d                	pop    %r13
    7d38:	41 5e                	pop    %r14
    7d3a:	41 5f                	pop    %r15
    7d3c:	5d                   	pop    %rbp
    7d3d:	c3                   	ret
    7d3e:	48 8d 05 2b d7 04 00 	lea    0x4d72b(%rip),%rax        # 55470 <__do_global_dtors_aux_fini_array_entry+0x1128>
    7d45:	48 89 44 24 18       	mov    %rax,0x18(%rsp)
    7d4a:	48 c7 44 24 20 01 00 	movq   $0x1,0x20(%rsp)
    7d51:	00 00 
    7d53:	48 8d 44 24 08       	lea    0x8(%rsp),%rax
    7d58:	48 89 44 24 28       	mov    %rax,0x28(%rsp)
    7d5d:	0f 57 c0             	xorps  %xmm0,%xmm0
    7d60:	0f 11 44 24 30       	movups %xmm0,0x30(%rsp)
    7d65:	48 8d 35 5c d0 04 00 	lea    0x4d05c(%rip),%rsi        # 54dc8 <__do_global_dtors_aux_fini_array_entry+0xa80>
    7d6c:	48 8d 7c 24 18       	lea    0x18(%rsp),%rdi
    7d71:	ff 15 79 ec 04 00    	call   *0x4ec79(%rip)        # 569f0 <_GLOBAL_OFFSET_TABLE_+0x60>
    7d77:	48 8d 3d 62 d0 04 00 	lea    0x4d062(%rip),%rdi        # 54de0 <__do_global_dtors_aux_fini_array_entry+0xa98>
    7d7e:	ff 15 0c ed 04 00    	call   *0x4ed0c(%rip)        # 56a90 <_GLOBAL_OFFSET_TABLE_+0x100>
    7d84:	eb 10                	jmp    7d96 <_ZN3std10sys_common4once5futex4Once4call17hf3533de8b7e8f70bE+0x1e6>
    7d86:	bf 01 00 00 00       	mov    $0x1,%edi
    7d8b:	be 00 04 00 00       	mov    $0x400,%esi
    7d90:	ff 15 72 f1 04 00    	call   *0x4f172(%rip)        # 56f08 <_GLOBAL_OFFSET_TABLE_+0x578>
    7d96:	0f 0b                	ud2
    7d98:	48 89 c3             	mov    %rax,%rbx
    7d9b:	b8 01 00 00 00       	mov    $0x1,%eax
    7da0:	87 05 02 f3 04 00    	xchg   %eax,0x4f302(%rip)        # 570a8 <_ZN3std2io5stdio6STDOUT17h4756a446a752c3adE+0x38>
    7da6:	83 f8 03             	cmp    $0x3,%eax
    7da9:	75 1e                	jne    7dc9 <_ZN3std10sys_common4once5futex4Once4call17hf3533de8b7e8f70bE+0x219>
    7dab:	48 8d 35 f6 f2 04 00 	lea    0x4f2f6(%rip),%rsi        # 570a8 <_ZN3std2io5stdio6STDOUT17h4756a446a752c3adE+0x38>
    7db2:	bf ca 00 00 00       	mov    $0xca,%edi
    7db7:	ba 81 00 00 00       	mov    $0x81,%edx
    7dbc:	b9 ff ff ff 7f       	mov    $0x7fffffff,%ecx
    7dc1:	31 c0                	xor    %eax,%eax
    7dc3:	ff 15 ff ee 04 00    	call   *0x4eeff(%rip)        # 56cc8 <syscall@GLIBC_2.2.5>
    7dc9:	48 89 df             	mov    %rbx,%rdi
    7dcc:	e8 6f e2 ff ff       	call   6040 <_Unwind_Resume@plt>
    7dd1:	66 2e 0f 1f 84 00 00 	cs nopw 0x0(%rax,%rax,1)
    7dd8:	00 00 00 
    7ddb:	0f 1f 44 00 00       	nopl   0x0(%rax,%rax,1)

0000000000007de0 <_ZN5alloc7raw_vec19RawVec$LT$T$C$A$GT$7reserve21do_reserve_and_handle17h17e23f802211f85aE>:
    7de0:	41 56                	push   %r14
    7de2:	53                   	push   %rbx
    7de3:	48 83 ec 38          	sub    $0x38,%rsp
    7de7:	48 01 d6             	add    %rdx,%rsi
    7dea:	0f 82 9a 00 00 00    	jb     7e8a <_ZN5alloc7raw_vec19RawVec$LT$T$C$A$GT$7reserve21do_reserve_and_handle17h17e23f802211f85aE+0xaa>
    7df0:	48 89 fb             	mov    %rdi,%rbx
    7df3:	48 8b 07             	mov    (%rdi),%rax
    7df6:	48 8d 0c 00          	lea    (%rax,%rax,1),%rcx
    7dfa:	48 39 f1             	cmp    %rsi,%rcx
    7dfd:	48 0f 47 f1          	cmova  %rcx,%rsi
    7e01:	48 83 fe 09          	cmp    $0x9,%rsi
    7e05:	41 be 08 00 00 00    	mov    $0x8,%r14d
    7e0b:	4c 0f 43 f6          	cmovae %rsi,%r14
    7e0f:	4c 89 f6             	mov    %r14,%rsi
    7e12:	48 f7 d6             	not    %rsi
    7e15:	48 c1 ee 3f          	shr    $0x3f,%rsi
    7e19:	48 85 c0             	test   %rax,%rax
    7e1c:	74 19                	je     7e37 <_ZN5alloc7raw_vec19RawVec$LT$T$C$A$GT$7reserve21do_reserve_and_handle17h17e23f802211f85aE+0x57>
    7e1e:	48 8b 4b 08          	mov    0x8(%rbx),%rcx
    7e22:	48 89 4c 24 08       	mov    %rcx,0x8(%rsp)
    7e27:	48 c7 44 24 10 01 00 	movq   $0x1,0x10(%rsp)
    7e2e:	00 00 
    7e30:	48 89 44 24 18       	mov    %rax,0x18(%rsp)
    7e35:	eb 09                	jmp    7e40 <_ZN5alloc7raw_vec19RawVec$LT$T$C$A$GT$7reserve21do_reserve_and_handle17h17e23f802211f85aE+0x60>
    7e37:	48 c7 44 24 10 00 00 	movq   $0x0,0x10(%rsp)
    7e3e:	00 00 
    7e40:	48 8d 7c 24 20       	lea    0x20(%rsp),%rdi
    7e45:	48 8d 4c 24 08       	lea    0x8(%rsp),%rcx
    7e4a:	4c 89 f2             	mov    %r14,%rdx
    7e4d:	e8 7e c7 02 00       	call   345d0 <_ZN5alloc7raw_vec11finish_grow17hd6a986dd5fdc4c7aE>
    7e52:	48 83 7c 24 20 00    	cmpq   $0x0,0x20(%rsp)
    7e58:	48 8b 7c 24 28       	mov    0x28(%rsp),%rdi
    7e5d:	74 17                	je     7e76 <_ZN5alloc7raw_vec19RawVec$LT$T$C$A$GT$7reserve21do_reserve_and_handle17h17e23f802211f85aE+0x96>
    7e5f:	48 b8 01 00 00 00 00 	movabs $0x8000000000000001,%rax
    7e66:	00 00 80 
    7e69:	48 39 c7             	cmp    %rax,%rdi
    7e6c:	75 17                	jne    7e85 <_ZN5alloc7raw_vec19RawVec$LT$T$C$A$GT$7reserve21do_reserve_and_handle17h17e23f802211f85aE+0xa5>
    7e6e:	48 83 c4 38          	add    $0x38,%rsp
    7e72:	5b                   	pop    %rbx
    7e73:	41 5e                	pop    %r14
    7e75:	c3                   	ret
    7e76:	48 89 7b 08          	mov    %rdi,0x8(%rbx)
    7e7a:	4c 89 33             	mov    %r14,(%rbx)
    7e7d:	48 83 c4 38          	add    $0x38,%rsp
    7e81:	5b                   	pop    %rbx
    7e82:	41 5e                	pop    %r14
    7e84:	c3                   	ret
    7e85:	48 85 ff             	test   %rdi,%rdi
    7e88:	75 06                	jne    7e90 <_ZN5alloc7raw_vec19RawVec$LT$T$C$A$GT$7reserve21do_reserve_and_handle17h17e23f802211f85aE+0xb0>
    7e8a:	ff 15 d8 ef 04 00    	call   *0x4efd8(%rip)        # 56e68 <_GLOBAL_OFFSET_TABLE_+0x4d8>
    7e90:	48 8b 74 24 30       	mov    0x30(%rsp),%rsi
    7e95:	ff 15 6d f0 04 00    	call   *0x4f06d(%rip)        # 56f08 <_GLOBAL_OFFSET_TABLE_+0x578>
    7e9b:	0f 1f 44 00 00       	nopl   0x0(%rax,%rax,1)

0000000000007ea0 <_ZN4core9panicking13assert_failed17h0f61d1afa8ed3572E>:
    7ea0:	48 83 ec 18          	sub    $0x18,%rsp
    7ea4:	49 89 f1             	mov    %rsi,%r9
    7ea7:	48 89 7c 24 08       	mov    %rdi,0x8(%rsp)
    7eac:	48 8d 05 3d 02 04 00 	lea    0x4023d(%rip),%rax        # 480f0 <str.5+0x2c0>
    7eb3:	48 89 44 24 10       	mov    %rax,0x10(%rsp)
    7eb8:	48 8d 05 11 d7 04 00 	lea    0x4d711(%rip),%rax        # 555d0 <__do_global_dtors_aux_fini_array_entry+0x1288>
    7ebf:	48 89 04 24          	mov    %rax,(%rsp)
    7ec3:	48 8d 15 6e d6 04 00 	lea    0x4d66e(%rip),%rdx        # 55538 <__do_global_dtors_aux_fini_array_entry+0x11f0>
    7eca:	48 8d 74 24 08       	lea    0x8(%rsp),%rsi
    7ecf:	48 8d 4c 24 10       	lea    0x10(%rsp),%rcx
    7ed4:	bf 01 00 00 00       	mov    $0x1,%edi
    7ed9:	49 89 d0             	mov    %rdx,%r8
    7edc:	ff 15 8e ec 04 00    	call   *0x4ec8e(%rip)        # 56b70 <_GLOBAL_OFFSET_TABLE_+0x1e0>
    7ee2:	66 2e 0f 1f 84 00 00 	cs nopw 0x0(%rax,%rax,1)
    7ee9:	00 00 00 
    7eec:	0f 1f 40 00          	nopl   0x0(%rax)

0000000000007ef0 <_ZN5alloc7raw_vec19RawVec$LT$T$C$A$GT$7reserve21do_reserve_and_handle17h3515c458211bb246E>:
    7ef0:	41 56                	push   %r14
    7ef2:	53                   	push   %rbx
    7ef3:	48 83 ec 38          	sub    $0x38,%rsp
    7ef7:	48 01 d6             	add    %rdx,%rsi
    7efa:	0f 82 9a 00 00 00    	jb     7f9a <_ZN5alloc7raw_vec19RawVec$LT$T$C$A$GT$7reserve21do_reserve_and_handle17h3515c458211bb246E+0xaa>
    7f00:	48 89 fb             	mov    %rdi,%rbx
    7f03:	48 8b 07             	mov    (%rdi),%rax
    7f06:	48 8d 0c 00          	lea    (%rax,%rax,1),%rcx
    7f0a:	48 39 f1             	cmp    %rsi,%rcx
    7f0d:	48 0f 47 f1          	cmova  %rcx,%rsi
    7f11:	48 83 fe 09          	cmp    $0x9,%rsi
    7f15:	41 be 08 00 00 00    	mov    $0x8,%r14d
    7f1b:	4c 0f 43 f6          	cmovae %rsi,%r14
    7f1f:	4c 89 f6             	mov    %r14,%rsi
    7f22:	48 f7 d6             	not    %rsi
    7f25:	48 c1 ee 3f          	shr    $0x3f,%rsi
    7f29:	48 85 c0             	test   %rax,%rax
    7f2c:	74 19                	je     7f47 <_ZN5alloc7raw_vec19RawVec$LT$T$C$A$GT$7reserve21do_reserve_and_handle17h3515c458211bb246E+0x57>
    7f2e:	48 8b 4b 08          	mov    0x8(%rbx),%rcx
    7f32:	48 89 4c 24 08       	mov    %rcx,0x8(%rsp)
    7f37:	48 c7 44 24 10 01 00 	movq   $0x1,0x10(%rsp)
    7f3e:	00 00 
    7f40:	48 89 44 24 18       	mov    %rax,0x18(%rsp)
    7f45:	eb 09                	jmp    7f50 <_ZN5alloc7raw_vec19RawVec$LT$T$C$A$GT$7reserve21do_reserve_and_handle17h3515c458211bb246E+0x60>
    7f47:	48 c7 44 24 10 00 00 	movq   $0x0,0x10(%rsp)
    7f4e:	00 00 
    7f50:	48 8d 7c 24 20       	lea    0x20(%rsp),%rdi
    7f55:	48 8d 4c 24 08       	lea    0x8(%rsp),%rcx
    7f5a:	4c 89 f2             	mov    %r14,%rdx
    7f5d:	e8 4e 84 03 00       	call   403b0 <_ZN5alloc7raw_vec11finish_grow17hd676f52473ceec82E>
    7f62:	48 83 7c 24 20 00    	cmpq   $0x0,0x20(%rsp)
    7f68:	48 8b 7c 24 28       	mov    0x28(%rsp),%rdi
    7f6d:	74 17                	je     7f86 <_ZN5alloc7raw_vec19RawVec$LT$T$C$A$GT$7reserve21do_reserve_and_handle17h3515c458211bb246E+0x96>
    7f6f:	48 b8 01 00 00 00 00 	movabs $0x8000000000000001,%rax
    7f76:	00 00 80 
    7f79:	48 39 c7             	cmp    %rax,%rdi
    7f7c:	75 17                	jne    7f95 <_ZN5alloc7raw_vec19RawVec$LT$T$C$A$GT$7reserve21do_reserve_and_handle17h3515c458211bb246E+0xa5>
    7f7e:	48 83 c4 38          	add    $0x38,%rsp
    7f82:	5b                   	pop    %rbx
    7f83:	41 5e                	pop    %r14
    7f85:	c3                   	ret
    7f86:	48 89 7b 08          	mov    %rdi,0x8(%rbx)
    7f8a:	4c 89 33             	mov    %r14,(%rbx)
    7f8d:	48 83 c4 38          	add    $0x38,%rsp
    7f91:	5b                   	pop    %rbx
    7f92:	41 5e                	pop    %r14
    7f94:	c3                   	ret
    7f95:	48 85 ff             	test   %rdi,%rdi
    7f98:	75 06                	jne    7fa0 <_ZN5alloc7raw_vec19RawVec$LT$T$C$A$GT$7reserve21do_reserve_and_handle17h3515c458211bb246E+0xb0>
    7f9a:	ff 15 c8 ee 04 00    	call   *0x4eec8(%rip)        # 56e68 <_GLOBAL_OFFSET_TABLE_+0x4d8>
    7fa0:	48 8b 74 24 30       	mov    0x30(%rsp),%rsi
    7fa5:	ff 15 5d ef 04 00    	call   *0x4ef5d(%rip)        # 56f08 <_GLOBAL_OFFSET_TABLE_+0x578>
    7fab:	0f 1f 44 00 00       	nopl   0x0(%rax,%rax,1)

0000000000007fb0 <_ZN5alloc5alloc18handle_alloc_error17h2c7ef0ec0aede71dE>:
    7fb0:	50                   	push   %rax
    7fb1:	48 89 f8             	mov    %rdi,%rax
    7fb4:	48 89 f7             	mov    %rsi,%rdi
    7fb7:	48 89 c6             	mov    %rax,%rsi
    7fba:	ff 15 80 ed 04 00    	call   *0x4ed80(%rip)        # 56d40 <_GLOBAL_OFFSET_TABLE_+0x3b0>

0000000000007fc0 <_ZN4core4cell22panic_already_borrowed17hdd201e25f4949e6bE>:
    7fc0:	48 83 ec 48          	sub    $0x48,%rsp
    7fc4:	48 89 fe             	mov    %rdi,%rsi
    7fc7:	48 8d 44 24 07       	lea    0x7(%rsp),%rax
    7fcc:	48 89 44 24 08       	mov    %rax,0x8(%rsp)
    7fd1:	48 8d 05 58 90 03 00 	lea    0x39058(%rip),%rax        # 41030 <_ZN63_$LT$core..cell..BorrowMutError$u20$as$u20$core..fmt..Debug$GT$3fmt17h86c4491c92780a27E>
    7fd8:	48 89 44 24 10       	mov    %rax,0x10(%rsp)
    7fdd:	48 8d 05 1c e3 04 00 	lea    0x4e31c(%rip),%rax        # 56300 <__do_global_dtors_aux_fini_array_entry+0x1fb8>
    7fe4:	48 89 44 24 18       	mov    %rax,0x18(%rsp)
    7fe9:	48 c7 44 24 20 01 00 	movq   $0x1,0x20(%rsp)
    7ff0:	00 00 
    7ff2:	48 c7 44 24 38 00 00 	movq   $0x0,0x38(%rsp)
    7ff9:	00 00 
    7ffb:	48 8d 44 24 08       	lea    0x8(%rsp),%rax
    8000:	48 89 44 24 28       	mov    %rax,0x28(%rsp)
    8005:	48 c7 44 24 30 01 00 	movq   $0x1,0x30(%rsp)
    800c:	00 00 
    800e:	48 8d 7c 24 18       	lea    0x18(%rsp),%rdi
    8013:	ff 15 d7 e9 04 00    	call   *0x4e9d7(%rip)        # 569f0 <_GLOBAL_OFFSET_TABLE_+0x60>
    8019:	0f 1f 80 00 00 00 00 	nopl   0x0(%rax)

0000000000008020 <_ZN4core6option13unwrap_failed17hc897e5407aa5ad2dE>:
    8020:	50                   	push   %rax
    8021:	48 89 fa             	mov    %rdi,%rdx
    8024:	48 8d 3d 9c 2f 04 00 	lea    0x42f9c(%rip),%rdi        # 4afc7 <_ZN11miniz_oxide7inflate4core20REVERSED_BITS_LOOKUP17hcf248780d3be38d5E+0x12cf>
    802b:	be 2b 00 00 00       	mov    $0x2b,%esi
    8030:	ff 15 52 eb 04 00    	call   *0x4eb52(%rip)        # 56b88 <_GLOBAL_OFFSET_TABLE_+0x1f8>
    8036:	66 2e 0f 1f 84 00 00 	cs nopw 0x0(%rax,%rax,1)
    803d:	00 00 00 

0000000000008040 <_ZN4core6option13expect_failed17h35a856a8431dfc5fE>:
    8040:	48 83 ec 58          	sub    $0x58,%rsp
    8044:	48 89 7c 24 08       	mov    %rdi,0x8(%rsp)
    8049:	48 89 74 24 10       	mov    %rsi,0x10(%rsp)
    804e:	48 8d 44 24 08       	lea    0x8(%rsp),%rax
    8053:	48 89 44 24 18       	mov    %rax,0x18(%rsp)
    8058:	48 8d 05 41 d2 03 00 	lea    0x3d241(%rip),%rax        # 452a0 <_ZN44_$LT$$RF$T$u20$as$u20$core..fmt..Display$GT$3fmt17hc7644439e12064adE>
    805f:	48 89 44 24 20       	mov    %rax,0x20(%rsp)
    8064:	48 8d 05 a5 e2 04 00 	lea    0x4e2a5(%rip),%rax        # 56310 <__do_global_dtors_aux_fini_array_entry+0x1fc8>
    806b:	48 89 44 24 28       	mov    %rax,0x28(%rsp)
    8070:	48 c7 44 24 30 01 00 	movq   $0x1,0x30(%rsp)
    8077:	00 00 
    8079:	48 c7 44 24 48 00 00 	movq   $0x0,0x48(%rsp)
    8080:	00 00 
    8082:	48 8d 44 24 18       	lea    0x18(%rsp),%rax
    8087:	48 89 44 24 38       	mov    %rax,0x38(%rsp)
    808c:	48 c7 44 24 40 01 00 	movq   $0x1,0x40(%rsp)
    8093:	00 00 
    8095:	48 8d 7c 24 28       	lea    0x28(%rsp),%rdi
    809a:	48 89 d6             	mov    %rdx,%rsi
    809d:	ff 15 4d e9 04 00    	call   *0x4e94d(%rip)        # 569f0 <_GLOBAL_OFFSET_TABLE_+0x60>
    80a3:	66 2e 0f 1f 84 00 00 	cs nopw 0x0(%rax,%rax,1)
    80aa:	00 00 00 
    80ad:	0f 1f 00             	nopl   (%rax)

00000000000080b0 <_ZN4core9panicking9panic_fmt17h4707f51af56598f7E>:
    80b0:	48 83 ec 28          	sub    $0x28,%rsp
    80b4:	48 8d 05 75 2e 04 00 	lea    0x42e75(%rip),%rax        # 4af30 <_ZN11miniz_oxide7inflate4core20REVERSED_BITS_LOOKUP17hcf248780d3be38d5E+0x1238>
    80bb:	48 89 04 24          	mov    %rax,(%rsp)
    80bf:	48 8d 05 8a e2 04 00 	lea    0x4e28a(%rip),%rax        # 56350 <__do_global_dtors_aux_fini_array_entry+0x2008>
    80c6:	48 89 44 24 08       	mov    %rax,0x8(%rsp)
    80cb:	48 89 7c 24 10       	mov    %rdi,0x10(%rsp)
    80d0:	48 89 74 24 18       	mov    %rsi,0x18(%rsp)
    80d5:	66 c7 44 24 20 01 00 	movw   $0x1,0x20(%rsp)
    80dc:	48 89 e7             	mov    %rsp,%rdi
    80df:	ff 15 e3 ea 04 00    	call   *0x4eae3(%rip)        # 56bc8 <_GLOBAL_OFFSET_TABLE_+0x238>
    80e5:	66 2e 0f 1f 84 00 00 	cs nopw 0x0(%rax,%rax,1)
    80ec:	00 00 00 
    80ef:	90                   	nop

00000000000080f0 <_ZN4core9panicking18panic_nounwind_fmt17hd4ad41748ead0ba0E>:
    80f0:	48 83 ec 68          	sub    $0x68,%rsp
    80f4:	0f 10 07             	movups (%rdi),%xmm0
    80f7:	0f 10 4f 10          	movups 0x10(%rdi),%xmm1
    80fb:	0f 10 57 20          	movups 0x20(%rdi),%xmm2
    80ff:	0f 29 54 24 50       	movaps %xmm2,0x50(%rsp)
    8104:	0f 29 4c 24 40       	movaps %xmm1,0x40(%rsp)
    8109:	0f 29 44 24 30       	movaps %xmm0,0x30(%rsp)
    810e:	48 8d 05 1b 2e 04 00 	lea    0x42e1b(%rip),%rax        # 4af30 <_ZN11miniz_oxide7inflate4core20REVERSED_BITS_LOOKUP17hcf248780d3be38d5E+0x1238>
    8115:	48 89 44 24 08       	mov    %rax,0x8(%rsp)
    811a:	48 8d 05 2f e2 04 00 	lea    0x4e22f(%rip),%rax        # 56350 <__do_global_dtors_aux_fini_array_entry+0x2008>
    8121:	48 89 44 24 10       	mov    %rax,0x10(%rsp)
    8126:	48 8d 44 24 30       	lea    0x30(%rsp),%rax
    812b:	48 89 44 24 18       	mov    %rax,0x18(%rsp)
    8130:	48 89 54 24 20       	mov    %rdx,0x20(%rsp)
    8135:	c6 44 24 28 00       	movb   $0x0,0x28(%rsp)
    813a:	40 88 74 24 29       	mov    %sil,0x29(%rsp)
    813f:	48 8d 7c 24 08       	lea    0x8(%rsp),%rdi
    8144:	ff 15 7e ea 04 00    	call   *0x4ea7e(%rip)        # 56bc8 <_GLOBAL_OFFSET_TABLE_+0x238>
    814a:	0f 0b                	ud2
    814c:	ff 15 e6 ea 04 00    	call   *0x4eae6(%rip)        # 56c38 <_GLOBAL_OFFSET_TABLE_+0x2a8>
    8152:	66 2e 0f 1f 84 00 00 	cs nopw 0x0(%rax,%rax,1)
    8159:	00 00 00 
    815c:	0f 1f 40 00          	nopl   0x0(%rax)

0000000000008160 <_ZN4core9panicking5panic17h4f621f8ad2cf9687E>:
    8160:	48 83 ec 48          	sub    $0x48,%rsp
    8164:	48 89 7c 24 08       	mov    %rdi,0x8(%rsp)
    8169:	48 89 74 24 10       	mov    %rsi,0x10(%rsp)
    816e:	48 8d 44 24 08       	lea    0x8(%rsp),%rax
    8173:	48 89 44 24 18       	mov    %rax,0x18(%rsp)
    8178:	48 c7 44 24 20 01 00 	movq   $0x1,0x20(%rsp)
    817f:	00 00 
    8181:	48 8d 05 a8 2d 04 00 	lea    0x42da8(%rip),%rax        # 4af30 <_ZN11miniz_oxide7inflate4core20REVERSED_BITS_LOOKUP17hcf248780d3be38d5E+0x1238>
    8188:	48 89 44 24 28       	mov    %rax,0x28(%rsp)
    818d:	0f 57 c0             	xorps  %xmm0,%xmm0
    8190:	0f 11 44 24 30       	movups %xmm0,0x30(%rsp)
    8195:	48 8d 7c 24 18       	lea    0x18(%rsp),%rdi
    819a:	48 89 d6             	mov    %rdx,%rsi
    819d:	ff 15 4d e8 04 00    	call   *0x4e84d(%rip)        # 569f0 <_GLOBAL_OFFSET_TABLE_+0x60>
    81a3:	66 2e 0f 1f 84 00 00 	cs nopw 0x0(%rax,%rax,1)
    81aa:	00 00 00 
    81ad:	0f 1f 00             	nopl   (%rax)

00000000000081b0 <_ZN4core9panicking14panic_nounwind17h256bb68b960987c7E>:
    81b0:	48 83 ec 48          	sub    $0x48,%rsp
    81b4:	48 89 7c 24 08       	mov    %rdi,0x8(%rsp)
    81b9:	48 89 74 24 10       	mov    %rsi,0x10(%rsp)
    81be:	48 8d 44 24 08       	lea    0x8(%rsp),%rax
    81c3:	48 89 44 24 18       	mov    %rax,0x18(%rsp)
    81c8:	48 c7 44 24 20 01 00 	movq   $0x1,0x20(%rsp)
    81cf:	00 00 
    81d1:	48 8d 05 58 2d 04 00 	lea    0x42d58(%rip),%rax        # 4af30 <_ZN11miniz_oxide7inflate4core20REVERSED_BITS_LOOKUP17hcf248780d3be38d5E+0x1238>
    81d8:	48 89 44 24 28       	mov    %rax,0x28(%rsp)
    81dd:	0f 57 c0             	xorps  %xmm0,%xmm0
    81e0:	0f 11 44 24 30       	movups %xmm0,0x30(%rsp)
    81e5:	48 8d 15 84 e1 04 00 	lea    0x4e184(%rip),%rdx        # 56370 <__do_global_dtors_aux_fini_array_entry+0x2028>
    81ec:	48 8d 7c 24 18       	lea    0x18(%rsp),%rdi
    81f1:	31 f6                	xor    %esi,%esi
    81f3:	ff 15 f7 ed 04 00    	call   *0x4edf7(%rip)        # 56ff0 <_GLOBAL_OFFSET_TABLE_+0x660>
    81f9:	0f 1f 80 00 00 00 00 	nopl   0x0(%rax)

0000000000008200 <_ZN4core9panicking26panic_nounwind_nobacktrace17hca27862e599708f3E>:
    8200:	48 83 ec 48          	sub    $0x48,%rsp
    8204:	48 89 7c 24 08       	mov    %rdi,0x8(%rsp)
    8209:	48 89 74 24 10       	mov    %rsi,0x10(%rsp)
    820e:	48 8d 44 24 08       	lea    0x8(%rsp),%rax
    8213:	48 89 44 24 18       	mov    %rax,0x18(%rsp)
    8218:	48 c7 44 24 20 01 00 	movq   $0x1,0x20(%rsp)
    821f:	00 00 
    8221:	48 8d 05 08 2d 04 00 	lea    0x42d08(%rip),%rax        # 4af30 <_ZN11miniz_oxide7inflate4core20REVERSED_BITS_LOOKUP17hcf248780d3be38d5E+0x1238>
    8228:	48 89 44 24 28       	mov    %rax,0x28(%rsp)
    822d:	0f 57 c0             	xorps  %xmm0,%xmm0
    8230:	0f 11 44 24 30       	movups %xmm0,0x30(%rsp)
    8235:	48 8d 15 4c e1 04 00 	lea    0x4e14c(%rip),%rdx        # 56388 <__do_global_dtors_aux_fini_array_entry+0x2040>
    823c:	48 8d 7c 24 18       	lea    0x18(%rsp),%rdi
    8241:	be 01 00 00 00       	mov    $0x1,%esi
    8246:	ff 15 a4 ed 04 00    	call   *0x4eda4(%rip)        # 56ff0 <_GLOBAL_OFFSET_TABLE_+0x660>
    824c:	0f 1f 40 00          	nopl   0x0(%rax)

0000000000008250 <_ZN4core9panicking18panic_bounds_check17h9c7d9e2f7c954a8bE>:
    8250:	48 83 ec 68          	sub    $0x68,%rsp
    8254:	48 89 7c 24 08       	mov    %rdi,0x8(%rsp)
    8259:	48 89 74 24 10       	mov    %rsi,0x10(%rsp)
    825e:	48 8d 44 24 10       	lea    0x10(%rsp),%rax
    8263:	48 89 44 24 18       	mov    %rax,0x18(%rsp)
    8268:	48 8d 05 11 cf 03 00 	lea    0x3cf11(%rip),%rax        # 45180 <_ZN4core3fmt3num3imp52_$LT$impl$u20$core..fmt..Display$u20$for$u20$u64$GT$3fmt17h3158e3dca50dd8f0E>
    826f:	48 89 44 24 20       	mov    %rax,0x20(%rsp)
    8274:	48 8d 4c 24 08       	lea    0x8(%rsp),%rcx
    8279:	48 89 4c 24 28       	mov    %rcx,0x28(%rsp)
    827e:	48 89 44 24 30       	mov    %rax,0x30(%rsp)
    8283:	48 8d 05 16 e1 04 00 	lea    0x4e116(%rip),%rax        # 563a0 <__do_global_dtors_aux_fini_array_entry+0x2058>
    828a:	48 89 44 24 38       	mov    %rax,0x38(%rsp)
    828f:	48 c7 44 24 40 02 00 	movq   $0x2,0x40(%rsp)
    8296:	00 00 
    8298:	48 c7 44 24 58 00 00 	movq   $0x0,0x58(%rsp)
    829f:	00 00 
    82a1:	48 8d 44 24 18       	lea    0x18(%rsp),%rax
    82a6:	48 89 44 24 48       	mov    %rax,0x48(%rsp)
    82ab:	48 c7 44 24 50 02 00 	movq   $0x2,0x50(%rsp)
    82b2:	00 00 
    82b4:	48 8d 7c 24 38       	lea    0x38(%rsp),%rdi
    82b9:	48 89 d6             	mov    %rdx,%rsi
    82bc:	ff 15 2e e7 04 00    	call   *0x4e72e(%rip)        # 569f0 <_GLOBAL_OFFSET_TABLE_+0x60>
    82c2:	66 2e 0f 1f 84 00 00 	cs nopw 0x0(%rax,%rax,1)
    82c9:	00 00 00 
    82cc:	0f 1f 40 00          	nopl   0x0(%rax)

00000000000082d0 <_ZN4core9panicking19panic_cannot_unwind17h818de0c87e57486bE>:
    82d0:	50                   	push   %rax
    82d1:	48 8d 3d 57 2d 04 00 	lea    0x42d57(%rip),%rdi        # 4b02f <_ZN11miniz_oxide7inflate4core20REVERSED_BITS_LOOKUP17hcf248780d3be38d5E+0x1337>
    82d8:	be 26 00 00 00       	mov    $0x26,%esi
    82dd:	ff 15 a5 eb 04 00    	call   *0x4eba5(%rip)        # 56e88 <_GLOBAL_OFFSET_TABLE_+0x4f8>
    82e3:	66 2e 0f 1f 84 00 00 	cs nopw 0x0(%rax,%rax,1)
    82ea:	00 00 00 
    82ed:	0f 1f 00             	nopl   (%rax)

00000000000082f0 <_ZN4core9panicking16panic_in_cleanup17h68a3ed610afa7bb3E>:
    82f0:	50                   	push   %rax
    82f1:	48 8d 3d 5d 2d 04 00 	lea    0x42d5d(%rip),%rdi        # 4b055 <_ZN11miniz_oxide7inflate4core20REVERSED_BITS_LOOKUP17hcf248780d3be38d5E+0x135d>
    82f8:	be 24 00 00 00       	mov    $0x24,%esi
    82fd:	ff 15 6d ec 04 00    	call   *0x4ec6d(%rip)        # 56f70 <_GLOBAL_OFFSET_TABLE_+0x5e0>
    8303:	66 2e 0f 1f 84 00 00 	cs nopw 0x0(%rax,%rax,1)
    830a:	00 00 00 
    830d:	0f 1f 00             	nopl   (%rax)

0000000000008310 <_ZN4core9panicking19assert_failed_inner17h94a770f11f22cff8E>:
    8310:	48 81 ec d8 00 00 00 	sub    $0xd8,%rsp
    8317:	48 89 74 24 10       	mov    %rsi,0x10(%rsp)
    831c:	48 89 54 24 18       	mov    %rdx,0x18(%rsp)
    8321:	48 89 4c 24 20       	mov    %rcx,0x20(%rsp)
    8326:	4c 89 44 24 28       	mov    %r8,0x28(%rsp)
    832b:	40 84 ff             	test   %dil,%dil
    832e:	74 16                	je     8346 <_ZN4core9panicking19assert_failed_inner17h94a770f11f22cff8E+0x36>
    8330:	40 0f b6 c7          	movzbl %dil,%eax
    8334:	83 f8 01             	cmp    $0x1,%eax
    8337:	0f 85 ae 00 00 00    	jne    83eb <_ZN4core9panicking19assert_failed_inner17h94a770f11f22cff8E+0xdb>
    833d:	48 8d 05 37 2d 04 00 	lea    0x42d37(%rip),%rax        # 4b07b <_ZN11miniz_oxide7inflate4core20REVERSED_BITS_LOOKUP17hcf248780d3be38d5E+0x1383>
    8344:	eb 07                	jmp    834d <_ZN4core9panicking19assert_failed_inner17h94a770f11f22cff8E+0x3d>
    8346:	48 8d 05 2c 2d 04 00 	lea    0x42d2c(%rip),%rax        # 4b079 <_ZN11miniz_oxide7inflate4core20REVERSED_BITS_LOOKUP17hcf248780d3be38d5E+0x1381>
    834d:	48 89 04 24          	mov    %rax,(%rsp)
    8351:	b8 02 00 00 00       	mov    $0x2,%eax
    8356:	48 8b b4 24 e0 00 00 	mov    0xe0(%rsp),%rsi
    835d:	00 
    835e:	48 89 44 24 08       	mov    %rax,0x8(%rsp)
    8363:	49 83 39 00          	cmpq   $0x0,(%r9)
    8367:	0f 85 a5 00 00 00    	jne    8412 <_ZN4core9panicking19assert_failed_inner17h94a770f11f22cff8E+0x102>
    836d:	48 89 e0             	mov    %rsp,%rax
    8370:	48 89 44 24 30       	mov    %rax,0x30(%rsp)
    8375:	48 8d 05 24 cf 03 00 	lea    0x3cf24(%rip),%rax        # 452a0 <_ZN44_$LT$$RF$T$u20$as$u20$core..fmt..Display$GT$3fmt17hc7644439e12064adE>
    837c:	48 89 44 24 38       	mov    %rax,0x38(%rsp)
    8381:	48 8d 44 24 10       	lea    0x10(%rsp),%rax
    8386:	48 89 44 24 40       	mov    %rax,0x40(%rsp)
    838b:	48 8d 05 fe ce 03 00 	lea    0x3cefe(%rip),%rax        # 45290 <_ZN42_$LT$$RF$T$u20$as$u20$core..fmt..Debug$GT$3fmt17h20966a18e52c0731E>
    8392:	48 89 44 24 48       	mov    %rax,0x48(%rsp)
    8397:	48 8d 4c 24 20       	lea    0x20(%rsp),%rcx
    839c:	48 89 4c 24 50       	mov    %rcx,0x50(%rsp)
    83a1:	48 89 44 24 58       	mov    %rax,0x58(%rsp)
    83a6:	48 8d 05 13 e0 04 00 	lea    0x4e013(%rip),%rax        # 563c0 <__do_global_dtors_aux_fini_array_entry+0x2078>
    83ad:	48 89 44 24 70       	mov    %rax,0x70(%rsp)
    83b2:	48 c7 44 24 78 03 00 	movq   $0x3,0x78(%rsp)
    83b9:	00 00 
    83bb:	48 c7 84 24 90 00 00 	movq   $0x0,0x90(%rsp)
    83c2:	00 00 00 00 00 
    83c7:	48 8d 44 24 30       	lea    0x30(%rsp),%rax
    83cc:	48 89 84 24 80 00 00 	mov    %rax,0x80(%rsp)
    83d3:	00 
    83d4:	48 c7 84 24 88 00 00 	movq   $0x3,0x88(%rsp)
    83db:	00 03 00 00 00 
    83e0:	48 8d 7c 24 70       	lea    0x70(%rsp),%rdi
    83e5:	ff 15 05 e6 04 00    	call   *0x4e605(%rip)        # 569f0 <_GLOBAL_OFFSET_TABLE_+0x60>
    83eb:	48 8d 05 8b 2c 04 00 	lea    0x42c8b(%rip),%rax        # 4b07d <_ZN11miniz_oxide7inflate4core20REVERSED_BITS_LOOKUP17hcf248780d3be38d5E+0x1385>
    83f2:	48 89 04 24          	mov    %rax,(%rsp)
    83f6:	b8 07 00 00 00       	mov    $0x7,%eax
    83fb:	48 8b b4 24 e0 00 00 	mov    0xe0(%rsp),%rsi
    8402:	00 
    8403:	48 89 44 24 08       	mov    %rax,0x8(%rsp)
    8408:	49 83 39 00          	cmpq   $0x0,(%r9)
    840c:	0f 84 5b ff ff ff    	je     836d <_ZN4core9panicking19assert_failed_inner17h94a770f11f22cff8E+0x5d>
    8412:	41 0f 10 01          	movups (%r9),%xmm0
    8416:	41 0f 10 49 10       	movups 0x10(%r9),%xmm1
    841b:	41 0f 10 51 20       	movups 0x20(%r9),%xmm2
    8420:	0f 29 94 24 c0 00 00 	movaps %xmm2,0xc0(%rsp)
    8427:	00 
    8428:	0f 29 8c 24 b0 00 00 	movaps %xmm1,0xb0(%rsp)
    842f:	00 
    8430:	0f 29 84 24 a0 00 00 	movaps %xmm0,0xa0(%rsp)
    8437:	00 
    8438:	48 89 e0             	mov    %rsp,%rax
    843b:	48 89 44 24 30       	mov    %rax,0x30(%rsp)
    8440:	48 8d 05 59 ce 03 00 	lea    0x3ce59(%rip),%rax        # 452a0 <_ZN44_$LT$$RF$T$u20$as$u20$core..fmt..Display$GT$3fmt17hc7644439e12064adE>
    8447:	48 89 44 24 38       	mov    %rax,0x38(%rsp)
    844c:	48 8d 84 24 a0 00 00 	lea    0xa0(%rsp),%rax
    8453:	00 
    8454:	48 89 44 24 40       	mov    %rax,0x40(%rsp)
    8459:	48 8d 05 90 99 03 00 	lea    0x39990(%rip),%rax        # 41df0 <_ZN59_$LT$core..fmt..Arguments$u20$as$u20$core..fmt..Display$GT$3fmt17h93659650107c510aE>
    8460:	48 89 44 24 48       	mov    %rax,0x48(%rsp)
    8465:	48 8d 44 24 10       	lea    0x10(%rsp),%rax
    846a:	48 89 44 24 50       	mov    %rax,0x50(%rsp)
    846f:	48 8d 05 1a ce 03 00 	lea    0x3ce1a(%rip),%rax        # 45290 <_ZN42_$LT$$RF$T$u20$as$u20$core..fmt..Debug$GT$3fmt17h20966a18e52c0731E>
    8476:	48 89 44 24 58       	mov    %rax,0x58(%rsp)
    847b:	48 8d 4c 24 20       	lea    0x20(%rsp),%rcx
    8480:	48 89 4c 24 60       	mov    %rcx,0x60(%rsp)
    8485:	48 89 44 24 68       	mov    %rax,0x68(%rsp)
    848a:	48 8d 05 5f df 04 00 	lea    0x4df5f(%rip),%rax        # 563f0 <__do_global_dtors_aux_fini_array_entry+0x20a8>
    8491:	48 89 44 24 70       	mov    %rax,0x70(%rsp)
    8496:	48 c7 44 24 78 04 00 	movq   $0x4,0x78(%rsp)
    849d:	00 00 
    849f:	48 c7 84 24 90 00 00 	movq   $0x0,0x90(%rsp)
    84a6:	00 00 00 00 00 
    84ab:	48 8d 44 24 30       	lea    0x30(%rsp),%rax
    84b0:	48 89 84 24 80 00 00 	mov    %rax,0x80(%rsp)
    84b7:	00 
    84b8:	48 c7 84 24 88 00 00 	movq   $0x4,0x88(%rsp)
    84bf:	00 04 00 00 00 
    84c4:	48 8d 7c 24 70       	lea    0x70(%rsp),%rdi
    84c9:	ff 15 21 e5 04 00    	call   *0x4e521(%rip)        # 569f0 <_GLOBAL_OFFSET_TABLE_+0x60>
    84cf:	90                   	nop

00000000000084d0 <_ZN4core6result13unwrap_failed17h252c292c1db352c0E>:
    84d0:	48 83 ec 78          	sub    $0x78,%rsp
    84d4:	48 89 7c 24 08       	mov    %rdi,0x8(%rsp)
    84d9:	48 89 74 24 10       	mov    %rsi,0x10(%rsp)
    84de:	48 89 54 24 18       	mov    %rdx,0x18(%rsp)
    84e3:	48 89 4c 24 20       	mov    %rcx,0x20(%rsp)
    84e8:	48 8d 44 24 08       	lea    0x8(%rsp),%rax
    84ed:	48 89 44 24 28       	mov    %rax,0x28(%rsp)
    84f2:	48 8d 05 a7 cd 03 00 	lea    0x3cda7(%rip),%rax        # 452a0 <_ZN44_$LT$$RF$T$u20$as$u20$core..fmt..Display$GT$3fmt17hc7644439e12064adE>
    84f9:	48 89 44 24 30       	mov    %rax,0x30(%rsp)
    84fe:	48 8d 44 24 18       	lea    0x18(%rsp),%rax
    8503:	48 89 44 24 38       	mov    %rax,0x38(%rsp)
    8508:	48 8d 05 81 cd 03 00 	lea    0x3cd81(%rip),%rax        # 45290 <_ZN42_$LT$$RF$T$u20$as$u20$core..fmt..Debug$GT$3fmt17h20966a18e52c0731E>
    850f:	48 89 44 24 40       	mov    %rax,0x40(%rsp)
    8514:	48 8d 05 15 df 04 00 	lea    0x4df15(%rip),%rax        # 56430 <__do_global_dtors_aux_fini_array_entry+0x20e8>
    851b:	48 89 44 24 48       	mov    %rax,0x48(%rsp)
    8520:	48 c7 44 24 50 02 00 	movq   $0x2,0x50(%rsp)
    8527:	00 00 
    8529:	48 c7 44 24 68 00 00 	movq   $0x0,0x68(%rsp)
    8530:	00 00 
    8532:	48 8d 44 24 28       	lea    0x28(%rsp),%rax
    8537:	48 89 44 24 58       	mov    %rax,0x58(%rsp)
    853c:	48 c7 44 24 60 02 00 	movq   $0x2,0x60(%rsp)
    8543:	00 00 
    8545:	48 8d 7c 24 48       	lea    0x48(%rsp),%rdi
    854a:	4c 89 c6             	mov    %r8,%rsi
    854d:	ff 15 9d e4 04 00    	call   *0x4e49d(%rip)        # 569f0 <_GLOBAL_OFFSET_TABLE_+0x60>
    8553:	66 2e 0f 1f 84 00 00 	cs nopw 0x0(%rax,%rax,1)
    855a:	00 00 00 
    855d:	0f 1f 00             	nopl   (%rax)

0000000000008560 <_ZN4core5slice5index26slice_start_index_len_fail17h9758829492480ba4E>:
    8560:	48 83 ec 68          	sub    $0x68,%rsp
    8564:	48 89 7c 24 08       	mov    %rdi,0x8(%rsp)
    8569:	48 89 74 24 10       	mov    %rsi,0x10(%rsp)
    856e:	48 8d 44 24 08       	lea    0x8(%rsp),%rax
    8573:	48 89 44 24 18       	mov    %rax,0x18(%rsp)
    8578:	48 8d 05 01 cc 03 00 	lea    0x3cc01(%rip),%rax        # 45180 <_ZN4core3fmt3num3imp52_$LT$impl$u20$core..fmt..Display$u20$for$u20$u64$GT$3fmt17h3158e3dca50dd8f0E>
    857f:	48 89 44 24 20       	mov    %rax,0x20(%rsp)
    8584:	48 8d 4c 24 10       	lea    0x10(%rsp),%rcx
    8589:	48 89 4c 24 28       	mov    %rcx,0x28(%rsp)
    858e:	48 89 44 24 30       	mov    %rax,0x30(%rsp)
    8593:	48 8d 05 36 df 04 00 	lea    0x4df36(%rip),%rax        # 564d0 <_ZN4core3fmt2rt12USIZE_MARKER17h010b90d6f2e4f6d4E+0x38>
    859a:	48 89 44 24 38       	mov    %rax,0x38(%rsp)
    859f:	48 c7 44 24 40 02 00 	movq   $0x2,0x40(%rsp)
    85a6:	00 00 
    85a8:	48 c7 44 24 58 00 00 	movq   $0x0,0x58(%rsp)
    85af:	00 00 
    85b1:	48 8d 44 24 18       	lea    0x18(%rsp),%rax
    85b6:	48 89 44 24 48       	mov    %rax,0x48(%rsp)
    85bb:	48 c7 44 24 50 02 00 	movq   $0x2,0x50(%rsp)
    85c2:	00 00 
    85c4:	48 8d 7c 24 38       	lea    0x38(%rsp),%rdi
    85c9:	48 89 d6             	mov    %rdx,%rsi
    85cc:	ff 15 1e e4 04 00    	call   *0x4e41e(%rip)        # 569f0 <_GLOBAL_OFFSET_TABLE_+0x60>
    85d2:	66 2e 0f 1f 84 00 00 	cs nopw 0x0(%rax,%rax,1)
    85d9:	00 00 00 
    85dc:	0f 1f 40 00          	nopl   0x0(%rax)

00000000000085e0 <_ZN4core5slice5index24slice_end_index_len_fail17h8251bcb357c0a985E>:
    85e0:	48 83 ec 68          	sub    $0x68,%rsp
    85e4:	48 89 7c 24 08       	mov    %rdi,0x8(%rsp)
    85e9:	48 89 74 24 10       	mov    %rsi,0x10(%rsp)
    85ee:	48 8d 44 24 08       	lea    0x8(%rsp),%rax
    85f3:	48 89 44 24 18       	mov    %rax,0x18(%rsp)
    85f8:	48 8d 05 81 cb 03 00 	lea    0x3cb81(%rip),%rax        # 45180 <_ZN4core3fmt3num3imp52_$LT$impl$u20$core..fmt..Display$u20$for$u20$u64$GT$3fmt17h3158e3dca50dd8f0E>
    85ff:	48 89 44 24 20       	mov    %rax,0x20(%rsp)
    8604:	48 8d 4c 24 10       	lea    0x10(%rsp),%rcx
    8609:	48 89 4c 24 28       	mov    %rcx,0x28(%rsp)
    860e:	48 89 44 24 30       	mov    %rax,0x30(%rsp)
    8613:	48 8d 05 d6 de 04 00 	lea    0x4ded6(%rip),%rax        # 564f0 <_ZN4core3fmt2rt12USIZE_MARKER17h010b90d6f2e4f6d4E+0x58>
    861a:	48 89 44 24 38       	mov    %rax,0x38(%rsp)
    861f:	48 c7 44 24 40 02 00 	movq   $0x2,0x40(%rsp)
    8626:	00 00 
    8628:	48 c7 44 24 58 00 00 	movq   $0x0,0x58(%rsp)
    862f:	00 00 
    8631:	48 8d 44 24 18       	lea    0x18(%rsp),%rax
    8636:	48 89 44 24 48       	mov    %rax,0x48(%rsp)
    863b:	48 c7 44 24 50 02 00 	movq   $0x2,0x50(%rsp)
    8642:	00 00 
    8644:	48 8d 7c 24 38       	lea    0x38(%rsp),%rdi
    8649:	48 89 d6             	mov    %rdx,%rsi
    864c:	ff 15 9e e3 04 00    	call   *0x4e39e(%rip)        # 569f0 <_GLOBAL_OFFSET_TABLE_+0x60>
    8652:	66 2e 0f 1f 84 00 00 	cs nopw 0x0(%rax,%rax,1)
    8659:	00 00 00 
    865c:	0f 1f 40 00          	nopl   0x0(%rax)

0000000000008660 <_ZN4core5slice5index22slice_index_order_fail17he80ae96656d282eaE>:
    8660:	48 83 ec 68          	sub    $0x68,%rsp
    8664:	48 89 7c 24 08       	mov    %rdi,0x8(%rsp)
    8669:	48 89 74 24 10       	mov    %rsi,0x10(%rsp)
    866e:	48 8d 44 24 08       	lea    0x8(%rsp),%rax
    8673:	48 89 44 24 18       	mov    %rax,0x18(%rsp)
    8678:	48 8d 05 01 cb 03 00 	lea    0x3cb01(%rip),%rax        # 45180 <_ZN4core3fmt3num3imp52_$LT$impl$u20$core..fmt..Display$u20$for$u20$u64$GT$3fmt17h3158e3dca50dd8f0E>
    867f:	48 89 44 24 20       	mov    %rax,0x20(%rsp)
    8684:	48 8d 4c 24 10       	lea    0x10(%rsp),%rcx
    8689:	48 89 4c 24 28       	mov    %rcx,0x28(%rsp)
    868e:	48 89 44 24 30       	mov    %rax,0x30(%rsp)
    8693:	48 8d 05 76 de 04 00 	lea    0x4de76(%rip),%rax        # 56510 <_ZN4core3fmt2rt12USIZE_MARKER17h010b90d6f2e4f6d4E+0x78>
    869a:	48 89 44 24 38       	mov    %rax,0x38(%rsp)
    869f:	48 c7 44 24 40 02 00 	movq   $0x2,0x40(%rsp)
    86a6:	00 00 
    86a8:	48 c7 44 24 58 00 00 	movq   $0x0,0x58(%rsp)
    86af:	00 00 
    86b1:	48 8d 44 24 18       	lea    0x18(%rsp),%rax
    86b6:	48 89 44 24 48       	mov    %rax,0x48(%rsp)
    86bb:	48 c7 44 24 50 02 00 	movq   $0x2,0x50(%rsp)
    86c2:	00 00 
    86c4:	48 8d 7c 24 38       	lea    0x38(%rsp),%rdi
    86c9:	48 89 d6             	mov    %rdx,%rsi
    86cc:	ff 15 1e e3 04 00    	call   *0x4e31e(%rip)        # 569f0 <_GLOBAL_OFFSET_TABLE_+0x60>
    86d2:	66 2e 0f 1f 84 00 00 	cs nopw 0x0(%rax,%rax,1)
    86d9:	00 00 00 
    86dc:	0f 1f 40 00          	nopl   0x0(%rax)

00000000000086e0 <_ZN4core5slice5index29slice_end_index_overflow_fail17he61f38c0850ec893E>:
    86e0:	48 83 ec 38          	sub    $0x38,%rsp
    86e4:	48 89 fe             	mov    %rdi,%rsi
    86e7:	48 8d 05 42 de 04 00 	lea    0x4de42(%rip),%rax        # 56530 <_ZN4core3fmt2rt12USIZE_MARKER17h010b90d6f2e4f6d4E+0x98>
    86ee:	48 89 44 24 08       	mov    %rax,0x8(%rsp)
    86f3:	48 c7 44 24 10 01 00 	movq   $0x1,0x10(%rsp)
    86fa:	00 00 
    86fc:	48 8d 05 2d 28 04 00 	lea    0x4282d(%rip),%rax        # 4af30 <_ZN11miniz_oxide7inflate4core20REVERSED_BITS_LOOKUP17hcf248780d3be38d5E+0x1238>
    8703:	48 89 44 24 18       	mov    %rax,0x18(%rsp)
    8708:	0f 57 c0             	xorps  %xmm0,%xmm0
    870b:	0f 11 44 24 20       	movups %xmm0,0x20(%rsp)
    8710:	48 8d 7c 24 08       	lea    0x8(%rsp),%rdi
    8715:	ff 15 d5 e2 04 00    	call   *0x4e2d5(%rip)        # 569f0 <_GLOBAL_OFFSET_TABLE_+0x60>
    871b:	0f 1f 44 00 00       	nopl   0x0(%rax,%rax,1)

0000000000008720 <_ZN4core5slice29_$LT$impl$u20$$u5b$T$u5d$$GT$15copy_from_slice17len_mismatch_fail17h2de6398d1b5af34fE>:
    8720:	48 83 ec 68          	sub    $0x68,%rsp
    8724:	48 89 7c 24 08       	mov    %rdi,0x8(%rsp)
    8729:	48 89 74 24 10       	mov    %rsi,0x10(%rsp)
    872e:	48 8d 44 24 10       	lea    0x10(%rsp),%rax
    8733:	48 89 44 24 18       	mov    %rax,0x18(%rsp)
    8738:	48 8d 05 41 ca 03 00 	lea    0x3ca41(%rip),%rax        # 45180 <_ZN4core3fmt3num3imp52_$LT$impl$u20$core..fmt..Display$u20$for$u20$u64$GT$3fmt17h3158e3dca50dd8f0E>
    873f:	48 89 44 24 20       	mov    %rax,0x20(%rsp)
    8744:	48 8d 4c 24 08       	lea    0x8(%rsp),%rcx
    8749:	48 89 4c 24 28       	mov    %rcx,0x28(%rsp)
    874e:	48 89 44 24 30       	mov    %rax,0x30(%rsp)
    8753:	48 8d 05 e6 dd 04 00 	lea    0x4dde6(%rip),%rax        # 56540 <_ZN4core3fmt2rt12USIZE_MARKER17h010b90d6f2e4f6d4E+0xa8>
    875a:	48 89 44 24 38       	mov    %rax,0x38(%rsp)
    875f:	48 c7 44 24 40 03 00 	movq   $0x3,0x40(%rsp)
    8766:	00 00 
    8768:	48 c7 44 24 58 00 00 	movq   $0x0,0x58(%rsp)
    876f:	00 00 
    8771:	48 8d 44 24 18       	lea    0x18(%rsp),%rax
    8776:	48 89 44 24 48       	mov    %rax,0x48(%rsp)
    877b:	48 c7 44 24 50 02 00 	movq   $0x2,0x50(%rsp)
    8782:	00 00 
    8784:	48 8d 7c 24 38       	lea    0x38(%rsp),%rdi
    8789:	48 89 d6             	mov    %rdx,%rsi
    878c:	ff 15 5e e2 04 00    	call   *0x4e25e(%rip)        # 569f0 <_GLOBAL_OFFSET_TABLE_+0x60>
    8792:	66 2e 0f 1f 84 00 00 	cs nopw 0x0(%rax,%rax,1)
    8799:	00 00 00 
    879c:	0f 1f 40 00          	nopl   0x0(%rax)

00000000000087a0 <_ZN4core3str6traits23str_index_overflow_fail17h2e43efa962ca141aE>:
    87a0:	48 83 ec 38          	sub    $0x38,%rsp
    87a4:	48 89 fe             	mov    %rdi,%rsi
    87a7:	48 8d 05 c2 dd 04 00 	lea    0x4ddc2(%rip),%rax        # 56570 <_ZN4core3fmt2rt12USIZE_MARKER17h010b90d6f2e4f6d4E+0xd8>
    87ae:	48 89 44 24 08       	mov    %rax,0x8(%rsp)
    87b3:	48 c7 44 24 10 01 00 	movq   $0x1,0x10(%rsp)
    87ba:	00 00 
    87bc:	48 8d 05 6d 27 04 00 	lea    0x4276d(%rip),%rax        # 4af30 <_ZN11miniz_oxide7inflate4core20REVERSED_BITS_LOOKUP17hcf248780d3be38d5E+0x1238>
    87c3:	48 89 44 24 18       	mov    %rax,0x18(%rsp)
    87c8:	0f 57 c0             	xorps  %xmm0,%xmm0
    87cb:	0f 11 44 24 20       	movups %xmm0,0x20(%rsp)
    87d0:	48 8d 7c 24 08       	lea    0x8(%rsp),%rdi
    87d5:	ff 15 15 e2 04 00    	call   *0x4e215(%rip)        # 569f0 <_GLOBAL_OFFSET_TABLE_+0x60>
    87db:	0f 1f 44 00 00       	nopl   0x0(%rax,%rax,1)

00000000000087e0 <_ZN4core3str16slice_error_fail17h70d3a75cb9d8be2fE>:
    87e0:	50                   	push   %rax
    87e1:	ff 15 11 e6 04 00    	call   *0x4e611(%rip)        # 56df8 <_GLOBAL_OFFSET_TABLE_+0x468>
    87e7:	66 0f 1f 84 00 00 00 	nopw   0x0(%rax,%rax,1)
    87ee:	00 00 

00000000000087f0 <_start>:
    87f0:	f3 0f 1e fa          	endbr64
    87f4:	31 ed                	xor    %ebp,%ebp
    87f6:	49 89 d1             	mov    %rdx,%r9
    87f9:	5e                   	pop    %rsi
    87fa:	48 89 e2             	mov    %rsp,%rdx
    87fd:	48 83 e4 f0          	and    $0xfffffffffffffff0,%rsp
    8801:	50                   	push   %rax
    8802:	54                   	push   %rsp
    8803:	45 31 c0             	xor    %r8d,%r8d
    8806:	31 c9                	xor    %ecx,%ecx
    8808:	48 8d 3d c1 01 00 00 	lea    0x1c1(%rip),%rdi        # 89d0 <main>
    880f:	ff 15 03 e2 04 00    	call   *0x4e203(%rip)        # 56a18 <__libc_start_main@GLIBC_2.34>
    8815:	f4                   	hlt
    8816:	66 2e 0f 1f 84 00 00 	cs nopw 0x0(%rax,%rax,1)
    881d:	00 00 00 

0000000000008820 <deregister_tm_clones>:
    8820:	48 8d 3d 39 e8 04 00 	lea    0x4e839(%rip),%rdi        # 57060 <__TMC_END__>
    8827:	48 8d 05 32 e8 04 00 	lea    0x4e832(%rip),%rax        # 57060 <__TMC_END__>
    882e:	48 39 f8             	cmp    %rdi,%rax
    8831:	74 15                	je     8848 <deregister_tm_clones+0x28>
    8833:	48 8b 05 0e e2 04 00 	mov    0x4e20e(%rip),%rax        # 56a48 <_ITM_deregisterTMCloneTable@Base>
    883a:	48 85 c0             	test   %rax,%rax
    883d:	74 09                	je     8848 <deregister_tm_clones+0x28>
    883f:	ff e0                	jmp    *%rax
    8841:	0f 1f 80 00 00 00 00 	nopl   0x0(%rax)
    8848:	c3                   	ret
    8849:	0f 1f 80 00 00 00 00 	nopl   0x0(%rax)

0000000000008850 <register_tm_clones>:
    8850:	48 8d 3d 09 e8 04 00 	lea    0x4e809(%rip),%rdi        # 57060 <__TMC_END__>
    8857:	48 8d 35 02 e8 04 00 	lea    0x4e802(%rip),%rsi        # 57060 <__TMC_END__>
    885e:	48 29 fe             	sub    %rdi,%rsi
    8861:	48 89 f0             	mov    %rsi,%rax
    8864:	48 c1 ee 3f          	shr    $0x3f,%rsi
    8868:	48 c1 f8 03          	sar    $0x3,%rax
    886c:	48 01 c6             	add    %rax,%rsi
    886f:	48 d1 fe             	sar    %rsi
    8872:	74 14                	je     8888 <register_tm_clones+0x38>
    8874:	48 8b 05 cd e6 04 00 	mov    0x4e6cd(%rip),%rax        # 56f48 <_ITM_registerTMCloneTable@Base>
    887b:	48 85 c0             	test   %rax,%rax
    887e:	74 08                	je     8888 <register_tm_clones+0x38>
    8880:	ff e0                	jmp    *%rax
    8882:	66 0f 1f 44 00 00    	nopw   0x0(%rax,%rax,1)
    8888:	c3                   	ret
    8889:	0f 1f 80 00 00 00 00 	nopl   0x0(%rax)

0000000000008890 <__do_global_dtors_aux>:
    8890:	f3 0f 1e fa          	endbr64
    8894:	80 3d c5 e7 04 00 00 	cmpb   $0x0,0x4e7c5(%rip)        # 57060 <__TMC_END__>
    889b:	75 2b                	jne    88c8 <__do_global_dtors_aux+0x38>
    889d:	55                   	push   %rbp
    889e:	48 83 3d ea e6 04 00 	cmpq   $0x0,0x4e6ea(%rip)        # 56f90 <__cxa_finalize@GLIBC_2.2.5>
    88a5:	00 
    88a6:	48 89 e5             	mov    %rsp,%rbp
    88a9:	74 0c                	je     88b7 <__do_global_dtors_aux+0x27>
    88ab:	48 8b 3d 4e e7 04 00 	mov    0x4e74e(%rip),%rdi        # 57000 <__dso_handle>
    88b2:	e8 99 d7 ff ff       	call   6050 <__cxa_finalize@plt>
    88b7:	e8 64 ff ff ff       	call   8820 <deregister_tm_clones>
    88bc:	c6 05 9d e7 04 00 01 	movb   $0x1,0x4e79d(%rip)        # 57060 <__TMC_END__>
    88c3:	5d                   	pop    %rbp
    88c4:	c3                   	ret
    88c5:	0f 1f 00             	nopl   (%rax)
    88c8:	c3                   	ret
    88c9:	0f 1f 80 00 00 00 00 	nopl   0x0(%rax)

00000000000088d0 <frame_dummy>:
    88d0:	f3 0f 1e fa          	endbr64
    88d4:	e9 77 ff ff ff       	jmp    8850 <register_tm_clones>
    88d9:	0f 1f 80 00 00 00 00 	nopl   0x0(%rax)

00000000000088e0 <_ZN3std10sys_common9backtrace28__rust_begin_short_backtrace17h909556b49832a680E>:
    88e0:	50                   	push   %rax
    88e1:	ff d7                	call   *%rdi
    88e3:	58                   	pop    %rax
    88e4:	c3                   	ret
    88e5:	66 2e 0f 1f 84 00 00 	cs nopw 0x0(%rax,%rax,1)
    88ec:	00 00 00 
    88ef:	90                   	nop

00000000000088f0 <_ZN3std2rt10lang_start28_$u7b$$u7b$closure$u7d$$u7d$17h767afa03af202da3E>:
    88f0:	50                   	push   %rax
    88f1:	48 8b 3f             	mov    (%rdi),%rdi
    88f4:	e8 e7 ff ff ff       	call   88e0 <_ZN3std10sys_common9backtrace28__rust_begin_short_backtrace17h909556b49832a680E>
    88f9:	31 c0                	xor    %eax,%eax
    88fb:	59                   	pop    %rcx
    88fc:	c3                   	ret
    88fd:	0f 1f 00             	nopl   (%rax)

0000000000008900 <_ZN4core3ops8function6FnOnce40call_once$u7b$$u7b$vtable.shim$u7d$$u7d$17hbe9980a73e47d753E>:
    8900:	50                   	push   %rax
    8901:	48 8b 3f             	mov    (%rdi),%rdi
    8904:	e8 d7 ff ff ff       	call   88e0 <_ZN3std10sys_common9backtrace28__rust_begin_short_backtrace17h909556b49832a680E>
    8909:	31 c0                	xor    %eax,%eax
    890b:	59                   	pop    %rcx
    890c:	c3                   	ret
    890d:	0f 1f 00             	nopl   (%rax)

0000000000008910 <_ZN4core3ptr85drop_in_place$LT$std..rt..lang_start$LT$$LP$$RP$$GT$..$u7b$$u7b$closure$u7d$$u7d$$GT$17he9468a73bd2b9b2aE>:
    8910:	c3                   	ret
    8911:	66 2e 0f 1f 84 00 00 	cs nopw 0x0(%rax,%rax,1)
    8918:	00 00 00 
    891b:	0f 1f 44 00 00       	nopl   0x0(%rax,%rax,1)

0000000000008920 <_ZN10same_crate4noop17h9f5a339f16a8eee2E>:
    8920:	48 83 ec 38          	sub    $0x38,%rsp
    8924:	48 8d 05 55 ba 04 00 	lea    0x4ba55(%rip),%rax        # 54380 <__do_global_dtors_aux_fini_array_entry+0x38>
    892b:	48 89 44 24 08       	mov    %rax,0x8(%rsp)
    8930:	48 c7 44 24 10 01 00 	movq   $0x1,0x10(%rsp)
    8937:	00 00 
    8939:	48 8d 05 c0 d6 03 00 	lea    0x3d6c0(%rip),%rax        # 46000 <_fini+0xb0c>
    8940:	48 89 44 24 18       	mov    %rax,0x18(%rsp)
    8945:	0f 57 c0             	xorps  %xmm0,%xmm0
    8948:	0f 11 44 24 20       	movups %xmm0,0x20(%rsp)
    894d:	48 8d 7c 24 08       	lea    0x8(%rsp),%rdi
    8952:	ff 15 78 e4 04 00    	call   *0x4e478(%rip)        # 56dd0 <_GLOBAL_OFFSET_TABLE_+0x440>
    8958:	48 83 c4 38          	add    $0x38,%rsp
    895c:	c3                   	ret
    895d:	0f 1f 00             	nopl   (%rax)

0000000000008960 <_ZN10same_crate4main17h0cf6a0720044b841E>:
    8960:	48 83 ec 48          	sub    $0x48,%rsp
    8964:	e8 b7 ff ff ff       	call   8920 <_ZN10same_crate4noop17h9f5a339f16a8eee2E>
    8969:	48 c7 04 24 05 0d 00 	movq   $0xd05,(%rsp)
    8970:	00 
    8971:	48 89 e0             	mov    %rsp,%rax
    8974:	48 89 44 24 08       	mov    %rax,0x8(%rsp)
    8979:	48 8d 05 00 c8 03 00 	lea    0x3c800(%rip),%rax        # 45180 <_ZN4core3fmt3num3imp52_$LT$impl$u20$core..fmt..Display$u20$for$u20$u64$GT$3fmt17h3158e3dca50dd8f0E>
    8980:	48 89 44 24 10       	mov    %rax,0x10(%rsp)
    8985:	48 8d 05 04 ba 04 00 	lea    0x4ba04(%rip),%rax        # 54390 <__do_global_dtors_aux_fini_array_entry+0x48>
    898c:	48 89 44 24 18       	mov    %rax,0x18(%rsp)
    8991:	48 c7 44 24 20 02 00 	movq   $0x2,0x20(%rsp)
    8998:	00 00 
    899a:	48 c7 44 24 38 00 00 	movq   $0x0,0x38(%rsp)
    89a1:	00 00 
    89a3:	48 8d 44 24 08       	lea    0x8(%rsp),%rax
    89a8:	48 89 44 24 28       	mov    %rax,0x28(%rsp)
    89ad:	48 c7 44 24 30 01 00 	movq   $0x1,0x30(%rsp)
    89b4:	00 00 
    89b6:	48 8d 7c 24 18       	lea    0x18(%rsp),%rdi
    89bb:	ff 15 0f e4 04 00    	call   *0x4e40f(%rip)        # 56dd0 <_GLOBAL_OFFSET_TABLE_+0x440>
    89c1:	48 83 c4 48          	add    $0x48,%rsp
    89c5:	c3                   	ret
    89c6:	66 2e 0f 1f 84 00 00 	cs nopw 0x0(%rax,%rax,1)
    89cd:	00 00 00 

00000000000089d0 <main>:
    89d0:	50                   	push   %rax
    89d1:	48 89 f1             	mov    %rsi,%rcx
    89d4:	48 63 d7             	movslq %edi,%rdx
    89d7:	48 8d 05 82 ff ff ff 	lea    -0x7e(%rip),%rax        # 8960 <_ZN10same_crate4main17h0cf6a0720044b841E>
    89de:	48 89 04 24          	mov    %rax,(%rsp)
    89e2:	48 8d 35 67 b9 04 00 	lea    0x4b967(%rip),%rsi        # 54350 <__do_global_dtors_aux_fini_array_entry+0x8>
    89e9:	48 89 e7             	mov    %rsp,%rdi
    89ec:	45 31 c0             	xor    %r8d,%r8d
    89ef:	ff 15 0b e4 04 00    	call   *0x4e40b(%rip)        # 56e00 <_GLOBAL_OFFSET_TABLE_+0x470>
    89f5:	59                   	pop    %rcx
    89f6:	c3                   	ret
    89f7:	66 0f 1f 84 00 00 00 	nopw   0x0(%rax,%rax,1)
    89fe:	00 00 

0000000000008a00 <__rust_alloc>:
    8a00:	e9 7b b9 01 00       	jmp    24380 <__rdl_alloc>
    8a05:	66 2e 0f 1f 84 00 00 	cs nopw 0x0(%rax,%rax,1)
    8a0c:	00 00 00 
    8a0f:	90                   	nop

0000000000008a10 <__rust_dealloc>:
    8a10:	e9 bb b9 01 00       	jmp    243d0 <__rdl_dealloc>
    8a15:	66 2e 0f 1f 84 00 00 	cs nopw 0x0(%rax,%rax,1)
    8a1c:	00 00 00 
    8a1f:	90                   	nop

0000000000008a20 <__rust_realloc>:
    8a20:	e9 bb b9 01 00       	jmp    243e0 <__rdl_realloc>
    8a25:	66 2e 0f 1f 84 00 00 	cs nopw 0x0(%rax,%rax,1)
    8a2c:	00 00 00 
    8a2f:	90                   	nop

0000000000008a30 <__rust_alloc_zeroed>:
    8a30:	e9 4b ba 01 00       	jmp    24480 <__rdl_alloc_zeroed>
    8a35:	66 2e 0f 1f 84 00 00 	cs nopw 0x0(%rax,%rax,1)
    8a3c:	00 00 00 
    8a3f:	90                   	nop

0000000000008a40 <__rust_alloc_error_handler>:
    8a40:	e9 5b ed 01 00       	jmp    277a0 <__rg_oom>
    8a45:	66 2e 0f 1f 84 00 00 	cs nopw 0x0(%rax,%rax,1)
    8a4c:	00 00 00 
    8a4f:	90                   	nop

0000000000008a50 <_ZN36_$LT$T$u20$as$u20$core..any..Any$GT$7type_id17h44007fac6b9fbafdE>:
    8a50:	48 b8 c1 7b 1e cd 9c 	movabs $0xc1a2c89ccd1e7bc1,%rax
    8a57:	c8 a2 c1 
    8a5a:	48 ba 64 ef b1 00 81 	movabs $0xfdbc168100b1ef64,%rdx
    8a61:	16 bc fd 
    8a64:	c3                   	ret
    8a65:	66 2e 0f 1f 84 00 00 	cs nopw 0x0(%rax,%rax,1)
    8a6c:	00 00 00 
    8a6f:	90                   	nop

0000000000008a70 <_ZN36_$LT$T$u20$as$u20$core..any..Any$GT$7type_id17h6daa4d77f4a1a3f2E>:
    8a70:	48 b8 f1 b4 a8 31 e2 	movabs $0x5c7c3ae231a8b4f1,%rax
    8a77:	3a 7c 5c 
    8a7a:	48 ba 73 ad 4a cf 50 	movabs $0x60476850cf4aad73,%rdx
    8a81:	68 47 60 
    8a84:	c3                   	ret
    8a85:	66 2e 0f 1f 84 00 00 	cs nopw 0x0(%rax,%rax,1)
    8a8c:	00 00 00 
    8a8f:	90                   	nop

0000000000008a90 <_ZN36_$LT$T$u20$as$u20$core..any..Any$GT$7type_id17hfd0917603be431eeE>:
    8a90:	48 b8 94 b2 32 cf a9 	movabs $0x5811c3a9cf32b294,%rax
    8a97:	c3 11 58 
    8a9a:	48 ba 60 61 9c 1d ac 	movabs $0xbd3f7fac1d9c6160,%rdx
    8aa1:	7f 3f bd 
    8aa4:	c3                   	ret
    8aa5:	66 2e 0f 1f 84 00 00 	cs nopw 0x0(%rax,%rax,1)
    8aac:	00 00 00 
    8aaf:	90                   	nop

0000000000008ab0 <_ZN42_$LT$$RF$T$u20$as$u20$core..fmt..Debug$GT$3fmt17h16ca8138c52902d3E>:
    8ab0:	48 8b 3f             	mov    (%rdi),%rdi
    8ab3:	8b 46 34             	mov    0x34(%rsi),%eax
    8ab6:	a8 10                	test   $0x10,%al
    8ab8:	75 0a                	jne    8ac4 <_ZN42_$LT$$RF$T$u20$as$u20$core..fmt..Debug$GT$3fmt17h16ca8138c52902d3E+0x14>
    8aba:	a8 20                	test   $0x20,%al
    8abc:	75 0c                	jne    8aca <_ZN42_$LT$$RF$T$u20$as$u20$core..fmt..Debug$GT$3fmt17h16ca8138c52902d3E+0x1a>
    8abe:	ff 25 b4 e3 04 00    	jmp    *0x4e3b4(%rip)        # 56e78 <_GLOBAL_OFFSET_TABLE_+0x4e8>
    8ac4:	ff 25 0e e4 04 00    	jmp    *0x4e40e(%rip)        # 56ed8 <_GLOBAL_OFFSET_TABLE_+0x548>
    8aca:	ff 25 f0 e0 04 00    	jmp    *0x4e0f0(%rip)        # 56bc0 <_GLOBAL_OFFSET_TABLE_+0x230>

0000000000008ad0 <_ZN42_$LT$$RF$T$u20$as$u20$core..fmt..Debug$GT$3fmt17h247830525e200a54E>:
    8ad0:	48 8b 3f             	mov    (%rdi),%rdi
    8ad3:	8b 46 34             	mov    0x34(%rsi),%eax
    8ad6:	a8 10                	test   $0x10,%al
    8ad8:	75 0a                	jne    8ae4 <_ZN42_$LT$$RF$T$u20$as$u20$core..fmt..Debug$GT$3fmt17h247830525e200a54E+0x14>
    8ada:	a8 20                	test   $0x20,%al
    8adc:	75 0c                	jne    8aea <_ZN42_$LT$$RF$T$u20$as$u20$core..fmt..Debug$GT$3fmt17h247830525e200a54E+0x1a>
    8ade:	ff 25 24 df 04 00    	jmp    *0x4df24(%rip)        # 56a08 <_GLOBAL_OFFSET_TABLE_+0x78>
    8ae4:	ff 25 f6 e4 04 00    	jmp    *0x4e4f6(%rip)        # 56fe0 <_GLOBAL_OFFSET_TABLE_+0x650>
    8aea:	ff 25 40 e4 04 00    	jmp    *0x4e440(%rip)        # 56f30 <_GLOBAL_OFFSET_TABLE_+0x5a0>

0000000000008af0 <_ZN42_$LT$$RF$T$u20$as$u20$core..fmt..Debug$GT$3fmt17h80641b52bd68b52aE>:
    8af0:	55                   	push   %rbp
    8af1:	41 57                	push   %r15
    8af3:	41 56                	push   %r14
    8af5:	41 55                	push   %r13
    8af7:	41 54                	push   %r12
    8af9:	53                   	push   %rbx
    8afa:	48 83 ec 18          	sub    $0x18,%rsp
    8afe:	48 8b 07             	mov    (%rdi),%rax
    8b01:	4c 8b 60 08          	mov    0x8(%rax),%r12
    8b05:	4c 8b 68 10          	mov    0x10(%rax),%r13
    8b09:	48 8d 7c 24 08       	lea    0x8(%rsp),%rdi
    8b0e:	ff 15 9c e4 04 00    	call   *0x4e49c(%rip)        # 56fb0 <_GLOBAL_OFFSET_TABLE_+0x620>
    8b14:	4d 85 ed             	test   %r13,%r13
    8b17:	74 2e                	je     8b47 <_ZN42_$LT$$RF$T$u20$as$u20$core..fmt..Debug$GT$3fmt17h80641b52bd68b52aE+0x57>
    8b19:	48 8d 1d d0 b8 04 00 	lea    0x4b8d0(%rip),%rbx        # 543f0 <__do_global_dtors_aux_fini_array_entry+0xa8>
    8b20:	4c 8d 74 24 08       	lea    0x8(%rsp),%r14
    8b25:	49 89 e7             	mov    %rsp,%r15
    8b28:	48 8d 2d 41 91 03 00 	lea    0x39141(%rip),%rbp        # 41c70 <_ZN4core3fmt8builders8DebugSet5entry17hf4cd41544e99225bE>
    8b2f:	90                   	nop
    8b30:	4c 89 24 24          	mov    %r12,(%rsp)
    8b34:	49 ff c4             	inc    %r12
    8b37:	4c 89 f7             	mov    %r14,%rdi
    8b3a:	4c 89 fe             	mov    %r15,%rsi
    8b3d:	48 89 da             	mov    %rbx,%rdx
    8b40:	ff d5                	call   *%rbp
    8b42:	49 ff cd             	dec    %r13
    8b45:	75 e9                	jne    8b30 <_ZN42_$LT$$RF$T$u20$as$u20$core..fmt..Debug$GT$3fmt17h80641b52bd68b52aE+0x40>
    8b47:	48 8d 7c 24 08       	lea    0x8(%rsp),%rdi
    8b4c:	ff 15 ae e3 04 00    	call   *0x4e3ae(%rip)        # 56f00 <_GLOBAL_OFFSET_TABLE_+0x570>
    8b52:	48 83 c4 18          	add    $0x18,%rsp
    8b56:	5b                   	pop    %rbx
    8b57:	41 5c                	pop    %r12
    8b59:	41 5d                	pop    %r13
    8b5b:	41 5e                	pop    %r14
    8b5d:	41 5f                	pop    %r15
    8b5f:	5d                   	pop    %rbp
    8b60:	c3                   	ret
    8b61:	66 2e 0f 1f 84 00 00 	cs nopw 0x0(%rax,%rax,1)
    8b68:	00 00 00 
    8b6b:	0f 1f 44 00 00       	nopl   0x0(%rax,%rax,1)

0000000000008b70 <_ZN42_$LT$$RF$T$u20$as$u20$core..fmt..Debug$GT$3fmt17hb44705985ff00711E>:
    8b70:	48 83 ec 18          	sub    $0x18,%rsp
    8b74:	48 89 f0             	mov    %rsi,%rax
    8b77:	48 8b 0f             	mov    (%rdi),%rcx
    8b7a:	48 8b 09             	mov    (%rcx),%rcx
    8b7d:	48 89 4c 24 10       	mov    %rcx,0x10(%rsp)
    8b82:	48 83 c1 18          	add    $0x18,%rcx
    8b86:	48 8d 15 9b bc 04 00 	lea    0x4bc9b(%rip),%rdx        # 54828 <__do_global_dtors_aux_fini_array_entry+0x4e0>
    8b8d:	48 89 14 24          	mov    %rdx,(%rsp)
    8b91:	48 8d 35 c0 f4 03 00 	lea    0x3f4c0(%rip),%rsi        # 48058 <str.5+0x228>
    8b98:	4c 8d 05 69 bc 04 00 	lea    0x4bc69(%rip),%r8        # 54808 <__do_global_dtors_aux_fini_array_entry+0x4c0>
    8b9f:	4c 8d 4c 24 10       	lea    0x10(%rsp),%r9
    8ba4:	ba 08 00 00 00       	mov    $0x8,%edx
    8ba9:	48 89 c7             	mov    %rax,%rdi
    8bac:	ff 15 f6 e2 04 00    	call   *0x4e2f6(%rip)        # 56ea8 <_GLOBAL_OFFSET_TABLE_+0x518>
    8bb2:	48 83 c4 18          	add    $0x18,%rsp
    8bb6:	c3                   	ret
    8bb7:	66 0f 1f 84 00 00 00 	nopw   0x0(%rax,%rax,1)
    8bbe:	00 00 

0000000000008bc0 <_ZN42_$LT$$RF$T$u20$as$u20$core..fmt..Debug$GT$3fmt17hf9bd3e615b6973e2E>:
    8bc0:	48 89 f7             	mov    %rsi,%rdi
    8bc3:	48 8d 35 03 ef 03 00 	lea    0x3ef03(%rip),%rsi        # 47acd <_fini+0x25d9>
    8bca:	ba 02 00 00 00       	mov    $0x2,%edx
    8bcf:	ff 25 5b e0 04 00    	jmp    *0x4e05b(%rip)        # 56c30 <_GLOBAL_OFFSET_TABLE_+0x2a0>
    8bd5:	66 2e 0f 1f 84 00 00 	cs nopw 0x0(%rax,%rax,1)
    8bdc:	00 00 00 
    8bdf:	90                   	nop

0000000000008be0 <_ZN44_$LT$$RF$T$u20$as$u20$core..fmt..Display$GT$3fmt17h3ac0a9d003aedb97E>:
    8be0:	48 89 f2             	mov    %rsi,%rdx
    8be3:	48 8b 07             	mov    (%rdi),%rax
    8be6:	48 8b 77 08          	mov    0x8(%rdi),%rsi
    8bea:	48 89 c7             	mov    %rax,%rdi
    8bed:	ff 25 fd e0 04 00    	jmp    *0x4e0fd(%rip)        # 56cf0 <_GLOBAL_OFFSET_TABLE_+0x360>
    8bf3:	66 2e 0f 1f 84 00 00 	cs nopw 0x0(%rax,%rax,1)
    8bfa:	00 00 00 
    8bfd:	0f 1f 00             	nopl   (%rax)

0000000000008c00 <_ZN44_$LT$$RF$T$u20$as$u20$core..fmt..Display$GT$3fmt17h5ad2a111e2c34a12E>:
    8c00:	48 8b 3f             	mov    (%rdi),%rdi
    8c03:	ff 25 d7 e0 04 00    	jmp    *0x4e0d7(%rip)        # 56ce0 <_GLOBAL_OFFSET_TABLE_+0x350>
    8c09:	0f 1f 80 00 00 00 00 	nopl   0x0(%rax)

0000000000008c10 <_ZN4core3fmt3num52_$LT$impl$u20$core..fmt..Debug$u20$for$u20$usize$GT$3fmt17h9df217ae2e215c1eE>:
    8c10:	8b 46 34             	mov    0x34(%rsi),%eax
    8c13:	a8 10                	test   $0x10,%al
    8c15:	75 0a                	jne    8c21 <_ZN4core3fmt3num52_$LT$impl$u20$core..fmt..Debug$u20$for$u20$usize$GT$3fmt17h9df217ae2e215c1eE+0x11>
    8c17:	a8 20                	test   $0x20,%al
    8c19:	75 0c                	jne    8c27 <_ZN4core3fmt3num52_$LT$impl$u20$core..fmt..Debug$u20$for$u20$usize$GT$3fmt17h9df217ae2e215c1eE+0x17>
    8c1b:	ff 25 97 dd 04 00    	jmp    *0x4dd97(%rip)        # 569b8 <_GLOBAL_OFFSET_TABLE_+0x28>
    8c21:	ff 25 a1 e1 04 00    	jmp    *0x4e1a1(%rip)        # 56dc8 <_GLOBAL_OFFSET_TABLE_+0x438>
    8c27:	ff 25 7b e3 04 00    	jmp    *0x4e37b(%rip)        # 56fa8 <_GLOBAL_OFFSET_TABLE_+0x618>
    8c2d:	0f 1f 00             	nopl   (%rax)

0000000000008c30 <_ZN4core3fmt5Write10write_char17h58fc0b378b2910b3E>:
    8c30:	41 57                	push   %r15
    8c32:	41 56                	push   %r14
    8c34:	53                   	push   %rbx
    8c35:	48 83 ec 10          	sub    $0x10,%rsp
    8c39:	c7 44 24 0c 00 00 00 	movl   $0x0,0xc(%rsp)
    8c40:	00 
    8c41:	81 fe 80 00 00 00    	cmp    $0x80,%esi
    8c47:	73 0f                	jae    8c58 <_ZN4core3fmt5Write10write_char17h58fc0b378b2910b3E+0x28>
    8c49:	40 88 74 24 0c       	mov    %sil,0xc(%rsp)
    8c4e:	bb 01 00 00 00       	mov    $0x1,%ebx
    8c53:	e9 90 00 00 00       	jmp    8ce8 <_ZN4core3fmt5Write10write_char17h58fc0b378b2910b3E+0xb8>
    8c58:	89 f0                	mov    %esi,%eax
    8c5a:	81 fe 00 08 00 00    	cmp    $0x800,%esi
    8c60:	73 1d                	jae    8c7f <_ZN4core3fmt5Write10write_char17h58fc0b378b2910b3E+0x4f>
    8c62:	c1 e8 06             	shr    $0x6,%eax
    8c65:	0c c0                	or     $0xc0,%al
    8c67:	88 44 24 0c          	mov    %al,0xc(%rsp)
    8c6b:	40 80 e6 3f          	and    $0x3f,%sil
    8c6f:	40 80 ce 80          	or     $0x80,%sil
    8c73:	40 88 74 24 0d       	mov    %sil,0xd(%rsp)
    8c78:	bb 02 00 00 00       	mov    $0x2,%ebx
    8c7d:	eb 69                	jmp    8ce8 <_ZN4core3fmt5Write10write_char17h58fc0b378b2910b3E+0xb8>
    8c7f:	81 fe 00 00 01 00    	cmp    $0x10000,%esi
    8c85:	73 2a                	jae    8cb1 <_ZN4core3fmt5Write10write_char17h58fc0b378b2910b3E+0x81>
    8c87:	c1 e8 0c             	shr    $0xc,%eax
    8c8a:	0c e0                	or     $0xe0,%al
    8c8c:	88 44 24 0c          	mov    %al,0xc(%rsp)
    8c90:	89 f0                	mov    %esi,%eax
    8c92:	c1 e8 06             	shr    $0x6,%eax
    8c95:	24 3f                	and    $0x3f,%al
    8c97:	0c 80                	or     $0x80,%al
    8c99:	88 44 24 0d          	mov    %al,0xd(%rsp)
    8c9d:	40 80 e6 3f          	and    $0x3f,%sil
    8ca1:	40 80 ce 80          	or     $0x80,%sil
    8ca5:	40 88 74 24 0e       	mov    %sil,0xe(%rsp)
    8caa:	bb 03 00 00 00       	mov    $0x3,%ebx
    8caf:	eb 37                	jmp    8ce8 <_ZN4core3fmt5Write10write_char17h58fc0b378b2910b3E+0xb8>
    8cb1:	c1 e8 12             	shr    $0x12,%eax
    8cb4:	24 07                	and    $0x7,%al
    8cb6:	0c f0                	or     $0xf0,%al
    8cb8:	88 44 24 0c          	mov    %al,0xc(%rsp)
    8cbc:	89 f0                	mov    %esi,%eax
    8cbe:	c1 e8 0c             	shr    $0xc,%eax
    8cc1:	24 3f                	and    $0x3f,%al
    8cc3:	0c 80                	or     $0x80,%al
    8cc5:	88 44 24 0d          	mov    %al,0xd(%rsp)
    8cc9:	89 f0                	mov    %esi,%eax
    8ccb:	c1 e8 06             	shr    $0x6,%eax
    8cce:	24 3f                	and    $0x3f,%al
    8cd0:	0c 80                	or     $0x80,%al
    8cd2:	88 44 24 0e          	mov    %al,0xe(%rsp)
    8cd6:	40 80 e6 3f          	and    $0x3f,%sil
    8cda:	40 80 ce 80          	or     $0x80,%sil
    8cde:	40 88 74 24 0f       	mov    %sil,0xf(%rsp)
    8ce3:	bb 04 00 00 00       	mov    $0x4,%ebx
    8ce8:	4c 8b 37             	mov    (%rdi),%r14
    8ceb:	49 8b 06             	mov    (%r14),%rax
    8cee:	4d 8b 7e 10          	mov    0x10(%r14),%r15
    8cf2:	4c 29 f8             	sub    %r15,%rax
    8cf5:	48 39 d8             	cmp    %rbx,%rax
    8cf8:	72 28                	jb     8d22 <_ZN4core3fmt5Write10write_char17h58fc0b378b2910b3E+0xf2>
    8cfa:	49 8b 7e 08          	mov    0x8(%r14),%rdi
    8cfe:	4c 01 ff             	add    %r15,%rdi
    8d01:	48 8d 74 24 0c       	lea    0xc(%rsp),%rsi
    8d06:	48 89 da             	mov    %rbx,%rdx
    8d09:	ff 15 f1 df 04 00    	call   *0x4dff1(%rip)        # 56d00 <memcpy@GLIBC_2.14>
    8d0f:	49 01 df             	add    %rbx,%r15
    8d12:	4d 89 7e 10          	mov    %r15,0x10(%r14)
    8d16:	31 c0                	xor    %eax,%eax
    8d18:	48 83 c4 10          	add    $0x10,%rsp
    8d1c:	5b                   	pop    %rbx
    8d1d:	41 5e                	pop    %r14
    8d1f:	41 5f                	pop    %r15
    8d21:	c3                   	ret
    8d22:	4c 89 f7             	mov    %r14,%rdi
    8d25:	4c 89 fe             	mov    %r15,%rsi
    8d28:	48 89 da             	mov    %rbx,%rdx
    8d2b:	e8 60 df ff ff       	call   6c90 <_ZN5alloc7raw_vec19RawVec$LT$T$C$A$GT$7reserve21do_reserve_and_handle17h46956677531e6d5bE>
    8d30:	4d 8b 7e 10          	mov    0x10(%r14),%r15
    8d34:	eb c4                	jmp    8cfa <_ZN4core3fmt5Write10write_char17h58fc0b378b2910b3E+0xca>
    8d36:	66 2e 0f 1f 84 00 00 	cs nopw 0x0(%rax,%rax,1)
    8d3d:	00 00 00 

0000000000008d40 <_ZN4core3fmt5Write10write_char17h7539bfa2526c0ff9E>:
    8d40:	50                   	push   %rax
    8d41:	c7 44 24 04 00 00 00 	movl   $0x0,0x4(%rsp)
    8d48:	00 
    8d49:	81 fe 80 00 00 00    	cmp    $0x80,%esi
    8d4f:	73 16                	jae    8d67 <_ZN4core3fmt5Write10write_char17h7539bfa2526c0ff9E+0x27>
    8d51:	40 88 74 24 04       	mov    %sil,0x4(%rsp)
    8d56:	ba 01 00 00 00       	mov    $0x1,%edx
    8d5b:	48 8d 74 24 04       	lea    0x4(%rsp),%rsi
    8d60:	e8 0b 8e 01 00       	call   21b70 <_ZN80_$LT$std..io..Write..write_fmt..Adapter$LT$T$GT$$u20$as$u20$core..fmt..Write$GT$9write_str17h67447ece1bea8e03E>
    8d65:	59                   	pop    %rcx
    8d66:	c3                   	ret
    8d67:	89 f0                	mov    %esi,%eax
    8d69:	81 fe 00 08 00 00    	cmp    $0x800,%esi
    8d6f:	73 27                	jae    8d98 <_ZN4core3fmt5Write10write_char17h7539bfa2526c0ff9E+0x58>
    8d71:	c1 e8 06             	shr    $0x6,%eax
    8d74:	0c c0                	or     $0xc0,%al
    8d76:	88 44 24 04          	mov    %al,0x4(%rsp)
    8d7a:	40 80 e6 3f          	and    $0x3f,%sil
    8d7e:	40 80 ce 80          	or     $0x80,%sil
    8d82:	40 88 74 24 05       	mov    %sil,0x5(%rsp)
    8d87:	ba 02 00 00 00       	mov    $0x2,%edx
    8d8c:	48 8d 74 24 04       	lea    0x4(%rsp),%rsi
    8d91:	e8 da 8d 01 00       	call   21b70 <_ZN80_$LT$std..io..Write..write_fmt..Adapter$LT$T$GT$$u20$as$u20$core..fmt..Write$GT$9write_str17h67447ece1bea8e03E>
    8d96:	59                   	pop    %rcx
    8d97:	c3                   	ret
    8d98:	81 fe 00 00 01 00    	cmp    $0x10000,%esi
    8d9e:	73 34                	jae    8dd4 <_ZN4core3fmt5Write10write_char17h7539bfa2526c0ff9E+0x94>
    8da0:	c1 e8 0c             	shr    $0xc,%eax
    8da3:	0c e0                	or     $0xe0,%al
    8da5:	88 44 24 04          	mov    %al,0x4(%rsp)
    8da9:	89 f0                	mov    %esi,%eax
    8dab:	c1 e8 06             	shr    $0x6,%eax
    8dae:	24 3f                	and    $0x3f,%al
    8db0:	0c 80                	or     $0x80,%al
    8db2:	88 44 24 05          	mov    %al,0x5(%rsp)
    8db6:	40 80 e6 3f          	and    $0x3f,%sil
    8dba:	40 80 ce 80          	or     $0x80,%sil
    8dbe:	40 88 74 24 06       	mov    %sil,0x6(%rsp)
    8dc3:	ba 03 00 00 00       	mov    $0x3,%edx
    8dc8:	48 8d 74 24 04       	lea    0x4(%rsp),%rsi
    8dcd:	e8 9e 8d 01 00       	call   21b70 <_ZN80_$LT$std..io..Write..write_fmt..Adapter$LT$T$GT$$u20$as$u20$core..fmt..Write$GT$9write_str17h67447ece1bea8e03E>
    8dd2:	59                   	pop    %rcx
    8dd3:	c3                   	ret
    8dd4:	c1 e8 12             	shr    $0x12,%eax
    8dd7:	24 07                	and    $0x7,%al
    8dd9:	0c f0                	or     $0xf0,%al
    8ddb:	88 44 24 04          	mov    %al,0x4(%rsp)
    8ddf:	89 f0                	mov    %esi,%eax
    8de1:	c1 e8 0c             	shr    $0xc,%eax
    8de4:	24 3f                	and    $0x3f,%al
    8de6:	0c 80                	or     $0x80,%al
    8de8:	88 44 24 05          	mov    %al,0x5(%rsp)
    8dec:	89 f0                	mov    %esi,%eax
    8dee:	c1 e8 06             	shr    $0x6,%eax
    8df1:	24 3f                	and    $0x3f,%al
    8df3:	0c 80                	or     $0x80,%al
    8df5:	88 44 24 06          	mov    %al,0x6(%rsp)
    8df9:	40 80 e6 3f          	and    $0x3f,%sil
    8dfd:	40 80 ce 80          	or     $0x80,%sil
    8e01:	40 88 74 24 07       	mov    %sil,0x7(%rsp)
    8e06:	ba 04 00 00 00       	mov    $0x4,%edx
    8e0b:	48 8d 74 24 04       	lea    0x4(%rsp),%rsi
    8e10:	e8 5b 8d 01 00       	call   21b70 <_ZN80_$LT$std..io..Write..write_fmt..Adapter$LT$T$GT$$u20$as$u20$core..fmt..Write$GT$9write_str17h67447ece1bea8e03E>
    8e15:	59                   	pop    %rcx
    8e16:	c3                   	ret
    8e17:	66 0f 1f 84 00 00 00 	nopw   0x0(%rax,%rax,1)
    8e1e:	00 00 

0000000000008e20 <_ZN4core3fmt5Write10write_char17hc5f692e90134713dE>:
    8e20:	41 57                	push   %r15
    8e22:	41 56                	push   %r14
    8e24:	53                   	push   %rbx
    8e25:	48 83 ec 10          	sub    $0x10,%rsp
    8e29:	48 89 fb             	mov    %rdi,%rbx
    8e2c:	c7 44 24 0c 00 00 00 	movl   $0x0,0xc(%rsp)
    8e33:	00 
    8e34:	81 fe 80 00 00 00    	cmp    $0x80,%esi
    8e3a:	73 0f                	jae    8e4b <_ZN4core3fmt5Write10write_char17hc5f692e90134713dE+0x2b>
    8e3c:	40 88 74 24 0c       	mov    %sil,0xc(%rsp)
    8e41:	ba 01 00 00 00       	mov    $0x1,%edx
    8e46:	e9 90 00 00 00       	jmp    8edb <_ZN4core3fmt5Write10write_char17hc5f692e90134713dE+0xbb>
    8e4b:	89 f0                	mov    %esi,%eax
    8e4d:	81 fe 00 08 00 00    	cmp    $0x800,%esi
    8e53:	73 1d                	jae    8e72 <_ZN4core3fmt5Write10write_char17hc5f692e90134713dE+0x52>
    8e55:	c1 e8 06             	shr    $0x6,%eax
    8e58:	0c c0                	or     $0xc0,%al
    8e5a:	88 44 24 0c          	mov    %al,0xc(%rsp)
    8e5e:	40 80 e6 3f          	and    $0x3f,%sil
    8e62:	40 80 ce 80          	or     $0x80,%sil
    8e66:	40 88 74 24 0d       	mov    %sil,0xd(%rsp)
    8e6b:	ba 02 00 00 00       	mov    $0x2,%edx
    8e70:	eb 69                	jmp    8edb <_ZN4core3fmt5Write10write_char17hc5f692e90134713dE+0xbb>
    8e72:	81 fe 00 00 01 00    	cmp    $0x10000,%esi
    8e78:	73 2a                	jae    8ea4 <_ZN4core3fmt5Write10write_char17hc5f692e90134713dE+0x84>
    8e7a:	c1 e8 0c             	shr    $0xc,%eax
    8e7d:	0c e0                	or     $0xe0,%al
    8e7f:	88 44 24 0c          	mov    %al,0xc(%rsp)
    8e83:	89 f0                	mov    %esi,%eax
    8e85:	c1 e8 06             	shr    $0x6,%eax
    8e88:	24 3f                	and    $0x3f,%al
    8e8a:	0c 80                	or     $0x80,%al
    8e8c:	88 44 24 0d          	mov    %al,0xd(%rsp)
    8e90:	40 80 e6 3f          	and    $0x3f,%sil
    8e94:	40 80 ce 80          	or     $0x80,%sil
    8e98:	40 88 74 24 0e       	mov    %sil,0xe(%rsp)
    8e9d:	ba 03 00 00 00       	mov    $0x3,%edx
    8ea2:	eb 37                	jmp    8edb <_ZN4core3fmt5Write10write_char17hc5f692e90134713dE+0xbb>
    8ea4:	c1 e8 12             	shr    $0x12,%eax
    8ea7:	24 07                	and    $0x7,%al
    8ea9:	0c f0                	or     $0xf0,%al
    8eab:	88 44 24 0c          	mov    %al,0xc(%rsp)
    8eaf:	89 f0                	mov    %esi,%eax
    8eb1:	c1 e8 0c             	shr    $0xc,%eax
    8eb4:	24 3f                	and    $0x3f,%al
    8eb6:	0c 80                	or     $0x80,%al
    8eb8:	88 44 24 0d          	mov    %al,0xd(%rsp)
    8ebc:	89 f0                	mov    %esi,%eax
    8ebe:	c1 e8 06             	shr    $0x6,%eax
    8ec1:	24 3f                	and    $0x3f,%al
    8ec3:	0c 80                	or     $0x80,%al
    8ec5:	88 44 24 0e          	mov    %al,0xe(%rsp)
    8ec9:	40 80 e6 3f          	and    $0x3f,%sil
    8ecd:	40 80 ce 80          	or     $0x80,%sil
    8ed1:	40 88 74 24 0f       	mov    %sil,0xf(%rsp)
    8ed6:	ba 04 00 00 00       	mov    $0x4,%edx
    8edb:	48 8b 3b             	mov    (%rbx),%rdi
    8ede:	48 8d 74 24 0c       	lea    0xc(%rsp),%rsi
    8ee3:	ff 15 27 e0 04 00    	call   *0x4e027(%rip)        # 56f10 <_GLOBAL_OFFSET_TABLE_+0x580>
    8ee9:	49 89 c6             	mov    %rax,%r14
    8eec:	48 85 c0             	test   %rax,%rax
    8eef:	74 16                	je     8f07 <_ZN4core3fmt5Write10write_char17hc5f692e90134713dE+0xe7>
    8ef1:	4c 8d 7b 08          	lea    0x8(%rbx),%r15
    8ef5:	48 83 7b 08 00       	cmpq   $0x0,0x8(%rbx)
    8efa:	74 08                	je     8f04 <_ZN4core3fmt5Write10write_char17hc5f692e90134713dE+0xe4>
    8efc:	4c 89 ff             	mov    %r15,%rdi
    8eff:	e8 4c 0d 00 00       	call   9c50 <_ZN4core3ptr42drop_in_place$LT$std..io..error..Error$GT$17h98a145a7ffad09d8E>
    8f04:	4d 89 37             	mov    %r14,(%r15)
    8f07:	4d 85 f6             	test   %r14,%r14
    8f0a:	0f 95 c0             	setne  %al
    8f0d:	48 83 c4 10          	add    $0x10,%rsp
    8f11:	5b                   	pop    %rbx
    8f12:	41 5e                	pop    %r14
    8f14:	41 5f                	pop    %r15
    8f16:	c3                   	ret
    8f17:	4d 89 37             	mov    %r14,(%r15)
    8f1a:	48 89 c7             	mov    %rax,%rdi
    8f1d:	e8 1e d1 ff ff       	call   6040 <_Unwind_Resume@plt>
    8f22:	66 2e 0f 1f 84 00 00 	cs nopw 0x0(%rax,%rax,1)
    8f29:	00 00 00 
    8f2c:	0f 1f 40 00          	nopl   0x0(%rax)

0000000000008f30 <_ZN4core3fmt5Write9write_fmt17h807a5bad4ac2825dE>:
    8f30:	48 89 f2             	mov    %rsi,%rdx
    8f33:	48 8d 35 7e b9 04 00 	lea    0x4b97e(%rip),%rsi        # 548b8 <__do_global_dtors_aux_fini_array_entry+0x570>
    8f3a:	ff 25 80 dd 04 00    	jmp    *0x4dd80(%rip)        # 56cc0 <_GLOBAL_OFFSET_TABLE_+0x330>

0000000000008f40 <_ZN4core3fmt5Write9write_fmt17h94c6ebcf1589f33aE>:
    8f40:	48 89 f2             	mov    %rsi,%rdx
    8f43:	48 8d 35 3e b9 04 00 	lea    0x4b93e(%rip),%rsi        # 54888 <__do_global_dtors_aux_fini_array_entry+0x540>
    8f4a:	ff 25 70 dd 04 00    	jmp    *0x4dd70(%rip)        # 56cc0 <_GLOBAL_OFFSET_TABLE_+0x330>

0000000000008f50 <_ZN4core3fmt5Write9write_fmt17h9a38cbe2806ac901E>:
    8f50:	48 89 f2             	mov    %rsi,%rdx
    8f53:	48 8d 35 66 b4 04 00 	lea    0x4b466(%rip),%rsi        # 543c0 <__do_global_dtors_aux_fini_array_entry+0x78>
    8f5a:	ff 25 60 dd 04 00    	jmp    *0x4dd60(%rip)        # 56cc0 <_GLOBAL_OFFSET_TABLE_+0x330>

0000000000008f60 <_ZN4core3fmt5Write9write_fmt17hd6092a19d56a3677E>:
    8f60:	48 89 f2             	mov    %rsi,%rdx
    8f63:	48 8d 35 7e b9 04 00 	lea    0x4b97e(%rip),%rsi        # 548e8 <__do_global_dtors_aux_fini_array_entry+0x5a0>
    8f6a:	ff 25 50 dd 04 00    	jmp    *0x4dd50(%rip)        # 56cc0 <_GLOBAL_OFFSET_TABLE_+0x330>

0000000000008f70 <_ZN4core3ops8function6FnOnce40call_once$u7b$$u7b$vtable.shim$u7d$$u7d$17h24444d98e354b996E>:
    8f70:	e9 db a9 01 00       	jmp    23950 <_ZN3std10sys_common9backtrace10_print_fmt28_$u7b$$u7b$closure$u7d$$u7d$17h6c56e7b1820c07edE>
    8f75:	66 2e 0f 1f 84 00 00 	cs nopw 0x0(%rax,%rax,1)
    8f7c:	00 00 00 
    8f7f:	90                   	nop

0000000000008f80 <_ZN4core3ops8function6FnOnce40call_once$u7b$$u7b$vtable.shim$u7d$$u7d$17h25566586910543a4E>:
    8f80:	48 8b 07             	mov    (%rdi),%rax
    8f83:	48 8b 38             	mov    (%rax),%rdi
    8f86:	ff 25 9c db 04 00    	jmp    *0x4db9c(%rip)        # 56b28 <_Unwind_GetTextRelBase@GCC_3.0>
    8f8c:	0f 1f 40 00          	nopl   0x0(%rax)

0000000000008f90 <_ZN4core3ops8function6FnOnce40call_once$u7b$$u7b$vtable.shim$u7d$$u7d$17h8894eed54949be8fE>:
    8f90:	55                   	push   %rbp
    8f91:	41 56                	push   %r14
    8f93:	53                   	push   %rbx
    8f94:	48 83 ec 20          	sub    $0x20,%rsp
    8f98:	48 89 f0             	mov    %rsi,%rax
    8f9b:	48 89 fb             	mov    %rdi,%rbx
    8f9e:	48 8d 74 24 08       	lea    0x8(%rsp),%rsi
    8fa3:	48 8b 4a 10          	mov    0x10(%rdx),%rcx
    8fa7:	48 89 4c 24 18       	mov    %rcx,0x18(%rsp)
    8fac:	0f 10 02             	movups (%rdx),%xmm0
    8faf:	0f 11 44 24 08       	movups %xmm0,0x8(%rsp)
    8fb4:	48 89 04 24          	mov    %rax,(%rsp)
    8fb8:	4c 8b 37             	mov    (%rdi),%r14
    8fbb:	31 c9                	xor    %ecx,%ecx
    8fbd:	48 ba 00 00 00 00 00 	movabs $0x8000000000000000,%rdx
    8fc4:	00 00 80 
    8fc7:	49 39 d6             	cmp    %rdx,%r14
    8fca:	48 0f 45 cf          	cmovne %rdi,%rcx
    8fce:	8b 57 18             	mov    0x18(%rdi),%edx
    8fd1:	48 89 c7             	mov    %rax,%rdi
    8fd4:	e8 77 ad 01 00       	call   23d50 <_ZN3std10sys_common9backtrace15output_filename17hebfdc4892dba2d81E>
    8fd9:	89 c5                	mov    %eax,%ebp
    8fdb:	4a 8d 04 75 00 00 00 	lea    0x0(,%r14,2),%rax
    8fe2:	00 
    8fe3:	48 85 c0             	test   %rax,%rax
    8fe6:	74 12                	je     8ffa <_ZN4core3ops8function6FnOnce40call_once$u7b$$u7b$vtable.shim$u7d$$u7d$17h8894eed54949be8fE+0x6a>
    8fe8:	48 8b 7b 08          	mov    0x8(%rbx),%rdi
    8fec:	ba 01 00 00 00       	mov    $0x1,%edx
    8ff1:	4c 89 f6             	mov    %r14,%rsi
    8ff4:	ff 15 e6 db 04 00    	call   *0x4dbe6(%rip)        # 56be0 <_GLOBAL_OFFSET_TABLE_+0x250>
    8ffa:	89 e8                	mov    %ebp,%eax
    8ffc:	48 83 c4 20          	add    $0x20,%rsp
    9000:	5b                   	pop    %rbx
    9001:	41 5e                	pop    %r14
    9003:	5d                   	pop    %rbp
    9004:	c3                   	ret
    9005:	49 89 c6             	mov    %rax,%r14
    9008:	48 8b 33             	mov    (%rbx),%rsi
    900b:	48 8d 04 75 00 00 00 	lea    0x0(,%rsi,2),%rax
    9012:	00 
    9013:	48 85 c0             	test   %rax,%rax
    9016:	74 0f                	je     9027 <_ZN4core3ops8function6FnOnce40call_once$u7b$$u7b$vtable.shim$u7d$$u7d$17h8894eed54949be8fE+0x97>
    9018:	48 8b 7b 08          	mov    0x8(%rbx),%rdi
    901c:	ba 01 00 00 00       	mov    $0x1,%edx
    9021:	ff 15 b9 db 04 00    	call   *0x4dbb9(%rip)        # 56be0 <_GLOBAL_OFFSET_TABLE_+0x250>
    9027:	4c 89 f7             	mov    %r14,%rdi
    902a:	e8 11 d0 ff ff       	call   6040 <_Unwind_Resume@plt>
    902f:	90                   	nop

0000000000009030 <_ZN4core3ops8function6FnOnce40call_once$u7b$$u7b$vtable.shim$u7d$$u7d$17haf8727caba3b1244E>:
    9030:	48 8b 07             	mov    (%rdi),%rax
    9033:	48 8b 38             	mov    (%rax),%rdi
    9036:	ff 25 f4 dd 04 00    	jmp    *0x4ddf4(%rip)        # 56e30 <_Unwind_GetDataRelBase@GCC_3.0>
    903c:	0f 1f 40 00          	nopl   0x0(%rax)

0000000000009040 <_ZN4core3ops8function6FnOnce40call_once$u7b$$u7b$vtable.shim$u7d$$u7d$17hb72b9ffaeb34feacE>:
    9040:	e9 5b aa 01 00       	jmp    23aa0 <_ZN3std10sys_common9backtrace10_print_fmt28_$u7b$$u7b$closure$u7d$$u7d$28_$u7b$$u7b$closure$u7d$$u7d$17hbbbd7548e5fc5a63E>
    9045:	66 2e 0f 1f 84 00 00 	cs nopw 0x0(%rax,%rax,1)
    904c:	00 00 00 
    904f:	90                   	nop

0000000000009050 <_ZN4core3ops8function6FnOnce9call_once17h7ff49199b1da5d5eE>:
    9050:	50                   	push   %rax
    9051:	e8 1a 65 01 00       	call   1f570 <_ZN3std2rt19lang_start_internal28_$u7b$$u7b$closure$u7d$$u7d$17haab3e185211225eaE>
    9056:	66 2e 0f 1f 84 00 00 	cs nopw 0x0(%rax,%rax,1)
    905d:	00 00 00 

0000000000009060 <_ZN4core3ptr107drop_in_place$LT$std..backtrace..lazy_resolve..$u7b$$u7b$closure$u7d$$u7d$..$u7b$$u7b$closure$u7d$$u7d$$GT$17h8d9a72156be2ad31E>:
    9060:	c3                   	ret
    9061:	66 2e 0f 1f 84 00 00 	cs nopw 0x0(%rax,%rax,1)
    9068:	00 00 00 
    906b:	0f 1f 44 00 00       	nopl   0x0(%rax,%rax,1)

0000000000009070 <_ZN4core3ptr108drop_in_place$LT$alloc..collections..btree..map..BTreeMap$LT$u64$C$gimli..read..abbrev..Abbreviation$GT$$GT$17hba098d97fab83f48E>:
    9070:	41 57                	push   %r15
    9072:	41 56                	push   %r14
    9074:	53                   	push   %rbx
    9075:	48 83 ec 60          	sub    $0x60,%rsp
    9079:	48 8b 0f             	mov    (%rdi),%rcx
    907c:	48 85 c9             	test   %rcx,%rcx
    907f:	74 35                	je     90b6 <_ZN4core3ptr108drop_in_place$LT$alloc..collections..btree..map..BTreeMap$LT$u64$C$gimli..read..abbrev..Abbreviation$GT$$GT$17hba098d97fab83f48E+0x46>
    9081:	48 8b 57 08          	mov    0x8(%rdi),%rdx
    9085:	48 8b 47 10          	mov    0x10(%rdi),%rax
    9089:	48 c7 44 24 20 00 00 	movq   $0x0,0x20(%rsp)
    9090:	00 00 
    9092:	48 89 4c 24 28       	mov    %rcx,0x28(%rsp)
    9097:	48 89 54 24 30       	mov    %rdx,0x30(%rsp)
    909c:	48 c7 44 24 40 00 00 	movq   $0x0,0x40(%rsp)
    90a3:	00 00 
    90a5:	48 89 4c 24 48       	mov    %rcx,0x48(%rsp)
    90aa:	48 89 54 24 50       	mov    %rdx,0x50(%rsp)
    90af:	b9 01 00 00 00       	mov    $0x1,%ecx
    90b4:	eb 04                	jmp    90ba <_ZN4core3ptr108drop_in_place$LT$alloc..collections..btree..map..BTreeMap$LT$u64$C$gimli..read..abbrev..Abbreviation$GT$$GT$17hba098d97fab83f48E+0x4a>
    90b6:	31 c9                	xor    %ecx,%ecx
    90b8:	31 c0                	xor    %eax,%eax
    90ba:	48 89 4c 24 18       	mov    %rcx,0x18(%rsp)
    90bf:	48 89 4c 24 38       	mov    %rcx,0x38(%rsp)
    90c4:	48 89 44 24 58       	mov    %rax,0x58(%rsp)
    90c9:	48 89 e7             	mov    %rsp,%rdi
    90cc:	48 8d 74 24 18       	lea    0x18(%rsp),%rsi
    90d1:	e8 aa 35 00 00       	call   c680 <_ZN5alloc11collections5btree3map25IntoIter$LT$K$C$V$C$A$GT$10dying_next17hda2cddd35d3d33f2E>
    90d6:	48 8b 04 24          	mov    (%rsp),%rax
    90da:	48 85 c0             	test   %rax,%rax
    90dd:	74 50                	je     912f <_ZN4core3ptr108drop_in_place$LT$alloc..collections..btree..map..BTreeMap$LT$u64$C$gimli..read..abbrev..Abbreviation$GT$$GT$17hba098d97fab83f48E+0xbf>
    90df:	48 89 e3             	mov    %rsp,%rbx
    90e2:	4c 8d 74 24 18       	lea    0x18(%rsp),%r14
    90e7:	4c 8d 3d 22 f9 ff ff 	lea    -0x6de(%rip),%r15        # 8a10 <__rust_dealloc>
    90ee:	eb 14                	jmp    9104 <_ZN4core3ptr108drop_in_place$LT$alloc..collections..btree..map..BTreeMap$LT$u64$C$gimli..read..abbrev..Abbreviation$GT$$GT$17hba098d97fab83f48E+0x94>
    90f0:	48 89 df             	mov    %rbx,%rdi
    90f3:	4c 89 f6             	mov    %r14,%rsi
    90f6:	e8 85 35 00 00       	call   c680 <_ZN5alloc11collections5btree3map25IntoIter$LT$K$C$V$C$A$GT$10dying_next17hda2cddd35d3d33f2E>
    90fb:	48 8b 04 24          	mov    (%rsp),%rax
    90ff:	48 85 c0             	test   %rax,%rax
    9102:	74 2b                	je     912f <_ZN4core3ptr108drop_in_place$LT$alloc..collections..btree..map..BTreeMap$LT$u64$C$gimli..read..abbrev..Abbreviation$GT$$GT$17hba098d97fab83f48E+0xbf>
    9104:	48 6b 4c 24 10 70    	imul   $0x70,0x10(%rsp),%rcx
    910a:	48 83 3c 08 00       	cmpq   $0x0,(%rax,%rcx,1)
    910f:	74 df                	je     90f0 <_ZN4core3ptr108drop_in_place$LT$alloc..collections..btree..map..BTreeMap$LT$u64$C$gimli..read..abbrev..Abbreviation$GT$$GT$17hba098d97fab83f48E+0x80>
    9111:	48 01 c8             	add    %rcx,%rax
    9114:	48 8b 70 08          	mov    0x8(%rax),%rsi
    9118:	48 85 f6             	test   %rsi,%rsi
    911b:	74 d3                	je     90f0 <_ZN4core3ptr108drop_in_place$LT$alloc..collections..btree..map..BTreeMap$LT$u64$C$gimli..read..abbrev..Abbreviation$GT$$GT$17hba098d97fab83f48E+0x80>
    911d:	48 8b 78 10          	mov    0x10(%rax),%rdi
    9121:	48 c1 e6 04          	shl    $0x4,%rsi
    9125:	ba 08 00 00 00       	mov    $0x8,%edx
    912a:	41 ff d7             	call   *%r15
    912d:	eb c1                	jmp    90f0 <_ZN4core3ptr108drop_in_place$LT$alloc..collections..btree..map..BTreeMap$LT$u64$C$gimli..read..abbrev..Abbreviation$GT$$GT$17hba098d97fab83f48E+0x80>
    912f:	48 83 c4 60          	add    $0x60,%rsp
    9133:	5b                   	pop    %rbx
    9134:	41 5e                	pop    %r14
    9136:	41 5f                	pop    %r15
    9138:	c3                   	ret
    9139:	0f 1f 80 00 00 00 00 	nopl   0x0(%rax)

0000000000009140 <_ZN4core3ptr111drop_in_place$LT$alloc..vec..Vec$LT$std..backtrace_rs..symbolize..gimli..parse_running_mmaps..MapsEntry$GT$$GT$17h4a5e65293407c1f0E>:
    9140:	41 57                	push   %r15
    9142:	41 56                	push   %r14
    9144:	41 55                	push   %r13
    9146:	41 54                	push   %r12
    9148:	53                   	push   %rbx
    9149:	49 89 fe             	mov    %rdi,%r14
    914c:	48 8b 5f 08          	mov    0x8(%rdi),%rbx
    9150:	4c 8b 7f 10          	mov    0x10(%rdi),%r15
    9154:	4d 85 ff             	test   %r15,%r15
    9157:	74 38                	je     9191 <_ZN4core3ptr111drop_in_place$LT$alloc..vec..Vec$LT$std..backtrace_rs..symbolize..gimli..parse_running_mmaps..MapsEntry$GT$$GT$17h4a5e65293407c1f0E+0x51>
    9159:	4c 8d 63 08          	lea    0x8(%rbx),%r12
    915d:	4c 8d 2d ac f8 ff ff 	lea    -0x754(%rip),%r13        # 8a10 <__rust_dealloc>
    9164:	eb 13                	jmp    9179 <_ZN4core3ptr111drop_in_place$LT$alloc..vec..Vec$LT$std..backtrace_rs..symbolize..gimli..parse_running_mmaps..MapsEntry$GT$$GT$17h4a5e65293407c1f0E+0x39>
    9166:	66 2e 0f 1f 84 00 00 	cs nopw 0x0(%rax,%rax,1)
    916d:	00 00 00 
    9170:	49 83 c4 58          	add    $0x58,%r12
    9174:	49 ff cf             	dec    %r15
    9177:	74 18                	je     9191 <_ZN4core3ptr111drop_in_place$LT$alloc..vec..Vec$LT$std..backtrace_rs..symbolize..gimli..parse_running_mmaps..MapsEntry$GT$$GT$17h4a5e65293407c1f0E+0x51>
    9179:	49 8b 74 24 f8       	mov    -0x8(%r12),%rsi
    917e:	48 85 f6             	test   %rsi,%rsi
    9181:	74 ed                	je     9170 <_ZN4core3ptr111drop_in_place$LT$alloc..vec..Vec$LT$std..backtrace_rs..symbolize..gimli..parse_running_mmaps..MapsEntry$GT$$GT$17h4a5e65293407c1f0E+0x30>
    9183:	49 8b 3c 24          	mov    (%r12),%rdi
    9187:	ba 01 00 00 00       	mov    $0x1,%edx
    918c:	41 ff d5             	call   *%r13
    918f:	eb df                	jmp    9170 <_ZN4core3ptr111drop_in_place$LT$alloc..vec..Vec$LT$std..backtrace_rs..symbolize..gimli..parse_running_mmaps..MapsEntry$GT$$GT$17h4a5e65293407c1f0E+0x30>
    9191:	49 8b 06             	mov    (%r14),%rax
    9194:	48 85 c0             	test   %rax,%rax
    9197:	74 1b                	je     91b4 <_ZN4core3ptr111drop_in_place$LT$alloc..vec..Vec$LT$std..backtrace_rs..symbolize..gimli..parse_running_mmaps..MapsEntry$GT$$GT$17h4a5e65293407c1f0E+0x74>
    9199:	48 6b f0 58          	imul   $0x58,%rax,%rsi
    919d:	ba 08 00 00 00       	mov    $0x8,%edx
    91a2:	48 89 df             	mov    %rbx,%rdi
    91a5:	5b                   	pop    %rbx
    91a6:	41 5c                	pop    %r12
    91a8:	41 5d                	pop    %r13
    91aa:	41 5e                	pop    %r14
    91ac:	41 5f                	pop    %r15
    91ae:	ff 25 2c da 04 00    	jmp    *0x4da2c(%rip)        # 56be0 <_GLOBAL_OFFSET_TABLE_+0x250>
    91b4:	5b                   	pop    %rbx
    91b5:	41 5c                	pop    %r12
    91b7:	41 5d                	pop    %r13
    91b9:	41 5e                	pop    %r14
    91bb:	41 5f                	pop    %r15
    91bd:	c3                   	ret
    91be:	66 90                	xchg   %ax,%ax

00000000000091c0 <_ZN4core3ptr123drop_in_place$LT$addr2line..Context$LT$gimli..read..endian_slice..EndianSlice$LT$gimli..endianity..LittleEndian$GT$$GT$$GT$17h9c81baed02fe6066E>:
    91c0:	55                   	push   %rbp
    91c1:	41 57                	push   %r15
    91c3:	41 56                	push   %r14
    91c5:	41 55                	push   %r13
    91c7:	41 54                	push   %r12
    91c9:	53                   	push   %rbx
    91ca:	50                   	push   %rax
    91cb:	48 89 fb             	mov    %rdi,%rbx
    91ce:	48 8b 07             	mov    (%rdi),%rax
    91d1:	f0 48 ff 08          	lock decq (%rax)
    91d5:	75 08                	jne    91df <_ZN4core3ptr123drop_in_place$LT$addr2line..Context$LT$gimli..read..endian_slice..EndianSlice$LT$gimli..endianity..LittleEndian$GT$$GT$$GT$17h9c81baed02fe6066E+0x1f>
    91d7:	48 89 df             	mov    %rbx,%rdi
    91da:	e8 e1 39 00 00       	call   cbc0 <_ZN5alloc4sync16Arc$LT$T$C$A$GT$9drop_slow17h9da5daf7445558f5E>
    91df:	48 8b 73 10          	mov    0x10(%rbx),%rsi
    91e3:	48 85 f6             	test   %rsi,%rsi
    91e6:	74 13                	je     91fb <_ZN4core3ptr123drop_in_place$LT$addr2line..Context$LT$gimli..read..endian_slice..EndianSlice$LT$gimli..endianity..LittleEndian$GT$$GT$$GT$17h9c81baed02fe6066E+0x3b>
    91e8:	48 8b 7b 08          	mov    0x8(%rbx),%rdi
    91ec:	48 c1 e6 05          	shl    $0x5,%rsi
    91f0:	ba 08 00 00 00       	mov    $0x8,%edx
    91f5:	ff 15 e5 d9 04 00    	call   *0x4d9e5(%rip)        # 56be0 <_GLOBAL_OFFSET_TABLE_+0x250>
    91fb:	4c 8b 7b 18          	mov    0x18(%rbx),%r15
    91ff:	4c 8b 6b 20          	mov    0x20(%rbx),%r13
    9203:	bd 01 00 00 00       	mov    $0x1,%ebp
    9208:	4c 89 ff             	mov    %r15,%rdi
    920b:	0f 1f 44 00 00       	nopl   0x0(%rax,%rax,1)
    9210:	4c 89 e8             	mov    %r13,%rax
    9213:	48 01 e8             	add    %rbp,%rax
    9216:	48 83 f8 01          	cmp    $0x1,%rax
    921a:	74 14                	je     9230 <_ZN4core3ptr123drop_in_place$LT$addr2line..Context$LT$gimli..read..endian_slice..EndianSlice$LT$gimli..endianity..LittleEndian$GT$$GT$$GT$17h9c81baed02fe6066E+0x70>
    921c:	4c 8d a7 18 02 00 00 	lea    0x218(%rdi),%r12
    9223:	48 ff cd             	dec    %rbp
    9226:	e8 d5 00 00 00       	call   9300 <_ZN4core3ptr123drop_in_place$LT$addr2line..ResUnit$LT$gimli..read..endian_slice..EndianSlice$LT$gimli..endianity..LittleEndian$GT$$GT$$GT$17ha047f51e8368cc1dE>
    922b:	4c 89 e7             	mov    %r12,%rdi
    922e:	eb e0                	jmp    9210 <_ZN4core3ptr123drop_in_place$LT$addr2line..Context$LT$gimli..read..endian_slice..EndianSlice$LT$gimli..endianity..LittleEndian$GT$$GT$$GT$17h9c81baed02fe6066E+0x50>
    9230:	4d 85 ed             	test   %r13,%r13
    9233:	74 15                	je     924a <_ZN4core3ptr123drop_in_place$LT$addr2line..Context$LT$gimli..read..endian_slice..EndianSlice$LT$gimli..endianity..LittleEndian$GT$$GT$$GT$17h9c81baed02fe6066E+0x8a>
    9235:	49 69 f5 18 02 00 00 	imul   $0x218,%r13,%rsi
    923c:	ba 08 00 00 00       	mov    $0x8,%edx
    9241:	4c 89 ff             	mov    %r15,%rdi
    9244:	ff 15 96 d9 04 00    	call   *0x4d996(%rip)        # 56be0 <_GLOBAL_OFFSET_TABLE_+0x250>
    924a:	48 83 c3 28          	add    $0x28,%rbx
    924e:	48 89 df             	mov    %rbx,%rdi
    9251:	48 83 c4 08          	add    $0x8,%rsp
    9255:	5b                   	pop    %rbx
    9256:	41 5c                	pop    %r12
    9258:	41 5d                	pop    %r13
    925a:	41 5e                	pop    %r14
    925c:	41 5f                	pop    %r15
    925e:	5d                   	pop    %rbp
    925f:	e9 5c 05 00 00       	jmp    97c0 <_ZN4core3ptr158drop_in_place$LT$alloc..boxed..Box$LT$$u5b$addr2line..SupUnit$LT$gimli..read..endian_slice..EndianSlice$LT$gimli..endianity..LittleEndian$GT$$GT$$u5d$$GT$$GT$17he838538cf3d090c9E>
    9264:	48 89 04 24          	mov    %rax,(%rsp)
    9268:	48 8b 73 10          	mov    0x10(%rbx),%rsi
    926c:	48 85 f6             	test   %rsi,%rsi
    926f:	74 13                	je     9284 <_ZN4core3ptr123drop_in_place$LT$addr2line..Context$LT$gimli..read..endian_slice..EndianSlice$LT$gimli..endianity..LittleEndian$GT$$GT$$GT$17h9c81baed02fe6066E+0xc4>
    9271:	48 8b 7b 08          	mov    0x8(%rbx),%rdi
    9275:	48 c1 e6 05          	shl    $0x5,%rsi
    9279:	ba 08 00 00 00       	mov    $0x8,%edx
    927e:	ff 15 5c d9 04 00    	call   *0x4d95c(%rip)        # 56be0 <_GLOBAL_OFFSET_TABLE_+0x250>
    9284:	48 8b 7b 18          	mov    0x18(%rbx),%rdi
    9288:	48 8b 73 20          	mov    0x20(%rbx),%rsi
    928c:	e8 5f 04 00 00       	call   96f0 <_ZN4core3ptr158drop_in_place$LT$alloc..boxed..Box$LT$$u5b$addr2line..ResUnit$LT$gimli..read..endian_slice..EndianSlice$LT$gimli..endianity..LittleEndian$GT$$GT$$u5d$$GT$$GT$17h49cc7565f6a865e1E>
    9291:	eb 44                	jmp    92d7 <_ZN4core3ptr123drop_in_place$LT$addr2line..Context$LT$gimli..read..endian_slice..EndianSlice$LT$gimli..endianity..LittleEndian$GT$$GT$$GT$17h9c81baed02fe6066E+0x117>
    9293:	48 89 04 24          	mov    %rax,(%rsp)
    9297:	48 f7 dd             	neg    %rbp
    929a:	66 0f 1f 44 00 00    	nopw   0x0(%rax,%rax,1)
    92a0:	48 ff c5             	inc    %rbp
    92a3:	49 39 ed             	cmp    %rbp,%r13
    92a6:	74 15                	je     92bd <_ZN4core3ptr123drop_in_place$LT$addr2line..Context$LT$gimli..read..endian_slice..EndianSlice$LT$gimli..endianity..LittleEndian$GT$$GT$$GT$17h9c81baed02fe6066E+0xfd>
    92a8:	4d 8d b4 24 18 02 00 	lea    0x218(%r12),%r14
    92af:	00 
    92b0:	4c 89 e7             	mov    %r12,%rdi
    92b3:	e8 48 00 00 00       	call   9300 <_ZN4core3ptr123drop_in_place$LT$addr2line..ResUnit$LT$gimli..read..endian_slice..EndianSlice$LT$gimli..endianity..LittleEndian$GT$$GT$$GT$17ha047f51e8368cc1dE>
    92b8:	4d 89 f4             	mov    %r14,%r12
    92bb:	eb e3                	jmp    92a0 <_ZN4core3ptr123drop_in_place$LT$addr2line..Context$LT$gimli..read..endian_slice..EndianSlice$LT$gimli..endianity..LittleEndian$GT$$GT$$GT$17h9c81baed02fe6066E+0xe0>
    92bd:	4d 85 ed             	test   %r13,%r13
    92c0:	74 15                	je     92d7 <_ZN4core3ptr123drop_in_place$LT$addr2line..Context$LT$gimli..read..endian_slice..EndianSlice$LT$gimli..endianity..LittleEndian$GT$$GT$$GT$17h9c81baed02fe6066E+0x117>
    92c2:	49 69 f5 18 02 00 00 	imul   $0x218,%r13,%rsi
    92c9:	ba 08 00 00 00       	mov    $0x8,%edx
    92ce:	4c 89 ff             	mov    %r15,%rdi
    92d1:	ff 15 09 d9 04 00    	call   *0x4d909(%rip)        # 56be0 <_GLOBAL_OFFSET_TABLE_+0x250>
    92d7:	48 83 c3 28          	add    $0x28,%rbx
    92db:	48 89 df             	mov    %rbx,%rdi
    92de:	e8 dd 04 00 00       	call   97c0 <_ZN4core3ptr158drop_in_place$LT$alloc..boxed..Box$LT$$u5b$addr2line..SupUnit$LT$gimli..read..endian_slice..EndianSlice$LT$gimli..endianity..LittleEndian$GT$$GT$$u5d$$GT$$GT$17he838538cf3d090c9E>
    92e3:	48 8b 3c 24          	mov    (%rsp),%rdi
    92e7:	e8 54 cd ff ff       	call   6040 <_Unwind_Resume@plt>
    92ec:	ff 15 ae d8 04 00    	call   *0x4d8ae(%rip)        # 56ba0 <_GLOBAL_OFFSET_TABLE_+0x210>
    92f2:	ff 15 a8 d8 04 00    	call   *0x4d8a8(%rip)        # 56ba0 <_GLOBAL_OFFSET_TABLE_+0x210>
    92f8:	0f 1f 84 00 00 00 00 	nopl   0x0(%rax,%rax,1)
    92ff:	00 

0000000000009300 <_ZN4core3ptr123drop_in_place$LT$addr2line..ResUnit$LT$gimli..read..endian_slice..EndianSlice$LT$gimli..endianity..LittleEndian$GT$$GT$$GT$17ha047f51e8368cc1dE>:
    9300:	41 56                	push   %r14
    9302:	53                   	push   %rbx
    9303:	50                   	push   %rax
    9304:	48 89 fb             	mov    %rdi,%rbx
    9307:	48 8b 87 58 01 00 00 	mov    0x158(%rdi),%rax
    930e:	f0 48 ff 08          	lock decq (%rax)
    9312:	75 0c                	jne    9320 <_ZN4core3ptr123drop_in_place$LT$addr2line..ResUnit$LT$gimli..read..endian_slice..EndianSlice$LT$gimli..endianity..LittleEndian$GT$$GT$$GT$17ha047f51e8368cc1dE+0x20>
    9314:	48 8d bb 58 01 00 00 	lea    0x158(%rbx),%rdi
    931b:	e8 b0 37 00 00       	call   cad0 <_ZN5alloc4sync16Arc$LT$T$C$A$GT$9drop_slow17h3d57b9dc13c2447eE>
    9320:	48 8d 7b 60          	lea    0x60(%rbx),%rdi
    9324:	e8 17 06 00 00       	call   9940 <_ZN4core3ptr181drop_in_place$LT$core..option..Option$LT$gimli..read..line..IncompleteLineProgram$LT$gimli..read..endian_slice..EndianSlice$LT$gimli..endianity..LittleEndian$GT$$C$usize$GT$$GT$$GT$17h7714d02b0f4f4e7dE>
    9329:	48 83 bb b0 01 00 00 	cmpq   $0x0,0x1b0(%rbx)
    9330:	00 
    9331:	74 0c                	je     933f <_ZN4core3ptr123drop_in_place$LT$addr2line..ResUnit$LT$gimli..read..endian_slice..EndianSlice$LT$gimli..endianity..LittleEndian$GT$$GT$$GT$17ha047f51e8368cc1dE+0x3f>
    9333:	48 8d bb b8 01 00 00 	lea    0x1b8(%rbx),%rdi
    933a:	e8 51 0e 00 00       	call   a190 <_ZN4core3ptr86drop_in_place$LT$core..result..Result$LT$addr2line..Lines$C$gimli..read..Error$GT$$GT$17hc5d4db2279e7b672E>
    933f:	48 83 bb d8 01 00 00 	cmpq   $0x0,0x1d8(%rbx)
    9346:	00 
    9347:	74 0c                	je     9355 <_ZN4core3ptr123drop_in_place$LT$addr2line..ResUnit$LT$gimli..read..endian_slice..EndianSlice$LT$gimli..endianity..LittleEndian$GT$$GT$$GT$17ha047f51e8368cc1dE+0x55>
    9349:	48 8d bb e0 01 00 00 	lea    0x1e0(%rbx),%rdi
    9350:	e8 7b 06 00 00       	call   99d0 <_ZN4core3ptr184drop_in_place$LT$core..result..Result$LT$addr2line..function..Functions$LT$gimli..read..endian_slice..EndianSlice$LT$gimli..endianity..LittleEndian$GT$$GT$$C$gimli..read..Error$GT$$GT$17h0480be43af879860E>
    9355:	80 bb 00 02 00 00 4c 	cmpb   $0x4c,0x200(%rbx)
    935c:	75 08                	jne    9366 <_ZN4core3ptr123drop_in_place$LT$addr2line..ResUnit$LT$gimli..read..endian_slice..EndianSlice$LT$gimli..endianity..LittleEndian$GT$$GT$$GT$17ha047f51e8368cc1dE+0x66>
    935e:	48 83 c4 08          	add    $0x8,%rsp
    9362:	5b                   	pop    %rbx
    9363:	41 5e                	pop    %r14
    9365:	c3                   	ret
    9366:	48 81 c3 00 02 00 00 	add    $0x200,%rbx
    936d:	48 89 df             	mov    %rbx,%rdi
    9370:	48 83 c4 08          	add    $0x8,%rsp
    9374:	5b                   	pop    %rbx
    9375:	41 5e                	pop    %r14
    9377:	e9 e4 07 00 00       	jmp    9b60 <_ZN4core3ptr383drop_in_place$LT$core..result..Result$LT$core..option..Option$LT$alloc..boxed..Box$LT$$LP$alloc..sync..Arc$LT$gimli..read..dwarf..Dwarf$LT$gimli..read..endian_slice..EndianSlice$LT$gimli..endianity..LittleEndian$GT$$GT$$GT$$C$gimli..read..dwarf..Unit$LT$gimli..read..endian_slice..EndianSlice$LT$gimli..endianity..LittleEndian$GT$$C$usize$GT$$RP$$GT$$GT$$C$gimli..read..Error$GT$$GT$17h6863e5e654436b96E>
    937c:	49 89 c6             	mov    %rax,%r14
    937f:	48 8d 7b 60          	lea    0x60(%rbx),%rdi
    9383:	e8 b8 05 00 00       	call   9940 <_ZN4core3ptr181drop_in_place$LT$core..option..Option$LT$gimli..read..line..IncompleteLineProgram$LT$gimli..read..endian_slice..EndianSlice$LT$gimli..endianity..LittleEndian$GT$$C$usize$GT$$GT$$GT$17h7714d02b0f4f4e7dE>
    9388:	48 83 bb b0 01 00 00 	cmpq   $0x0,0x1b0(%rbx)
    938f:	00 
    9390:	75 15                	jne    93a7 <_ZN4core3ptr123drop_in_place$LT$addr2line..ResUnit$LT$gimli..read..endian_slice..EndianSlice$LT$gimli..endianity..LittleEndian$GT$$GT$$GT$17ha047f51e8368cc1dE+0xa7>
    9392:	48 83 bb d8 01 00 00 	cmpq   $0x0,0x1d8(%rbx)
    9399:	00 
    939a:	75 21                	jne    93bd <_ZN4core3ptr123drop_in_place$LT$addr2line..ResUnit$LT$gimli..read..endian_slice..EndianSlice$LT$gimli..endianity..LittleEndian$GT$$GT$$GT$17ha047f51e8368cc1dE+0xbd>
    939c:	80 bb 00 02 00 00 4c 	cmpb   $0x4c,0x200(%rbx)
    93a3:	75 2d                	jne    93d2 <_ZN4core3ptr123drop_in_place$LT$addr2line..ResUnit$LT$gimli..read..endian_slice..EndianSlice$LT$gimli..endianity..LittleEndian$GT$$GT$$GT$17ha047f51e8368cc1dE+0xd2>
    93a5:	eb 3a                	jmp    93e1 <_ZN4core3ptr123drop_in_place$LT$addr2line..ResUnit$LT$gimli..read..endian_slice..EndianSlice$LT$gimli..endianity..LittleEndian$GT$$GT$$GT$17ha047f51e8368cc1dE+0xe1>
    93a7:	48 8d bb b8 01 00 00 	lea    0x1b8(%rbx),%rdi
    93ae:	e8 dd 0d 00 00       	call   a190 <_ZN4core3ptr86drop_in_place$LT$core..result..Result$LT$addr2line..Lines$C$gimli..read..Error$GT$$GT$17hc5d4db2279e7b672E>
    93b3:	48 83 bb d8 01 00 00 	cmpq   $0x0,0x1d8(%rbx)
    93ba:	00 
    93bb:	74 df                	je     939c <_ZN4core3ptr123drop_in_place$LT$addr2line..ResUnit$LT$gimli..read..endian_slice..EndianSlice$LT$gimli..endianity..LittleEndian$GT$$GT$$GT$17ha047f51e8368cc1dE+0x9c>
    93bd:	48 8d bb e0 01 00 00 	lea    0x1e0(%rbx),%rdi
    93c4:	e8 07 06 00 00       	call   99d0 <_ZN4core3ptr184drop_in_place$LT$core..result..Result$LT$addr2line..function..Functions$LT$gimli..read..endian_slice..EndianSlice$LT$gimli..endianity..LittleEndian$GT$$GT$$C$gimli..read..Error$GT$$GT$17h0480be43af879860E>
    93c9:	80 bb 00 02 00 00 4c 	cmpb   $0x4c,0x200(%rbx)
    93d0:	74 0f                	je     93e1 <_ZN4core3ptr123drop_in_place$LT$addr2line..ResUnit$LT$gimli..read..endian_slice..EndianSlice$LT$gimli..endianity..LittleEndian$GT$$GT$$GT$17ha047f51e8368cc1dE+0xe1>
    93d2:	48 81 c3 00 02 00 00 	add    $0x200,%rbx
    93d9:	48 89 df             	mov    %rbx,%rdi
    93dc:	e8 7f 07 00 00       	call   9b60 <_ZN4core3ptr383drop_in_place$LT$core..result..Result$LT$core..option..Option$LT$alloc..boxed..Box$LT$$LP$alloc..sync..Arc$LT$gimli..read..dwarf..Dwarf$LT$gimli..read..endian_slice..EndianSlice$LT$gimli..endianity..LittleEndian$GT$$GT$$GT$$C$gimli..read..dwarf..Unit$LT$gimli..read..endian_slice..EndianSlice$LT$gimli..endianity..LittleEndian$GT$$C$usize$GT$$RP$$GT$$GT$$C$gimli..read..Error$GT$$GT$17h6863e5e654436b96E>
    93e1:	4c 89 f7             	mov    %r14,%rdi
    93e4:	e8 57 cc ff ff       	call   6040 <_Unwind_Resume@plt>
    93e9:	ff 15 b1 d7 04 00    	call   *0x4d7b1(%rip)        # 56ba0 <_GLOBAL_OFFSET_TABLE_+0x210>
    93ef:	90                   	nop

00000000000093f0 <_ZN4core3ptr123drop_in_place$LT$addr2line..SupUnit$LT$gimli..read..endian_slice..EndianSlice$LT$gimli..endianity..LittleEndian$GT$$GT$$GT$17h7c2f9a94b47d6422E>:
    93f0:	41 56                	push   %r14
    93f2:	53                   	push   %rbx
    93f3:	50                   	push   %rax
    93f4:	48 89 fb             	mov    %rdi,%rbx
    93f7:	48 8b 87 58 01 00 00 	mov    0x158(%rdi),%rax
    93fe:	f0 48 ff 08          	lock decq (%rax)
    9402:	75 0c                	jne    9410 <_ZN4core3ptr123drop_in_place$LT$addr2line..SupUnit$LT$gimli..read..endian_slice..EndianSlice$LT$gimli..endianity..LittleEndian$GT$$GT$$GT$17h7c2f9a94b47d6422E+0x20>
    9404:	48 8d bb 58 01 00 00 	lea    0x158(%rbx),%rdi
    940b:	e8 c0 36 00 00       	call   cad0 <_ZN5alloc4sync16Arc$LT$T$C$A$GT$9drop_slow17h3d57b9dc13c2447eE>
    9410:	48 83 c3 60          	add    $0x60,%rbx
    9414:	48 89 df             	mov    %rbx,%rdi
    9417:	48 83 c4 08          	add    $0x8,%rsp
    941b:	5b                   	pop    %rbx
    941c:	41 5e                	pop    %r14
    941e:	e9 1d 05 00 00       	jmp    9940 <_ZN4core3ptr181drop_in_place$LT$core..option..Option$LT$gimli..read..line..IncompleteLineProgram$LT$gimli..read..endian_slice..EndianSlice$LT$gimli..endianity..LittleEndian$GT$$C$usize$GT$$GT$$GT$17h7714d02b0f4f4e7dE>
    9423:	49 89 c6             	mov    %rax,%r14
    9426:	48 83 c3 60          	add    $0x60,%rbx
    942a:	48 89 df             	mov    %rbx,%rdi
    942d:	e8 0e 05 00 00       	call   9940 <_ZN4core3ptr181drop_in_place$LT$core..option..Option$LT$gimli..read..line..IncompleteLineProgram$LT$gimli..read..endian_slice..EndianSlice$LT$gimli..endianity..LittleEndian$GT$$C$usize$GT$$GT$$GT$17h7714d02b0f4f4e7dE>
    9432:	4c 89 f7             	mov    %r14,%rdi
    9435:	e8 06 cc ff ff       	call   6040 <_Unwind_Resume@plt>
    943a:	66 0f 1f 44 00 00    	nopw   0x0(%rax,%rax,1)

0000000000009440 <_ZN4core3ptr130drop_in_place$LT$gimli..read..dwarf..Dwarf$LT$gimli..read..endian_slice..EndianSlice$LT$gimli..endianity..LittleEndian$GT$$GT$$GT$17h6e3184779b996e34E>:
    9440:	41 56                	push   %r14
    9442:	53                   	push   %rbx
    9443:	50                   	push   %rax
    9444:	48 89 fb             	mov    %rdi,%rbx
    9447:	48 8b 87 d0 00 00 00 	mov    0xd0(%rdi),%rax
    944e:	48 85 c0             	test   %rax,%rax
    9451:	74 12                	je     9465 <_ZN4core3ptr130drop_in_place$LT$gimli..read..dwarf..Dwarf$LT$gimli..read..endian_slice..EndianSlice$LT$gimli..endianity..LittleEndian$GT$$GT$$GT$17h6e3184779b996e34E+0x25>
    9453:	f0 48 ff 08          	lock decq (%rax)
    9457:	75 0c                	jne    9465 <_ZN4core3ptr130drop_in_place$LT$gimli..read..dwarf..Dwarf$LT$gimli..read..endian_slice..EndianSlice$LT$gimli..endianity..LittleEndian$GT$$GT$$GT$17h6e3184779b996e34E+0x25>
    9459:	48 8d bb d0 00 00 00 	lea    0xd0(%rbx),%rdi
    9460:	e8 5b 37 00 00       	call   cbc0 <_ZN5alloc4sync16Arc$LT$T$C$A$GT$9drop_slow17h9da5daf7445558f5E>
    9465:	48 8b 83 d8 00 00 00 	mov    0xd8(%rbx),%rax
    946c:	48 85 c0             	test   %rax,%rax
    946f:	74 17                	je     9488 <_ZN4core3ptr130drop_in_place$LT$gimli..read..dwarf..Dwarf$LT$gimli..read..endian_slice..EndianSlice$LT$gimli..endianity..LittleEndian$GT$$GT$$GT$17h6e3184779b996e34E+0x48>
    9471:	48 8d 48 f0          	lea    -0x10(%rax),%rcx
    9475:	48 89 0c 24          	mov    %rcx,(%rsp)
    9479:	f0 48 ff 48 f0       	lock decq -0x10(%rax)
    947e:	75 08                	jne    9488 <_ZN4core3ptr130drop_in_place$LT$gimli..read..dwarf..Dwarf$LT$gimli..read..endian_slice..EndianSlice$LT$gimli..endianity..LittleEndian$GT$$GT$$GT$17h6e3184779b996e34E+0x48>
    9480:	48 89 e7             	mov    %rsp,%rdi
    9483:	e8 48 36 00 00       	call   cad0 <_ZN5alloc4sync16Arc$LT$T$C$A$GT$9drop_slow17h3d57b9dc13c2447eE>
    9488:	48 83 c4 08          	add    $0x8,%rsp
    948c:	5b                   	pop    %rbx
    948d:	41 5e                	pop    %r14
    948f:	c3                   	ret
    9490:	49 89 c6             	mov    %rax,%r14
    9493:	48 81 c3 d8 00 00 00 	add    $0xd8,%rbx
    949a:	48 89 df             	mov    %rbx,%rdi
    949d:	e8 1e 09 00 00       	call   9dc0 <_ZN4core3ptr60drop_in_place$LT$gimli..read..abbrev..AbbreviationsCache$GT$17hf30ed7af738477a9E>
    94a2:	4c 89 f7             	mov    %r14,%rdi
    94a5:	e8 96 cb ff ff       	call   6040 <_Unwind_Resume@plt>
    94aa:	ff 15 f0 d6 04 00    	call   *0x4d6f0(%rip)        # 56ba0 <_GLOBAL_OFFSET_TABLE_+0x210>

00000000000094b0 <_ZN4core3ptr137drop_in_place$LT$gimli..read..dwarf..Unit$LT$gimli..read..endian_slice..EndianSlice$LT$gimli..endianity..LittleEndian$GT$$C$usize$GT$$GT$17h20e0ce7022cc0cf6E>:
    94b0:	41 56                	push   %r14
    94b2:	53                   	push   %rbx
    94b3:	50                   	push   %rax
    94b4:	48 89 fb             	mov    %rdi,%rbx
    94b7:	48 8b 87 58 01 00 00 	mov    0x158(%rdi),%rax
    94be:	f0 48 ff 08          	lock decq (%rax)
    94c2:	75 0c                	jne    94d0 <_ZN4core3ptr137drop_in_place$LT$gimli..read..dwarf..Unit$LT$gimli..read..endian_slice..EndianSlice$LT$gimli..endianity..LittleEndian$GT$$C$usize$GT$$GT$17h20e0ce7022cc0cf6E+0x20>
    94c4:	48 8d bb 58 01 00 00 	lea    0x158(%rbx),%rdi
    94cb:	e8 00 36 00 00       	call   cad0 <_ZN5alloc4sync16Arc$LT$T$C$A$GT$9drop_slow17h3d57b9dc13c2447eE>
    94d0:	48 83 c3 60          	add    $0x60,%rbx
    94d4:	48 89 df             	mov    %rbx,%rdi
    94d7:	48 83 c4 08          	add    $0x8,%rsp
    94db:	5b                   	pop    %rbx
    94dc:	41 5e                	pop    %r14
    94de:	e9 5d 04 00 00       	jmp    9940 <_ZN4core3ptr181drop_in_place$LT$core..option..Option$LT$gimli..read..line..IncompleteLineProgram$LT$gimli..read..endian_slice..EndianSlice$LT$gimli..endianity..LittleEndian$GT$$C$usize$GT$$GT$$GT$17h7714d02b0f4f4e7dE>
    94e3:	49 89 c6             	mov    %rax,%r14
    94e6:	48 83 c3 60          	add    $0x60,%rbx
    94ea:	48 89 df             	mov    %rbx,%rdi
    94ed:	e8 4e 04 00 00       	call   9940 <_ZN4core3ptr181drop_in_place$LT$core..option..Option$LT$gimli..read..line..IncompleteLineProgram$LT$gimli..read..endian_slice..EndianSlice$LT$gimli..endianity..LittleEndian$GT$$C$usize$GT$$GT$$GT$17h7714d02b0f4f4e7dE>
    94f2:	4c 89 f7             	mov    %r14,%rdi
    94f5:	e8 46 cb ff ff       	call   6040 <_Unwind_Resume@plt>
    94fa:	66 0f 1f 44 00 00    	nopw   0x0(%rax,%rax,1)

0000000000009500 <_ZN4core3ptr146drop_in_place$LT$alloc..vec..Vec$LT$addr2line..ResUnit$LT$gimli..read..endian_slice..EndianSlice$LT$gimli..endianity..LittleEndian$GT$$GT$$GT$$GT$17hd32bb7861f8f972dE>:
    9500:	55                   	push   %rbp
    9501:	41 57                	push   %r15
    9503:	41 56                	push   %r14
    9505:	41 55                	push   %r13
    9507:	41 54                	push   %r12
    9509:	53                   	push   %rbx
    950a:	50                   	push   %rax
    950b:	49 89 fe             	mov    %rdi,%r14
    950e:	48 8b 5f 08          	mov    0x8(%rdi),%rbx
    9512:	4c 8b 6f 10          	mov    0x10(%rdi),%r13
    9516:	49 ff c5             	inc    %r13
    9519:	48 89 df             	mov    %rbx,%rdi
    951c:	0f 1f 40 00          	nopl   0x0(%rax)
    9520:	49 83 fd 01          	cmp    $0x1,%r13
    9524:	74 14                	je     953a <_ZN4core3ptr146drop_in_place$LT$alloc..vec..Vec$LT$addr2line..ResUnit$LT$gimli..read..endian_slice..EndianSlice$LT$gimli..endianity..LittleEndian$GT$$GT$$GT$$GT$17hd32bb7861f8f972dE+0x3a>
    9526:	4c 8d a7 18 02 00 00 	lea    0x218(%rdi),%r12
    952d:	49 ff cd             	dec    %r13
    9530:	e8 cb fd ff ff       	call   9300 <_ZN4core3ptr123drop_in_place$LT$addr2line..ResUnit$LT$gimli..read..endian_slice..EndianSlice$LT$gimli..endianity..LittleEndian$GT$$GT$$GT$17ha047f51e8368cc1dE>
    9535:	4c 89 e7             	mov    %r12,%rdi
    9538:	eb e6                	jmp    9520 <_ZN4core3ptr146drop_in_place$LT$alloc..vec..Vec$LT$addr2line..ResUnit$LT$gimli..read..endian_slice..EndianSlice$LT$gimli..endianity..LittleEndian$GT$$GT$$GT$$GT$17hd32bb7861f8f972dE+0x20>
    953a:	49 8b 06             	mov    (%r14),%rax
    953d:	48 85 c0             	test   %rax,%rax
    9540:	74 23                	je     9565 <_ZN4core3ptr146drop_in_place$LT$alloc..vec..Vec$LT$addr2line..ResUnit$LT$gimli..read..endian_slice..EndianSlice$LT$gimli..endianity..LittleEndian$GT$$GT$$GT$$GT$17hd32bb7861f8f972dE+0x65>
    9542:	48 69 f0 18 02 00 00 	imul   $0x218,%rax,%rsi
    9549:	ba 08 00 00 00       	mov    $0x8,%edx
    954e:	48 89 df             	mov    %rbx,%rdi
    9551:	48 83 c4 08          	add    $0x8,%rsp
    9555:	5b                   	pop    %rbx
    9556:	41 5c                	pop    %r12
    9558:	41 5d                	pop    %r13
    955a:	41 5e                	pop    %r14
    955c:	41 5f                	pop    %r15
    955e:	5d                   	pop    %rbp
    955f:	ff 25 7b d6 04 00    	jmp    *0x4d67b(%rip)        # 56be0 <_GLOBAL_OFFSET_TABLE_+0x250>
    9565:	48 83 c4 08          	add    $0x8,%rsp
    9569:	5b                   	pop    %rbx
    956a:	41 5c                	pop    %r12
    956c:	41 5d                	pop    %r13
    956e:	41 5e                	pop    %r14
    9570:	41 5f                	pop    %r15
    9572:	5d                   	pop    %rbp
    9573:	c3                   	ret
    9574:	49 89 c7             	mov    %rax,%r15
    9577:	66 0f 1f 84 00 00 00 	nopw   0x0(%rax,%rax,1)
    957e:	00 00 
    9580:	49 ff cd             	dec    %r13
    9583:	74 15                	je     959a <_ZN4core3ptr146drop_in_place$LT$alloc..vec..Vec$LT$addr2line..ResUnit$LT$gimli..read..endian_slice..EndianSlice$LT$gimli..endianity..LittleEndian$GT$$GT$$GT$$GT$17hd32bb7861f8f972dE+0x9a>
    9585:	49 8d ac 24 18 02 00 	lea    0x218(%r12),%rbp
    958c:	00 
    958d:	4c 89 e7             	mov    %r12,%rdi
    9590:	e8 6b fd ff ff       	call   9300 <_ZN4core3ptr123drop_in_place$LT$addr2line..ResUnit$LT$gimli..read..endian_slice..EndianSlice$LT$gimli..endianity..LittleEndian$GT$$GT$$GT$17ha047f51e8368cc1dE>
    9595:	49 89 ec             	mov    %rbp,%r12
    9598:	eb e6                	jmp    9580 <_ZN4core3ptr146drop_in_place$LT$alloc..vec..Vec$LT$addr2line..ResUnit$LT$gimli..read..endian_slice..EndianSlice$LT$gimli..endianity..LittleEndian$GT$$GT$$GT$$GT$17hd32bb7861f8f972dE+0x80>
    959a:	49 8b 06             	mov    (%r14),%rax
    959d:	48 85 c0             	test   %rax,%rax
    95a0:	74 15                	je     95b7 <_ZN4core3ptr146drop_in_place$LT$alloc..vec..Vec$LT$addr2line..ResUnit$LT$gimli..read..endian_slice..EndianSlice$LT$gimli..endianity..LittleEndian$GT$$GT$$GT$$GT$17hd32bb7861f8f972dE+0xb7>
    95a2:	48 69 f0 18 02 00 00 	imul   $0x218,%rax,%rsi
    95a9:	ba 08 00 00 00       	mov    $0x8,%edx
    95ae:	48 89 df             	mov    %rbx,%rdi
    95b1:	ff 15 29 d6 04 00    	call   *0x4d629(%rip)        # 56be0 <_GLOBAL_OFFSET_TABLE_+0x250>
    95b7:	4c 89 ff             	mov    %r15,%rdi
    95ba:	e8 81 ca ff ff       	call   6040 <_Unwind_Resume@plt>
    95bf:	ff 15 db d5 04 00    	call   *0x4d5db(%rip)        # 56ba0 <_GLOBAL_OFFSET_TABLE_+0x210>
    95c5:	66 2e 0f 1f 84 00 00 	cs nopw 0x0(%rax,%rax,1)
    95cc:	00 00 00 
    95cf:	90                   	nop

00000000000095d0 <_ZN4core3ptr146drop_in_place$LT$alloc..vec..Vec$LT$addr2line..SupUnit$LT$gimli..read..endian_slice..EndianSlice$LT$gimli..endianity..LittleEndian$GT$$GT$$GT$$GT$17hb2ca6e2e958b3c4cE>:
    95d0:	41 57                	push   %r15
    95d2:	41 56                	push   %r14
    95d4:	41 54                	push   %r12
    95d6:	53                   	push   %rbx
    95d7:	50                   	push   %rax
    95d8:	48 89 fb             	mov    %rdi,%rbx
    95db:	48 8b 47 10          	mov    0x10(%rdi),%rax
    95df:	48 85 c0             	test   %rax,%rax
    95e2:	74 53                	je     9637 <_ZN4core3ptr146drop_in_place$LT$alloc..vec..Vec$LT$addr2line..SupUnit$LT$gimli..read..endian_slice..EndianSlice$LT$gimli..endianity..LittleEndian$GT$$GT$$GT$$GT$17hb2ca6e2e958b3c4cE+0x67>
    95e4:	4c 8b 73 08          	mov    0x8(%rbx),%r14
    95e8:	49 81 c6 08 03 00 00 	add    $0x308,%r14
    95ef:	41 bc 01 00 00 00    	mov    $0x1,%r12d
    95f5:	49 29 c4             	sub    %rax,%r12
    95f8:	eb 22                	jmp    961c <_ZN4core3ptr146drop_in_place$LT$alloc..vec..Vec$LT$addr2line..SupUnit$LT$gimli..read..endian_slice..EndianSlice$LT$gimli..endianity..LittleEndian$GT$$GT$$GT$$GT$17hb2ca6e2e958b3c4cE+0x4c>
    95fa:	66 0f 1f 44 00 00    	nopw   0x0(%rax,%rax,1)
    9600:	49 8d be 58 fd ff ff 	lea    -0x2a8(%r14),%rdi
    9607:	e8 34 03 00 00       	call   9940 <_ZN4core3ptr181drop_in_place$LT$core..option..Option$LT$gimli..read..line..IncompleteLineProgram$LT$gimli..read..endian_slice..EndianSlice$LT$gimli..endianity..LittleEndian$GT$$C$usize$GT$$GT$$GT$17h7714d02b0f4f4e7dE>
    960c:	49 81 c6 b0 01 00 00 	add    $0x1b0,%r14
    9613:	49 ff c4             	inc    %r12
    9616:	49 83 fc 01          	cmp    $0x1,%r12
    961a:	74 1b                	je     9637 <_ZN4core3ptr146drop_in_place$LT$alloc..vec..Vec$LT$addr2line..SupUnit$LT$gimli..read..endian_slice..EndianSlice$LT$gimli..endianity..LittleEndian$GT$$GT$$GT$$GT$17hb2ca6e2e958b3c4cE+0x67>
    961c:	49 8b 86 50 fe ff ff 	mov    -0x1b0(%r14),%rax
    9623:	f0 48 ff 08          	lock decq (%rax)
    9627:	75 d7                	jne    9600 <_ZN4core3ptr146drop_in_place$LT$alloc..vec..Vec$LT$addr2line..SupUnit$LT$gimli..read..endian_slice..EndianSlice$LT$gimli..endianity..LittleEndian$GT$$GT$$GT$$GT$17hb2ca6e2e958b3c4cE+0x30>
    9629:	49 8d be 50 fe ff ff 	lea    -0x1b0(%r14),%rdi
    9630:	e8 9b 34 00 00       	call   cad0 <_ZN5alloc4sync16Arc$LT$T$C$A$GT$9drop_slow17h3d57b9dc13c2447eE>
    9635:	eb c9                	jmp    9600 <_ZN4core3ptr146drop_in_place$LT$alloc..vec..Vec$LT$addr2line..SupUnit$LT$gimli..read..endian_slice..EndianSlice$LT$gimli..endianity..LittleEndian$GT$$GT$$GT$$GT$17hb2ca6e2e958b3c4cE+0x30>
    9637:	48 8b 03             	mov    (%rbx),%rax
    963a:	48 85 c0             	test   %rax,%rax
    963d:	74 21                	je     9660 <_ZN4core3ptr146drop_in_place$LT$alloc..vec..Vec$LT$addr2line..SupUnit$LT$gimli..read..endian_slice..EndianSlice$LT$gimli..endianity..LittleEndian$GT$$GT$$GT$$GT$17hb2ca6e2e958b3c4cE+0x90>
    963f:	48 8b 7b 08          	mov    0x8(%rbx),%rdi
    9643:	48 69 f0 b0 01 00 00 	imul   $0x1b0,%rax,%rsi
    964a:	ba 08 00 00 00       	mov    $0x8,%edx
    964f:	48 83 c4 08          	add    $0x8,%rsp
    9653:	5b                   	pop    %rbx
    9654:	41 5c                	pop    %r12
    9656:	41 5e                	pop    %r14
    9658:	41 5f                	pop    %r15
    965a:	ff 25 80 d5 04 00    	jmp    *0x4d580(%rip)        # 56be0 <_GLOBAL_OFFSET_TABLE_+0x250>
    9660:	48 83 c4 08          	add    $0x8,%rsp
    9664:	5b                   	pop    %rbx
    9665:	41 5c                	pop    %r12
    9667:	41 5e                	pop    %r14
    9669:	41 5f                	pop    %r15
    966b:	c3                   	ret
    966c:	49 89 c7             	mov    %rax,%r15
    966f:	49 8d be 58 fd ff ff 	lea    -0x2a8(%r14),%rdi
    9676:	e8 c5 02 00 00       	call   9940 <_ZN4core3ptr181drop_in_place$LT$core..option..Option$LT$gimli..read..line..IncompleteLineProgram$LT$gimli..read..endian_slice..EndianSlice$LT$gimli..endianity..LittleEndian$GT$$C$usize$GT$$GT$$GT$17h7714d02b0f4f4e7dE>
    967b:	4d 85 e4             	test   %r12,%r12
    967e:	75 26                	jne    96a6 <_ZN4core3ptr146drop_in_place$LT$alloc..vec..Vec$LT$addr2line..SupUnit$LT$gimli..read..endian_slice..EndianSlice$LT$gimli..endianity..LittleEndian$GT$$GT$$GT$$GT$17hb2ca6e2e958b3c4cE+0xd6>
    9680:	48 8b 03             	mov    (%rbx),%rax
    9683:	48 85 c0             	test   %rax,%rax
    9686:	74 16                	je     969e <_ZN4core3ptr146drop_in_place$LT$alloc..vec..Vec$LT$addr2line..SupUnit$LT$gimli..read..endian_slice..EndianSlice$LT$gimli..endianity..LittleEndian$GT$$GT$$GT$$GT$17hb2ca6e2e958b3c4cE+0xce>
    9688:	48 8b 7b 08          	mov    0x8(%rbx),%rdi
    968c:	48 69 f0 b0 01 00 00 	imul   $0x1b0,%rax,%rsi
    9693:	ba 08 00 00 00       	mov    $0x8,%edx
    9698:	ff 15 42 d5 04 00    	call   *0x4d542(%rip)        # 56be0 <_GLOBAL_OFFSET_TABLE_+0x250>
    969e:	4c 89 ff             	mov    %r15,%rdi
    96a1:	e8 9a c9 ff ff       	call   6040 <_Unwind_Resume@plt>
    96a6:	49 f7 dc             	neg    %r12
    96a9:	eb 1d                	jmp    96c8 <_ZN4core3ptr146drop_in_place$LT$alloc..vec..Vec$LT$addr2line..SupUnit$LT$gimli..read..endian_slice..EndianSlice$LT$gimli..endianity..LittleEndian$GT$$GT$$GT$$GT$17hb2ca6e2e958b3c4cE+0xf8>
    96ab:	0f 1f 44 00 00       	nopl   0x0(%rax,%rax,1)
    96b0:	49 8d be 08 ff ff ff 	lea    -0xf8(%r14),%rdi
    96b7:	e8 84 02 00 00       	call   9940 <_ZN4core3ptr181drop_in_place$LT$core..option..Option$LT$gimli..read..line..IncompleteLineProgram$LT$gimli..read..endian_slice..EndianSlice$LT$gimli..endianity..LittleEndian$GT$$C$usize$GT$$GT$$GT$17h7714d02b0f4f4e7dE>
    96bc:	49 81 c6 b0 01 00 00 	add    $0x1b0,%r14
    96c3:	49 ff cc             	dec    %r12
    96c6:	74 b8                	je     9680 <_ZN4core3ptr146drop_in_place$LT$alloc..vec..Vec$LT$addr2line..SupUnit$LT$gimli..read..endian_slice..EndianSlice$LT$gimli..endianity..LittleEndian$GT$$GT$$GT$$GT$17hb2ca6e2e958b3c4cE+0xb0>
    96c8:	49 8b 06             	mov    (%r14),%rax
    96cb:	f0 48 ff 08          	lock decq (%rax)
    96cf:	75 df                	jne    96b0 <_ZN4core3ptr146drop_in_place$LT$alloc..vec..Vec$LT$addr2line..SupUnit$LT$gimli..read..endian_slice..EndianSlice$LT$gimli..endianity..LittleEndian$GT$$GT$$GT$$GT$17hb2ca6e2e958b3c4cE+0xe0>
    96d1:	4c 89 f7             	mov    %r14,%rdi
    96d4:	e8 f7 33 00 00       	call   cad0 <_ZN5alloc4sync16Arc$LT$T$C$A$GT$9drop_slow17h3d57b9dc13c2447eE>
    96d9:	eb d5                	jmp    96b0 <_ZN4core3ptr146drop_in_place$LT$alloc..vec..Vec$LT$addr2line..SupUnit$LT$gimli..read..endian_slice..EndianSlice$LT$gimli..endianity..LittleEndian$GT$$GT$$GT$$GT$17hb2ca6e2e958b3c4cE+0xe0>
    96db:	49 81 c6 08 ff ff ff 	add    $0xffffffffffffff08,%r14
    96e2:	4c 89 f7             	mov    %r14,%rdi
    96e5:	e8 56 02 00 00       	call   9940 <_ZN4core3ptr181drop_in_place$LT$core..option..Option$LT$gimli..read..line..IncompleteLineProgram$LT$gimli..read..endian_slice..EndianSlice$LT$gimli..endianity..LittleEndian$GT$$C$usize$GT$$GT$$GT$17h7714d02b0f4f4e7dE>
    96ea:	ff 15 b0 d4 04 00    	call   *0x4d4b0(%rip)        # 56ba0 <_GLOBAL_OFFSET_TABLE_+0x210>

00000000000096f0 <_ZN4core3ptr158drop_in_place$LT$alloc..boxed..Box$LT$$u5b$addr2line..ResUnit$LT$gimli..read..endian_slice..EndianSlice$LT$gimli..endianity..LittleEndian$GT$$GT$$u5d$$GT$$GT$17h49cc7565f6a865e1E>:
    96f0:	55                   	push   %rbp
    96f1:	41 57                	push   %r15
    96f3:	41 56                	push   %r14
    96f5:	41 55                	push   %r13
    96f7:	41 54                	push   %r12
    96f9:	53                   	push   %rbx
    96fa:	50                   	push   %rax
    96fb:	49 89 f6             	mov    %rsi,%r14
    96fe:	48 89 fb             	mov    %rdi,%rbx
    9701:	41 bd 01 00 00 00    	mov    $0x1,%r13d
    9707:	66 0f 1f 84 00 00 00 	nopw   0x0(%rax,%rax,1)
    970e:	00 00 
    9710:	4b 8d 04 2e          	lea    (%r14,%r13,1),%rax
    9714:	48 83 f8 01          	cmp    $0x1,%rax
    9718:	74 14                	je     972e <_ZN4core3ptr158drop_in_place$LT$alloc..boxed..Box$LT$$u5b$addr2line..ResUnit$LT$gimli..read..endian_slice..EndianSlice$LT$gimli..endianity..LittleEndian$GT$$GT$$u5d$$GT$$GT$17h49cc7565f6a865e1E+0x3e>
    971a:	4c 8d a7 18 02 00 00 	lea    0x218(%rdi),%r12
    9721:	49 ff cd             	dec    %r13
    9724:	e8 d7 fb ff ff       	call   9300 <_ZN4core3ptr123drop_in_place$LT$addr2line..ResUnit$LT$gimli..read..endian_slice..EndianSlice$LT$gimli..endianity..LittleEndian$GT$$GT$$GT$17ha047f51e8368cc1dE>
    9729:	4c 89 e7             	mov    %r12,%rdi
    972c:	eb e2                	jmp    9710 <_ZN4core3ptr158drop_in_place$LT$alloc..boxed..Box$LT$$u5b$addr2line..ResUnit$LT$gimli..read..endian_slice..EndianSlice$LT$gimli..endianity..LittleEndian$GT$$GT$$u5d$$GT$$GT$17h49cc7565f6a865e1E+0x20>
    972e:	4d 85 f6             	test   %r14,%r14
    9731:	74 23                	je     9756 <_ZN4core3ptr158drop_in_place$LT$alloc..boxed..Box$LT$$u5b$addr2line..ResUnit$LT$gimli..read..endian_slice..EndianSlice$LT$gimli..endianity..LittleEndian$GT$$GT$$u5d$$GT$$GT$17h49cc7565f6a865e1E+0x66>
    9733:	49 69 f6 18 02 00 00 	imul   $0x218,%r14,%rsi
    973a:	ba 08 00 00 00       	mov    $0x8,%edx
    973f:	48 89 df             	mov    %rbx,%rdi
    9742:	48 83 c4 08          	add    $0x8,%rsp
    9746:	5b                   	pop    %rbx
    9747:	41 5c                	pop    %r12
    9749:	41 5d                	pop    %r13
    974b:	41 5e                	pop    %r14
    974d:	41 5f                	pop    %r15
    974f:	5d                   	pop    %rbp
    9750:	ff 25 8a d4 04 00    	jmp    *0x4d48a(%rip)        # 56be0 <_GLOBAL_OFFSET_TABLE_+0x250>
    9756:	48 83 c4 08          	add    $0x8,%rsp
    975a:	5b                   	pop    %rbx
    975b:	41 5c                	pop    %r12
    975d:	41 5d                	pop    %r13
    975f:	41 5e                	pop    %r14
    9761:	41 5f                	pop    %r15
    9763:	5d                   	pop    %rbp
    9764:	c3                   	ret
    9765:	49 89 c7             	mov    %rax,%r15
    9768:	49 f7 dd             	neg    %r13
    976b:	0f 1f 44 00 00       	nopl   0x0(%rax,%rax,1)
    9770:	49 ff c5             	inc    %r13
    9773:	4d 39 ee             	cmp    %r13,%r14
    9776:	74 15                	je     978d <_ZN4core3ptr158drop_in_place$LT$alloc..boxed..Box$LT$$u5b$addr2line..ResUnit$LT$gimli..read..endian_slice..EndianSlice$LT$gimli..endianity..LittleEndian$GT$$GT$$u5d$$GT$$GT$17h49cc7565f6a865e1E+0x9d>
    9778:	49 8d ac 24 18 02 00 	lea    0x218(%r12),%rbp
    977f:	00 
    9780:	4c 89 e7             	mov    %r12,%rdi
    9783:	e8 78 fb ff ff       	call   9300 <_ZN4core3ptr123drop_in_place$LT$addr2line..ResUnit$LT$gimli..read..endian_slice..EndianSlice$LT$gimli..endianity..LittleEndian$GT$$GT$$GT$17ha047f51e8368cc1dE>
    9788:	49 89 ec             	mov    %rbp,%r12
    978b:	eb e3                	jmp    9770 <_ZN4core3ptr158drop_in_place$LT$alloc..boxed..Box$LT$$u5b$addr2line..ResUnit$LT$gimli..read..endian_slice..EndianSlice$LT$gimli..endianity..LittleEndian$GT$$GT$$u5d$$GT$$GT$17h49cc7565f6a865e1E+0x80>
    978d:	4d 85 f6             	test   %r14,%r14
    9790:	74 15                	je     97a7 <_ZN4core3ptr158drop_in_place$LT$alloc..boxed..Box$LT$$u5b$addr2line..ResUnit$LT$gimli..read..endian_slice..EndianSlice$LT$gimli..endianity..LittleEndian$GT$$GT$$u5d$$GT$$GT$17h49cc7565f6a865e1E+0xb7>
    9792:	49 69 f6 18 02 00 00 	imul   $0x218,%r14,%rsi
    9799:	ba 08 00 00 00       	mov    $0x8,%edx
    979e:	48 89 df             	mov    %rbx,%rdi
    97a1:	ff 15 39 d4 04 00    	call   *0x4d439(%rip)        # 56be0 <_GLOBAL_OFFSET_TABLE_+0x250>
    97a7:	4c 89 ff             	mov    %r15,%rdi
    97aa:	e8 91 c8 ff ff       	call   6040 <_Unwind_Resume@plt>
    97af:	ff 15 eb d3 04 00    	call   *0x4d3eb(%rip)        # 56ba0 <_GLOBAL_OFFSET_TABLE_+0x210>
    97b5:	66 2e 0f 1f 84 00 00 	cs nopw 0x0(%rax,%rax,1)
    97bc:	00 00 00 
    97bf:	90                   	nop

00000000000097c0 <_ZN4core3ptr158drop_in_place$LT$alloc..boxed..Box$LT$$u5b$addr2line..SupUnit$LT$gimli..read..endian_slice..EndianSlice$LT$gimli..endianity..LittleEndian$GT$$GT$$u5d$$GT$$GT$17he838538cf3d090c9E>:
    97c0:	41 57                	push   %r15
    97c2:	41 56                	push   %r14
    97c4:	41 55                	push   %r13
    97c6:	41 54                	push   %r12
    97c8:	53                   	push   %rbx
    97c9:	4c 8b 67 08          	mov    0x8(%rdi),%r12
    97cd:	4d 85 e4             	test   %r12,%r12
    97d0:	74 70                	je     9842 <_ZN4core3ptr158drop_in_place$LT$alloc..boxed..Box$LT$$u5b$addr2line..SupUnit$LT$gimli..read..endian_slice..EndianSlice$LT$gimli..endianity..LittleEndian$GT$$GT$$u5d$$GT$$GT$17he838538cf3d090c9E+0x82>
    97d2:	48 89 fb             	mov    %rdi,%rbx
    97d5:	4c 8b 37             	mov    (%rdi),%r14
    97d8:	49 81 c6 58 01 00 00 	add    $0x158,%r14
    97df:	eb 27                	jmp    9808 <_ZN4core3ptr158drop_in_place$LT$alloc..boxed..Box$LT$$u5b$addr2line..SupUnit$LT$gimli..read..endian_slice..EndianSlice$LT$gimli..endianity..LittleEndian$GT$$GT$$u5d$$GT$$GT$17he838538cf3d090c9E+0x48>
    97e1:	66 66 66 66 66 66 2e 	data16 data16 data16 data16 data16 cs nopw 0x0(%rax,%rax,1)
    97e8:	0f 1f 84 00 00 00 00 
    97ef:	00 
    97f0:	49 8d be 08 ff ff ff 	lea    -0xf8(%r14),%rdi
    97f7:	e8 44 01 00 00       	call   9940 <_ZN4core3ptr181drop_in_place$LT$core..option..Option$LT$gimli..read..line..IncompleteLineProgram$LT$gimli..read..endian_slice..EndianSlice$LT$gimli..endianity..LittleEndian$GT$$C$usize$GT$$GT$$GT$17h7714d02b0f4f4e7dE>
    97fc:	49 81 c6 b0 01 00 00 	add    $0x1b0,%r14
    9803:	49 ff cc             	dec    %r12
    9806:	74 13                	je     981b <_ZN4core3ptr158drop_in_place$LT$alloc..boxed..Box$LT$$u5b$addr2line..SupUnit$LT$gimli..read..endian_slice..EndianSlice$LT$gimli..endianity..LittleEndian$GT$$GT$$u5d$$GT$$GT$17he838538cf3d090c9E+0x5b>
