
target/debug/deps/no_vtable_check-6dcfc3673ef68c9e:     file format elf64-x86-64


Disassembly of section .text:

0000000000016ce0 <_start>:
   16ce0:	f3 0f 1e fa          	endbr64
   16ce4:	31 ed                	xor    %ebp,%ebp
   16ce6:	49 89 d1             	mov    %rdx,%r9
   16ce9:	5e                   	pop    %rsi
   16cea:	48 89 e2             	mov    %rsp,%rdx
   16ced:	48 83 e4 f0          	and    $0xfffffffffffffff0,%rsp
   16cf1:	50                   	push   %rax
   16cf2:	54                   	push   %rsp
   16cf3:	45 31 c0             	xor    %r8d,%r8d
   16cf6:	31 c9                	xor    %ecx,%ecx
   16cf8:	48 8d 3d 41 01 00 00 	lea    0x141(%rip),%rdi        # 16e40 <main>
   16cff:	ff 15 73 1b 01 00    	call   *0x11b73(%rip)        # 28878 <__libc_start_main@GLIBC_2.34>
   16d05:	f4                   	hlt
   16d06:	cc                   	int3
   16d07:	cc                   	int3
   16d08:	cc                   	int3
   16d09:	cc                   	int3
   16d0a:	cc                   	int3
   16d0b:	cc                   	int3
   16d0c:	cc                   	int3
   16d0d:	cc                   	int3
   16d0e:	cc                   	int3
   16d0f:	cc                   	int3

0000000000016d10 <deregister_tm_clones>:
   16d10:	48 8d 3d 41 30 01 00 	lea    0x13041(%rip),%rdi        # 29d58 <__TMC_END__>
   16d17:	48 8d 05 3a 30 01 00 	lea    0x1303a(%rip),%rax        # 29d58 <__TMC_END__>
   16d1e:	48 39 f8             	cmp    %rdi,%rax
   16d21:	74 15                	je     16d38 <deregister_tm_clones+0x28>
   16d23:	48 8b 05 5e 1b 01 00 	mov    0x11b5e(%rip),%rax        # 28888 <_ITM_deregisterTMCloneTable@Base>
   16d2a:	48 85 c0             	test   %rax,%rax
   16d2d:	74 09                	je     16d38 <deregister_tm_clones+0x28>
   16d2f:	ff e0                	jmp    *%rax
   16d31:	0f 1f 80 00 00 00 00 	nopl   0x0(%rax)
   16d38:	c3                   	ret
   16d39:	0f 1f 80 00 00 00 00 	nopl   0x0(%rax)

0000000000016d40 <register_tm_clones>:
   16d40:	48 8d 3d 11 30 01 00 	lea    0x13011(%rip),%rdi        # 29d58 <__TMC_END__>
   16d47:	48 8d 35 0a 30 01 00 	lea    0x1300a(%rip),%rsi        # 29d58 <__TMC_END__>
   16d4e:	48 29 fe             	sub    %rdi,%rsi
   16d51:	48 89 f0             	mov    %rsi,%rax
   16d54:	48 c1 ee 3f          	shr    $0x3f,%rsi
   16d58:	48 c1 f8 03          	sar    $0x3,%rax
   16d5c:	48 01 c6             	add    %rax,%rsi
   16d5f:	48 d1 fe             	sar    $1,%rsi
   16d62:	74 14                	je     16d78 <register_tm_clones+0x38>
   16d64:	48 8b 05 25 1b 01 00 	mov    0x11b25(%rip),%rax        # 28890 <_ITM_registerTMCloneTable@Base>
   16d6b:	48 85 c0             	test   %rax,%rax
   16d6e:	74 08                	je     16d78 <register_tm_clones+0x38>
   16d70:	ff e0                	jmp    *%rax
   16d72:	66 0f 1f 44 00 00    	nopw   0x0(%rax,%rax,1)
   16d78:	c3                   	ret
   16d79:	0f 1f 80 00 00 00 00 	nopl   0x0(%rax)

0000000000016d80 <__do_global_dtors_aux>:
   16d80:	f3 0f 1e fa          	endbr64
   16d84:	80 3d 35 30 01 00 00 	cmpb   $0x0,0x13035(%rip)        # 29dc0 <completed.0>
   16d8b:	75 2b                	jne    16db8 <__do_global_dtors_aux+0x38>
   16d8d:	55                   	push   %rbp
   16d8e:	48 83 3d 02 1b 01 00 	cmpq   $0x0,0x11b02(%rip)        # 28898 <__cxa_finalize@GLIBC_2.2.5>
   16d95:	00 
   16d96:	48 89 e5             	mov    %rsp,%rbp
   16d99:	74 0c                	je     16da7 <__do_global_dtors_aux+0x27>
   16d9b:	48 8b 3d be 2f 01 00 	mov    0x12fbe(%rip),%rdi        # 29d60 <__dso_handle>
   16da2:	e8 d9 e9 00 00       	call   25780 <__cxa_finalize@plt>
   16da7:	e8 64 ff ff ff       	call   16d10 <deregister_tm_clones>
   16dac:	c6 05 0d 30 01 00 01 	movb   $0x1,0x1300d(%rip)        # 29dc0 <completed.0>
   16db3:	5d                   	pop    %rbp
   16db4:	c3                   	ret
   16db5:	0f 1f 00             	nopl   (%rax)
   16db8:	c3                   	ret
   16db9:	0f 1f 80 00 00 00 00 	nopl   0x0(%rax)

0000000000016dc0 <frame_dummy>:
   16dc0:	f3 0f 1e fa          	endbr64
   16dc4:	e9 77 ff ff ff       	jmp    16d40 <register_tm_clones>
   16dc9:	cc                   	int3
   16dca:	cc                   	int3
   16dcb:	cc                   	int3
   16dcc:	cc                   	int3
   16dcd:	cc                   	int3
   16dce:	cc                   	int3
   16dcf:	cc                   	int3

0000000000016dd0 <_ZN3std2rt10lang_start17hb020ceb94d1a71b7E>:
   16dd0:	48 83 ec 28          	sub    $0x28,%rsp
   16dd4:	89 c8                	mov    %ecx,%eax
   16dd6:	48 89 d1             	mov    %rdx,%rcx
   16dd9:	48 89 f2             	mov    %rsi,%rdx
   16ddc:	48 89 7c 24 08       	mov    %rdi,0x8(%rsp)
   16de1:	48 89 54 24 10       	mov    %rdx,0x10(%rsp)
   16de6:	48 89 4c 24 18       	mov    %rcx,0x18(%rsp)
   16deb:	88 44 24 27          	mov    %al,0x27(%rsp)
   16def:	48 89 3c 24          	mov    %rdi,(%rsp)
   16df3:	48 89 e7             	mov    %rsp,%rdi
   16df6:	48 8d 35 e3 d3 fe ff 	lea    -0x12c1d(%rip),%rsi        # 41e0 <__abi_tag+0x3eac>
   16dfd:	44 0f b6 c0          	movzbl %al,%r8d
   16e01:	ff 15 c9 1a 01 00    	call   *0x11ac9(%rip)        # 288d0 <_DYNAMIC+0x248>
   16e07:	48 83 c4 28          	add    $0x28,%rsp
   16e0b:	c3                   	ret
   16e0c:	cc                   	int3
   16e0d:	cc                   	int3
   16e0e:	cc                   	int3
   16e0f:	cc                   	int3

0000000000016e10 <_ZN15no_vtable_check4main17hb08df4f18b734676E>:
   16e10:	48 83 ec 18          	sub    $0x18,%rsp
   16e14:	b8 01 00 00 00       	mov    $0x1,%eax
   16e19:	48 89 44 24 08       	mov    %rax,0x8(%rsp)
   16e1e:	48 8d 05 c3 d3 fe ff 	lea    -0x12c3d(%rip),%rax        # 41e8 <__abi_tag+0x3eb4>
   16e25:	48 89 44 24 10       	mov    %rax,0x10(%rsp)
   16e2a:	bf 01 00 00 00       	mov    $0x1,%edi
   16e2f:	ff 15 cb d3 fe ff    	call   *-0x12c35(%rip)        # 4200 <__abi_tag+0x3ecc>
   16e35:	48 83 c4 18          	add    $0x18,%rsp
   16e39:	c3                   	ret
   16e3a:	cc                   	int3
   16e3b:	cc                   	int3
   16e3c:	cc                   	int3
   16e3d:	cc                   	int3
   16e3e:	cc                   	int3
   16e3f:	cc                   	int3

0000000000016e40 <main>:
   16e40:	50                   	push   %rax
   16e41:	48 89 f2             	mov    %rsi,%rdx
   16e44:	48 8b 05 8d 1a 01 00 	mov    0x11a8d(%rip),%rax        # 288d8 <_DYNAMIC+0x250>
   16e4b:	8a 00                	mov    (%rax),%al
   16e4d:	48 63 f7             	movslq %edi,%rsi
   16e50:	48 8d 3d b9 ff ff ff 	lea    -0x47(%rip),%rdi        # 16e10 <_ZN15no_vtable_check4main17hb08df4f18b734676E>
   16e57:	31 c9                	xor    %ecx,%ecx
   16e59:	e8 72 ff ff ff       	call   16dd0 <_ZN3std2rt10lang_start17hb020ceb94d1a71b7E>
   16e5e:	59                   	pop    %rcx
   16e5f:	c3                   	ret

0000000000016e60 <_RNvCscszlnfU7ykQ_7___rustc12___rust_alloc>:
   16e60:	e9 fb 98 00 00       	jmp    20760 <_RNvCscszlnfU7ykQ_7___rustc11___rdl_alloc>
   16e65:	cc                   	int3
   16e66:	cc                   	int3
   16e67:	cc                   	int3
   16e68:	cc                   	int3
   16e69:	cc                   	int3
   16e6a:	cc                   	int3
   16e6b:	cc                   	int3
   16e6c:	cc                   	int3
   16e6d:	cc                   	int3
   16e6e:	cc                   	int3
   16e6f:	cc                   	int3

0000000000016e70 <_RNvCscszlnfU7ykQ_7___rustc14___rust_dealloc>:
   16e70:	e9 ab 99 00 00       	jmp    20820 <_RNvCscszlnfU7ykQ_7___rustc13___rdl_dealloc>
   16e75:	cc                   	int3
   16e76:	cc                   	int3
   16e77:	cc                   	int3
   16e78:	cc                   	int3
   16e79:	cc                   	int3
   16e7a:	cc                   	int3
   16e7b:	cc                   	int3
   16e7c:	cc                   	int3
   16e7d:	cc                   	int3
   16e7e:	cc                   	int3
   16e7f:	cc                   	int3

0000000000016e80 <_RNvCscszlnfU7ykQ_7___rustc14___rust_realloc>:
   16e80:	e9 1b 9a 00 00       	jmp    208a0 <_RNvCscszlnfU7ykQ_7___rustc13___rdl_realloc>
   16e85:	cc                   	int3
   16e86:	cc                   	int3
   16e87:	cc                   	int3
   16e88:	cc                   	int3
   16e89:	cc                   	int3
   16e8a:	cc                   	int3
   16e8b:	cc                   	int3
   16e8c:	cc                   	int3
   16e8d:	cc                   	int3
   16e8e:	cc                   	int3
   16e8f:	cc                   	int3

0000000000016e90 <_RNvCscszlnfU7ykQ_7___rustc19___rust_alloc_zeroed>:
   16e90:	e9 db 9a 00 00       	jmp    20970 <_RNvCscszlnfU7ykQ_7___rustc18___rdl_alloc_zeroed>
   16e95:	cc                   	int3
   16e96:	cc                   	int3
   16e97:	cc                   	int3
   16e98:	cc                   	int3
   16e99:	cc                   	int3
   16e9a:	cc                   	int3
   16e9b:	cc                   	int3
   16e9c:	cc                   	int3
   16e9d:	cc                   	int3
   16e9e:	cc                   	int3
   16e9f:	cc                   	int3

0000000000016ea0 <_RNvCscszlnfU7ykQ_7___rustc26___rust_alloc_error_handler>:
   16ea0:	e9 2b 00 00 00       	jmp    16ed0 <_RNvCscszlnfU7ykQ_7___rustc8___rg_oom>
   16ea5:	cc                   	int3
   16ea6:	cc                   	int3
   16ea7:	cc                   	int3
   16ea8:	cc                   	int3
   16ea9:	cc                   	int3
   16eaa:	cc                   	int3
   16eab:	cc                   	int3
   16eac:	cc                   	int3
   16ead:	cc                   	int3
   16eae:	cc                   	int3
   16eaf:	cc                   	int3

0000000000016eb0 <_RNvCscszlnfU7ykQ_7___rustc42___rust_alloc_error_handler_should_panic_v2>:
   16eb0:	31 c0                	xor    %eax,%eax
   16eb2:	c3                   	ret
   16eb3:	cc                   	int3
   16eb4:	cc                   	int3
   16eb5:	cc                   	int3
   16eb6:	cc                   	int3
   16eb7:	cc                   	int3
   16eb8:	cc                   	int3
   16eb9:	cc                   	int3
   16eba:	cc                   	int3
   16ebb:	cc                   	int3
   16ebc:	cc                   	int3
   16ebd:	cc                   	int3
   16ebe:	cc                   	int3
   16ebf:	cc                   	int3

0000000000016ec0 <_RNvCscszlnfU7ykQ_7___rustc35___rust_no_alloc_shim_is_unstable_v2>:
   16ec0:	c3                   	ret
   16ec1:	cc                   	int3
   16ec2:	cc                   	int3
   16ec3:	cc                   	int3
   16ec4:	cc                   	int3
   16ec5:	cc                   	int3
   16ec6:	cc                   	int3
   16ec7:	cc                   	int3
   16ec8:	cc                   	int3
   16ec9:	cc                   	int3
   16eca:	cc                   	int3
   16ecb:	cc                   	int3
   16ecc:	cc                   	int3
   16ecd:	cc                   	int3
   16ece:	cc                   	int3
   16ecf:	cc                   	int3

0000000000016ed0 <_RNvCscszlnfU7ykQ_7___rustc8___rg_oom>:
   16ed0:	55                   	push   %rbp
   16ed1:	48 89 e5             	mov    %rsp,%rbp
   16ed4:	41 56                	push   %r14
   16ed6:	53                   	push   %rbx
   16ed7:	48 89 f3             	mov    %rsi,%rbx
   16eda:	49 89 fe             	mov    %rdi,%r14
   16edd:	48 8d 15 f4 f8 00 00 	lea    0xf8f4(%rip),%rdx        # 267d8 <__frame_dummy_init_array_entry+0x8>
   16ee4:	e8 37 04 00 00       	call   17320 <_ZN4core5alloc6layout6Layout25from_size_align_unchecked18precondition_check17h1923aaa75a63bd71E>
   16ee9:	48 89 df             	mov    %rbx,%rdi
   16eec:	4c 89 f6             	mov    %r14,%rsi
   16eef:	ff 15 23 1a 01 00    	call   *0x11a23(%rip)        # 28918 <_DYNAMIC+0x290>
   16ef5:	cc                   	int3
   16ef6:	cc                   	int3
   16ef7:	cc                   	int3
   16ef8:	cc                   	int3
   16ef9:	cc                   	int3
   16efa:	cc                   	int3
   16efb:	cc                   	int3
   16efc:	cc                   	int3
   16efd:	cc                   	int3
   16efe:	cc                   	int3
   16eff:	cc                   	int3

0000000000016f00 <_ZN3std3sys3pal4unix4time8Timespec20checked_add_duration17h2b5d5ce22dff8febE>:
   16f00:	55                   	push   %rbp
   16f01:	48 89 e5             	mov    %rsp,%rbp
   16f04:	48 8b 0e             	mov    (%rsi),%rcx
   16f07:	48 8b 07             	mov    (%rdi),%rax
   16f0a:	48 01 c8             	add    %rcx,%rax
   16f0d:	0f 90 c2             	seto   %dl
   16f10:	48 85 c9             	test   %rcx,%rcx
   16f13:	0f 98 c1             	sets   %cl
   16f16:	30 d1                	xor    %dl,%cl
   16f18:	75 1b                	jne    16f35 <_ZN3std3sys3pal4unix4time8Timespec20checked_add_duration17h2b5d5ce22dff8febE+0x35>
   16f1a:	8b 57 08             	mov    0x8(%rdi),%edx
   16f1d:	03 56 08             	add    0x8(%rsi),%edx
   16f20:	81 fa 00 ca 9a 3b    	cmp    $0x3b9aca00,%edx
   16f26:	72 0b                	jb     16f33 <_ZN3std3sys3pal4unix4time8Timespec20checked_add_duration17h2b5d5ce22dff8febE+0x33>
   16f28:	48 ff c0             	inc    %rax
   16f2b:	70 0f                	jo     16f3c <_ZN3std3sys3pal4unix4time8Timespec20checked_add_duration17h2b5d5ce22dff8febE+0x3c>
   16f2d:	81 c2 00 36 65 c4    	add    $0xc4653600,%edx
   16f33:	5d                   	pop    %rbp
   16f34:	c3                   	ret
   16f35:	ba 00 ca 9a 3b       	mov    $0x3b9aca00,%edx
   16f3a:	5d                   	pop    %rbp
   16f3b:	c3                   	ret
   16f3c:	ba 00 ca 9a 3b       	mov    $0x3b9aca00,%edx
   16f41:	5d                   	pop    %rbp
   16f42:	c3                   	ret
   16f43:	cc                   	int3
   16f44:	cc                   	int3
   16f45:	cc                   	int3
   16f46:	cc                   	int3
   16f47:	cc                   	int3
   16f48:	cc                   	int3
   16f49:	cc                   	int3
   16f4a:	cc                   	int3
   16f4b:	cc                   	int3
   16f4c:	cc                   	int3
   16f4d:	cc                   	int3
   16f4e:	cc                   	int3
   16f4f:	cc                   	int3

0000000000016f50 <_ZN3std3sys3pal4unix4time8Timespec3now17hc0dd6153f55292b1E>:
   16f50:	55                   	push   %rbp
   16f51:	48 89 e5             	mov    %rsp,%rbp
   16f54:	53                   	push   %rbx
   16f55:	48 83 ec 28          	sub    $0x28,%rsp
   16f59:	48 8d 75 d0          	lea    -0x30(%rbp),%rsi
   16f5d:	ff 15 25 1a 01 00    	call   *0x11a25(%rip)        # 28988 <clock_gettime@GLIBC_2.17>
   16f63:	48 8d 7d e8          	lea    -0x18(%rbp),%rdi
   16f67:	89 c6                	mov    %eax,%esi
   16f69:	e8 52 53 00 00       	call   1c2c0 <_ZN3std3sys3pal4unix3cvt17h1eaddad3d9eca958E>
   16f6e:	83 7d e8 01          	cmpl   $0x1,-0x18(%rbp)
   16f72:	74 18                	je     16f8c <_ZN3std3sys3pal4unix4time8Timespec3now17hc0dd6153f55292b1E+0x3c>
   16f74:	48 8b 55 d8          	mov    -0x28(%rbp),%rdx
   16f78:	48 81 fa 00 ca 9a 3b 	cmp    $0x3b9aca00,%rdx
   16f7f:	73 39                	jae    16fba <_ZN3std3sys3pal4unix4time8Timespec3now17hc0dd6153f55292b1E+0x6a>
   16f81:	48 8b 45 d0          	mov    -0x30(%rbp),%rax
   16f85:	48 83 c4 28          	add    $0x28,%rsp
   16f89:	5b                   	pop    %rbx
   16f8a:	5d                   	pop    %rbp
   16f8b:	c3                   	ret
   16f8c:	48 8b 45 f0          	mov    -0x10(%rbp),%rax
   16f90:	48 89 45 e0          	mov    %rax,-0x20(%rbp)
   16f94:	48 8d 3d 25 de fe ff 	lea    -0x121db(%rip),%rdi        # 4dc0 <__abi_tag+0x4a8c>
   16f9b:	48 8d 0d 16 de fe ff 	lea    -0x121ea(%rip),%rcx        # 4db8 <__abi_tag+0x4a84>
   16fa2:	4c 8d 05 af f8 00 00 	lea    0xf8af(%rip),%r8        # 26858 <__frame_dummy_init_array_entry+0x88>
   16fa9:	48 8d 55 e0          	lea    -0x20(%rbp),%rdx
   16fad:	be 2b 00 00 00       	mov    $0x2b,%esi
   16fb2:	ff 15 d8 19 01 00    	call   *0x119d8(%rip)        # 28990 <_DYNAMIC+0x308>
   16fb8:	eb 2f                	jmp    16fe9 <_ZN3std3sys3pal4unix4time8Timespec3now17hc0dd6153f55292b1E+0x99>
   16fba:	48 8d 05 7f f8 00 00 	lea    0xf87f(%rip),%rax        # 26840 <__frame_dummy_init_array_entry+0x70>
   16fc1:	48 89 45 e8          	mov    %rax,-0x18(%rbp)
   16fc5:	48 8d 3d f4 dd fe ff 	lea    -0x1220c(%rip),%rdi        # 4dc0 <__abi_tag+0x4a8c>
   16fcc:	48 8d 0d e5 dd fe ff 	lea    -0x1221b(%rip),%rcx        # 4db8 <__abi_tag+0x4a84>
   16fd3:	4c 8d 05 96 f8 00 00 	lea    0xf896(%rip),%r8        # 26870 <__frame_dummy_init_array_entry+0xa0>
   16fda:	48 8d 55 e8          	lea    -0x18(%rbp),%rdx
   16fde:	be 2b 00 00 00       	mov    $0x2b,%esi
   16fe3:	ff 15 a7 19 01 00    	call   *0x119a7(%rip)        # 28990 <_DYNAMIC+0x308>
   16fe9:	0f 0b                	ud2
   16feb:	48 89 c3             	mov    %rax,%rbx
   16fee:	48 8b 7d e8          	mov    -0x18(%rbp),%rdi
   16ff2:	e8 29 01 00 00       	call   17120 <_ZN4core3ptr57drop_in_place$LT$std..io..error..repr_bitpacked..Repr$GT$17hc7399af71b5ce232E>
   16ff7:	eb 12                	jmp    1700b <_ZN3std3sys3pal4unix4time8Timespec3now17hc0dd6153f55292b1E+0xbb>
   16ff9:	ff 15 29 19 01 00    	call   *0x11929(%rip)        # 28928 <_DYNAMIC+0x2a0>
   16fff:	48 89 c3             	mov    %rax,%rbx
   17002:	48 8b 7d e0          	mov    -0x20(%rbp),%rdi
   17006:	e8 15 01 00 00       	call   17120 <_ZN4core3ptr57drop_in_place$LT$std..io..error..repr_bitpacked..Repr$GT$17hc7399af71b5ce232E>
   1700b:	48 89 df             	mov    %rbx,%rdi
   1700e:	e8 7d e7 00 00       	call   25790 <_Unwind_Resume@plt>
   17013:	ff 15 0f 19 01 00    	call   *0x1190f(%rip)        # 28928 <_DYNAMIC+0x2a0>
   17019:	cc                   	int3
   1701a:	cc                   	int3
   1701b:	cc                   	int3
   1701c:	cc                   	int3
   1701d:	cc                   	int3
   1701e:	cc                   	int3
   1701f:	cc                   	int3

0000000000017020 <_ZN3std5alloc24default_alloc_error_hook17h894ccc695b0350baE>:
   17020:	55                   	push   %rbp
   17021:	48 89 e5             	mov    %rsp,%rbp
   17024:	53                   	push   %rbx
   17025:	48 83 ec 58          	sub    $0x58,%rsp
   17029:	48 89 f3             	mov    %rsi,%rbx
   1702c:	ff 15 d6 18 01 00    	call   *0x118d6(%rip)        # 28908 <_DYNAMIC+0x280>
   17032:	84 c0                	test   %al,%al
   17034:	75 63                	jne    17099 <_ZN3std5alloc24default_alloc_error_hook17h894ccc695b0350baE+0x79>
   17036:	48 89 5d e8          	mov    %rbx,-0x18(%rbp)
   1703a:	48 8d 45 e8          	lea    -0x18(%rbp),%rax
   1703e:	48 89 45 d8          	mov    %rax,-0x28(%rbp)
   17042:	48 8b 05 87 19 01 00 	mov    0x11987(%rip),%rax        # 289d0 <_DYNAMIC+0x348>
   17049:	48 89 45 e0          	mov    %rax,-0x20(%rbp)
   1704d:	48 8d 05 54 f8 00 00 	lea    0xf854(%rip),%rax        # 268a8 <__frame_dummy_init_array_entry+0xd8>
   17054:	48 89 45 a8          	mov    %rax,-0x58(%rbp)
   17058:	48 c7 45 b0 02 00 00 	movq   $0x2,-0x50(%rbp)
   1705f:	00 
   17060:	48 c7 45 c8 00 00 00 	movq   $0x0,-0x38(%rbp)
   17067:	00 
   17068:	48 8d 45 d8          	lea    -0x28(%rbp),%rax
   1706c:	48 89 45 b8          	mov    %rax,-0x48(%rbp)
   17070:	48 c7 45 c0 01 00 00 	movq   $0x1,-0x40(%rbp)
   17077:	00 
   17078:	48 8d 7d f7          	lea    -0x9(%rbp),%rdi
   1707c:	48 8d 75 a8          	lea    -0x58(%rbp),%rsi
   17080:	e8 2b 73 00 00       	call   1e3b0 <_ZN3std2io5Write9write_fmt17h6d7faffea9b289edE>
   17085:	48 85 c0             	test   %rax,%rax
   17088:	74 08                	je     17092 <_ZN3std5alloc24default_alloc_error_hook17h894ccc695b0350baE+0x72>
   1708a:	48 89 c7             	mov    %rax,%rdi
   1708d:	e8 8e 00 00 00       	call   17120 <_ZN4core3ptr57drop_in_place$LT$std..io..error..repr_bitpacked..Repr$GT$17hc7399af71b5ce232E>
   17092:	48 83 c4 58          	add    $0x58,%rsp
   17096:	5b                   	pop    %rbx
   17097:	5d                   	pop    %rbp
   17098:	c3                   	ret
   17099:	48 89 5d e8          	mov    %rbx,-0x18(%rbp)
   1709d:	48 8d 45 e8          	lea    -0x18(%rbp),%rax
   170a1:	48 89 45 d8          	mov    %rax,-0x28(%rbp)
   170a5:	48 8b 05 24 19 01 00 	mov    0x11924(%rip),%rax        # 289d0 <_DYNAMIC+0x348>
   170ac:	48 89 45 e0          	mov    %rax,-0x20(%rbp)
   170b0:	48 8d 05 d1 f7 00 00 	lea    0xf7d1(%rip),%rax        # 26888 <__frame_dummy_init_array_entry+0xb8>
   170b7:	48 89 45 a8          	mov    %rax,-0x58(%rbp)
   170bb:	48 c7 45 b0 02 00 00 	movq   $0x2,-0x50(%rbp)
   170c2:	00 
   170c3:	48 c7 45 c8 00 00 00 	movq   $0x0,-0x38(%rbp)
   170ca:	00 
   170cb:	48 8d 45 d8          	lea    -0x28(%rbp),%rax
   170cf:	48 89 45 b8          	mov    %rax,-0x48(%rbp)
   170d3:	48 c7 45 c0 01 00 00 	movq   $0x1,-0x40(%rbp)
   170da:	00 
   170db:	48 8d 35 e6 f7 00 00 	lea    0xf7e6(%rip),%rsi        # 268c8 <__frame_dummy_init_array_entry+0xf8>
   170e2:	48 8d 7d a8          	lea    -0x58(%rbp),%rdi
   170e6:	ff 15 4c 18 01 00    	call   *0x1184c(%rip)        # 28938 <_DYNAMIC+0x2b0>
   170ec:	cc                   	int3
   170ed:	cc                   	int3
   170ee:	cc                   	int3
   170ef:	cc                   	int3

00000000000170f0 <_ZN3std5alloc8rust_oom17h28f5dc0e49b88befE>:
   170f0:	48 8b 05 c9 18 01 00 	mov    0x118c9(%rip),%rax        # 289c0 <_DYNAMIC+0x338>
   170f7:	48 8b 00             	mov    (%rax),%rax
   170fa:	48 85 c0             	test   %rax,%rax
   170fd:	75 07                	jne    17106 <_ZN3std5alloc8rust_oom17h28f5dc0e49b88befE+0x16>
   170ff:	48 8b 05 c2 18 01 00 	mov    0x118c2(%rip),%rax        # 289c8 <_DYNAMIC+0x340>
   17106:	55                   	push   %rbp
   17107:	48 89 e5             	mov    %rsp,%rbp
   1710a:	ff d0                	call   *%rax
   1710c:	ff 15 c6 18 01 00    	call   *0x118c6(%rip)        # 289d8 <_DYNAMIC+0x350>
   17112:	cc                   	int3
   17113:	cc                   	int3
   17114:	cc                   	int3
   17115:	cc                   	int3
   17116:	cc                   	int3
   17117:	cc                   	int3
   17118:	cc                   	int3
   17119:	cc                   	int3
   1711a:	cc                   	int3
   1711b:	cc                   	int3
   1711c:	cc                   	int3
   1711d:	cc                   	int3
   1711e:	cc                   	int3
   1711f:	cc                   	int3

0000000000017120 <_ZN4core3ptr57drop_in_place$LT$std..io..error..repr_bitpacked..Repr$GT$17hc7399af71b5ce232E>:
   17120:	55                   	push   %rbp
   17121:	48 89 e5             	mov    %rsp,%rbp
   17124:	41 57                	push   %r15
   17126:	41 56                	push   %r14
   17128:	41 54                	push   %r12
   1712a:	53                   	push   %rbx
   1712b:	48 83 ec 50          	sub    $0x50,%rsp
   1712f:	48 89 fe             	mov    %rdi,%rsi
   17132:	48 89 7d 98          	mov    %rdi,-0x68(%rbp)
   17136:	89 f0                	mov    %esi,%eax
   17138:	83 e0 03             	and    $0x3,%eax
   1713b:	48 8d 0d ae d0 fe ff 	lea    -0x12f52(%rip),%rcx        # 41f0 <__abi_tag+0x3ebc>
   17142:	48 63 04 81          	movslq (%rcx,%rax,4),%rax
   17146:	48 01 c8             	add    %rcx,%rax
   17149:	ff e0                	jmp    *%rax
   1714b:	40 f6 c6 07          	test   $0x7,%sil
   1714f:	0f 84 a2 00 00 00    	je     171f7 <_ZN4core3ptr57drop_in_place$LT$std..io..error..repr_bitpacked..Repr$GT$17hc7399af71b5ce232E+0xd7>
   17155:	48 8d 15 cc f6 00 00 	lea    0xf6cc(%rip),%rdx        # 26828 <__frame_dummy_init_array_entry+0x58>
   1715c:	bf 08 00 00 00       	mov    $0x8,%edi
   17161:	ff 15 d9 17 01 00    	call   *0x117d9(%rip)        # 28940 <_DYNAMIC+0x2b8>
   17167:	48 89 f3             	mov    %rsi,%rbx
   1716a:	48 ff cb             	dec    %rbx
   1716d:	0f 84 d6 00 00 00    	je     17249 <_ZN4core3ptr57drop_in_place$LT$std..io..error..repr_bitpacked..Repr$GT$17hc7399af71b5ce232E+0x129>
   17173:	4c 8b 76 ff          	mov    -0x1(%rsi),%r14
   17177:	4c 8b 66 07          	mov    0x7(%rsi),%r12
   1717b:	49 8b 04 24          	mov    (%r12),%rax
   1717f:	48 85 c0             	test   %rax,%rax
   17182:	74 05                	je     17189 <_ZN4core3ptr57drop_in_place$LT$std..io..error..repr_bitpacked..Repr$GT$17hc7399af71b5ce232E+0x69>
   17184:	4c 89 f7             	mov    %r14,%rdi
   17187:	ff d0                	call   *%rax
   17189:	4d 8b 7c 24 08       	mov    0x8(%r12),%r15
   1718e:	4d 8b 64 24 10       	mov    0x10(%r12),%r12
   17193:	4c 89 ff             	mov    %r15,%rdi
   17196:	4c 89 e6             	mov    %r12,%rsi
   17199:	ff 15 f9 17 01 00    	call   *0x117f9(%rip)        # 28998 <_DYNAMIC+0x310>
   1719f:	84 c0                	test   %al,%al
   171a1:	74 61                	je     17204 <_ZN4core3ptr57drop_in_place$LT$std..io..error..repr_bitpacked..Repr$GT$17hc7399af71b5ce232E+0xe4>
   171a3:	4d 85 ff             	test   %r15,%r15
   171a6:	74 0f                	je     171b7 <_ZN4core3ptr57drop_in_place$LT$std..io..error..repr_bitpacked..Repr$GT$17hc7399af71b5ce232E+0x97>
   171a8:	4c 89 f7             	mov    %r14,%rdi
   171ab:	4c 89 fe             	mov    %r15,%rsi
   171ae:	4c 89 e2             	mov    %r12,%rdx
   171b1:	ff 15 31 17 01 00    	call   *0x11731(%rip)        # 288e8 <_DYNAMIC+0x260>
   171b7:	bf 18 00 00 00       	mov    $0x18,%edi
   171bc:	be 08 00 00 00       	mov    $0x8,%esi
   171c1:	ff 15 d1 17 01 00    	call   *0x117d1(%rip)        # 28998 <_DYNAMIC+0x310>
   171c7:	84 c0                	test   %al,%al
   171c9:	74 39                	je     17204 <_ZN4core3ptr57drop_in_place$LT$std..io..error..repr_bitpacked..Repr$GT$17hc7399af71b5ce232E+0xe4>
   171cb:	be 18 00 00 00       	mov    $0x18,%esi
   171d0:	ba 08 00 00 00       	mov    $0x8,%edx
   171d5:	48 89 df             	mov    %rbx,%rdi
   171d8:	48 83 c4 50          	add    $0x50,%rsp
   171dc:	5b                   	pop    %rbx
   171dd:	41 5c                	pop    %r12
   171df:	41 5e                	pop    %r14
   171e1:	41 5f                	pop    %r15
   171e3:	5d                   	pop    %rbp
   171e4:	ff 25 fe 16 01 00    	jmp    *0x116fe(%rip)        # 288e8 <_DYNAMIC+0x260>
   171ea:	48 c1 ee 21          	shr    $0x21,%rsi
   171ee:	83 fe 15             	cmp    $0x15,%esi
   171f1:	0f 83 97 00 00 00    	jae    1728e <_ZN4core3ptr57drop_in_place$LT$std..io..error..repr_bitpacked..Repr$GT$17hc7399af71b5ce232E+0x16e>
   171f7:	48 83 c4 50          	add    $0x50,%rsp
   171fb:	5b                   	pop    %rbx
   171fc:	41 5c                	pop    %r12
   171fe:	41 5e                	pop    %r14
   17200:	41 5f                	pop    %r15
   17202:	5d                   	pop    %rbp
   17203:	c3                   	ret
   17204:	48 8d 05 90 da fe ff 	lea    -0x12570(%rip),%rax        # 4c9b <__abi_tag+0x4967>
   1720b:	48 89 45 d0          	mov    %rax,-0x30(%rbp)
   1720f:	48 c7 45 d8 19 01 00 	movq   $0x119,-0x28(%rbp)
   17216:	00 
   17217:	48 8d 45 d0          	lea    -0x30(%rbp),%rax
   1721b:	48 89 45 a0          	mov    %rax,-0x60(%rbp)
   1721f:	48 c7 45 a8 01 00 00 	movq   $0x1,-0x58(%rbp)
   17226:	00 
   17227:	48 c7 45 b0 08 00 00 	movq   $0x8,-0x50(%rbp)
   1722e:	00 
   1722f:	0f 57 c0             	xorps  %xmm0,%xmm0
   17232:	0f 11 45 b8          	movups %xmm0,-0x48(%rbp)
   17236:	48 8d 15 bb f6 00 00 	lea    0xf6bb(%rip),%rdx        # 268f8 <__frame_dummy_init_array_entry+0x128>
   1723d:	48 8d 7d a0          	lea    -0x60(%rbp),%rdi
   17241:	31 f6                	xor    %esi,%esi
   17243:	ff 15 d7 16 01 00    	call   *0x116d7(%rip)        # 28920 <_DYNAMIC+0x298>
   17249:	48 8d 05 79 d9 fe ff 	lea    -0x12687(%rip),%rax        # 4bc9 <__abi_tag+0x4895>
   17250:	48 89 45 d0          	mov    %rax,-0x30(%rbp)
   17254:	48 c7 45 d8 d2 00 00 	movq   $0xd2,-0x28(%rbp)
   1725b:	00 
   1725c:	48 8d 45 d0          	lea    -0x30(%rbp),%rax
   17260:	48 89 45 a0          	mov    %rax,-0x60(%rbp)
   17264:	48 c7 45 a8 01 00 00 	movq   $0x1,-0x58(%rbp)
   1726b:	00 
   1726c:	48 c7 45 b0 08 00 00 	movq   $0x8,-0x50(%rbp)
   17273:	00 
   17274:	0f 57 c0             	xorps  %xmm0,%xmm0
   17277:	0f 11 45 b8          	movups %xmm0,-0x48(%rbp)
   1727b:	48 8d 15 5e f6 00 00 	lea    0xf65e(%rip),%rdx        # 268e0 <__frame_dummy_init_array_entry+0x110>
   17282:	48 8d 7d a0          	lea    -0x60(%rbp),%rdi
   17286:	31 f6                	xor    %esi,%esi
   17288:	ff 15 92 16 01 00    	call   *0x11692(%rip)        # 28920 <_DYNAMIC+0x298>
   1728e:	48 8d 45 98          	lea    -0x68(%rbp),%rax
   17292:	48 89 45 d0          	mov    %rax,-0x30(%rbp)
   17296:	48 8b 05 93 16 01 00 	mov    0x11693(%rip),%rax        # 28930 <_DYNAMIC+0x2a8>
   1729d:	48 89 45 d8          	mov    %rax,-0x28(%rbp)
   172a1:	48 8d 05 48 f5 00 00 	lea    0xf548(%rip),%rax        # 267f0 <__frame_dummy_init_array_entry+0x20>
   172a8:	48 89 45 a0          	mov    %rax,-0x60(%rbp)
   172ac:	48 c7 45 a8 02 00 00 	movq   $0x2,-0x58(%rbp)
   172b3:	00 
   172b4:	48 8d 05 9d d8 fe ff 	lea    -0x12763(%rip),%rax        # 4b58 <__abi_tag+0x4824>
   172bb:	48 89 45 c0          	mov    %rax,-0x40(%rbp)
   172bf:	48 c7 45 c8 01 00 00 	movq   $0x1,-0x38(%rbp)
   172c6:	00 
   172c7:	48 8d 45 d0          	lea    -0x30(%rbp),%rax
   172cb:	48 89 45 b0          	mov    %rax,-0x50(%rbp)
   172cf:	48 c7 45 b8 01 00 00 	movq   $0x1,-0x48(%rbp)
   172d6:	00 
   172d7:	48 8d 35 32 f5 00 00 	lea    0xf532(%rip),%rsi        # 26810 <__frame_dummy_init_array_entry+0x40>
   172de:	48 8d 7d a0          	lea    -0x60(%rbp),%rdi
   172e2:	ff 15 50 16 01 00    	call   *0x11650(%rip)        # 28938 <_DYNAMIC+0x2b0>
   172e8:	49 89 c7             	mov    %rax,%r15
   172eb:	4c 89 f7             	mov    %r14,%rdi
   172ee:	4c 89 e6             	mov    %r12,%rsi
   172f1:	e8 9a 00 00 00       	call   17390 <_ZN72_$LT$alloc..boxed..Box$LT$T$C$A$GT$$u20$as$u20$core..ops..drop..Drop$GT$4drop17h0e493525ff0286b5E>
   172f6:	48 89 df             	mov    %rbx,%rdi
   172f9:	e8 32 01 00 00       	call   17430 <_ZN72_$LT$alloc..boxed..Box$LT$T$C$A$GT$$u20$as$u20$core..ops..drop..Drop$GT$4drop17h8383e3ec295065baE>
   172fe:	4c 89 ff             	mov    %r15,%rdi
   17301:	e8 8a e4 00 00       	call   25790 <_Unwind_Resume@plt>
   17306:	ff 15 9c 16 01 00    	call   *0x1169c(%rip)        # 289a8 <_DYNAMIC+0x320>
   1730c:	ff 15 96 16 01 00    	call   *0x11696(%rip)        # 289a8 <_DYNAMIC+0x320>
   17312:	cc                   	int3
   17313:	cc                   	int3
   17314:	cc                   	int3
   17315:	cc                   	int3
   17316:	cc                   	int3
   17317:	cc                   	int3
   17318:	cc                   	int3
   17319:	cc                   	int3
   1731a:	cc                   	int3
   1731b:	cc                   	int3
   1731c:	cc                   	int3
   1731d:	cc                   	int3
   1731e:	cc                   	int3
   1731f:	cc                   	int3

0000000000017320 <_ZN4core5alloc6layout6Layout25from_size_align_unchecked18precondition_check17h1923aaa75a63bd71E>:
   17320:	55                   	push   %rbp
   17321:	48 89 e5             	mov    %rsp,%rbp
   17324:	53                   	push   %rbx
   17325:	48 83 ec 48          	sub    $0x48,%rsp
   17329:	48 89 d3             	mov    %rdx,%rbx
   1732c:	ff 15 66 16 01 00    	call   *0x11666(%rip)        # 28998 <_DYNAMIC+0x310>
   17332:	84 c0                	test   %al,%al
   17334:	74 07                	je     1733d <_ZN4core5alloc6layout6Layout25from_size_align_unchecked18precondition_check17h1923aaa75a63bd71E+0x1d>
   17336:	48 83 c4 48          	add    $0x48,%rsp
   1733a:	5b                   	pop    %rbx
   1733b:	5d                   	pop    %rbp
   1733c:	c3                   	ret
   1733d:	48 8d 05 57 d9 fe ff 	lea    -0x126a9(%rip),%rax        # 4c9b <__abi_tag+0x4967>
   17344:	48 89 45 e8          	mov    %rax,-0x18(%rbp)
   17348:	48 c7 45 f0 19 01 00 	movq   $0x119,-0x10(%rbp)
   1734f:	00 
   17350:	48 8d 45 e8          	lea    -0x18(%rbp),%rax
   17354:	48 89 45 b8          	mov    %rax,-0x48(%rbp)
   17358:	48 c7 45 c0 01 00 00 	movq   $0x1,-0x40(%rbp)
   1735f:	00 
   17360:	48 c7 45 c8 08 00 00 	movq   $0x8,-0x38(%rbp)
   17367:	00 
   17368:	0f 57 c0             	xorps  %xmm0,%xmm0
   1736b:	0f 11 45 d0          	movups %xmm0,-0x30(%rbp)
   1736f:	48 8d 7d b8          	lea    -0x48(%rbp),%rdi
   17373:	31 f6                	xor    %esi,%esi
   17375:	48 89 da             	mov    %rbx,%rdx
   17378:	ff 15 a2 15 01 00    	call   *0x115a2(%rip)        # 28920 <_DYNAMIC+0x298>
   1737e:	ff 15 24 16 01 00    	call   *0x11624(%rip)        # 289a8 <_DYNAMIC+0x320>
   17384:	cc                   	int3
   17385:	cc                   	int3
   17386:	cc                   	int3
   17387:	cc                   	int3
   17388:	cc                   	int3
   17389:	cc                   	int3
   1738a:	cc                   	int3
   1738b:	cc                   	int3
   1738c:	cc                   	int3
   1738d:	cc                   	int3
   1738e:	cc                   	int3
   1738f:	cc                   	int3

0000000000017390 <_ZN72_$LT$alloc..boxed..Box$LT$T$C$A$GT$$u20$as$u20$core..ops..drop..Drop$GT$4drop17h0e493525ff0286b5E>:
   17390:	55                   	push   %rbp
   17391:	48 89 e5             	mov    %rsp,%rbp
   17394:	41 57                	push   %r15
   17396:	41 56                	push   %r14
   17398:	53                   	push   %rbx
   17399:	48 83 ec 48          	sub    $0x48,%rsp
   1739d:	49 89 ff             	mov    %rdi,%r15
   173a0:	48 8b 5e 08          	mov    0x8(%rsi),%rbx
   173a4:	4c 8b 76 10          	mov    0x10(%rsi),%r14
   173a8:	48 89 df             	mov    %rbx,%rdi
   173ab:	4c 89 f6             	mov    %r14,%rsi
   173ae:	ff 15 e4 15 01 00    	call   *0x115e4(%rip)        # 28998 <_DYNAMIC+0x310>
   173b4:	84 c0                	test   %al,%al
   173b6:	74 29                	je     173e1 <_ZN72_$LT$alloc..boxed..Box$LT$T$C$A$GT$$u20$as$u20$core..ops..drop..Drop$GT$4drop17h0e493525ff0286b5E+0x51>
   173b8:	48 85 db             	test   %rbx,%rbx
   173bb:	74 19                	je     173d6 <_ZN72_$LT$alloc..boxed..Box$LT$T$C$A$GT$$u20$as$u20$core..ops..drop..Drop$GT$4drop17h0e493525ff0286b5E+0x46>
   173bd:	4c 89 ff             	mov    %r15,%rdi
   173c0:	48 89 de             	mov    %rbx,%rsi
   173c3:	4c 89 f2             	mov    %r14,%rdx
   173c6:	48 83 c4 48          	add    $0x48,%rsp
   173ca:	5b                   	pop    %rbx
   173cb:	41 5e                	pop    %r14
   173cd:	41 5f                	pop    %r15
   173cf:	5d                   	pop    %rbp
   173d0:	ff 25 12 15 01 00    	jmp    *0x11512(%rip)        # 288e8 <_DYNAMIC+0x260>
   173d6:	48 83 c4 48          	add    $0x48,%rsp
   173da:	5b                   	pop    %rbx
   173db:	41 5e                	pop    %r14
   173dd:	41 5f                	pop    %r15
   173df:	5d                   	pop    %rbp
   173e0:	c3                   	ret
   173e1:	48 8d 05 b3 d8 fe ff 	lea    -0x1274d(%rip),%rax        # 4c9b <__abi_tag+0x4967>
   173e8:	48 89 45 d8          	mov    %rax,-0x28(%rbp)
   173ec:	48 c7 45 e0 19 01 00 	movq   $0x119,-0x20(%rbp)
   173f3:	00 
   173f4:	48 8d 45 d8          	lea    -0x28(%rbp),%rax
   173f8:	48 89 45 a8          	mov    %rax,-0x58(%rbp)
   173fc:	48 c7 45 b0 01 00 00 	movq   $0x1,-0x50(%rbp)
   17403:	00 
   17404:	48 c7 45 b8 08 00 00 	movq   $0x8,-0x48(%rbp)
   1740b:	00 
   1740c:	0f 57 c0             	xorps  %xmm0,%xmm0
   1740f:	0f 11 45 c0          	movups %xmm0,-0x40(%rbp)
   17413:	48 8d 15 de f4 00 00 	lea    0xf4de(%rip),%rdx        # 268f8 <__frame_dummy_init_array_entry+0x128>
   1741a:	48 8d 7d a8          	lea    -0x58(%rbp),%rdi
   1741e:	31 f6                	xor    %esi,%esi
   17420:	ff 15 fa 14 01 00    	call   *0x114fa(%rip)        # 28920 <_DYNAMIC+0x298>
   17426:	ff 15 7c 15 01 00    	call   *0x1157c(%rip)        # 289a8 <_DYNAMIC+0x320>
   1742c:	cc                   	int3
   1742d:	cc                   	int3
   1742e:	cc                   	int3
   1742f:	cc                   	int3

0000000000017430 <_ZN72_$LT$alloc..boxed..Box$LT$T$C$A$GT$$u20$as$u20$core..ops..drop..Drop$GT$4drop17h8383e3ec295065baE>:
   17430:	55                   	push   %rbp
   17431:	48 89 e5             	mov    %rsp,%rbp
   17434:	53                   	push   %rbx
   17435:	48 83 ec 48          	sub    $0x48,%rsp
   17439:	48 89 fb             	mov    %rdi,%rbx
   1743c:	bf 18 00 00 00       	mov    $0x18,%edi
   17441:	be 08 00 00 00       	mov    $0x8,%esi
   17446:	ff 15 4c 15 01 00    	call   *0x1154c(%rip)        # 28998 <_DYNAMIC+0x310>
   1744c:	84 c0                	test   %al,%al
   1744e:	74 19                	je     17469 <_ZN72_$LT$alloc..boxed..Box$LT$T$C$A$GT$$u20$as$u20$core..ops..drop..Drop$GT$4drop17h8383e3ec295065baE+0x39>
   17450:	be 18 00 00 00       	mov    $0x18,%esi
   17455:	ba 08 00 00 00       	mov    $0x8,%edx
   1745a:	48 89 df             	mov    %rbx,%rdi
   1745d:	48 83 c4 48          	add    $0x48,%rsp
   17461:	5b                   	pop    %rbx
   17462:	5d                   	pop    %rbp
   17463:	ff 25 7f 14 01 00    	jmp    *0x1147f(%rip)        # 288e8 <_DYNAMIC+0x260>
   17469:	48 8d 05 2b d8 fe ff 	lea    -0x127d5(%rip),%rax        # 4c9b <__abi_tag+0x4967>
   17470:	48 89 45 e8          	mov    %rax,-0x18(%rbp)
   17474:	48 c7 45 f0 19 01 00 	movq   $0x119,-0x10(%rbp)
   1747b:	00 
   1747c:	48 8d 45 e8          	lea    -0x18(%rbp),%rax
   17480:	48 89 45 b8          	mov    %rax,-0x48(%rbp)
   17484:	48 c7 45 c0 01 00 00 	movq   $0x1,-0x40(%rbp)
   1748b:	00 
   1748c:	48 c7 45 c8 08 00 00 	movq   $0x8,-0x38(%rbp)
   17493:	00 
   17494:	0f 57 c0             	xorps  %xmm0,%xmm0
   17497:	0f 11 45 d0          	movups %xmm0,-0x30(%rbp)
   1749b:	48 8d 15 56 f4 00 00 	lea    0xf456(%rip),%rdx        # 268f8 <__frame_dummy_init_array_entry+0x128>
   174a2:	48 8d 7d b8          	lea    -0x48(%rbp),%rdi
   174a6:	31 f6                	xor    %esi,%esi
   174a8:	ff 15 72 14 01 00    	call   *0x11472(%rip)        # 28920 <_DYNAMIC+0x298>
   174ae:	ff 15 f4 14 01 00    	call   *0x114f4(%rip)        # 289a8 <_DYNAMIC+0x320>
   174b4:	cc                   	int3
   174b5:	cc                   	int3
   174b6:	cc                   	int3
   174b7:	cc                   	int3
   174b8:	cc                   	int3
   174b9:	cc                   	int3
   174ba:	cc                   	int3
   174bb:	cc                   	int3
   174bc:	cc                   	int3
   174bd:	cc                   	int3
   174be:	cc                   	int3
   174bf:	cc                   	int3

00000000000174c0 <_ZN3std3sys12thread_local3key4racy7LazyKey9lazy_init17h68cd4b924e41ef53E>:
   174c0:	55                   	push   %rbp
   174c1:	48 89 e5             	mov    %rsp,%rbp
   174c4:	41 56                	push   %r14
   174c6:	53                   	push   %rbx
   174c7:	48 83 ec 40          	sub    $0x40,%rsp
   174cb:	48 89 fb             	mov    %rdi,%rbx
   174ce:	48 8b 77 08          	mov    0x8(%rdi),%rsi
   174d2:	c7 45 e8 00 00 00 00 	movl   $0x0,-0x18(%rbp)
   174d9:	48 8d 7d e8          	lea    -0x18(%rbp),%rdi
   174dd:	ff 15 35 15 01 00    	call   *0x11535(%rip)        # 28a18 <pthread_key_create@GLIBC_2.34>
   174e3:	85 c0                	test   %eax,%eax
   174e5:	75 65                	jne    1754c <_ZN3std3sys12thread_local3key4racy7LazyKey9lazy_init17h68cd4b924e41ef53E+0x8c>
   174e7:	44 8b 75 e8          	mov    -0x18(%rbp),%r14d
   174eb:	45 85 f6             	test   %r14d,%r14d
   174ee:	75 31                	jne    17521 <_ZN3std3sys12thread_local3key4racy7LazyKey9lazy_init17h68cd4b924e41ef53E+0x61>
   174f0:	48 8b 73 08          	mov    0x8(%rbx),%rsi
   174f4:	c7 45 e8 00 00 00 00 	movl   $0x0,-0x18(%rbp)
   174fb:	48 8d 7d e8          	lea    -0x18(%rbp),%rdi
   174ff:	ff 15 13 15 01 00    	call   *0x11513(%rip)        # 28a18 <pthread_key_create@GLIBC_2.34>
   17505:	85 c0                	test   %eax,%eax
   17507:	75 43                	jne    1754c <_ZN3std3sys12thread_local3key4racy7LazyKey9lazy_init17h68cd4b924e41ef53E+0x8c>
   17509:	44 8b 75 e8          	mov    -0x18(%rbp),%r14d
   1750d:	31 ff                	xor    %edi,%edi
   1750f:	ff 15 0b 15 01 00    	call   *0x1150b(%rip)        # 28a20 <pthread_key_delete@GLIBC_2.34>
   17515:	89 45 e8             	mov    %eax,-0x18(%rbp)
   17518:	85 c0                	test   %eax,%eax
   1751a:	75 76                	jne    17592 <_ZN3std3sys12thread_local3key4racy7LazyKey9lazy_init17h68cd4b924e41ef53E+0xd2>
   1751c:	45 85 f6             	test   %r14d,%r14d
   1751f:	74 34                	je     17555 <_ZN3std3sys12thread_local3key4racy7LazyKey9lazy_init17h68cd4b924e41ef53E+0x95>
   17521:	44 89 f7             	mov    %r14d,%edi
   17524:	31 c0                	xor    %eax,%eax
   17526:	f0 48 0f b1 3b       	lock cmpxchg %rdi,(%rbx)
   1752b:	74 13                	je     17540 <_ZN3std3sys12thread_local3key4racy7LazyKey9lazy_init17h68cd4b924e41ef53E+0x80>
   1752d:	48 89 c3             	mov    %rax,%rbx
   17530:	ff 15 ea 14 01 00    	call   *0x114ea(%rip)        # 28a20 <pthread_key_delete@GLIBC_2.34>
   17536:	89 45 e8             	mov    %eax,-0x18(%rbp)
   17539:	85 c0                	test   %eax,%eax
   1753b:	75 55                	jne    17592 <_ZN3std3sys12thread_local3key4racy7LazyKey9lazy_init17h68cd4b924e41ef53E+0xd2>
   1753d:	48 89 df             	mov    %rbx,%rdi
   17540:	48 89 f8             	mov    %rdi,%rax
   17543:	48 83 c4 40          	add    $0x40,%rsp
   17547:	5b                   	pop    %rbx
   17548:	41 5e                	pop    %r14
   1754a:	5d                   	pop    %rbp
   1754b:	c3                   	ret
   1754c:	48 8d 05 35 f4 00 00 	lea    0xf435(%rip),%rax        # 26988 <__frame_dummy_init_array_entry+0x1b8>
   17553:	eb 07                	jmp    1755c <_ZN3std3sys12thread_local3key4racy7LazyKey9lazy_init17h68cd4b924e41ef53E+0x9c>
   17555:	48 8d 05 04 f4 00 00 	lea    0xf404(%rip),%rax        # 26960 <__frame_dummy_init_array_entry+0x190>
   1755c:	48 89 45 b8          	mov    %rax,-0x48(%rbp)
   17560:	48 c7 45 c0 01 00 00 	movq   $0x1,-0x40(%rbp)
   17567:	00 
   17568:	48 c7 45 c8 08 00 00 	movq   $0x8,-0x38(%rbp)
   1756f:	00 
   17570:	0f 57 c0             	xorps  %xmm0,%xmm0
   17573:	0f 11 45 d0          	movups %xmm0,-0x30(%rbp)
   17577:	48 8d 7d ef          	lea    -0x11(%rbp),%rdi
   1757b:	48 8d 75 b8          	lea    -0x48(%rbp),%rsi
   1757f:	e8 2c 6e 00 00       	call   1e3b0 <_ZN3std2io5Write9write_fmt17h6d7faffea9b289edE>
   17584:	48 89 c7             	mov    %rax,%rdi
   17587:	e8 a4 02 00 00       	call   17830 <_ZN4core3ptr81drop_in_place$LT$core..result..Result$LT$$LP$$RP$$C$std..io..error..Error$GT$$GT$17h85d4474377f30692E>
   1758c:	ff 15 46 14 01 00    	call   *0x11446(%rip)        # 289d8 <_DYNAMIC+0x350>
   17592:	48 c7 45 b8 00 00 00 	movq   $0x0,-0x48(%rbp)
   17599:	00 
   1759a:	48 8d 15 b7 d8 fe ff 	lea    -0x12749(%rip),%rdx        # 4e58 <__abi_tag+0x4b24>
   175a1:	4c 8d 05 c8 f3 00 00 	lea    0xf3c8(%rip),%r8        # 26970 <__frame_dummy_init_array_entry+0x1a0>
   175a8:	48 8d 75 e8          	lea    -0x18(%rbp),%rsi
   175ac:	48 8d 4d b8          	lea    -0x48(%rbp),%rcx
   175b0:	31 ff                	xor    %edi,%edi
   175b2:	ff 15 70 14 01 00    	call   *0x11470(%rip)        # 28a28 <_DYNAMIC+0x3a0>
   175b8:	cc                   	int3
   175b9:	cc                   	int3
   175ba:	cc                   	int3
   175bb:	cc                   	int3
   175bc:	cc                   	int3
   175bd:	cc                   	int3
   175be:	cc                   	int3
   175bf:	cc                   	int3

00000000000175c0 <_ZN3std3sys3env4unix6getenv17h210c9213c844d181E>:
   175c0:	55                   	push   %rbp
   175c1:	48 89 e5             	mov    %rsp,%rbp
   175c4:	41 56                	push   %r14
   175c6:	53                   	push   %rbx
   175c7:	48 83 ec 20          	sub    $0x20,%rsp
   175cb:	48 89 fb             	mov    %rdi,%rbx
   175ce:	4c 8d 05 0b d9 fe ff 	lea    -0x126f5(%rip),%r8        # 4ee0 <__abi_tag+0x4bac>
   175d5:	48 8d 7d d8          	lea    -0x28(%rbp),%rdi
   175d9:	b9 01 00 00 00       	mov    $0x1,%ecx
   175de:	48 81 fa 7f 01 00 00 	cmp    $0x17f,%rdx
   175e5:	77 41                	ja     17628 <_ZN3std3sys3env4unix6getenv17h210c9213c844d181E+0x68>
   175e7:	e8 a4 94 00 00       	call   20a90 <_ZN3std3sys3pal6common14small_c_string19run_with_cstr_stack17h768f85d8be17bf9dE>
   175ec:	49 be 00 00 00 00 00 	movabs $0x8000000000000000,%r14
   175f3:	00 00 80 
   175f6:	48 8b 45 d8          	mov    -0x28(%rbp),%rax
   175fa:	49 8d 4e 01          	lea    0x1(%r14),%rcx
   175fe:	48 39 c8             	cmp    %rcx,%rax
   17601:	75 0e                	jne    17611 <_ZN3std3sys3env4unix6getenv17h210c9213c844d181E+0x51>
   17603:	48 8b 7d e0          	mov    -0x20(%rbp),%rdi
   17607:	e8 24 00 00 00       	call   17630 <_ZN4core3ptr42drop_in_place$LT$std..io..error..Error$GT$17hbf98a7ea96b12467E>
   1760c:	4c 89 f0             	mov    %r14,%rax
   1760f:	eb 08                	jmp    17619 <_ZN3std3sys3env4unix6getenv17h210c9213c844d181E+0x59>
   17611:	0f 10 45 e0          	movups -0x20(%rbp),%xmm0
   17615:	0f 11 43 08          	movups %xmm0,0x8(%rbx)
   17619:	48 89 03             	mov    %rax,(%rbx)
   1761c:	48 89 d8             	mov    %rbx,%rax
   1761f:	48 83 c4 20          	add    $0x20,%rsp
   17623:	5b                   	pop    %rbx
   17624:	41 5e                	pop    %r14
   17626:	5d                   	pop    %rbp
   17627:	c3                   	ret
   17628:	e8 03 96 00 00       	call   20c30 <_ZN3std3sys3pal6common14small_c_string24run_with_cstr_allocating17h49302d73babd8e3fE>
   1762d:	eb bd                	jmp    175ec <_ZN3std3sys3env4unix6getenv17h210c9213c844d181E+0x2c>
   1762f:	cc                   	int3

0000000000017630 <_ZN4core3ptr42drop_in_place$LT$std..io..error..Error$GT$17hbf98a7ea96b12467E>:
   17630:	55                   	push   %rbp
   17631:	48 89 e5             	mov    %rsp,%rbp
   17634:	41 57                	push   %r15
   17636:	41 56                	push   %r14
   17638:	41 54                	push   %r12
   1763a:	53                   	push   %rbx
   1763b:	48 83 ec 50          	sub    $0x50,%rsp
   1763f:	48 89 fe             	mov    %rdi,%rsi
   17642:	48 89 7d 98          	mov    %rdi,-0x68(%rbp)
   17646:	89 f0                	mov    %esi,%eax
   17648:	83 e0 03             	and    $0x3,%eax
   1764b:	48 8d 0d 9a d7 fe ff 	lea    -0x12866(%rip),%rcx        # 4dec <__abi_tag+0x4ab8>
   17652:	48 63 04 81          	movslq (%rcx,%rax,4),%rax
   17656:	48 01 c8             	add    %rcx,%rax
   17659:	ff e0                	jmp    *%rax
   1765b:	40 f6 c6 07          	test   $0x7,%sil
   1765f:	0f 84 a2 00 00 00    	je     17707 <_ZN4core3ptr42drop_in_place$LT$std..io..error..Error$GT$17hbf98a7ea96b12467E+0xd7>
   17665:	48 8d 15 dc f2 00 00 	lea    0xf2dc(%rip),%rdx        # 26948 <__frame_dummy_init_array_entry+0x178>
   1766c:	bf 08 00 00 00       	mov    $0x8,%edi
   17671:	ff 15 c9 12 01 00    	call   *0x112c9(%rip)        # 28940 <_DYNAMIC+0x2b8>
   17677:	48 89 f3             	mov    %rsi,%rbx
   1767a:	48 ff cb             	dec    %rbx
   1767d:	0f 84 d6 00 00 00    	je     17759 <_ZN4core3ptr42drop_in_place$LT$std..io..error..Error$GT$17hbf98a7ea96b12467E+0x129>
   17683:	4c 8b 76 ff          	mov    -0x1(%rsi),%r14
   17687:	4c 8b 66 07          	mov    0x7(%rsi),%r12
   1768b:	49 8b 04 24          	mov    (%r12),%rax
   1768f:	48 85 c0             	test   %rax,%rax
   17692:	74 05                	je     17699 <_ZN4core3ptr42drop_in_place$LT$std..io..error..Error$GT$17hbf98a7ea96b12467E+0x69>
   17694:	4c 89 f7             	mov    %r14,%rdi
   17697:	ff d0                	call   *%rax
   17699:	4d 8b 7c 24 08       	mov    0x8(%r12),%r15
   1769e:	4d 8b 64 24 10       	mov    0x10(%r12),%r12
   176a3:	4c 89 ff             	mov    %r15,%rdi
   176a6:	4c 89 e6             	mov    %r12,%rsi
   176a9:	ff 15 e9 12 01 00    	call   *0x112e9(%rip)        # 28998 <_DYNAMIC+0x310>
   176af:	84 c0                	test   %al,%al
   176b1:	74 61                	je     17714 <_ZN4core3ptr42drop_in_place$LT$std..io..error..Error$GT$17hbf98a7ea96b12467E+0xe4>
   176b3:	4d 85 ff             	test   %r15,%r15
   176b6:	74 0f                	je     176c7 <_ZN4core3ptr42drop_in_place$LT$std..io..error..Error$GT$17hbf98a7ea96b12467E+0x97>
   176b8:	4c 89 f7             	mov    %r14,%rdi
   176bb:	4c 89 fe             	mov    %r15,%rsi
   176be:	4c 89 e2             	mov    %r12,%rdx
   176c1:	ff 15 21 12 01 00    	call   *0x11221(%rip)        # 288e8 <_DYNAMIC+0x260>
   176c7:	bf 18 00 00 00       	mov    $0x18,%edi
   176cc:	be 08 00 00 00       	mov    $0x8,%esi
   176d1:	ff 15 c1 12 01 00    	call   *0x112c1(%rip)        # 28998 <_DYNAMIC+0x310>
   176d7:	84 c0                	test   %al,%al
   176d9:	74 39                	je     17714 <_ZN4core3ptr42drop_in_place$LT$std..io..error..Error$GT$17hbf98a7ea96b12467E+0xe4>
   176db:	be 18 00 00 00       	mov    $0x18,%esi
   176e0:	ba 08 00 00 00       	mov    $0x8,%edx
   176e5:	48 89 df             	mov    %rbx,%rdi
   176e8:	48 83 c4 50          	add    $0x50,%rsp
   176ec:	5b                   	pop    %rbx
   176ed:	41 5c                	pop    %r12
   176ef:	41 5e                	pop    %r14
   176f1:	41 5f                	pop    %r15
   176f3:	5d                   	pop    %rbp
   176f4:	ff 25 ee 11 01 00    	jmp    *0x111ee(%rip)        # 288e8 <_DYNAMIC+0x260>
   176fa:	48 c1 ee 21          	shr    $0x21,%rsi
   176fe:	83 fe 15             	cmp    $0x15,%esi
   17701:	0f 83 97 00 00 00    	jae    1779e <_ZN4core3ptr42drop_in_place$LT$std..io..error..Error$GT$17hbf98a7ea96b12467E+0x16e>
   17707:	48 83 c4 50          	add    $0x50,%rsp
   1770b:	5b                   	pop    %rbx
   1770c:	41 5c                	pop    %r12
   1770e:	41 5e                	pop    %r14
   17710:	41 5f                	pop    %r15
   17712:	5d                   	pop    %rbp
   17713:	c3                   	ret
   17714:	48 8d 05 9f d8 fe ff 	lea    -0x12761(%rip),%rax        # 4fba <__abi_tag+0x4c86>
   1771b:	48 89 45 d0          	mov    %rax,-0x30(%rbp)
   1771f:	48 c7 45 d8 19 01 00 	movq   $0x119,-0x28(%rbp)
   17726:	00 
   17727:	48 8d 45 d0          	lea    -0x30(%rbp),%rax
   1772b:	48 89 45 a0          	mov    %rax,-0x60(%rbp)
   1772f:	48 c7 45 a8 01 00 00 	movq   $0x1,-0x58(%rbp)
   17736:	00 
   17737:	48 c7 45 b0 08 00 00 	movq   $0x8,-0x50(%rbp)
   1773e:	00 
   1773f:	0f 57 c0             	xorps  %xmm0,%xmm0
   17742:	0f 11 45 b8          	movups %xmm0,-0x48(%rbp)
   17746:	48 8d 15 63 f2 00 00 	lea    0xf263(%rip),%rdx        # 269b0 <__frame_dummy_init_array_entry+0x1e0>
   1774d:	48 8d 7d a0          	lea    -0x60(%rbp),%rdi
   17751:	31 f6                	xor    %esi,%esi
   17753:	ff 15 c7 11 01 00    	call   *0x111c7(%rip)        # 28920 <_DYNAMIC+0x298>
   17759:	48 8d 05 88 d7 fe ff 	lea    -0x12878(%rip),%rax        # 4ee8 <__abi_tag+0x4bb4>
   17760:	48 89 45 d0          	mov    %rax,-0x30(%rbp)
   17764:	48 c7 45 d8 d2 00 00 	movq   $0xd2,-0x28(%rbp)
   1776b:	00 
   1776c:	48 8d 45 d0          	lea    -0x30(%rbp),%rax
   17770:	48 89 45 a0          	mov    %rax,-0x60(%rbp)
   17774:	48 c7 45 a8 01 00 00 	movq   $0x1,-0x58(%rbp)
   1777b:	00 
   1777c:	48 c7 45 b0 08 00 00 	movq   $0x8,-0x50(%rbp)
   17783:	00 
   17784:	0f 57 c0             	xorps  %xmm0,%xmm0
   17787:	0f 11 45 b8          	movups %xmm0,-0x48(%rbp)
   1778b:	48 8d 15 06 f2 00 00 	lea    0xf206(%rip),%rdx        # 26998 <__frame_dummy_init_array_entry+0x1c8>
   17792:	48 8d 7d a0          	lea    -0x60(%rbp),%rdi
   17796:	31 f6                	xor    %esi,%esi
   17798:	ff 15 82 11 01 00    	call   *0x11182(%rip)        # 28920 <_DYNAMIC+0x298>
   1779e:	48 8d 45 98          	lea    -0x68(%rbp),%rax
   177a2:	48 89 45 d0          	mov    %rax,-0x30(%rbp)
   177a6:	48 8b 05 83 11 01 00 	mov    0x11183(%rip),%rax        # 28930 <_DYNAMIC+0x2a8>
   177ad:	48 89 45 d8          	mov    %rax,-0x28(%rbp)
   177b1:	48 8d 05 58 f1 00 00 	lea    0xf158(%rip),%rax        # 26910 <__frame_dummy_init_array_entry+0x140>
   177b8:	48 89 45 a0          	mov    %rax,-0x60(%rbp)
   177bc:	48 c7 45 a8 02 00 00 	movq   $0x2,-0x58(%rbp)
   177c3:	00 
   177c4:	48 8d 05 5d d6 fe ff 	lea    -0x129a3(%rip),%rax        # 4e28 <__abi_tag+0x4af4>
   177cb:	48 89 45 c0          	mov    %rax,-0x40(%rbp)
   177cf:	48 c7 45 c8 01 00 00 	movq   $0x1,-0x38(%rbp)
   177d6:	00 
   177d7:	48 8d 45 d0          	lea    -0x30(%rbp),%rax
   177db:	48 89 45 b0          	mov    %rax,-0x50(%rbp)
   177df:	48 c7 45 b8 01 00 00 	movq   $0x1,-0x48(%rbp)
   177e6:	00 
   177e7:	48 8d 35 42 f1 00 00 	lea    0xf142(%rip),%rsi        # 26930 <__frame_dummy_init_array_entry+0x160>
   177ee:	48 8d 7d a0          	lea    -0x60(%rbp),%rdi
   177f2:	ff 15 40 11 01 00    	call   *0x11140(%rip)        # 28938 <_DYNAMIC+0x2b0>
   177f8:	49 89 c7             	mov    %rax,%r15
   177fb:	4c 89 f7             	mov    %r14,%rdi
   177fe:	4c 89 e6             	mov    %r12,%rsi
   17801:	e8 4a 00 00 00       	call   17850 <_ZN72_$LT$alloc..boxed..Box$LT$T$C$A$GT$$u20$as$u20$core..ops..drop..Drop$GT$4drop17h0e493525ff0286b5E>
   17806:	48 89 df             	mov    %rbx,%rdi
   17809:	e8 e2 00 00 00       	call   178f0 <_ZN72_$LT$alloc..boxed..Box$LT$T$C$A$GT$$u20$as$u20$core..ops..drop..Drop$GT$4drop17h8383e3ec295065baE>
   1780e:	4c 89 ff             	mov    %r15,%rdi
   17811:	e8 7a df 00 00       	call   25790 <_Unwind_Resume@plt>
   17816:	ff 15 8c 11 01 00    	call   *0x1118c(%rip)        # 289a8 <_DYNAMIC+0x320>
   1781c:	ff 15 86 11 01 00    	call   *0x11186(%rip)        # 289a8 <_DYNAMIC+0x320>
   17822:	cc                   	int3
   17823:	cc                   	int3
   17824:	cc                   	int3
   17825:	cc                   	int3
   17826:	cc                   	int3
   17827:	cc                   	int3
   17828:	cc                   	int3
   17829:	cc                   	int3
   1782a:	cc                   	int3
   1782b:	cc                   	int3
   1782c:	cc                   	int3
   1782d:	cc                   	int3
   1782e:	cc                   	int3
   1782f:	cc                   	int3

0000000000017830 <_ZN4core3ptr81drop_in_place$LT$core..result..Result$LT$$LP$$RP$$C$std..io..error..Error$GT$$GT$17h85d4474377f30692E>:
   17830:	55                   	push   %rbp
   17831:	48 89 e5             	mov    %rsp,%rbp
   17834:	48 85 ff             	test   %rdi,%rdi
   17837:	74 06                	je     1783f <_ZN4core3ptr81drop_in_place$LT$core..result..Result$LT$$LP$$RP$$C$std..io..error..Error$GT$$GT$17h85d4474377f30692E+0xf>
   17839:	5d                   	pop    %rbp
   1783a:	e9 f1 fd ff ff       	jmp    17630 <_ZN4core3ptr42drop_in_place$LT$std..io..error..Error$GT$17hbf98a7ea96b12467E>
   1783f:	5d                   	pop    %rbp
   17840:	c3                   	ret
   17841:	cc                   	int3
   17842:	cc                   	int3
   17843:	cc                   	int3
   17844:	cc                   	int3
   17845:	cc                   	int3
   17846:	cc                   	int3
   17847:	cc                   	int3
   17848:	cc                   	int3
   17849:	cc                   	int3
   1784a:	cc                   	int3
   1784b:	cc                   	int3
   1784c:	cc                   	int3
   1784d:	cc                   	int3
   1784e:	cc                   	int3
   1784f:	cc                   	int3

0000000000017850 <_ZN72_$LT$alloc..boxed..Box$LT$T$C$A$GT$$u20$as$u20$core..ops..drop..Drop$GT$4drop17h0e493525ff0286b5E>:
   17850:	55                   	push   %rbp
   17851:	48 89 e5             	mov    %rsp,%rbp
   17854:	41 57                	push   %r15
   17856:	41 56                	push   %r14
   17858:	53                   	push   %rbx
   17859:	48 83 ec 48          	sub    $0x48,%rsp
   1785d:	49 89 ff             	mov    %rdi,%r15
   17860:	48 8b 5e 08          	mov    0x8(%rsi),%rbx
   17864:	4c 8b 76 10          	mov    0x10(%rsi),%r14
   17868:	48 89 df             	mov    %rbx,%rdi
   1786b:	4c 89 f6             	mov    %r14,%rsi
   1786e:	ff 15 24 11 01 00    	call   *0x11124(%rip)        # 28998 <_DYNAMIC+0x310>
   17874:	84 c0                	test   %al,%al
   17876:	74 29                	je     178a1 <_ZN72_$LT$alloc..boxed..Box$LT$T$C$A$GT$$u20$as$u20$core..ops..drop..Drop$GT$4drop17h0e493525ff0286b5E+0x51>
   17878:	48 85 db             	test   %rbx,%rbx
   1787b:	74 19                	je     17896 <_ZN72_$LT$alloc..boxed..Box$LT$T$C$A$GT$$u20$as$u20$core..ops..drop..Drop$GT$4drop17h0e493525ff0286b5E+0x46>
   1787d:	4c 89 ff             	mov    %r15,%rdi
   17880:	48 89 de             	mov    %rbx,%rsi
   17883:	4c 89 f2             	mov    %r14,%rdx
   17886:	48 83 c4 48          	add    $0x48,%rsp
   1788a:	5b                   	pop    %rbx
   1788b:	41 5e                	pop    %r14
   1788d:	41 5f                	pop    %r15
   1788f:	5d                   	pop    %rbp
   17890:	ff 25 52 10 01 00    	jmp    *0x11052(%rip)        # 288e8 <_DYNAMIC+0x260>
   17896:	48 83 c4 48          	add    $0x48,%rsp
   1789a:	5b                   	pop    %rbx
   1789b:	41 5e                	pop    %r14
   1789d:	41 5f                	pop    %r15
   1789f:	5d                   	pop    %rbp
   178a0:	c3                   	ret
   178a1:	48 8d 05 12 d7 fe ff 	lea    -0x128ee(%rip),%rax        # 4fba <__abi_tag+0x4c86>
   178a8:	48 89 45 d8          	mov    %rax,-0x28(%rbp)
   178ac:	48 c7 45 e0 19 01 00 	movq   $0x119,-0x20(%rbp)
   178b3:	00 
   178b4:	48 8d 45 d8          	lea    -0x28(%rbp),%rax
   178b8:	48 89 45 a8          	mov    %rax,-0x58(%rbp)
   178bc:	48 c7 45 b0 01 00 00 	movq   $0x1,-0x50(%rbp)
   178c3:	00 
   178c4:	48 c7 45 b8 08 00 00 	movq   $0x8,-0x48(%rbp)
   178cb:	00 
   178cc:	0f 57 c0             	xorps  %xmm0,%xmm0
   178cf:	0f 11 45 c0          	movups %xmm0,-0x40(%rbp)
   178d3:	48 8d 15 d6 f0 00 00 	lea    0xf0d6(%rip),%rdx        # 269b0 <__frame_dummy_init_array_entry+0x1e0>
   178da:	48 8d 7d a8          	lea    -0x58(%rbp),%rdi
   178de:	31 f6                	xor    %esi,%esi
   178e0:	ff 15 3a 10 01 00    	call   *0x1103a(%rip)        # 28920 <_DYNAMIC+0x298>
   178e6:	ff 15 bc 10 01 00    	call   *0x110bc(%rip)        # 289a8 <_DYNAMIC+0x320>
   178ec:	cc                   	int3
   178ed:	cc                   	int3
   178ee:	cc                   	int3
   178ef:	cc                   	int3

00000000000178f0 <_ZN72_$LT$alloc..boxed..Box$LT$T$C$A$GT$$u20$as$u20$core..ops..drop..Drop$GT$4drop17h8383e3ec295065baE>:
   178f0:	55                   	push   %rbp
   178f1:	48 89 e5             	mov    %rsp,%rbp
   178f4:	53                   	push   %rbx
   178f5:	48 83 ec 48          	sub    $0x48,%rsp
   178f9:	48 89 fb             	mov    %rdi,%rbx
   178fc:	bf 18 00 00 00       	mov    $0x18,%edi
   17901:	be 08 00 00 00       	mov    $0x8,%esi
   17906:	ff 15 8c 10 01 00    	call   *0x1108c(%rip)        # 28998 <_DYNAMIC+0x310>
   1790c:	84 c0                	test   %al,%al
   1790e:	74 19                	je     17929 <_ZN72_$LT$alloc..boxed..Box$LT$T$C$A$GT$$u20$as$u20$core..ops..drop..Drop$GT$4drop17h8383e3ec295065baE+0x39>
   17910:	be 18 00 00 00       	mov    $0x18,%esi
   17915:	ba 08 00 00 00       	mov    $0x8,%edx
   1791a:	48 89 df             	mov    %rbx,%rdi
   1791d:	48 83 c4 48          	add    $0x48,%rsp
   17921:	5b                   	pop    %rbx
   17922:	5d                   	pop    %rbp
   17923:	ff 25 bf 0f 01 00    	jmp    *0x10fbf(%rip)        # 288e8 <_DYNAMIC+0x260>
   17929:	48 8d 05 8a d6 fe ff 	lea    -0x12976(%rip),%rax        # 4fba <__abi_tag+0x4c86>
   17930:	48 89 45 e8          	mov    %rax,-0x18(%rbp)
   17934:	48 c7 45 f0 19 01 00 	movq   $0x119,-0x10(%rbp)
   1793b:	00 
   1793c:	48 8d 45 e8          	lea    -0x18(%rbp),%rax
   17940:	48 89 45 b8          	mov    %rax,-0x48(%rbp)
   17944:	48 c7 45 c0 01 00 00 	movq   $0x1,-0x40(%rbp)
   1794b:	00 
   1794c:	48 c7 45 c8 08 00 00 	movq   $0x8,-0x38(%rbp)
   17953:	00 
   17954:	0f 57 c0             	xorps  %xmm0,%xmm0
   17957:	0f 11 45 d0          	movups %xmm0,-0x30(%rbp)
   1795b:	48 8d 15 4e f0 00 00 	lea    0xf04e(%rip),%rdx        # 269b0 <__frame_dummy_init_array_entry+0x1e0>
   17962:	48 8d 7d b8          	lea    -0x48(%rbp),%rdi
   17966:	31 f6                	xor    %esi,%esi
   17968:	ff 15 b2 0f 01 00    	call   *0x10fb2(%rip)        # 28920 <_DYNAMIC+0x298>
   1796e:	ff 15 34 10 01 00    	call   *0x11034(%rip)        # 289a8 <_DYNAMIC+0x320>
   17974:	cc                   	int3
   17975:	cc                   	int3
   17976:	cc                   	int3
   17977:	cc                   	int3
   17978:	cc                   	int3
   17979:	cc                   	int3
   1797a:	cc                   	int3
   1797b:	cc                   	int3
   1797c:	cc                   	int3
   1797d:	cc                   	int3
   1797e:	cc                   	int3
   1797f:	cc                   	int3

0000000000017980 <_ZN4core3ptr81drop_in_place$LT$std..sys..pal..unix..stack_overflow..thread_info..ThreadInfo$GT$17h2be9ee3e2b42bfcfE>:
   17980:	55                   	push   %rbp
   17981:	48 89 e5             	mov    %rsp,%rbp
   17984:	41 56                	push   %r14
   17986:	53                   	push   %rbx
   17987:	48 83 ec 40          	sub    $0x40,%rsp
   1798b:	48 85 ff             	test   %rdi,%rdi
   1798e:	74 36                	je     179c6 <_ZN4core3ptr81drop_in_place$LT$std..sys..pal..unix..stack_overflow..thread_info..ThreadInfo$GT$17h2be9ee3e2b42bfcfE+0x46>
   17990:	48 89 f3             	mov    %rsi,%rbx
   17993:	49 89 fe             	mov    %rdi,%r14
   17996:	be 01 00 00 00       	mov    $0x1,%esi
   1799b:	48 89 df             	mov    %rbx,%rdi
   1799e:	ff 15 f4 0f 01 00    	call   *0x10ff4(%rip)        # 28998 <_DYNAMIC+0x310>
   179a4:	84 c0                	test   %al,%al
   179a6:	74 27                	je     179cf <_ZN4core3ptr81drop_in_place$LT$std..sys..pal..unix..stack_overflow..thread_info..ThreadInfo$GT$17h2be9ee3e2b42bfcfE+0x4f>
   179a8:	48 85 db             	test   %rbx,%rbx
   179ab:	74 19                	je     179c6 <_ZN4core3ptr81drop_in_place$LT$std..sys..pal..unix..stack_overflow..thread_info..ThreadInfo$GT$17h2be9ee3e2b42bfcfE+0x46>
   179ad:	ba 01 00 00 00       	mov    $0x1,%edx
   179b2:	4c 89 f7             	mov    %r14,%rdi
   179b5:	48 89 de             	mov    %rbx,%rsi
   179b8:	48 83 c4 40          	add    $0x40,%rsp
   179bc:	5b                   	pop    %rbx
   179bd:	41 5e                	pop    %r14
   179bf:	5d                   	pop    %rbp
   179c0:	ff 25 22 0f 01 00    	jmp    *0x10f22(%rip)        # 288e8 <_DYNAMIC+0x260>
   179c6:	48 83 c4 40          	add    $0x40,%rsp
   179ca:	5b                   	pop    %rbx
   179cb:	41 5e                	pop    %r14
   179cd:	5d                   	pop    %rbp
   179ce:	c3                   	ret
   179cf:	48 8d 05 fd d6 fe ff 	lea    -0x12903(%rip),%rax        # 50d3 <__abi_tag+0x4d9f>
   179d6:	48 89 45 e0          	mov    %rax,-0x20(%rbp)
   179da:	48 c7 45 e8 19 01 00 	movq   $0x119,-0x18(%rbp)
   179e1:	00 
   179e2:	48 8d 45 e0          	lea    -0x20(%rbp),%rax
   179e6:	48 89 45 b0          	mov    %rax,-0x50(%rbp)
   179ea:	48 c7 45 b8 01 00 00 	movq   $0x1,-0x48(%rbp)
   179f1:	00 
   179f2:	48 c7 45 c0 08 00 00 	movq   $0x8,-0x40(%rbp)
   179f9:	00 
   179fa:	0f 57 c0             	xorps  %xmm0,%xmm0
   179fd:	0f 11 45 c8          	movups %xmm0,-0x38(%rbp)
   17a01:	48 8d 15 c0 ef 00 00 	lea    0xefc0(%rip),%rdx        # 269c8 <__frame_dummy_init_array_entry+0x1f8>
   17a08:	48 8d 7d b0          	lea    -0x50(%rbp),%rdi
   17a0c:	31 f6                	xor    %esi,%esi
   17a0e:	ff 15 0c 0f 01 00    	call   *0x10f0c(%rip)        # 28920 <_DYNAMIC+0x298>
   17a14:	ff 15 8e 0f 01 00    	call   *0x10f8e(%rip)        # 289a8 <_DYNAMIC+0x320>
   17a1a:	cc                   	int3
   17a1b:	cc                   	int3
   17a1c:	cc                   	int3
   17a1d:	cc                   	int3
   17a1e:	cc                   	int3
   17a1f:	cc                   	int3

0000000000017a20 <_ZN5alloc11collections5btree3map25BTreeMap$LT$K$C$V$C$A$GT$3get17h54f8b406c2ff88e5E>:
   17a20:	48 89 f1             	mov    %rsi,%rcx
   17a23:	48 8b 37             	mov    (%rdi),%rsi
   17a26:	48 85 f6             	test   %rsi,%rsi
   17a29:	74 23                	je     17a4e <_ZN5alloc11collections5btree3map25BTreeMap$LT$K$C$V$C$A$GT$3get17h54f8b406c2ff88e5E+0x2e>
   17a2b:	55                   	push   %rbp
   17a2c:	48 89 e5             	mov    %rsp,%rbp
   17a2f:	48 83 ec 40          	sub    $0x40,%rsp
   17a33:	48 8b 57 08          	mov    0x8(%rdi),%rdx
   17a37:	48 8d 7d c0          	lea    -0x40(%rbp),%rdi
   17a3b:	e8 20 1c 00 00       	call   19660 <_ZN5alloc11collections5btree6search142_$LT$impl$u20$alloc..collections..btree..node..NodeRef$LT$BorrowType$C$K$C$V$C$alloc..collections..btree..node..marker..LeafOrInternal$GT$$GT$11search_tree17hb618ad0d20690877E>
   17a40:	80 7d c0 00          	cmpb   $0x0,-0x40(%rbp)
   17a44:	74 0b                	je     17a51 <_ZN5alloc11collections5btree3map25BTreeMap$LT$K$C$V$C$A$GT$3get17h54f8b406c2ff88e5E+0x31>
   17a46:	31 c0                	xor    %eax,%eax
   17a48:	48 83 c4 40          	add    $0x40,%rsp
   17a4c:	5d                   	pop    %rbp
   17a4d:	c3                   	ret
   17a4e:	31 c0                	xor    %eax,%eax
   17a50:	c3                   	ret
   17a51:	48 8b 45 d8          	mov    -0x28(%rbp),%rax
   17a55:	48 89 45 f0          	mov    %rax,-0x10(%rbp)
   17a59:	0f 10 45 c8          	movups -0x38(%rbp),%xmm0
   17a5d:	0f 29 45 e0          	movaps %xmm0,-0x20(%rbp)
   17a61:	48 8d 7d e0          	lea    -0x20(%rbp),%rdi
   17a65:	e8 26 0a 00 00       	call   18490 <_ZN5alloc11collections5btree4node173Handle$LT$alloc..collections..btree..node..NodeRef$LT$alloc..collections..btree..node..marker..Immut$C$K$C$V$C$NodeType$GT$$C$alloc..collections..btree..node..marker..KV$GT$7into_kv17h8f0f72287a94e92eE>
   17a6a:	48 89 d0             	mov    %rdx,%rax
   17a6d:	48 83 c4 40          	add    $0x40,%rsp
   17a71:	5d                   	pop    %rbp
   17a72:	c3                   	ret
   17a73:	cc                   	int3
   17a74:	cc                   	int3
   17a75:	cc                   	int3
   17a76:	cc                   	int3
   17a77:	cc                   	int3
   17a78:	cc                   	int3
   17a79:	cc                   	int3
   17a7a:	cc                   	int3
   17a7b:	cc                   	int3
   17a7c:	cc                   	int3
   17a7d:	cc                   	int3
   17a7e:	cc                   	int3
   17a7f:	cc                   	int3

0000000000017a80 <_ZN5alloc11collections5btree3map25BTreeMap$LT$K$C$V$C$A$GT$6insert17hcffc5d1b55b16b7aE>:
   17a80:	55                   	push   %rbp
   17a81:	48 89 e5             	mov    %rsp,%rbp
   17a84:	41 57                	push   %r15
   17a86:	41 56                	push   %r14
   17a88:	41 54                	push   %r12
   17a8a:	53                   	push   %rbx
   17a8b:	48 83 ec 70          	sub    $0x70,%rsp
   17a8f:	49 89 ce             	mov    %rcx,%r14
   17a92:	49 89 d4             	mov    %rdx,%r12
   17a95:	49 89 f7             	mov    %rsi,%r15
   17a98:	48 89 fb             	mov    %rdi,%rbx
   17a9b:	48 89 55 a0          	mov    %rdx,-0x60(%rbp)
   17a9f:	48 8b 36             	mov    (%rsi),%rsi
   17aa2:	48 85 f6             	test   %rsi,%rsi
   17aa5:	74 25                	je     17acc <_ZN5alloc11collections5btree3map25BTreeMap$LT$K$C$V$C$A$GT$6insert17hcffc5d1b55b16b7aE+0x4c>
   17aa7:	49 8b 57 08          	mov    0x8(%r15),%rdx
   17aab:	48 8d 7d c0          	lea    -0x40(%rbp),%rdi
   17aaf:	48 8d 4d a0          	lea    -0x60(%rbp),%rcx
   17ab3:	e8 a8 1b 00 00       	call   19660 <_ZN5alloc11collections5btree6search142_$LT$impl$u20$alloc..collections..btree..node..NodeRef$LT$BorrowType$C$K$C$V$C$alloc..collections..btree..node..marker..LeafOrInternal$GT$$GT$11search_tree17hb618ad0d20690877E>
   17ab8:	83 7d c0 01          	cmpl   $0x1,-0x40(%rbp)
   17abc:	75 60                	jne    17b1e <_ZN5alloc11collections5btree3map25BTreeMap$LT$K$C$V$C$A$GT$6insert17hcffc5d1b55b16b7aE+0x9e>
   17abe:	48 8b 45 c8          	mov    -0x38(%rbp),%rax
   17ac2:	48 8b 55 d0          	mov    -0x30(%rbp),%rdx
   17ac6:	48 8b 4d d8          	mov    -0x28(%rbp),%rcx
   17aca:	eb 02                	jmp    17ace <_ZN5alloc11collections5btree3map25BTreeMap$LT$K$C$V$C$A$GT$6insert17hcffc5d1b55b16b7aE+0x4e>
   17acc:	31 c0                	xor    %eax,%eax
   17ace:	4c 89 bd 78 ff ff ff 	mov    %r15,-0x88(%rbp)
   17ad5:	4c 89 65 80          	mov    %r12,-0x80(%rbp)
   17ad9:	48 89 45 88          	mov    %rax,-0x78(%rbp)
   17add:	48 89 55 90          	mov    %rdx,-0x70(%rbp)
   17ae1:	48 89 4d 98          	mov    %rcx,-0x68(%rbp)
   17ae5:	41 0f 10 06          	movups (%r14),%xmm0
   17ae9:	41 0f 10 4e 10       	movups 0x10(%r14),%xmm1
   17aee:	0f 29 4d b0          	movaps %xmm1,-0x50(%rbp)
   17af2:	0f 29 45 a0          	movaps %xmm0,-0x60(%rbp)
   17af6:	4c 8d 75 c0          	lea    -0x40(%rbp),%r14
   17afa:	48 8d b5 78 ff ff ff 	lea    -0x88(%rbp),%rsi
   17b01:	48 8d 55 a0          	lea    -0x60(%rbp),%rdx
   17b05:	4c 89 f7             	mov    %r14,%rdi
   17b08:	e8 73 74 00 00       	call   1ef80 <_ZN5alloc11collections5btree3map5entry28VacantEntry$LT$K$C$V$C$A$GT$12insert_entry17h3e1aba44ac756c8bE>
   17b0d:	4c 89 f7             	mov    %r14,%rdi
   17b10:	e8 4b 76 00 00       	call   1f160 <_ZN5alloc11collections5btree3map5entry30OccupiedEntry$LT$K$C$V$C$A$GT$8into_mut17h78e9567e231fe226E>
   17b15:	48 c7 03 00 00 00 00 	movq   $0x0,(%rbx)
   17b1c:	eb 3d                	jmp    17b5b <_ZN5alloc11collections5btree3map25BTreeMap$LT$K$C$V$C$A$GT$6insert17hcffc5d1b55b16b7aE+0xdb>
   17b1e:	0f 10 45 c8          	movups -0x38(%rbp),%xmm0
   17b22:	48 8b 45 d8          	mov    -0x28(%rbp),%rax
   17b26:	0f 11 45 a0          	movups %xmm0,-0x60(%rbp)
   17b2a:	48 89 45 b0          	mov    %rax,-0x50(%rbp)
   17b2e:	4c 89 7d b8          	mov    %r15,-0x48(%rbp)
   17b32:	41 0f 10 06          	movups (%r14),%xmm0
   17b36:	41 0f 10 4e 10       	movups 0x10(%r14),%xmm1
   17b3b:	0f 29 4d d0          	movaps %xmm1,-0x30(%rbp)
   17b3f:	0f 29 45 c0          	movaps %xmm0,-0x40(%rbp)
   17b43:	48 8d 7b 08          	lea    0x8(%rbx),%rdi
   17b47:	48 8d 75 a0          	lea    -0x60(%rbp),%rsi
   17b4b:	48 8d 55 c0          	lea    -0x40(%rbp),%rdx
   17b4f:	e8 ac 75 00 00       	call   1f100 <_ZN5alloc11collections5btree3map5entry30OccupiedEntry$LT$K$C$V$C$A$GT$6insert17h2a8288f3ffcbdca7E>
   17b54:	48 c7 03 01 00 00 00 	movq   $0x1,(%rbx)
   17b5b:	48 89 d8             	mov    %rbx,%rax
   17b5e:	48 83 c4 70          	add    $0x70,%rsp
   17b62:	5b                   	pop    %rbx
   17b63:	41 5c                	pop    %r12
   17b65:	41 5e                	pop    %r14
   17b67:	41 5f                	pop    %r15
   17b69:	5d                   	pop    %rbp
   17b6a:	c3                   	ret
   17b6b:	48 89 c3             	mov    %rax,%rbx
   17b6e:	49 8b 7e 10          	mov    0x10(%r14),%rdi
   17b72:	49 8b 76 18          	mov    0x18(%r14),%rsi
   17b76:	e8 05 fe ff ff       	call   17980 <_ZN4core3ptr81drop_in_place$LT$std..sys..pal..unix..stack_overflow..thread_info..ThreadInfo$GT$17h2be9ee3e2b42bfcfE>
   17b7b:	48 89 df             	mov    %rbx,%rdi
   17b7e:	e8 0d dc 00 00       	call   25790 <_Unwind_Resume@plt>
   17b83:	cc                   	int3
   17b84:	cc                   	int3
   17b85:	cc                   	int3
   17b86:	cc                   	int3
   17b87:	cc                   	int3
   17b88:	cc                   	int3
   17b89:	cc                   	int3
   17b8a:	cc                   	int3
   17b8b:	cc                   	int3
   17b8c:	cc                   	int3
   17b8d:	cc                   	int3
   17b8e:	cc                   	int3
   17b8f:	cc                   	int3

0000000000017b90 <_ZN4core3ptr163drop_in_place$LT$alloc..boxed..Box$LT$alloc..collections..btree..node..LeafNode$LT$usize$C$std..sys..pal..unix..stack_overflow..thread_info..ThreadInfo$GT$$GT$$GT$17ha89d8e81750e8d72E>:
   17b90:	55                   	push   %rbp
   17b91:	48 89 e5             	mov    %rsp,%rbp
   17b94:	53                   	push   %rbx
   17b95:	48 83 ec 48          	sub    $0x48,%rsp
   17b99:	48 89 fb             	mov    %rdi,%rbx
   17b9c:	bf c8 01 00 00       	mov    $0x1c8,%edi
   17ba1:	be 08 00 00 00       	mov    $0x8,%esi
   17ba6:	ff 15 ec 0d 01 00    	call   *0x10dec(%rip)        # 28998 <_DYNAMIC+0x310>
   17bac:	84 c0                	test   %al,%al
   17bae:	74 19                	je     17bc9 <_ZN4core3ptr163drop_in_place$LT$alloc..boxed..Box$LT$alloc..collections..btree..node..LeafNode$LT$usize$C$std..sys..pal..unix..stack_overflow..thread_info..ThreadInfo$GT$$GT$$GT$17ha89d8e81750e8d72E+0x39>
   17bb0:	be c8 01 00 00       	mov    $0x1c8,%esi
   17bb5:	ba 08 00 00 00       	mov    $0x8,%edx
   17bba:	48 89 df             	mov    %rbx,%rdi
   17bbd:	48 83 c4 48          	add    $0x48,%rsp
   17bc1:	5b                   	pop    %rbx
   17bc2:	5d                   	pop    %rbp
   17bc3:	ff 25 1f 0d 01 00    	jmp    *0x10d1f(%rip)        # 288e8 <_DYNAMIC+0x260>
   17bc9:	48 8d 05 97 da fe ff 	lea    -0x12569(%rip),%rax        # 5667 <__abi_tag+0x5333>
   17bd0:	48 89 45 e8          	mov    %rax,-0x18(%rbp)
   17bd4:	48 c7 45 f0 19 01 00 	movq   $0x119,-0x10(%rbp)
   17bdb:	00 
   17bdc:	48 8d 45 e8          	lea    -0x18(%rbp),%rax
   17be0:	48 89 45 b8          	mov    %rax,-0x48(%rbp)
   17be4:	48 c7 45 c0 01 00 00 	movq   $0x1,-0x40(%rbp)
   17beb:	00 
   17bec:	48 c7 45 c8 08 00 00 	movq   $0x8,-0x38(%rbp)
   17bf3:	00 
   17bf4:	0f 57 c0             	xorps  %xmm0,%xmm0
   17bf7:	0f 11 45 d0          	movups %xmm0,-0x30(%rbp)
   17bfb:	48 8d 15 b6 f1 00 00 	lea    0xf1b6(%rip),%rdx        # 26db8 <__frame_dummy_init_array_entry+0x5e8>
   17c02:	48 8d 7d b8          	lea    -0x48(%rbp),%rdi
   17c06:	31 f6                	xor    %esi,%esi
   17c08:	ff 15 12 0d 01 00    	call   *0x10d12(%rip)        # 28920 <_DYNAMIC+0x298>
   17c0e:	ff 15 94 0d 01 00    	call   *0x10d94(%rip)        # 289a8 <_DYNAMIC+0x320>
   17c14:	cc                   	int3
   17c15:	cc                   	int3
   17c16:	cc                   	int3
   17c17:	cc                   	int3
   17c18:	cc                   	int3
   17c19:	cc                   	int3
   17c1a:	cc                   	int3
   17c1b:	cc                   	int3
   17c1c:	cc                   	int3
   17c1d:	cc                   	int3
   17c1e:	cc                   	int3
   17c1f:	cc                   	int3

0000000000017c20 <_ZN4core3ptr167drop_in_place$LT$alloc..boxed..Box$LT$alloc..collections..btree..node..InternalNode$LT$usize$C$std..sys..pal..unix..stack_overflow..thread_info..ThreadInfo$GT$$GT$$GT$17h032499cb52e66007E>:
   17c20:	55                   	push   %rbp
   17c21:	48 89 e5             	mov    %rsp,%rbp
   17c24:	53                   	push   %rbx
   17c25:	48 83 ec 48          	sub    $0x48,%rsp
   17c29:	48 89 fb             	mov    %rdi,%rbx
   17c2c:	bf 28 02 00 00       	mov    $0x228,%edi
   17c31:	be 08 00 00 00       	mov    $0x8,%esi
   17c36:	ff 15 5c 0d 01 00    	call   *0x10d5c(%rip)        # 28998 <_DYNAMIC+0x310>
   17c3c:	84 c0                	test   %al,%al
   17c3e:	74 19                	je     17c59 <_ZN4core3ptr167drop_in_place$LT$alloc..boxed..Box$LT$alloc..collections..btree..node..InternalNode$LT$usize$C$std..sys..pal..unix..stack_overflow..thread_info..ThreadInfo$GT$$GT$$GT$17h032499cb52e66007E+0x39>
   17c40:	be 28 02 00 00       	mov    $0x228,%esi
   17c45:	ba 08 00 00 00       	mov    $0x8,%edx
   17c4a:	48 89 df             	mov    %rbx,%rdi
   17c4d:	48 83 c4 48          	add    $0x48,%rsp
   17c51:	5b                   	pop    %rbx
   17c52:	5d                   	pop    %rbp
   17c53:	ff 25 8f 0c 01 00    	jmp    *0x10c8f(%rip)        # 288e8 <_DYNAMIC+0x260>
   17c59:	48 8d 05 07 da fe ff 	lea    -0x125f9(%rip),%rax        # 5667 <__abi_tag+0x5333>
   17c60:	48 89 45 e8          	mov    %rax,-0x18(%rbp)
   17c64:	48 c7 45 f0 19 01 00 	movq   $0x119,-0x10(%rbp)
   17c6b:	00 
   17c6c:	48 8d 45 e8          	lea    -0x18(%rbp),%rax
   17c70:	48 89 45 b8          	mov    %rax,-0x48(%rbp)
   17c74:	48 c7 45 c0 01 00 00 	movq   $0x1,-0x40(%rbp)
   17c7b:	00 
   17c7c:	48 c7 45 c8 08 00 00 	movq   $0x8,-0x38(%rbp)
   17c83:	00 
   17c84:	0f 57 c0             	xorps  %xmm0,%xmm0
   17c87:	0f 11 45 d0          	movups %xmm0,-0x30(%rbp)
   17c8b:	48 8d 15 26 f1 00 00 	lea    0xf126(%rip),%rdx        # 26db8 <__frame_dummy_init_array_entry+0x5e8>
   17c92:	48 8d 7d b8          	lea    -0x48(%rbp),%rdi
   17c96:	31 f6                	xor    %esi,%esi
   17c98:	ff 15 82 0c 01 00    	call   *0x10c82(%rip)        # 28920 <_DYNAMIC+0x298>
   17c9e:	ff 15 04 0d 01 00    	call   *0x10d04(%rip)        # 289a8 <_DYNAMIC+0x320>
   17ca4:	cc                   	int3
   17ca5:	cc                   	int3
   17ca6:	cc                   	int3
   17ca7:	cc                   	int3
   17ca8:	cc                   	int3
   17ca9:	cc                   	int3
   17caa:	cc                   	int3
   17cab:	cc                   	int3
   17cac:	cc                   	int3
   17cad:	cc                   	int3
   17cae:	cc                   	int3
   17caf:	cc                   	int3

0000000000017cb0 <_ZN4core3ptr189drop_in_place$LT$alloc..collections..btree..node..SplitResult$LT$usize$C$std..sys..pal..unix..stack_overflow..thread_info..ThreadInfo$C$alloc..collections..btree..node..marker..Leaf$GT$$GT$17h04dfb50a730d3555E>:
   17cb0:	55                   	push   %rbp
   17cb1:	48 89 e5             	mov    %rsp,%rbp
   17cb4:	41 56                	push   %r14
   17cb6:	53                   	push   %rbx
   17cb7:	48 83 ec 40          	sub    $0x40,%rsp
   17cbb:	48 85 ff             	test   %rdi,%rdi
   17cbe:	74 36                	je     17cf6 <_ZN4core3ptr189drop_in_place$LT$alloc..collections..btree..node..SplitResult$LT$usize$C$std..sys..pal..unix..stack_overflow..thread_info..ThreadInfo$C$alloc..collections..btree..node..marker..Leaf$GT$$GT$17h04dfb50a730d3555E+0x46>
   17cc0:	48 89 f3             	mov    %rsi,%rbx
   17cc3:	49 89 fe             	mov    %rdi,%r14
   17cc6:	be 01 00 00 00       	mov    $0x1,%esi
   17ccb:	48 89 df             	mov    %rbx,%rdi
   17cce:	ff 15 c4 0c 01 00    	call   *0x10cc4(%rip)        # 28998 <_DYNAMIC+0x310>
   17cd4:	84 c0                	test   %al,%al
   17cd6:	74 27                	je     17cff <_ZN4core3ptr189drop_in_place$LT$alloc..collections..btree..node..SplitResult$LT$usize$C$std..sys..pal..unix..stack_overflow..thread_info..ThreadInfo$C$alloc..collections..btree..node..marker..Leaf$GT$$GT$17h04dfb50a730d3555E+0x4f>
   17cd8:	48 85 db             	test   %rbx,%rbx
   17cdb:	74 19                	je     17cf6 <_ZN4core3ptr189drop_in_place$LT$alloc..collections..btree..node..SplitResult$LT$usize$C$std..sys..pal..unix..stack_overflow..thread_info..ThreadInfo$C$alloc..collections..btree..node..marker..Leaf$GT$$GT$17h04dfb50a730d3555E+0x46>
   17cdd:	ba 01 00 00 00       	mov    $0x1,%edx
   17ce2:	4c 89 f7             	mov    %r14,%rdi
   17ce5:	48 89 de             	mov    %rbx,%rsi
   17ce8:	48 83 c4 40          	add    $0x40,%rsp
   17cec:	5b                   	pop    %rbx
   17ced:	41 5e                	pop    %r14
   17cef:	5d                   	pop    %rbp
   17cf0:	ff 25 f2 0b 01 00    	jmp    *0x10bf2(%rip)        # 288e8 <_DYNAMIC+0x260>
   17cf6:	48 83 c4 40          	add    $0x40,%rsp
   17cfa:	5b                   	pop    %rbx
   17cfb:	41 5e                	pop    %r14
   17cfd:	5d                   	pop    %rbp
   17cfe:	c3                   	ret
   17cff:	48 8d 05 61 d9 fe ff 	lea    -0x1269f(%rip),%rax        # 5667 <__abi_tag+0x5333>
   17d06:	48 89 45 e0          	mov    %rax,-0x20(%rbp)
   17d0a:	48 c7 45 e8 19 01 00 	movq   $0x119,-0x18(%rbp)
   17d11:	00 
   17d12:	48 8d 45 e0          	lea    -0x20(%rbp),%rax
   17d16:	48 89 45 b0          	mov    %rax,-0x50(%rbp)
   17d1a:	48 c7 45 b8 01 00 00 	movq   $0x1,-0x48(%rbp)
   17d21:	00 
   17d22:	48 c7 45 c0 08 00 00 	movq   $0x8,-0x40(%rbp)
   17d29:	00 
   17d2a:	0f 57 c0             	xorps  %xmm0,%xmm0
   17d2d:	0f 11 45 c8          	movups %xmm0,-0x38(%rbp)
   17d31:	48 8d 15 80 f0 00 00 	lea    0xf080(%rip),%rdx        # 26db8 <__frame_dummy_init_array_entry+0x5e8>
   17d38:	48 8d 7d b0          	lea    -0x50(%rbp),%rdi
   17d3c:	31 f6                	xor    %esi,%esi
   17d3e:	ff 15 dc 0b 01 00    	call   *0x10bdc(%rip)        # 28920 <_DYNAMIC+0x298>
   17d44:	ff 15 5e 0c 01 00    	call   *0x10c5e(%rip)        # 289a8 <_DYNAMIC+0x320>
   17d4a:	cc                   	int3
   17d4b:	cc                   	int3
   17d4c:	cc                   	int3
   17d4d:	cc                   	int3
   17d4e:	cc                   	int3
   17d4f:	cc                   	int3

0000000000017d50 <_ZN5alloc11collections5btree4node115NodeRef$LT$alloc..collections..btree..node..marker..Mut$C$K$C$V$C$alloc..collections..btree..node..marker..Leaf$GT$16push_with_handle17h4e2add418eb0569dE>:
   17d50:	55                   	push   %rbp
   17d51:	48 89 e5             	mov    %rsp,%rbp
   17d54:	41 56                	push   %r14
   17d56:	53                   	push   %rbx
   17d57:	48 89 cb             	mov    %rcx,%rbx
   17d5a:	48 8b 0e             	mov    (%rsi),%rcx
   17d5d:	0f b7 81 c2 01 00 00 	movzwl 0x1c2(%rcx),%eax
   17d64:	48 83 f8 0b          	cmp    $0xb,%rax
   17d68:	73 49                	jae    17db3 <_ZN5alloc11collections5btree4node115NodeRef$LT$alloc..collections..btree..node..marker..Mut$C$K$C$V$C$alloc..collections..btree..node..marker..Leaf$GT$16push_with_handle17h4e2add418eb0569dE+0x63>
   17d6a:	44 8d 40 01          	lea    0x1(%rax),%r8d
   17d6e:	66 44 89 81 c2 01 00 	mov    %r8w,0x1c2(%rcx)
   17d75:	00 
   17d76:	48 89 94 c1 68 01 00 	mov    %rdx,0x168(%rcx,%rax,8)
   17d7d:	00 
   17d7e:	89 c2                	mov    %eax,%edx
   17d80:	c1 e2 05             	shl    $0x5,%edx
   17d83:	0f 10 03             	movups (%rbx),%xmm0
   17d86:	0f 10 4b 10          	movups 0x10(%rbx),%xmm1
   17d8a:	0f 11 4c 11 10       	movups %xmm1,0x10(%rcx,%rdx,1)
   17d8f:	0f 11 04 11          	movups %xmm0,(%rcx,%rdx,1)
   17d93:	66 3b 81 c2 01 00 00 	cmp    0x1c2(%rcx),%ax
   17d9a:	73 32                	jae    17dce <_ZN5alloc11collections5btree4node115NodeRef$LT$alloc..collections..btree..node..marker..Mut$C$K$C$V$C$alloc..collections..btree..node..marker..Leaf$GT$16push_with_handle17h4e2add418eb0569dE+0x7e>
   17d9c:	48 8b 56 08          	mov    0x8(%rsi),%rdx
   17da0:	48 89 0f             	mov    %rcx,(%rdi)
   17da3:	48 89 57 08          	mov    %rdx,0x8(%rdi)
   17da7:	48 89 47 10          	mov    %rax,0x10(%rdi)
   17dab:	48 89 f8             	mov    %rdi,%rax
   17dae:	5b                   	pop    %rbx
   17daf:	41 5e                	pop    %r14
   17db1:	5d                   	pop    %rbp
   17db2:	c3                   	ret
   17db3:	48 8d 3d 26 da fe ff 	lea    -0x125da(%rip),%rdi        # 57e0 <__abi_tag+0x54ac>
   17dba:	48 8d 15 37 ec 00 00 	lea    0xec37(%rip),%rdx        # 269f8 <__frame_dummy_init_array_entry+0x228>
   17dc1:	be 20 00 00 00       	mov    $0x20,%esi
   17dc6:	ff 15 ac 0b 01 00    	call   *0x10bac(%rip)        # 28978 <_DYNAMIC+0x2f0>
   17dcc:	0f 0b                	ud2
   17dce:	48 8d 3d 2b da fe ff 	lea    -0x125d5(%rip),%rdi        # 5800 <__abi_tag+0x54cc>
   17dd5:	48 8d 15 4c ec 00 00 	lea    0xec4c(%rip),%rdx        # 26a28 <__frame_dummy_init_array_entry+0x258>
   17ddc:	be 22 00 00 00       	mov    $0x22,%esi
   17de1:	ff 15 91 0b 01 00    	call   *0x10b91(%rip)        # 28978 <_DYNAMIC+0x2f0>
   17de7:	49 89 c6             	mov    %rax,%r14
   17dea:	48 8b 7b 10          	mov    0x10(%rbx),%rdi
   17dee:	48 8b 73 18          	mov    0x18(%rbx),%rsi
   17df2:	e8 b9 fe ff ff       	call   17cb0 <_ZN4core3ptr189drop_in_place$LT$alloc..collections..btree..node..SplitResult$LT$usize$C$std..sys..pal..unix..stack_overflow..thread_info..ThreadInfo$C$alloc..collections..btree..node..marker..Leaf$GT$$GT$17h04dfb50a730d3555E>
   17df7:	4c 89 f7             	mov    %r14,%rdi
   17dfa:	e8 91 d9 00 00       	call   25790 <_Unwind_Resume@plt>
   17dff:	cc                   	int3

0000000000017e00 <_ZN5alloc11collections5btree4node117NodeRef$LT$alloc..collections..btree..node..marker..Owned$C$K$C$V$C$alloc..collections..btree..node..marker..Leaf$GT$13from_new_leaf17h2548b1cc97b2f9ecE>:
   17e00:	55                   	push   %rbp
   17e01:	48 89 e5             	mov    %rsp,%rbp
   17e04:	48 89 f8             	mov    %rdi,%rax
   17e07:	31 d2                	xor    %edx,%edx
   17e09:	5d                   	pop    %rbp
   17e0a:	c3                   	ret
   17e0b:	cc                   	int3
   17e0c:	cc                   	int3
   17e0d:	cc                   	int3
   17e0e:	cc                   	int3
   17e0f:	cc                   	int3

0000000000017e10 <_ZN5alloc11collections5btree4node119NodeRef$LT$alloc..collections..btree..node..marker..Mut$C$K$C$V$C$alloc..collections..btree..node..marker..Internal$GT$30correct_childrens_parent_links17hd5006c2086bc4c22E>:
   17e10:	55                   	push   %rbp
   17e11:	48 89 e5             	mov    %rsp,%rbp
   17e14:	48 83 ec 40          	sub    $0x40,%rsp
   17e18:	48 39 ca             	cmp    %rcx,%rdx
   17e1b:	73 51                	jae    17e6e <_ZN5alloc11collections5btree4node119NodeRef$LT$alloc..collections..btree..node..marker..Mut$C$K$C$V$C$alloc..collections..btree..node..marker..Internal$GT$30correct_childrens_parent_links17hd5006c2086bc4c22E+0x5e>
   17e1d:	48 85 f6             	test   %rsi,%rsi
   17e20:	74 52                	je     17e74 <_ZN5alloc11collections5btree4node119NodeRef$LT$alloc..collections..btree..node..marker..Mut$C$K$C$V$C$alloc..collections..btree..node..marker..Internal$GT$30correct_childrens_parent_links17hd5006c2086bc4c22E+0x64>
   17e22:	66 66 66 66 66 2e 0f 	data16 data16 data16 data16 cs nopw 0x0(%rax,%rax,1)
   17e29:	1f 84 00 00 00 00 00 
   17e30:	0f b7 87 c2 01 00 00 	movzwl 0x1c2(%rdi),%eax
   17e37:	48 39 c2             	cmp    %rax,%rdx
   17e3a:	77 64                	ja     17ea0 <_ZN5alloc11collections5btree4node119NodeRef$LT$alloc..collections..btree..node..marker..Mut$C$K$C$V$C$alloc..collections..btree..node..marker..Internal$GT$30correct_childrens_parent_links17hd5006c2086bc4c22E+0x90>
   17e3c:	48 83 fa 0c          	cmp    $0xc,%rdx
   17e40:	73 77                	jae    17eb9 <_ZN5alloc11collections5btree4node119NodeRef$LT$alloc..collections..btree..node..marker..Mut$C$K$C$V$C$alloc..collections..btree..node..marker..Internal$GT$30correct_childrens_parent_links17hd5006c2086bc4c22E+0xa9>
   17e42:	40 f6 c7 07          	test   $0x7,%dil
   17e46:	0f 85 b2 00 00 00    	jne    17efe <_ZN5alloc11collections5btree4node119NodeRef$LT$alloc..collections..btree..node..marker..Mut$C$K$C$V$C$alloc..collections..btree..node..marker..Internal$GT$30correct_childrens_parent_links17hd5006c2086bc4c22E+0xee>
   17e4c:	48 8d 42 01          	lea    0x1(%rdx),%rax
   17e50:	48 8b b4 c7 c0 01 00 	mov    0x1c0(%rdi,%rax,8),%rsi
   17e57:	00 
   17e58:	48 89 be 60 01 00 00 	mov    %rdi,0x160(%rsi)
   17e5f:	66 89 96 c0 01 00 00 	mov    %dx,0x1c0(%rsi)
   17e66:	48 89 c2             	mov    %rax,%rdx
   17e69:	48 39 c1             	cmp    %rax,%rcx
   17e6c:	75 c2                	jne    17e30 <_ZN5alloc11collections5btree4node119NodeRef$LT$alloc..collections..btree..node..marker..Mut$C$K$C$V$C$alloc..collections..btree..node..marker..Internal$GT$30correct_childrens_parent_links17hd5006c2086bc4c22E+0x20>
   17e6e:	48 83 c4 40          	add    $0x40,%rsp
   17e72:	5d                   	pop    %rbp
   17e73:	c3                   	ret
   17e74:	0f b7 87 c2 01 00 00 	movzwl 0x1c2(%rdi),%eax
   17e7b:	48 39 c2             	cmp    %rax,%rdx
   17e7e:	77 20                	ja     17ea0 <_ZN5alloc11collections5btree4node119NodeRef$LT$alloc..collections..btree..node..marker..Mut$C$K$C$V$C$alloc..collections..btree..node..marker..Internal$GT$30correct_childrens_parent_links17hd5006c2086bc4c22E+0x90>
   17e80:	48 83 fa 0b          	cmp    $0xb,%rdx
   17e84:	77 33                	ja     17eb9 <_ZN5alloc11collections5btree4node119NodeRef$LT$alloc..collections..btree..node..marker..Mut$C$K$C$V$C$alloc..collections..btree..node..marker..Internal$GT$30correct_childrens_parent_links17hd5006c2086bc4c22E+0xa9>
   17e86:	48 81 c7 c8 01 00 00 	add    $0x1c8,%rdi
   17e8d:	40 f6 c7 07          	test   $0x7,%dil
   17e91:	75 6b                	jne    17efe <_ZN5alloc11collections5btree4node119NodeRef$LT$alloc..collections..btree..node..marker..Mut$C$K$C$V$C$alloc..collections..btree..node..marker..Internal$GT$30correct_childrens_parent_links17hd5006c2086bc4c22E+0xee>
   17e93:	48 8d 3d 16 ee 00 00 	lea    0xee16(%rip),%rdi        # 26cb0 <__frame_dummy_init_array_entry+0x4e0>
   17e9a:	ff 15 40 0b 01 00    	call   *0x10b40(%rip)        # 289e0 <_DYNAMIC+0x358>
   17ea0:	48 8d 3d 7b d9 fe ff 	lea    -0x12685(%rip),%rdi        # 5822 <__abi_tag+0x54ee>
   17ea7:	48 8d 15 92 eb 00 00 	lea    0xeb92(%rip),%rdx        # 26a40 <__frame_dummy_init_array_entry+0x270>
   17eae:	be 21 00 00 00       	mov    $0x21,%esi
   17eb3:	ff 15 bf 0a 01 00    	call   *0x10abf(%rip)        # 28978 <_DYNAMIC+0x2f0>
   17eb9:	48 8d 05 c2 da fe ff 	lea    -0x1253e(%rip),%rax        # 5982 <__abi_tag+0x564e>
   17ec0:	48 89 45 f0          	mov    %rax,-0x10(%rbp)
   17ec4:	48 c7 45 f8 d6 00 00 	movq   $0xd6,-0x8(%rbp)
   17ecb:	00 
   17ecc:	48 8d 45 f0          	lea    -0x10(%rbp),%rax
   17ed0:	48 89 45 c0          	mov    %rax,-0x40(%rbp)
   17ed4:	48 c7 45 c8 01 00 00 	movq   $0x1,-0x38(%rbp)
   17edb:	00 
   17edc:	48 c7 45 d0 08 00 00 	movq   $0x8,-0x30(%rbp)
   17ee3:	00 
   17ee4:	0f 57 c0             	xorps  %xmm0,%xmm0
   17ee7:	0f 11 45 d8          	movups %xmm0,-0x28(%rbp)
   17eeb:	48 8d 15 8e ed 00 00 	lea    0xed8e(%rip),%rdx        # 26c80 <__frame_dummy_init_array_entry+0x4b0>
   17ef2:	48 8d 7d c0          	lea    -0x40(%rbp),%rdi
   17ef6:	31 f6                	xor    %esi,%esi
   17ef8:	ff 15 22 0a 01 00    	call   *0x10a22(%rip)        # 28920 <_DYNAMIC+0x298>
   17efe:	48 8d 05 b2 d5 fe ff 	lea    -0x12a4e(%rip),%rax        # 54b7 <__abi_tag+0x5183>
   17f05:	48 89 45 f0          	mov    %rax,-0x10(%rbp)
   17f09:	48 c7 45 f8 da 00 00 	movq   $0xda,-0x8(%rbp)
   17f10:	00 
   17f11:	48 8d 45 f0          	lea    -0x10(%rbp),%rax
   17f15:	48 89 45 c0          	mov    %rax,-0x40(%rbp)
   17f19:	48 c7 45 c8 01 00 00 	movq   $0x1,-0x38(%rbp)
   17f20:	00 
   17f21:	48 c7 45 d0 08 00 00 	movq   $0x8,-0x30(%rbp)
   17f28:	00 
   17f29:	0f 57 c0             	xorps  %xmm0,%xmm0
   17f2c:	0f 11 45 d8          	movups %xmm0,-0x28(%rbp)
   17f30:	48 8d 15 61 ed 00 00 	lea    0xed61(%rip),%rdx        # 26c98 <__frame_dummy_init_array_entry+0x4c8>
   17f37:	48 8d 7d c0          	lea    -0x40(%rbp),%rdi
   17f3b:	31 f6                	xor    %esi,%esi
   17f3d:	ff 15 dd 09 01 00    	call   *0x109dd(%rip)        # 28920 <_DYNAMIC+0x298>
   17f43:	cc                   	int3
   17f44:	cc                   	int3
   17f45:	cc                   	int3
   17f46:	cc                   	int3
   17f47:	cc                   	int3
   17f48:	cc                   	int3
   17f49:	cc                   	int3
   17f4a:	cc                   	int3
   17f4b:	cc                   	int3
   17f4c:	cc                   	int3
   17f4d:	cc                   	int3
   17f4e:	cc                   	int3
   17f4f:	cc                   	int3

0000000000017f50 <_ZN5alloc11collections5btree4node121NodeRef$LT$alloc..collections..btree..node..marker..Owned$C$K$C$V$C$alloc..collections..btree..node..marker..Internal$GT$17from_new_internal17h99d295899aec86d0E>:
   17f50:	55                   	push   %rbp
   17f51:	48 89 e5             	mov    %rsp,%rbp
   17f54:	41 56                	push   %r14
   17f56:	53                   	push   %rbx
   17f57:	48 83 ec 40          	sub    $0x40,%rsp
   17f5b:	48 89 fb             	mov    %rdi,%rbx
   17f5e:	48 85 f6             	test   %rsi,%rsi
   17f61:	0f 84 c2 00 00 00    	je     18029 <_ZN5alloc11collections5btree4node121NodeRef$LT$alloc..collections..btree..node..marker..Owned$C$K$C$V$C$alloc..collections..btree..node..marker..Internal$GT$17from_new_internal17h99d295899aec86d0E+0xd9>
   17f67:	0f b7 83 c2 01 00 00 	movzwl 0x1c2(%rbx),%eax
   17f6e:	31 d2                	xor    %edx,%edx
   17f70:	31 c9                	xor    %ecx,%ecx
   17f72:	66 66 66 66 66 2e 0f 	data16 data16 data16 data16 cs nopw 0x0(%rax,%rax,1)
   17f79:	1f 84 00 00 00 00 00 
   17f80:	48 39 c2             	cmp    %rax,%rdx
   17f83:	48 83 d1 00          	adc    $0x0,%rcx
   17f87:	0f b7 bb c2 01 00 00 	movzwl 0x1c2(%rbx),%edi
   17f8e:	48 39 fa             	cmp    %rdi,%rdx
   17f91:	77 38                	ja     17fcb <_ZN5alloc11collections5btree4node121NodeRef$LT$alloc..collections..btree..node..marker..Owned$C$K$C$V$C$alloc..collections..btree..node..marker..Internal$GT$17from_new_internal17h99d295899aec86d0E+0x7b>
   17f93:	48 83 fa 0c          	cmp    $0xc,%rdx
   17f97:	73 4b                	jae    17fe4 <_ZN5alloc11collections5btree4node121NodeRef$LT$alloc..collections..btree..node..marker..Owned$C$K$C$V$C$alloc..collections..btree..node..marker..Internal$GT$17from_new_internal17h99d295899aec86d0E+0x94>
   17f99:	48 8b bc d3 c8 01 00 	mov    0x1c8(%rbx,%rdx,8),%rdi
   17fa0:	00 
   17fa1:	48 89 9f 60 01 00 00 	mov    %rbx,0x160(%rdi)
   17fa8:	66 89 97 c0 01 00 00 	mov    %dx,0x1c0(%rdi)
   17faf:	48 39 c2             	cmp    %rax,%rdx
   17fb2:	73 08                	jae    17fbc <_ZN5alloc11collections5btree4node121NodeRef$LT$alloc..collections..btree..node..marker..Owned$C$K$C$V$C$alloc..collections..btree..node..marker..Internal$GT$17from_new_internal17h99d295899aec86d0E+0x6c>
   17fb4:	48 89 ca             	mov    %rcx,%rdx
   17fb7:	48 39 c1             	cmp    %rax,%rcx
   17fba:	76 c4                	jbe    17f80 <_ZN5alloc11collections5btree4node121NodeRef$LT$alloc..collections..btree..node..marker..Owned$C$K$C$V$C$alloc..collections..btree..node..marker..Internal$GT$17from_new_internal17h99d295899aec86d0E+0x30>
   17fbc:	48 89 d8             	mov    %rbx,%rax
   17fbf:	48 89 f2             	mov    %rsi,%rdx
   17fc2:	48 83 c4 40          	add    $0x40,%rsp
   17fc6:	5b                   	pop    %rbx
   17fc7:	41 5e                	pop    %r14
   17fc9:	5d                   	pop    %rbp
   17fca:	c3                   	ret
   17fcb:	48 8d 3d 50 d8 fe ff 	lea    -0x127b0(%rip),%rdi        # 5822 <__abi_tag+0x54ee>
   17fd2:	48 8d 15 67 ea 00 00 	lea    0xea67(%rip),%rdx        # 26a40 <__frame_dummy_init_array_entry+0x270>
   17fd9:	be 21 00 00 00       	mov    $0x21,%esi
   17fde:	ff 15 94 09 01 00    	call   *0x10994(%rip)        # 28978 <_DYNAMIC+0x2f0>
   17fe4:	48 8d 05 97 d9 fe ff 	lea    -0x12669(%rip),%rax        # 5982 <__abi_tag+0x564e>
   17feb:	48 89 45 e0          	mov    %rax,-0x20(%rbp)
   17fef:	48 c7 45 e8 d6 00 00 	movq   $0xd6,-0x18(%rbp)
   17ff6:	00 
   17ff7:	48 8d 45 e0          	lea    -0x20(%rbp),%rax
   17ffb:	48 89 45 b0          	mov    %rax,-0x50(%rbp)
   17fff:	48 c7 45 b8 01 00 00 	movq   $0x1,-0x48(%rbp)
   18006:	00 
   18007:	48 c7 45 c0 08 00 00 	movq   $0x8,-0x40(%rbp)
   1800e:	00 
   1800f:	0f 57 c0             	xorps  %xmm0,%xmm0
   18012:	0f 11 45 c8          	movups %xmm0,-0x38(%rbp)
   18016:	48 8d 15 63 ec 00 00 	lea    0xec63(%rip),%rdx        # 26c80 <__frame_dummy_init_array_entry+0x4b0>
   1801d:	48 8d 7d b0          	lea    -0x50(%rbp),%rdi
   18021:	31 f6                	xor    %esi,%esi
   18023:	ff 15 f7 08 01 00    	call   *0x108f7(%rip)        # 28920 <_DYNAMIC+0x298>
   18029:	48 8d 3d 66 d8 fe ff 	lea    -0x1279a(%rip),%rdi        # 5896 <__abi_tag+0x5562>
   18030:	48 8d 15 b1 ea 00 00 	lea    0xeab1(%rip),%rdx        # 26ae8 <__frame_dummy_init_array_entry+0x318>
   18037:	be 1c 00 00 00       	mov    $0x1c,%esi
   1803c:	ff 15 36 09 01 00    	call   *0x10936(%rip)        # 28978 <_DYNAMIC+0x2f0>
   18042:	0f 0b                	ud2
   18044:	49 89 c6             	mov    %rax,%r14
   18047:	48 89 df             	mov    %rbx,%rdi
   1804a:	e8 d1 fb ff ff       	call   17c20 <_ZN4core3ptr167drop_in_place$LT$alloc..boxed..Box$LT$alloc..collections..btree..node..InternalNode$LT$usize$C$std..sys..pal..unix..stack_overflow..thread_info..ThreadInfo$GT$$GT$$GT$17h032499cb52e66007E>
   1804f:	4c 89 f7             	mov    %r14,%rdi
   18052:	e8 39 d7 00 00       	call   25790 <_Unwind_Resume@plt>
   18057:	cc                   	int3
   18058:	cc                   	int3
   18059:	cc                   	int3
   1805a:	cc                   	int3
   1805b:	cc                   	int3
   1805c:	cc                   	int3
   1805d:	cc                   	int3
   1805e:	cc                   	int3
   1805f:	cc                   	int3

0000000000018060 <_ZN5alloc11collections5btree4node12slice_insert17h4808c6f05ead0427E>:
   18060:	55                   	push   %rbp
   18061:	48 89 e5             	mov    %rsp,%rbp
   18064:	41 57                	push   %r15
   18066:	41 56                	push   %r14
   18068:	41 55                	push   %r13
   1806a:	41 54                	push   %r12
   1806c:	53                   	push   %rbx
   1806d:	48 83 ec 48          	sub    $0x48,%rsp
   18071:	49 89 d6             	mov    %rdx,%r14
   18074:	48 39 d6             	cmp    %rdx,%rsi
   18077:	0f 86 f3 00 00 00    	jbe    18170 <_ZN5alloc11collections5btree4node12slice_insert17h4808c6f05ead0427E+0x110>
   1807d:	48 89 cb             	mov    %rcx,%rbx
   18080:	48 89 f2             	mov    %rsi,%rdx
   18083:	49 89 ff             	mov    %rdi,%r15
   18086:	49 8d 46 01          	lea    0x1(%r14),%rax
   1808a:	4e 8d 24 f5 00 00 00 	lea    0x0(,%r14,8),%r12
   18091:	00 
   18092:	49 89 fd             	mov    %rdi,%r13
   18095:	49 f7 d5             	not    %r13
   18098:	48 39 c6             	cmp    %rax,%rsi
   1809b:	76 31                	jbe    180ce <_ZN5alloc11collections5btree4node12slice_insert17h4808c6f05ead0427E+0x6e>
   1809d:	4d 39 ec             	cmp    %r13,%r12
   180a0:	0f 87 e3 00 00 00    	ja     18189 <_ZN5alloc11collections5btree4node12slice_insert17h4808c6f05ead0427E+0x129>
   180a6:	48 8d 0c c5 00 00 00 	lea    0x0(,%rax,8),%rcx
   180ad:	00 
   180ae:	4c 39 e9             	cmp    %r13,%rcx
   180b1:	77 78                	ja     1812b <_ZN5alloc11collections5btree4node12slice_insert17h4808c6f05ead0427E+0xcb>
   180b3:	4b 8d 34 f7          	lea    (%r15,%r14,8),%rsi
   180b7:	49 8d 3c c7          	lea    (%r15,%rax,8),%rdi
   180bb:	4c 89 f0             	mov    %r14,%rax
   180be:	48 f7 d0             	not    %rax
   180c1:	48 01 c2             	add    %rax,%rdx
   180c4:	48 c1 e2 03          	shl    $0x3,%rdx
   180c8:	ff 15 9a 09 01 00    	call   *0x1099a(%rip)        # 28a68 <memmove@GLIBC_2.2.5>
   180ce:	4d 39 ec             	cmp    %r13,%r12
   180d1:	77 13                	ja     180e6 <_ZN5alloc11collections5btree4node12slice_insert17h4808c6f05ead0427E+0x86>
   180d3:	4b 89 1c f7          	mov    %rbx,(%r15,%r14,8)
   180d7:	48 83 c4 48          	add    $0x48,%rsp
   180db:	5b                   	pop    %rbx
   180dc:	41 5c                	pop    %r12
   180de:	41 5d                	pop    %r13
   180e0:	41 5e                	pop    %r14
   180e2:	41 5f                	pop    %r15
   180e4:	5d                   	pop    %rbp
   180e5:	c3                   	ret
   180e6:	48 8d 05 a4 d4 fe ff 	lea    -0x12b5c(%rip),%rax        # 5591 <__abi_tag+0x525d>
   180ed:	48 89 45 c8          	mov    %rax,-0x38(%rbp)
   180f1:	48 c7 45 d0 d6 00 00 	movq   $0xd6,-0x30(%rbp)
   180f8:	00 
   180f9:	48 8d 45 c8          	lea    -0x38(%rbp),%rax
   180fd:	48 89 45 98          	mov    %rax,-0x68(%rbp)
   18101:	48 c7 45 a0 01 00 00 	movq   $0x1,-0x60(%rbp)
   18108:	00 
   18109:	48 c7 45 a8 08 00 00 	movq   $0x8,-0x58(%rbp)
   18110:	00 
   18111:	0f 57 c0             	xorps  %xmm0,%xmm0
   18114:	0f 11 45 b0          	movups %xmm0,-0x50(%rbp)
   18118:	48 8d 15 29 ea 00 00 	lea    0xea29(%rip),%rdx        # 26b48 <__frame_dummy_init_array_entry+0x378>
   1811f:	48 8d 7d 98          	lea    -0x68(%rbp),%rdi
   18123:	31 f6                	xor    %esi,%esi
   18125:	ff 15 f5 07 01 00    	call   *0x107f5(%rip)        # 28920 <_DYNAMIC+0x298>
   1812b:	48 8d 05 5f d4 fe ff 	lea    -0x12ba1(%rip),%rax        # 5591 <__abi_tag+0x525d>
   18132:	48 89 45 c8          	mov    %rax,-0x38(%rbp)
   18136:	48 c7 45 d0 d6 00 00 	movq   $0xd6,-0x30(%rbp)
   1813d:	00 
   1813e:	48 8d 45 c8          	lea    -0x38(%rbp),%rax
   18142:	48 89 45 98          	mov    %rax,-0x68(%rbp)
   18146:	48 c7 45 a0 01 00 00 	movq   $0x1,-0x60(%rbp)
   1814d:	00 
   1814e:	48 c7 45 a8 08 00 00 	movq   $0x8,-0x58(%rbp)
   18155:	00 
   18156:	0f 57 c0             	xorps  %xmm0,%xmm0
   18159:	0f 11 45 b0          	movups %xmm0,-0x50(%rbp)
   1815d:	48 8d 15 cc e9 00 00 	lea    0xe9cc(%rip),%rdx        # 26b30 <__frame_dummy_init_array_entry+0x360>
   18164:	48 8d 7d 98          	lea    -0x68(%rbp),%rdi
   18168:	31 f6                	xor    %esi,%esi
   1816a:	ff 15 b0 07 01 00    	call   *0x107b0(%rip)        # 28920 <_DYNAMIC+0x298>
   18170:	48 8d 3d 3b d7 fe ff 	lea    -0x128c5(%rip),%rdi        # 58b2 <__abi_tag+0x557e>
   18177:	48 8d 15 82 e9 00 00 	lea    0xe982(%rip),%rdx        # 26b00 <__frame_dummy_init_array_entry+0x330>
   1817e:	be 1b 00 00 00       	mov    $0x1b,%esi
   18183:	ff 15 ef 07 01 00    	call   *0x107ef(%rip)        # 28978 <_DYNAMIC+0x2f0>
   18189:	48 8d 05 01 d4 fe ff 	lea    -0x12bff(%rip),%rax        # 5591 <__abi_tag+0x525d>
   18190:	48 89 45 c8          	mov    %rax,-0x38(%rbp)
   18194:	48 c7 45 d0 d6 00 00 	movq   $0xd6,-0x30(%rbp)
   1819b:	00 
   1819c:	48 8d 45 c8          	lea    -0x38(%rbp),%rax
   181a0:	48 89 45 98          	mov    %rax,-0x68(%rbp)
   181a4:	48 c7 45 a0 01 00 00 	movq   $0x1,-0x60(%rbp)
   181ab:	00 
   181ac:	48 c7 45 a8 08 00 00 	movq   $0x8,-0x58(%rbp)
   181b3:	00 
   181b4:	0f 57 c0             	xorps  %xmm0,%xmm0
   181b7:	0f 11 45 b0          	movups %xmm0,-0x50(%rbp)
   181bb:	48 8d 15 56 e9 00 00 	lea    0xe956(%rip),%rdx        # 26b18 <__frame_dummy_init_array_entry+0x348>
   181c2:	48 8d 7d 98          	lea    -0x68(%rbp),%rdi
   181c6:	31 f6                	xor    %esi,%esi
   181c8:	ff 15 52 07 01 00    	call   *0x10752(%rip)        # 28920 <_DYNAMIC+0x298>
   181ce:	cc                   	int3
   181cf:	cc                   	int3

00000000000181d0 <_ZN5alloc11collections5btree4node12slice_insert17hf269b8d2b60e2bc4E>:
   181d0:	55                   	push   %rbp
   181d1:	48 89 e5             	mov    %rsp,%rbp
   181d4:	41 57                	push   %r15
   181d6:	41 56                	push   %r14
   181d8:	41 54                	push   %r12
   181da:	53                   	push   %rbx
   181db:	48 83 ec 40          	sub    $0x40,%rsp
   181df:	48 89 cb             	mov    %rcx,%rbx
   181e2:	48 39 d6             	cmp    %rdx,%rsi
   181e5:	0f 86 fa 00 00 00    	jbe    182e5 <_ZN5alloc11collections5btree4node12slice_insert17hf269b8d2b60e2bc4E+0x115>
   181eb:	49 89 fe             	mov    %rdi,%r14
   181ee:	48 8d 7a 01          	lea    0x1(%rdx),%rdi
   181f2:	49 89 d7             	mov    %rdx,%r15
   181f5:	49 c1 e7 05          	shl    $0x5,%r15
   181f9:	4d 89 f4             	mov    %r14,%r12
   181fc:	49 f7 d4             	not    %r12
   181ff:	48 39 fe             	cmp    %rdi,%rsi
   18202:	76 33                	jbe    18237 <_ZN5alloc11collections5btree4node12slice_insert17hf269b8d2b60e2bc4E+0x67>
   18204:	4d 39 e7             	cmp    %r12,%r15
   18207:	0f 87 f3 00 00 00    	ja     18300 <_ZN5alloc11collections5btree4node12slice_insert17hf269b8d2b60e2bc4E+0x130>
   1820d:	48 c1 e7 05          	shl    $0x5,%rdi
   18211:	4c 39 e7             	cmp    %r12,%rdi
   18214:	0f 87 86 00 00 00    	ja     182a0 <_ZN5alloc11collections5btree4node12slice_insert17hf269b8d2b60e2bc4E+0xd0>
   1821a:	4b 8d 04 3e          	lea    (%r14,%r15,1),%rax
   1821e:	4c 01 f7             	add    %r14,%rdi
   18221:	48 f7 d2             	not    %rdx
   18224:	48 01 d6             	add    %rdx,%rsi
   18227:	48 c1 e6 05          	shl    $0x5,%rsi
   1822b:	48 89 f2             	mov    %rsi,%rdx
   1822e:	48 89 c6             	mov    %rax,%rsi
   18231:	ff 15 31 08 01 00    	call   *0x10831(%rip)        # 28a68 <memmove@GLIBC_2.2.5>
   18237:	4d 39 e7             	cmp    %r12,%r15
   1823a:	77 1f                	ja     1825b <_ZN5alloc11collections5btree4node12slice_insert17hf269b8d2b60e2bc4E+0x8b>
   1823c:	0f 10 03             	movups (%rbx),%xmm0
   1823f:	0f 10 4b 10          	movups 0x10(%rbx),%xmm1
   18243:	43 0f 11 4c 3e 10    	movups %xmm1,0x10(%r14,%r15,1)
   18249:	43 0f 11 04 3e       	movups %xmm0,(%r14,%r15,1)
   1824e:	48 83 c4 40          	add    $0x40,%rsp
   18252:	5b                   	pop    %rbx
   18253:	41 5c                	pop    %r12
   18255:	41 5e                	pop    %r14
   18257:	41 5f                	pop    %r15
   18259:	5d                   	pop    %rbp
   1825a:	c3                   	ret
   1825b:	48 8d 05 2f d3 fe ff 	lea    -0x12cd1(%rip),%rax        # 5591 <__abi_tag+0x525d>
   18262:	48 89 45 d0          	mov    %rax,-0x30(%rbp)
   18266:	48 c7 45 d8 d6 00 00 	movq   $0xd6,-0x28(%rbp)
   1826d:	00 
   1826e:	48 8d 45 d0          	lea    -0x30(%rbp),%rax
   18272:	48 89 45 a0          	mov    %rax,-0x60(%rbp)
   18276:	48 c7 45 a8 01 00 00 	movq   $0x1,-0x58(%rbp)
   1827d:	00 
   1827e:	48 c7 45 b0 08 00 00 	movq   $0x8,-0x50(%rbp)
   18285:	00 
   18286:	0f 57 c0             	xorps  %xmm0,%xmm0
   18289:	0f 11 45 b8          	movups %xmm0,-0x48(%rbp)
   1828d:	48 8d 15 b4 e8 00 00 	lea    0xe8b4(%rip),%rdx        # 26b48 <__frame_dummy_init_array_entry+0x378>
   18294:	48 8d 7d a0          	lea    -0x60(%rbp),%rdi
   18298:	31 f6                	xor    %esi,%esi
   1829a:	ff 15 80 06 01 00    	call   *0x10680(%rip)        # 28920 <_DYNAMIC+0x298>
   182a0:	48 8d 05 ea d2 fe ff 	lea    -0x12d16(%rip),%rax        # 5591 <__abi_tag+0x525d>
   182a7:	48 89 45 d0          	mov    %rax,-0x30(%rbp)
   182ab:	48 c7 45 d8 d6 00 00 	movq   $0xd6,-0x28(%rbp)
   182b2:	00 
   182b3:	48 8d 45 d0          	lea    -0x30(%rbp),%rax
   182b7:	48 89 45 a0          	mov    %rax,-0x60(%rbp)
   182bb:	48 c7 45 a8 01 00 00 	movq   $0x1,-0x58(%rbp)
   182c2:	00 
   182c3:	48 c7 45 b0 08 00 00 	movq   $0x8,-0x50(%rbp)
   182ca:	00 
   182cb:	0f 57 c0             	xorps  %xmm0,%xmm0
   182ce:	0f 11 45 b8          	movups %xmm0,-0x48(%rbp)
   182d2:	48 8d 15 57 e8 00 00 	lea    0xe857(%rip),%rdx        # 26b30 <__frame_dummy_init_array_entry+0x360>
   182d9:	48 8d 7d a0          	lea    -0x60(%rbp),%rdi
   182dd:	31 f6                	xor    %esi,%esi
   182df:	ff 15 3b 06 01 00    	call   *0x1063b(%rip)        # 28920 <_DYNAMIC+0x298>
   182e5:	48 8d 3d c6 d5 fe ff 	lea    -0x12a3a(%rip),%rdi        # 58b2 <__abi_tag+0x557e>
   182ec:	48 8d 15 0d e8 00 00 	lea    0xe80d(%rip),%rdx        # 26b00 <__frame_dummy_init_array_entry+0x330>
   182f3:	be 1b 00 00 00       	mov    $0x1b,%esi
   182f8:	ff 15 7a 06 01 00    	call   *0x1067a(%rip)        # 28978 <_DYNAMIC+0x2f0>
   182fe:	0f 0b                	ud2
   18300:	48 8d 05 8a d2 fe ff 	lea    -0x12d76(%rip),%rax        # 5591 <__abi_tag+0x525d>
   18307:	48 89 45 d0          	mov    %rax,-0x30(%rbp)
   1830b:	48 c7 45 d8 d6 00 00 	movq   $0xd6,-0x28(%rbp)
   18312:	00 
   18313:	48 8d 45 d0          	lea    -0x30(%rbp),%rax
   18317:	48 89 45 a0          	mov    %rax,-0x60(%rbp)
   1831b:	48 c7 45 a8 01 00 00 	movq   $0x1,-0x58(%rbp)
   18322:	00 
   18323:	48 c7 45 b0 08 00 00 	movq   $0x8,-0x50(%rbp)
   1832a:	00 
   1832b:	0f 57 c0             	xorps  %xmm0,%xmm0
   1832e:	0f 11 45 b8          	movups %xmm0,-0x48(%rbp)
   18332:	48 8d 15 df e7 00 00 	lea    0xe7df(%rip),%rdx        # 26b18 <__frame_dummy_init_array_entry+0x348>
   18339:	48 8d 7d a0          	lea    -0x60(%rbp),%rdi
   1833d:	31 f6                	xor    %esi,%esi
   1833f:	ff 15 db 05 01 00    	call   *0x105db(%rip)        # 28920 <_DYNAMIC+0x298>
   18345:	49 89 c6             	mov    %rax,%r14
   18348:	48 8b 7b 10          	mov    0x10(%rbx),%rdi
   1834c:	48 8b 73 18          	mov    0x18(%rbx),%rsi
   18350:	e8 5b f9 ff ff       	call   17cb0 <_ZN4core3ptr189drop_in_place$LT$alloc..collections..btree..node..SplitResult$LT$usize$C$std..sys..pal..unix..stack_overflow..thread_info..ThreadInfo$C$alloc..collections..btree..node..marker..Leaf$GT$$GT$17h04dfb50a730d3555E>
   18355:	4c 89 f7             	mov    %r14,%rdi
   18358:	e8 33 d4 00 00       	call   25790 <_Unwind_Resume@plt>
   1835d:	cc                   	int3
   1835e:	cc                   	int3
   1835f:	cc                   	int3

0000000000018360 <_ZN5alloc11collections5btree4node171Handle$LT$alloc..collections..btree..node..NodeRef$LT$alloc..collections..btree..node..marker..Mut$C$K$C$V$C$NodeType$GT$$C$alloc..collections..btree..node..marker..KV$GT$12into_val_mut17ha4e76df311531904E>:
   18360:	55                   	push   %rbp
   18361:	48 89 e5             	mov    %rsp,%rbp
   18364:	48 83 ec 40          	sub    $0x40,%rsp
   18368:	48 8b 07             	mov    (%rdi),%rax
   1836b:	48 8b 4f 10          	mov    0x10(%rdi),%rcx
   1836f:	0f b7 90 c2 01 00 00 	movzwl 0x1c2(%rax),%edx
   18376:	48 39 d1             	cmp    %rdx,%rcx
   18379:	73 13                	jae    1838e <_ZN5alloc11collections5btree4node171Handle$LT$alloc..collections..btree..node..NodeRef$LT$alloc..collections..btree..node..marker..Mut$C$K$C$V$C$NodeType$GT$$C$alloc..collections..btree..node..marker..KV$GT$12into_val_mut17ha4e76df311531904E+0x2e>
   1837b:	48 83 f9 0b          	cmp    $0xb,%rcx
   1837f:	73 26                	jae    183a7 <_ZN5alloc11collections5btree4node171Handle$LT$alloc..collections..btree..node..NodeRef$LT$alloc..collections..btree..node..marker..Mut$C$K$C$V$C$NodeType$GT$$C$alloc..collections..btree..node..marker..KV$GT$12into_val_mut17ha4e76df311531904E+0x47>
   18381:	48 c1 e1 05          	shl    $0x5,%rcx
   18385:	48 01 c8             	add    %rcx,%rax
   18388:	48 83 c4 40          	add    $0x40,%rsp
   1838c:	5d                   	pop    %rbp
   1838d:	c3                   	ret
   1838e:	48 8d 3d 60 d5 fe ff 	lea    -0x12aa0(%rip),%rdi        # 58f5 <__abi_tag+0x55c1>
   18395:	48 8d 15 f4 e7 00 00 	lea    0xe7f4(%rip),%rdx        # 26b90 <__frame_dummy_init_array_entry+0x3c0>
   1839c:	be 2c 00 00 00       	mov    $0x2c,%esi
   183a1:	ff 15 d1 05 01 00    	call   *0x105d1(%rip)        # 28978 <_DYNAMIC+0x2f0>
   183a7:	48 8d 05 aa d6 fe ff 	lea    -0x12956(%rip),%rax        # 5a58 <__abi_tag+0x5724>
   183ae:	48 89 45 f0          	mov    %rax,-0x10(%rbp)
   183b2:	48 c7 45 f8 da 00 00 	movq   $0xda,-0x8(%rbp)
   183b9:	00 
   183ba:	48 8d 45 f0          	lea    -0x10(%rbp),%rax
   183be:	48 89 45 c0          	mov    %rax,-0x40(%rbp)
   183c2:	48 c7 45 c8 01 00 00 	movq   $0x1,-0x38(%rbp)
   183c9:	00 
   183ca:	48 c7 45 d0 08 00 00 	movq   $0x8,-0x30(%rbp)
   183d1:	00 
   183d2:	0f 57 c0             	xorps  %xmm0,%xmm0
   183d5:	0f 11 45 d8          	movups %xmm0,-0x28(%rbp)
   183d9:	48 8d 15 c8 e7 00 00 	lea    0xe7c8(%rip),%rdx        # 26ba8 <__frame_dummy_init_array_entry+0x3d8>
   183e0:	48 8d 7d c0          	lea    -0x40(%rbp),%rdi
   183e4:	31 f6                	xor    %esi,%esi
   183e6:	ff 15 34 05 01 00    	call   *0x10534(%rip)        # 28920 <_DYNAMIC+0x298>
   183ec:	cc                   	int3
   183ed:	cc                   	int3
   183ee:	cc                   	int3
   183ef:	cc                   	int3

00000000000183f0 <_ZN5alloc11collections5btree4node171Handle$LT$alloc..collections..btree..node..NodeRef$LT$alloc..collections..btree..node..marker..Mut$C$K$C$V$C$NodeType$GT$$C$alloc..collections..btree..node..marker..KV$GT$6kv_mut17h31b4fba641c60177E>:
   183f0:	55                   	push   %rbp
   183f1:	48 89 e5             	mov    %rsp,%rbp
   183f4:	48 83 ec 40          	sub    $0x40,%rsp
   183f8:	48 8b 0f             	mov    (%rdi),%rcx
   183fb:	48 8b 57 10          	mov    0x10(%rdi),%rdx
   183ff:	0f b7 81 c2 01 00 00 	movzwl 0x1c2(%rcx),%eax
   18406:	48 39 c2             	cmp    %rax,%rdx
   18409:	73 1d                	jae    18428 <_ZN5alloc11collections5btree4node171Handle$LT$alloc..collections..btree..node..NodeRef$LT$alloc..collections..btree..node..marker..Mut$C$K$C$V$C$NodeType$GT$$C$alloc..collections..btree..node..marker..KV$GT$6kv_mut17h31b4fba641c60177E+0x38>
   1840b:	48 83 fa 0b          	cmp    $0xb,%rdx
   1840f:	73 30                	jae    18441 <_ZN5alloc11collections5btree4node171Handle$LT$alloc..collections..btree..node..NodeRef$LT$alloc..collections..btree..node..marker..Mut$C$K$C$V$C$NodeType$GT$$C$alloc..collections..btree..node..marker..KV$GT$6kv_mut17h31b4fba641c60177E+0x51>
   18411:	48 8d 04 d1          	lea    (%rcx,%rdx,8),%rax
   18415:	48 05 68 01 00 00    	add    $0x168,%rax
   1841b:	48 c1 e2 05          	shl    $0x5,%rdx
   1841f:	48 01 ca             	add    %rcx,%rdx
   18422:	48 83 c4 40          	add    $0x40,%rsp
   18426:	5d                   	pop    %rbp
   18427:	c3                   	ret
   18428:	48 8d 3d c6 d4 fe ff 	lea    -0x12b3a(%rip),%rdi        # 58f5 <__abi_tag+0x55c1>
   1842f:	48 8d 15 ea e7 00 00 	lea    0xe7ea(%rip),%rdx        # 26c20 <__frame_dummy_init_array_entry+0x450>
   18436:	be 2c 00 00 00       	mov    $0x2c,%esi
   1843b:	ff 15 37 05 01 00    	call   *0x10537(%rip)        # 28978 <_DYNAMIC+0x2f0>
   18441:	48 8d 05 10 d6 fe ff 	lea    -0x129f0(%rip),%rax        # 5a58 <__abi_tag+0x5724>
   18448:	48 89 45 f0          	mov    %rax,-0x10(%rbp)
   1844c:	48 c7 45 f8 da 00 00 	movq   $0xda,-0x8(%rbp)
   18453:	00 
   18454:	48 8d 45 f0          	lea    -0x10(%rbp),%rax
   18458:	48 89 45 c0          	mov    %rax,-0x40(%rbp)
   1845c:	48 c7 45 c8 01 00 00 	movq   $0x1,-0x38(%rbp)
   18463:	00 
   18464:	48 c7 45 d0 08 00 00 	movq   $0x8,-0x30(%rbp)
   1846b:	00 
   1846c:	0f 57 c0             	xorps  %xmm0,%xmm0
   1846f:	0f 11 45 d8          	movups %xmm0,-0x28(%rbp)
   18473:	48 8d 15 be e7 00 00 	lea    0xe7be(%rip),%rdx        # 26c38 <__frame_dummy_init_array_entry+0x468>
   1847a:	48 8d 7d c0          	lea    -0x40(%rbp),%rdi
   1847e:	31 f6                	xor    %esi,%esi
   18480:	ff 15 9a 04 01 00    	call   *0x1049a(%rip)        # 28920 <_DYNAMIC+0x298>
   18486:	cc                   	int3
   18487:	cc                   	int3
   18488:	cc                   	int3
   18489:	cc                   	int3
   1848a:	cc                   	int3
   1848b:	cc                   	int3
   1848c:	cc                   	int3
   1848d:	cc                   	int3
   1848e:	cc                   	int3
   1848f:	cc                   	int3

0000000000018490 <_ZN5alloc11collections5btree4node173Handle$LT$alloc..collections..btree..node..NodeRef$LT$alloc..collections..btree..node..marker..Immut$C$K$C$V$C$NodeType$GT$$C$alloc..collections..btree..node..marker..KV$GT$7into_kv17h8f0f72287a94e92eE>:
   18490:	55                   	push   %rbp
   18491:	48 89 e5             	mov    %rsp,%rbp
   18494:	48 83 ec 40          	sub    $0x40,%rsp
   18498:	48 8b 0f             	mov    (%rdi),%rcx
   1849b:	48 8b 57 10          	mov    0x10(%rdi),%rdx
   1849f:	0f b7 81 c2 01 00 00 	movzwl 0x1c2(%rcx),%eax
   184a6:	48 39 c2             	cmp    %rax,%rdx
   184a9:	73 1d                	jae    184c8 <_ZN5alloc11collections5btree4node173Handle$LT$alloc..collections..btree..node..NodeRef$LT$alloc..collections..btree..node..marker..Immut$C$K$C$V$C$NodeType$GT$$C$alloc..collections..btree..node..marker..KV$GT$7into_kv17h8f0f72287a94e92eE+0x38>
   184ab:	48 83 fa 0b          	cmp    $0xb,%rdx
   184af:	73 30                	jae    184e1 <_ZN5alloc11collections5btree4node173Handle$LT$alloc..collections..btree..node..NodeRef$LT$alloc..collections..btree..node..marker..Immut$C$K$C$V$C$NodeType$GT$$C$alloc..collections..btree..node..marker..KV$GT$7into_kv17h8f0f72287a94e92eE+0x51>
   184b1:	48 8d 04 d1          	lea    (%rcx,%rdx,8),%rax
   184b5:	48 05 68 01 00 00    	add    $0x168,%rax
   184bb:	48 c1 e2 05          	shl    $0x5,%rdx
   184bf:	48 01 ca             	add    %rcx,%rdx
   184c2:	48 83 c4 40          	add    $0x40,%rsp
   184c6:	5d                   	pop    %rbp
   184c7:	c3                   	ret
   184c8:	48 8d 3d 26 d4 fe ff 	lea    -0x12bda(%rip),%rdi        # 58f5 <__abi_tag+0x55c1>
   184cf:	48 8d 15 7a e7 00 00 	lea    0xe77a(%rip),%rdx        # 26c50 <__frame_dummy_init_array_entry+0x480>
   184d6:	be 2c 00 00 00       	mov    $0x2c,%esi
   184db:	ff 15 97 04 01 00    	call   *0x10497(%rip)        # 28978 <_DYNAMIC+0x2f0>
   184e1:	48 8d 05 9a d4 fe ff 	lea    -0x12b66(%rip),%rax        # 5982 <__abi_tag+0x564e>
   184e8:	48 89 45 f0          	mov    %rax,-0x10(%rbp)
   184ec:	48 c7 45 f8 d6 00 00 	movq   $0xd6,-0x8(%rbp)
   184f3:	00 
   184f4:	48 8d 45 f0          	lea    -0x10(%rbp),%rax
   184f8:	48 89 45 c0          	mov    %rax,-0x40(%rbp)
   184fc:	48 c7 45 c8 01 00 00 	movq   $0x1,-0x38(%rbp)
   18503:	00 
   18504:	48 c7 45 d0 08 00 00 	movq   $0x8,-0x30(%rbp)
   1850b:	00 
   1850c:	0f 57 c0             	xorps  %xmm0,%xmm0
   1850f:	0f 11 45 d8          	movups %xmm0,-0x28(%rbp)
   18513:	48 8d 15 4e e7 00 00 	lea    0xe74e(%rip),%rdx        # 26c68 <__frame_dummy_init_array_entry+0x498>
   1851a:	48 8d 7d c0          	lea    -0x40(%rbp),%rdi
   1851e:	31 f6                	xor    %esi,%esi
   18520:	ff 15 fa 03 01 00    	call   *0x103fa(%rip)        # 28920 <_DYNAMIC+0x298>
   18526:	cc                   	int3
   18527:	cc                   	int3
   18528:	cc                   	int3
   18529:	cc                   	int3
   1852a:	cc                   	int3
   1852b:	cc                   	int3
   1852c:	cc                   	int3
   1852d:	cc                   	int3
   1852e:	cc                   	int3
   1852f:	cc                   	int3

0000000000018530 <_ZN5alloc11collections5btree4node210Handle$LT$alloc..collections..btree..node..NodeRef$LT$alloc..collections..btree..node..marker..Mut$C$K$C$V$C$alloc..collections..btree..node..marker..Leaf$GT$$C$alloc..collections..btree..node..marker..Edge$GT$16insert_recursing17hbd73feceb6747ab4E>:
   18530:	55                   	push   %rbp
   18531:	48 89 e5             	mov    %rsp,%rbp
   18534:	41 57                	push   %r15
   18536:	41 56                	push   %r14
   18538:	41 55                	push   %r13
   1853a:	41 54                	push   %r12
   1853c:	53                   	push   %rbx
   1853d:	48 81 ec 68 01 00 00 	sub    $0x168,%rsp
   18544:	48 89 8d 60 ff ff ff 	mov    %rcx,-0xa0(%rbp)
   1854b:	49 89 d5             	mov    %rdx,%r13
   1854e:	48 89 f3             	mov    %rsi,%rbx
   18551:	49 89 fc             	mov    %rdi,%r12
   18554:	4c 8b 36             	mov    (%rsi),%r14
   18557:	45 0f b7 be c2 01 00 	movzwl 0x1c2(%r14),%r15d
   1855e:	00 
   1855f:	49 83 ff 0b          	cmp    $0xb,%r15
   18563:	0f 82 e7 01 00 00    	jb     18750 <_ZN5alloc11collections5btree4node210Handle$LT$alloc..collections..btree..node..NodeRef$LT$alloc..collections..btree..node..marker..Mut$C$K$C$V$C$alloc..collections..btree..node..marker..Leaf$GT$$C$alloc..collections..btree..node..marker..Edge$GT$16insert_recursing17hbd73feceb6747ab4E+0x220>
   18569:	4c 89 85 d8 fe ff ff 	mov    %r8,-0x128(%rbp)
   18570:	4c 89 a5 08 ff ff ff 	mov    %r12,-0xf8(%rbp)
   18577:	48 8b 73 10          	mov    0x10(%rbx),%rsi
   1857b:	48 8d 7d 90          	lea    -0x70(%rbp),%rdi
   1857f:	ff 15 eb 04 01 00    	call   *0x104eb(%rip)        # 28a70 <_DYNAMIC+0x3e8>
   18585:	4c 8b 65 90          	mov    -0x70(%rbp),%r12
   18589:	41 0f b7 86 c2 01 00 	movzwl 0x1c2(%r14),%eax
   18590:	00 
   18591:	49 39 c4             	cmp    %rax,%r12
   18594:	0f 83 31 0a 00 00    	jae    18fcb <_ZN5alloc11collections5btree4node210Handle$LT$alloc..collections..btree..node..NodeRef$LT$alloc..collections..btree..node..marker..Mut$C$K$C$V$C$alloc..collections..btree..node..marker..Leaf$GT$$C$alloc..collections..btree..node..marker..Edge$GT$16insert_recursing17hbd73feceb6747ab4E+0xa9b>
   1859a:	48 8b 45 98          	mov    -0x68(%rbp),%rax
   1859e:	48 89 85 20 ff ff ff 	mov    %rax,-0xe0(%rbp)
   185a5:	48 8b 45 a0          	mov    -0x60(%rbp),%rax
   185a9:	48 89 85 28 ff ff ff 	mov    %rax,-0xd8(%rbp)
   185b0:	48 8b 5b 08          	mov    0x8(%rbx),%rbx
   185b4:	e8 b7 38 00 00       	call   1be70 <_ZN5alloc5boxed16Box$LT$T$C$A$GT$13new_uninit_in17h07a7707d4c379e04E>
   185b9:	49 89 c7             	mov    %rax,%r15
   185bc:	48 c7 80 60 01 00 00 	movq   $0x0,0x160(%rax)
   185c3:	00 00 00 00 
   185c7:	66 c7 80 c2 01 00 00 	movw   $0x0,0x1c2(%rax)
   185ce:	00 00 
   185d0:	41 0f b7 86 c2 01 00 	movzwl 0x1c2(%r14),%eax
   185d7:	00 
   185d8:	49 39 c4             	cmp    %rax,%r12
   185db:	0f 83 08 0a 00 00    	jae    18fe9 <_ZN5alloc11collections5btree4node210Handle$LT$alloc..collections..btree..node..NodeRef$LT$alloc..collections..btree..node..marker..Mut$C$K$C$V$C$alloc..collections..btree..node..marker..Leaf$GT$$C$alloc..collections..btree..node..marker..Edge$GT$16insert_recursing17hbd73feceb6747ab4E+0xab9>
   185e1:	4c 89 ad 68 ff ff ff 	mov    %r13,-0x98(%rbp)
   185e8:	48 89 9d 18 ff ff ff 	mov    %rbx,-0xe8(%rbp)
   185ef:	4d 89 e5             	mov    %r12,%r13
   185f2:	49 f7 d5             	not    %r13
   185f5:	49 01 c5             	add    %rax,%r13
   185f8:	66 45 89 af c2 01 00 	mov    %r13w,0x1c2(%r15)
   185ff:	00 
   18600:	49 83 fc 0b          	cmp    $0xb,%r12
   18604:	0f 83 fd 09 00 00    	jae    19007 <_ZN5alloc11collections5btree4node210Handle$LT$alloc..collections..btree..node..NodeRef$LT$alloc..collections..btree..node..marker..Mut$C$K$C$V$C$alloc..collections..btree..node..marker..Leaf$GT$$C$alloc..collections..btree..node..marker..Edge$GT$16insert_recursing17hbd73feceb6747ab4E+0xad7>
   1860a:	49 8d 8e 68 01 00 00 	lea    0x168(%r14),%rcx
   18611:	f6 c1 07             	test   $0x7,%cl
   18614:	0f 85 12 0a 00 00    	jne    1902c <_ZN5alloc11collections5btree4node210Handle$LT$alloc..collections..btree..node..NodeRef$LT$alloc..collections..btree..node..marker..Mut$C$K$C$V$C$alloc..collections..btree..node..marker..Leaf$GT$$C$alloc..collections..btree..node..marker..Edge$GT$16insert_recursing17hbd73feceb6747ab4E+0xafc>
   1861a:	4c 89 e2             	mov    %r12,%rdx
   1861d:	48 c1 e2 05          	shl    $0x5,%rdx
   18621:	4c 01 f2             	add    %r14,%rdx
   18624:	f6 c2 07             	test   $0x7,%dl
   18627:	0f 85 24 0a 00 00    	jne    19051 <_ZN5alloc11collections5btree4node210Handle$LT$alloc..collections..btree..node..NodeRef$LT$alloc..collections..btree..node..marker..Mut$C$K$C$V$C$alloc..collections..btree..node..marker..Leaf$GT$$C$alloc..collections..btree..node..marker..Edge$GT$16insert_recursing17hbd73feceb6747ab4E+0xb21>
   1862d:	4b 8b b4 e6 68 01 00 	mov    0x168(%r14,%r12,8),%rsi
   18634:	00 
   18635:	0f 10 02             	movups (%rdx),%xmm0
   18638:	0f 29 85 70 ff ff ff 	movaps %xmm0,-0x90(%rbp)
   1863f:	66 83 f8 0c          	cmp    $0xc,%ax
   18643:	0f 83 54 09 00 00    	jae    18f9d <_ZN5alloc11collections5btree4node210Handle$LT$alloc..collections..btree..node..NodeRef$LT$alloc..collections..btree..node..marker..Mut$C$K$C$V$C$alloc..collections..btree..node..marker..Leaf$GT$$C$alloc..collections..btree..node..marker..Edge$GT$16insert_recursing17hbd73feceb6747ab4E+0xa6d>
   18649:	48 89 b5 58 ff ff ff 	mov    %rsi,-0xa8(%rbp)
   18650:	48 8b 72 10          	mov    0x10(%rdx),%rsi
   18654:	48 89 75 c8          	mov    %rsi,-0x38(%rbp)
   18658:	4c 8b 42 18          	mov    0x18(%rdx),%r8
   1865c:	49 83 fd 0c          	cmp    $0xc,%r13
   18660:	0f 83 39 0a 00 00    	jae    1909f <_ZN5alloc11collections5btree4node210Handle$LT$alloc..collections..btree..node..NodeRef$LT$alloc..collections..btree..node..marker..Mut$C$K$C$V$C$alloc..collections..btree..node..marker..Leaf$GT$$C$alloc..collections..btree..node..marker..Edge$GT$16insert_recursing17hbd73feceb6747ab4E+0xb6f>
   18666:	4c 89 7d d0          	mov    %r15,-0x30(%rbp)
   1866a:	4d 8d 7c 24 01       	lea    0x1(%r12),%r15
   1866f:	4c 29 f8             	sub    %r15,%rax
   18672:	4c 39 e8             	cmp    %r13,%rax
   18675:	0f 85 43 0a 00 00    	jne    190be <_ZN5alloc11collections5btree4node210Handle$LT$alloc..collections..btree..node..NodeRef$LT$alloc..collections..btree..node..marker..Mut$C$K$C$V$C$alloc..collections..btree..node..marker..Leaf$GT$$C$alloc..collections..btree..node..marker..Edge$GT$16insert_recursing17hbd73feceb6747ab4E+0xb8e>
   1867b:	4c 89 b5 50 ff ff ff 	mov    %r14,-0xb0(%rbp)
   18682:	4a 8d 34 f9          	lea    (%rcx,%r15,8),%rsi
   18686:	4c 8b 75 d0          	mov    -0x30(%rbp),%r14
   1868a:	49 8d be 68 01 00 00 	lea    0x168(%r14),%rdi
   18691:	48 89 f0             	mov    %rsi,%rax
   18694:	48 29 f8             	sub    %rdi,%rax
   18697:	48 89 f9             	mov    %rdi,%rcx
   1869a:	48 29 f1             	sub    %rsi,%rcx
   1869d:	48 0f 42 c8          	cmovb  %rax,%rcx
   186a1:	4a 8d 14 ed 00 00 00 	lea    0x0(,%r13,8),%rdx
   186a8:	00 
   186a9:	48 39 d1             	cmp    %rdx,%rcx
   186ac:	0f 82 f4 08 00 00    	jb     18fa6 <_ZN5alloc11collections5btree4node210Handle$LT$alloc..collections..btree..node..NodeRef$LT$alloc..collections..btree..node..marker..Mut$C$K$C$V$C$alloc..collections..btree..node..marker..Leaf$GT$$C$alloc..collections..btree..node..marker..Edge$GT$16insert_recursing17hbd73feceb6747ab4E+0xa76>
   186b2:	4c 89 45 c0          	mov    %r8,-0x40(%rbp)
   186b6:	ff 15 f4 02 01 00    	call   *0x102f4(%rip)        # 289b0 <memcpy@GLIBC_2.14>
   186bc:	49 c1 e7 05          	shl    $0x5,%r15
   186c0:	48 8b 9d 50 ff ff ff 	mov    -0xb0(%rbp),%rbx
   186c7:	49 01 df             	add    %rbx,%r15
   186ca:	4c 89 f8             	mov    %r15,%rax
   186cd:	4c 29 f0             	sub    %r14,%rax
   186d0:	4c 89 f1             	mov    %r14,%rcx
   186d3:	4c 29 f9             	sub    %r15,%rcx
   186d6:	48 0f 42 c8          	cmovb  %rax,%rcx
   186da:	49 c1 e5 05          	shl    $0x5,%r13
   186de:	4c 39 e9             	cmp    %r13,%rcx
   186e1:	0f 82 bf 08 00 00    	jb     18fa6 <_ZN5alloc11collections5btree4node210Handle$LT$alloc..collections..btree..node..NodeRef$LT$alloc..collections..btree..node..marker..Mut$C$K$C$V$C$alloc..collections..btree..node..marker..Leaf$GT$$C$alloc..collections..btree..node..marker..Edge$GT$16insert_recursing17hbd73feceb6747ab4E+0xa76>
   186e7:	4c 89 f7             	mov    %r14,%rdi
   186ea:	4c 89 fe             	mov    %r15,%rsi
   186ed:	4c 89 ea             	mov    %r13,%rdx
   186f0:	ff 15 ba 02 01 00    	call   *0x102ba(%rip)        # 289b0 <memcpy@GLIBC_2.14>
   186f6:	66 44 89 a3 c2 01 00 	mov    %r12w,0x1c2(%rbx)
   186fd:	00 
   186fe:	0f 28 85 70 ff ff ff 	movaps -0x90(%rbp),%xmm0
   18705:	0f 29 45 90          	movaps %xmm0,-0x70(%rbp)
   18709:	48 83 bd 20 ff ff ff 	cmpq   $0x0,-0xe0(%rbp)
   18710:	00 
   18711:	0f 84 9f 00 00 00    	je     187b6 <_ZN5alloc11collections5btree4node210Handle$LT$alloc..collections..btree..node..NodeRef$LT$alloc..collections..btree..node..marker..Mut$C$K$C$V$C$alloc..collections..btree..node..marker..Leaf$GT$$C$alloc..collections..btree..node..marker..Edge$GT$16insert_recursing17hbd73feceb6747ab4E+0x286>
   18717:	45 0f b7 a6 c2 01 00 	movzwl 0x1c2(%r14),%r12d
   1871e:	00 
   1871f:	4c 39 a5 28 ff ff ff 	cmp    %r12,-0xd8(%rbp)
   18726:	48 8b 55 c0          	mov    -0x40(%rbp),%rdx
   1872a:	0f 87 b3 09 00 00    	ja     190e3 <_ZN5alloc11collections5btree4node210Handle$LT$alloc..collections..btree..node..NodeRef$LT$alloc..collections..btree..node..marker..Mut$C$K$C$V$C$alloc..collections..btree..node..marker..Leaf$GT$$C$alloc..collections..btree..node..marker..Edge$GT$16insert_recursing17hbd73feceb6747ab4E+0xbb3>
   18730:	66 41 83 fc 0b       	cmp    $0xb,%r12w
   18735:	48 8b 4d d0          	mov    -0x30(%rbp),%rcx
   18739:	0f 83 c5 09 00 00    	jae    19104 <_ZN5alloc11collections5btree4node210Handle$LT$alloc..collections..btree..node..NodeRef$LT$alloc..collections..btree..node..marker..Mut$C$K$C$V$C$alloc..collections..btree..node..marker..Leaf$GT$$C$alloc..collections..btree..node..marker..Edge$GT$16insert_recursing17hbd73feceb6747ab4E+0xbd4>
   1873f:	49 89 de             	mov    %rbx,%r14
   18742:	31 c0                	xor    %eax,%eax
   18744:	4c 8b ad 28 ff ff ff 	mov    -0xd8(%rbp),%r13
   1874b:	e9 87 00 00 00       	jmp    187d7 <_ZN5alloc11collections5btree4node210Handle$LT$alloc..collections..btree..node..NodeRef$LT$alloc..collections..btree..node..marker..Mut$C$K$C$V$C$alloc..collections..btree..node..marker..Leaf$GT$$C$alloc..collections..btree..node..marker..Edge$GT$16insert_recursing17hbd73feceb6747ab4E+0x2a7>
   18750:	48 8b 43 08          	mov    0x8(%rbx),%rax
   18754:	48 89 85 00 ff ff ff 	mov    %rax,-0x100(%rbp)
   1875b:	48 8b 5b 10          	mov    0x10(%rbx),%rbx
   1875f:	49 ff c7             	inc    %r15
   18762:	49 8d be 68 01 00 00 	lea    0x168(%r14),%rdi
   18769:	4c 89 fe             	mov    %r15,%rsi
   1876c:	48 89 da             	mov    %rbx,%rdx
   1876f:	4c 89 e9             	mov    %r13,%rcx
   18772:	e8 e9 f8 ff ff       	call   18060 <_ZN5alloc11collections5btree4node12slice_insert17h4808c6f05ead0427E>
   18777:	4c 89 f7             	mov    %r14,%rdi
   1877a:	4c 89 fe             	mov    %r15,%rsi
   1877d:	48 89 da             	mov    %rbx,%rdx
   18780:	48 8b 8d 60 ff ff ff 	mov    -0xa0(%rbp),%rcx
   18787:	e8 44 fa ff ff       	call   181d0 <_ZN5alloc11collections5btree4node12slice_insert17hf269b8d2b60e2bc4E>
   1878c:	66 45 89 be c2 01 00 	mov    %r15w,0x1c2(%r14)
   18793:	00 
   18794:	4c 39 fb             	cmp    %r15,%rbx
   18797:	0f 82 b7 05 00 00    	jb     18d54 <_ZN5alloc11collections5btree4node210Handle$LT$alloc..collections..btree..node..NodeRef$LT$alloc..collections..btree..node..marker..Mut$C$K$C$V$C$alloc..collections..btree..node..marker..Leaf$GT$$C$alloc..collections..btree..node..marker..Edge$GT$16insert_recursing17hbd73feceb6747ab4E+0x824>
   1879d:	48 8d 3d 5c d0 fe ff 	lea    -0x12fa4(%rip),%rdi        # 5800 <__abi_tag+0x54cc>
   187a4:	48 8d 15 7d e2 00 00 	lea    0xe27d(%rip),%rdx        # 26a28 <__frame_dummy_init_array_entry+0x258>
   187ab:	be 22 00 00 00       	mov    $0x22,%esi
   187b0:	ff 15 c2 01 01 00    	call   *0x101c2(%rip)        # 28978 <_DYNAMIC+0x2f0>
   187b6:	48 8b 85 18 ff ff ff 	mov    -0xe8(%rbp),%rax
   187bd:	48 89 d9             	mov    %rbx,%rcx
   187c0:	4c 8b ad 28 ff ff ff 	mov    -0xd8(%rbp),%r13
   187c7:	4d 39 e5             	cmp    %r12,%r13
   187ca:	49 89 de             	mov    %rbx,%r14
   187cd:	48 8b 55 c0          	mov    -0x40(%rbp),%rdx
   187d1:	0f 87 0c 09 00 00    	ja     190e3 <_ZN5alloc11collections5btree4node210Handle$LT$alloc..collections..btree..node..NodeRef$LT$alloc..collections..btree..node..marker..Mut$C$K$C$V$C$alloc..collections..btree..node..marker..Leaf$GT$$C$alloc..collections..btree..node..marker..Edge$GT$16insert_recursing17hbd73feceb6747ab4E+0xbb3>
   187d7:	48 89 85 00 ff ff ff 	mov    %rax,-0x100(%rbp)
   187de:	41 ff c4             	inc    %r12d
   187e1:	45 0f b7 fc          	movzwl %r12w,%r15d
   187e5:	48 8d b9 68 01 00 00 	lea    0x168(%rcx),%rdi
   187ec:	4c 89 fe             	mov    %r15,%rsi
   187ef:	4c 89 ea             	mov    %r13,%rdx
   187f2:	48 89 cb             	mov    %rcx,%rbx
   187f5:	48 8b 8d 68 ff ff ff 	mov    -0x98(%rbp),%rcx
   187fc:	e8 5f f8 ff ff       	call   18060 <_ZN5alloc11collections5btree4node12slice_insert17h4808c6f05ead0427E>
   18801:	48 89 df             	mov    %rbx,%rdi
   18804:	4c 89 fe             	mov    %r15,%rsi
   18807:	4c 89 ea             	mov    %r13,%rdx
   1880a:	48 8b 8d 60 ff ff ff 	mov    -0xa0(%rbp),%rcx
   18811:	e8 ba f9 ff ff       	call   181d0 <_ZN5alloc11collections5btree4node12slice_insert17hf269b8d2b60e2bc4E>
   18816:	66 44 89 a3 c2 01 00 	mov    %r12w,0x1c2(%rbx)
   1881d:	00 
   1881e:	4d 39 fd             	cmp    %r15,%r13
   18821:	0f 83 fb 08 00 00    	jae    19122 <_ZN5alloc11collections5btree4node210Handle$LT$alloc..collections..btree..node..NodeRef$LT$alloc..collections..btree..node..marker..Mut$C$K$C$V$C$alloc..collections..btree..node..marker..Leaf$GT$$C$alloc..collections..btree..node..marker..Edge$GT$16insert_recursing17hbd73feceb6747ab4E+0xbf2>
   18827:	48 89 9d 10 ff ff ff 	mov    %rbx,-0xf0(%rbp)
   1882e:	0f 28 45 90          	movaps -0x70(%rbp),%xmm0
   18832:	0f 29 85 e0 fe ff ff 	movaps %xmm0,-0x120(%rbp)
   18839:	49 8b 86 60 01 00 00 	mov    0x160(%r14),%rax
   18840:	48 85 c0             	test   %rax,%rax
   18843:	0f 84 7d 03 00 00    	je     18bc6 <_ZN5alloc11collections5btree4node210Handle$LT$alloc..collections..btree..node..NodeRef$LT$alloc..collections..btree..node..marker..Mut$C$K$C$V$C$alloc..collections..btree..node..marker..Leaf$GT$$C$alloc..collections..btree..node..marker..Edge$GT$16insert_recursing17hbd73feceb6747ab4E+0x696>
   18849:	4c 8b bd 18 ff ff ff 	mov    -0xe8(%rbp),%r15
   18850:	49 ff c7             	inc    %r15
   18853:	45 31 e4             	xor    %r12d,%r12d
   18856:	4c 8b 45 d0          	mov    -0x30(%rbp),%r8
   1885a:	4c 8b 8d 58 ff ff ff 	mov    -0xa8(%rbp),%r9
   18861:	4c 8b 6d c8          	mov    -0x38(%rbp),%r13
   18865:	48 8b 75 c0          	mov    -0x40(%rbp),%rsi
   18869:	0f 1f 80 00 00 00 00 	nopl   0x0(%rax)
   18870:	4c 89 8d 20 ff ff ff 	mov    %r9,-0xe0(%rbp)
   18877:	4c 89 85 60 ff ff ff 	mov    %r8,-0xa0(%rbp)
   1887e:	48 89 75 d0          	mov    %rsi,-0x30(%rbp)
   18882:	4c 89 f9             	mov    %r15,%rcx
   18885:	48 83 e9 01          	sub    $0x1,%rcx
   18889:	0f 82 63 09 00 00    	jb     191f2 <_ZN5alloc11collections5btree4node210Handle$LT$alloc..collections..btree..node..NodeRef$LT$alloc..collections..btree..node..marker..Mut$C$K$C$V$C$alloc..collections..btree..node..marker..Leaf$GT$$C$alloc..collections..btree..node..marker..Edge$GT$16insert_recursing17hbd73feceb6747ab4E+0xcc2>
   1888f:	48 89 c3             	mov    %rax,%rbx
   18892:	48 8b 85 50 ff ff ff 	mov    -0xb0(%rbp),%rax
   18899:	0f b7 b0 c0 01 00 00 	movzwl 0x1c0(%rax),%esi
   188a0:	0f 28 85 e0 fe ff ff 	movaps -0x120(%rbp),%xmm0
   188a7:	0f 29 85 30 ff ff ff 	movaps %xmm0,-0xd0(%rbp)
   188ae:	4c 89 ad 40 ff ff ff 	mov    %r13,-0xc0(%rbp)
   188b5:	48 8b 45 d0          	mov    -0x30(%rbp),%rax
   188b9:	48 89 85 48 ff ff ff 	mov    %rax,-0xb8(%rbp)
   188c0:	4c 39 e1             	cmp    %r12,%rcx
   188c3:	0f 85 5d 05 00 00    	jne    18e26 <_ZN5alloc11collections5btree4node210Handle$LT$alloc..collections..btree..node..NodeRef$LT$alloc..collections..btree..node..marker..Mut$C$K$C$V$C$alloc..collections..btree..node..marker..Leaf$GT$$C$alloc..collections..btree..node..marker..Edge$GT$16insert_recursing17hbd73feceb6747ab4E+0x8f6>
   188c9:	66 83 bb c2 01 00 00 	cmpw   $0xb,0x1c2(%rbx)
   188d0:	0b 
   188d1:	0f 82 2c 04 00 00    	jb     18d03 <_ZN5alloc11collections5btree4node210Handle$LT$alloc..collections..btree..node..NodeRef$LT$alloc..collections..btree..node..marker..Mut$C$K$C$V$C$alloc..collections..btree..node..marker..Leaf$GT$$C$alloc..collections..btree..node..marker..Edge$GT$16insert_recursing17hbd73feceb6747ab4E+0x7d3>
   188d7:	48 89 8d c0 fe ff ff 	mov    %rcx,-0x140(%rbp)
   188de:	4c 89 ad 68 ff ff ff 	mov    %r13,-0x98(%rbp)
   188e5:	4c 89 bd 18 ff ff ff 	mov    %r15,-0xe8(%rbp)
   188ec:	48 8d bd 70 ff ff ff 	lea    -0x90(%rbp),%rdi
   188f3:	ff 15 77 01 01 00    	call   *0x10177(%rip)        # 28a70 <_DYNAMIC+0x3e8>
   188f9:	4c 8b ad 70 ff ff ff 	mov    -0x90(%rbp),%r13
   18900:	0f b7 83 c2 01 00 00 	movzwl 0x1c2(%rbx),%eax
   18907:	49 89 c4             	mov    %rax,%r12
   1890a:	4d 29 ec             	sub    %r13,%r12
   1890d:	0f 86 28 05 00 00    	jbe    18e3b <_ZN5alloc11collections5btree4node210Handle$LT$alloc..collections..btree..node..NodeRef$LT$alloc..collections..btree..node..marker..Mut$C$K$C$V$C$alloc..collections..btree..node..marker..Leaf$GT$$C$alloc..collections..btree..node..marker..Edge$GT$16insert_recursing17hbd73feceb6747ab4E+0x90b>
   18913:	48 89 85 b8 fe ff ff 	mov    %rax,-0x148(%rbp)
   1891a:	4c 8b bd 78 ff ff ff 	mov    -0x88(%rbp),%r15
   18921:	48 8b 45 80          	mov    -0x80(%rbp),%rax
   18925:	48 89 85 f8 fe ff ff 	mov    %rax,-0x108(%rbp)
   1892c:	e8 ff 35 00 00       	call   1bf30 <_ZN5alloc5boxed16Box$LT$T$C$A$GT$13new_uninit_in17h7c8f0493121b4865E>
   18931:	49 89 c6             	mov    %rax,%r14
   18934:	48 c7 80 60 01 00 00 	movq   $0x0,0x160(%rax)
   1893b:	00 00 00 00 
   1893f:	66 c7 80 c2 01 00 00 	movw   $0x0,0x1c2(%rax)
   18946:	00 00 
   18948:	0f b7 83 c2 01 00 00 	movzwl 0x1c2(%rbx),%eax
   1894f:	49 39 c5             	cmp    %rax,%r13
   18952:	0f 83 0c 05 00 00    	jae    18e64 <_ZN5alloc11collections5btree4node210Handle$LT$alloc..collections..btree..node..NodeRef$LT$alloc..collections..btree..node..marker..Mut$C$K$C$V$C$alloc..collections..btree..node..marker..Leaf$GT$$C$alloc..collections..btree..node..marker..Edge$GT$16insert_recursing17hbd73feceb6747ab4E+0x934>
   18958:	4c 89 bd c8 fe ff ff 	mov    %r15,-0x138(%rbp)
   1895f:	4d 89 ef             	mov    %r13,%r15
   18962:	49 f7 d7             	not    %r15
   18965:	49 01 c7             	add    %rax,%r15
   18968:	66 45 89 be c2 01 00 	mov    %r15w,0x1c2(%r14)
   1896f:	00 
   18970:	49 83 fd 0b          	cmp    $0xb,%r13
   18974:	0f 83 0f 05 00 00    	jae    18e89 <_ZN5alloc11collections5btree4node210Handle$LT$alloc..collections..btree..node..NodeRef$LT$alloc..collections..btree..node..marker..Mut$C$K$C$V$C$alloc..collections..btree..node..marker..Leaf$GT$$C$alloc..collections..btree..node..marker..Edge$GT$16insert_recursing17hbd73feceb6747ab4E+0x959>
   1897a:	48 8d 8b 68 01 00 00 	lea    0x168(%rbx),%rcx
   18981:	f6 c1 07             	test   $0x7,%cl
   18984:	0f 85 4d 05 00 00    	jne    18ed7 <_ZN5alloc11collections5btree4node210Handle$LT$alloc..collections..btree..node..NodeRef$LT$alloc..collections..btree..node..marker..Mut$C$K$C$V$C$alloc..collections..btree..node..marker..Leaf$GT$$C$alloc..collections..btree..node..marker..Edge$GT$16insert_recursing17hbd73feceb6747ab4E+0x9a7>
   1898a:	4a 8b 94 eb 68 01 00 	mov    0x168(%rbx,%r13,8),%rdx
   18991:	00 
   18992:	48 89 95 58 ff ff ff 	mov    %rdx,-0xa8(%rbp)
   18999:	4c 89 ea             	mov    %r13,%rdx
   1899c:	48 c1 e2 05          	shl    $0x5,%rdx
   189a0:	0f 10 04 13          	movups (%rbx,%rdx,1),%xmm0
   189a4:	0f 29 85 70 fe ff ff 	movaps %xmm0,-0x190(%rbp)
   189ab:	66 83 f8 0c          	cmp    $0xc,%ax
   189af:	0f 83 17 04 00 00    	jae    18dcc <_ZN5alloc11collections5btree4node210Handle$LT$alloc..collections..btree..node..NodeRef$LT$alloc..collections..btree..node..marker..Mut$C$K$C$V$C$alloc..collections..btree..node..marker..Leaf$GT$$C$alloc..collections..btree..node..marker..Edge$GT$16insert_recursing17hbd73feceb6747ab4E+0x89c>
   189b5:	48 8b 44 13 10       	mov    0x10(%rbx,%rdx,1),%rax
   189ba:	48 89 45 c8          	mov    %rax,-0x38(%rbp)
   189be:	48 8b 44 13 18       	mov    0x18(%rbx,%rdx,1),%rax
   189c3:	48 89 45 c0          	mov    %rax,-0x40(%rbp)
   189c7:	49 83 ff 0c          	cmp    $0xc,%r15
   189cb:	0f 83 54 05 00 00    	jae    18f25 <_ZN5alloc11collections5btree4node210Handle$LT$alloc..collections..btree..node..NodeRef$LT$alloc..collections..btree..node..marker..Mut$C$K$C$V$C$alloc..collections..btree..node..marker..Leaf$GT$$C$alloc..collections..btree..node..marker..Edge$GT$16insert_recursing17hbd73feceb6747ab4E+0x9f5>
   189d1:	48 89 9d 50 ff ff ff 	mov    %rbx,-0xb0(%rbp)
   189d8:	49 8d 5d 01          	lea    0x1(%r13),%rbx
   189dc:	48 8d 34 d9          	lea    (%rcx,%rbx,8),%rsi
   189e0:	49 8d be 68 01 00 00 	lea    0x168(%r14),%rdi
   189e7:	48 89 f0             	mov    %rsi,%rax
   189ea:	48 29 f8             	sub    %rdi,%rax
   189ed:	48 89 f9             	mov    %rdi,%rcx
   189f0:	48 29 f1             	sub    %rsi,%rcx
   189f3:	48 0f 42 c8          	cmovb  %rax,%rcx
   189f7:	4a 8d 14 fd 00 00 00 	lea    0x0(,%r15,8),%rdx
   189fe:	00 
   189ff:	48 39 d1             	cmp    %rdx,%rcx
   18a02:	0f 82 76 03 00 00    	jb     18d7e <_ZN5alloc11collections5btree4node210Handle$LT$alloc..collections..btree..node..NodeRef$LT$alloc..collections..btree..node..marker..Mut$C$K$C$V$C$alloc..collections..btree..node..marker..Leaf$GT$$C$alloc..collections..btree..node..marker..Edge$GT$16insert_recursing17hbd73feceb6747ab4E+0x84e>
   18a08:	48 8b 05 a1 ff 00 00 	mov    0xffa1(%rip),%rax        # 289b0 <memcpy@GLIBC_2.14>
   18a0f:	ff d0                	call   *%rax
   18a11:	48 89 9d d0 fe ff ff 	mov    %rbx,-0x130(%rbp)
   18a18:	48 89 de             	mov    %rbx,%rsi
   18a1b:	48 c1 e6 05          	shl    $0x5,%rsi
   18a1f:	48 8b 9d 50 ff ff ff 	mov    -0xb0(%rbp),%rbx
   18a26:	48 01 de             	add    %rbx,%rsi
   18a29:	48 89 f0             	mov    %rsi,%rax
   18a2c:	4c 29 f0             	sub    %r14,%rax
   18a2f:	4c 89 f1             	mov    %r14,%rcx
   18a32:	48 29 f1             	sub    %rsi,%rcx
   18a35:	48 0f 42 c8          	cmovb  %rax,%rcx
   18a39:	49 c1 e7 05          	shl    $0x5,%r15
   18a3d:	4c 39 f9             	cmp    %r15,%rcx
   18a40:	0f 82 38 03 00 00    	jb     18d7e <_ZN5alloc11collections5btree4node210Handle$LT$alloc..collections..btree..node..NodeRef$LT$alloc..collections..btree..node..marker..Mut$C$K$C$V$C$alloc..collections..btree..node..marker..Leaf$GT$$C$alloc..collections..btree..node..marker..Edge$GT$16insert_recursing17hbd73feceb6747ab4E+0x84e>
   18a46:	4c 89 f7             	mov    %r14,%rdi
   18a49:	4c 89 fa             	mov    %r15,%rdx
   18a4c:	4c 8b 3d 5d ff 00 00 	mov    0xff5d(%rip),%r15        # 289b0 <memcpy@GLIBC_2.14>
   18a53:	41 ff d7             	call   *%r15
   18a56:	66 44 89 ab c2 01 00 	mov    %r13w,0x1c2(%rbx)
   18a5d:	00 
   18a5e:	0f 28 85 70 fe ff ff 	movaps -0x190(%rbp),%xmm0
   18a65:	0f 29 85 80 fe ff ff 	movaps %xmm0,-0x180(%rbp)
   18a6c:	66 83 bd b8 fe ff ff 	cmpw   $0xc,-0x148(%rbp)
   18a73:	0c 
   18a74:	0f 83 5e 03 00 00    	jae    18dd8 <_ZN5alloc11collections5btree4node210Handle$LT$alloc..collections..btree..node..NodeRef$LT$alloc..collections..btree..node..marker..Mut$C$K$C$V$C$alloc..collections..btree..node..marker..Leaf$GT$$C$alloc..collections..btree..node..marker..Edge$GT$16insert_recursing17hbd73feceb6747ab4E+0x8a8>
   18a7a:	4d 89 f8             	mov    %r15,%r8
   18a7d:	4d 89 f7             	mov    %r14,%r15
   18a80:	41 0f b7 86 c2 01 00 	movzwl 0x1c2(%r14),%eax
   18a87:	00 
   18a88:	48 8d 70 01          	lea    0x1(%rax),%rsi
   18a8c:	48 83 f8 0c          	cmp    $0xc,%rax
   18a90:	0f 83 ab 04 00 00    	jae    18f41 <_ZN5alloc11collections5btree4node210Handle$LT$alloc..collections..btree..node..NodeRef$LT$alloc..collections..btree..node..marker..Mut$C$K$C$V$C$alloc..collections..btree..node..marker..Leaf$GT$$C$alloc..collections..btree..node..marker..Edge$GT$16insert_recursing17hbd73feceb6747ab4E+0xa11>
   18a96:	41 39 f4             	cmp    %esi,%r12d
   18a99:	4c 8b ad 68 ff ff ff 	mov    -0x98(%rbp),%r13
   18aa0:	0f 85 bb 04 00 00    	jne    18f61 <_ZN5alloc11collections5btree4node210Handle$LT$alloc..collections..btree..node..NodeRef$LT$alloc..collections..btree..node..marker..Mut$C$K$C$V$C$alloc..collections..btree..node..marker..Leaf$GT$$C$alloc..collections..btree..node..marker..Edge$GT$16insert_recursing17hbd73feceb6747ab4E+0xa31>
   18aa6:	4c 89 ff             	mov    %r15,%rdi
   18aa9:	48 81 c7 c8 01 00 00 	add    $0x1c8,%rdi
   18ab0:	48 8b 9d 50 ff ff ff 	mov    -0xb0(%rbp),%rbx
   18ab7:	48 8b 85 d0 fe ff ff 	mov    -0x130(%rbp),%rax
   18abe:	48 8d 34 c3          	lea    (%rbx,%rax,8),%rsi
   18ac2:	48 81 c6 c8 01 00 00 	add    $0x1c8,%rsi
   18ac9:	48 89 f0             	mov    %rsi,%rax
   18acc:	48 29 f8             	sub    %rdi,%rax
   18acf:	48 89 f9             	mov    %rdi,%rcx
   18ad2:	48 29 f1             	sub    %rsi,%rcx
   18ad5:	48 0f 42 c8          	cmovb  %rax,%rcx
   18ad9:	41 c1 e4 03          	shl    $0x3,%r12d
   18add:	4c 39 e1             	cmp    %r12,%rcx
   18ae0:	0f 82 98 02 00 00    	jb     18d7e <_ZN5alloc11collections5btree4node210Handle$LT$alloc..collections..btree..node..NodeRef$LT$alloc..collections..btree..node..marker..Mut$C$K$C$V$C$alloc..collections..btree..node..marker..Leaf$GT$$C$alloc..collections..btree..node..marker..Edge$GT$16insert_recursing17hbd73feceb6747ab4E+0x84e>
   18ae6:	4c 89 e2             	mov    %r12,%rdx
   18ae9:	41 ff d0             	call   *%r8
   18aec:	4c 89 ff             	mov    %r15,%rdi
   18aef:	4c 8b bd 18 ff ff ff 	mov    -0xe8(%rbp),%r15
   18af6:	4c 89 fe             	mov    %r15,%rsi
   18af9:	e8 52 f4 ff ff       	call   17f50 <_ZN5alloc11collections5btree4node121NodeRef$LT$alloc..collections..btree..node..marker..Owned$C$K$C$V$C$alloc..collections..btree..node..marker..Internal$GT$17from_new_internal17h99d295899aec86d0E>
   18afe:	49 89 c6             	mov    %rax,%r14
   18b01:	49 89 d4             	mov    %rdx,%r12
   18b04:	0f 28 85 80 fe ff ff 	movaps -0x180(%rbp),%xmm0
   18b0b:	0f 29 85 70 ff ff ff 	movaps %xmm0,-0x90(%rbp)
   18b12:	48 83 bd c8 fe ff ff 	cmpq   $0x0,-0x138(%rbp)
   18b19:	00 
   18b1a:	74 14                	je     18b30 <_ZN5alloc11collections5btree4node210Handle$LT$alloc..collections..btree..node..NodeRef$LT$alloc..collections..btree..node..marker..Mut$C$K$C$V$C$alloc..collections..btree..node..marker..Leaf$GT$$C$alloc..collections..btree..node..marker..Edge$GT$16insert_recursing17hbd73feceb6747ab4E+0x600>
   18b1c:	4c 89 f0             	mov    %r14,%rax
   18b1f:	41 0f b7 96 c2 01 00 	movzwl 0x1c2(%r14),%edx
   18b26:	00 
   18b27:	4c 89 e1             	mov    %r12,%rcx
   18b2a:	eb 11                	jmp    18b3d <_ZN5alloc11collections5btree4node210Handle$LT$alloc..collections..btree..node..NodeRef$LT$alloc..collections..btree..node..marker..Mut$C$K$C$V$C$alloc..collections..btree..node..marker..Leaf$GT$$C$alloc..collections..btree..node..marker..Edge$GT$16insert_recursing17hbd73feceb6747ab4E+0x60d>
   18b2c:	0f 1f 40 00          	nopl   0x0(%rax)
   18b30:	0f b7 93 c2 01 00 00 	movzwl 0x1c2(%rbx),%edx
   18b37:	48 89 d8             	mov    %rbx,%rax
   18b3a:	4c 89 f9             	mov    %r15,%rcx
   18b3d:	48 8b b5 f8 fe ff ff 	mov    -0x108(%rbp),%rsi
   18b44:	48 39 d6             	cmp    %rdx,%rsi
   18b47:	48 89 f2             	mov    %rsi,%rdx
   18b4a:	0f 87 2f 04 00 00    	ja     18f7f <_ZN5alloc11collections5btree4node210Handle$LT$alloc..collections..btree..node..NodeRef$LT$alloc..collections..btree..node..marker..Mut$C$K$C$V$C$alloc..collections..btree..node..marker..Leaf$GT$$C$alloc..collections..btree..node..marker..Edge$GT$16insert_recursing17hbd73feceb6747ab4E+0xa4f>
   18b50:	48 89 45 90          	mov    %rax,-0x70(%rbp)
   18b54:	48 89 4d 98          	mov    %rcx,-0x68(%rbp)
   18b58:	48 89 55 a0          	mov    %rdx,-0x60(%rbp)
   18b5c:	48 8d 7d 90          	lea    -0x70(%rbp),%rdi
   18b60:	48 8b b5 20 ff ff ff 	mov    -0xe0(%rbp),%rsi
   18b67:	48 8d 95 30 ff ff ff 	lea    -0xd0(%rbp),%rdx
   18b6e:	48 8b 8d 60 ff ff ff 	mov    -0xa0(%rbp),%rcx
   18b75:	4c 8b 85 c0 fe ff ff 	mov    -0x140(%rbp),%r8
   18b7c:	e8 3f 08 00 00       	call   193c0 <_ZN5alloc11collections5btree4node214Handle$LT$alloc..collections..btree..node..NodeRef$LT$alloc..collections..btree..node..marker..Mut$C$K$C$V$C$alloc..collections..btree..node..marker..Internal$GT$$C$alloc..collections..btree..node..marker..Edge$GT$10insert_fit17haf9d313387f40ed6E>
   18b81:	0f 28 85 70 ff ff ff 	movaps -0x90(%rbp),%xmm0
   18b88:	0f 29 85 e0 fe ff ff 	movaps %xmm0,-0x120(%rbp)
   18b8f:	48 8b 83 60 01 00 00 	mov    0x160(%rbx),%rax
   18b96:	49 ff c7             	inc    %r15
   18b99:	48 89 9d 50 ff ff ff 	mov    %rbx,-0xb0(%rbp)
   18ba0:	4d 89 f0             	mov    %r14,%r8
   18ba3:	48 8b bd 58 ff ff ff 	mov    -0xa8(%rbp),%rdi
   18baa:	49 89 f9             	mov    %rdi,%r9
   18bad:	48 8b 55 c8          	mov    -0x38(%rbp),%rdx
   18bb1:	49 89 d5             	mov    %rdx,%r13
   18bb4:	48 8b 4d c0          	mov    -0x40(%rbp),%rcx
   18bb8:	48 89 ce             	mov    %rcx,%rsi
   18bbb:	48 85 c0             	test   %rax,%rax
   18bbe:	0f 85 ac fc ff ff    	jne    18870 <_ZN5alloc11collections5btree4node210Handle$LT$alloc..collections..btree..node..NodeRef$LT$alloc..collections..btree..node..marker..Mut$C$K$C$V$C$alloc..collections..btree..node..marker..Leaf$GT$$C$alloc..collections..btree..node..marker..Edge$GT$16insert_recursing17hbd73feceb6747ab4E+0x340>
   18bc4:	eb 16                	jmp    18bdc <_ZN5alloc11collections5btree4node210Handle$LT$alloc..collections..btree..node..NodeRef$LT$alloc..collections..btree..node..marker..Mut$C$K$C$V$C$alloc..collections..btree..node..marker..Leaf$GT$$C$alloc..collections..btree..node..marker..Edge$GT$16insert_recursing17hbd73feceb6747ab4E+0x6ac>
   18bc6:	45 31 e4             	xor    %r12d,%r12d
   18bc9:	48 8b 4d c0          	mov    -0x40(%rbp),%rcx
   18bcd:	48 8b 55 c8          	mov    -0x38(%rbp),%rdx
   18bd1:	4c 8b 75 d0          	mov    -0x30(%rbp),%r14
   18bd5:	48 8b bd 58 ff ff ff 	mov    -0xa8(%rbp),%rdi
   18bdc:	4c 89 75 d0          	mov    %r14,-0x30(%rbp)
   18be0:	48 8b 85 d8 fe ff ff 	mov    -0x128(%rbp),%rax
   18be7:	4c 8b 38             	mov    (%rax),%r15
   18bea:	4d 8b 2f             	mov    (%r15),%r13
   18bed:	4d 85 ed             	test   %r13,%r13
   18bf0:	0f 84 4a 05 00 00    	je     19140 <_ZN5alloc11collections5btree4node210Handle$LT$alloc..collections..btree..node..NodeRef$LT$alloc..collections..btree..node..marker..Mut$C$K$C$V$C$alloc..collections..btree..node..marker..Leaf$GT$$C$alloc..collections..btree..node..marker..Edge$GT$16insert_recursing17hbd73feceb6747ab4E+0xc10>
   18bf6:	48 89 bd 58 ff ff ff 	mov    %rdi,-0xa8(%rbp)
   18bfd:	48 89 55 c8          	mov    %rdx,-0x38(%rbp)
   18c01:	48 89 4d c0          	mov    %rcx,-0x40(%rbp)
   18c05:	4d 8b 77 08          	mov    0x8(%r15),%r14
   18c09:	e8 22 33 00 00       	call   1bf30 <_ZN5alloc5boxed16Box$LT$T$C$A$GT$13new_uninit_in17h7c8f0493121b4865E>
   18c0e:	48 89 c3             	mov    %rax,%rbx
   18c11:	48 c7 80 60 01 00 00 	movq   $0x0,0x160(%rax)
   18c18:	00 00 00 00 
   18c1c:	66 c7 80 c2 01 00 00 	movw   $0x0,0x1c2(%rax)
   18c23:	00 00 
   18c25:	4c 89 a8 c8 01 00 00 	mov    %r13,0x1c8(%rax)
   18c2c:	49 83 fe ff          	cmp    $0xffffffffffffffff,%r14
   18c30:	0f 84 cb 05 00 00    	je     19201 <_ZN5alloc11collections5btree4node210Handle$LT$alloc..collections..btree..node..NodeRef$LT$alloc..collections..btree..node..marker..Mut$C$K$C$V$C$alloc..collections..btree..node..marker..Leaf$GT$$C$alloc..collections..btree..node..marker..Edge$GT$16insert_recursing17hbd73feceb6747ab4E+0xcd1>
   18c36:	49 ff c6             	inc    %r14
   18c39:	48 89 df             	mov    %rbx,%rdi
   18c3c:	4c 89 f6             	mov    %r14,%rsi
   18c3f:	e8 0c f3 ff ff       	call   17f50 <_ZN5alloc11collections5btree4node121NodeRef$LT$alloc..collections..btree..node..marker..Owned$C$K$C$V$C$alloc..collections..btree..node..marker..Internal$GT$17from_new_internal17h99d295899aec86d0E>
   18c44:	49 89 07             	mov    %rax,(%r15)
   18c47:	49 89 57 08          	mov    %rdx,0x8(%r15)
   18c4b:	48 85 d2             	test   %rdx,%rdx
   18c4e:	0f 84 bc 05 00 00    	je     19210 <_ZN5alloc11collections5btree4node210Handle$LT$alloc..collections..btree..node..NodeRef$LT$alloc..collections..btree..node..marker..Mut$C$K$C$V$C$alloc..collections..btree..node..marker..Leaf$GT$$C$alloc..collections..btree..node..marker..Edge$GT$16insert_recursing17hbd73feceb6747ab4E+0xce0>
   18c54:	48 8d 4a ff          	lea    -0x1(%rdx),%rcx
   18c58:	49 39 cc             	cmp    %rcx,%r12
   18c5b:	48 8b 75 c0          	mov    -0x40(%rbp),%rsi
   18c5f:	48 8b 7d c8          	mov    -0x38(%rbp),%rdi
   18c63:	48 8b 9d 28 ff ff ff 	mov    -0xd8(%rbp),%rbx
   18c6a:	4c 8b 45 d0          	mov    -0x30(%rbp),%r8
   18c6e:	0f 85 e4 04 00 00    	jne    19158 <_ZN5alloc11collections5btree4node210Handle$LT$alloc..collections..btree..node..NodeRef$LT$alloc..collections..btree..node..marker..Mut$C$K$C$V$C$alloc..collections..btree..node..marker..Leaf$GT$$C$alloc..collections..btree..node..marker..Edge$GT$16insert_recursing17hbd73feceb6747ab4E+0xc28>
   18c74:	0f b7 88 c2 01 00 00 	movzwl 0x1c2(%rax),%ecx
   18c7b:	48 83 f9 0b          	cmp    $0xb,%rcx
   18c7f:	0f 83 e8 04 00 00    	jae    1916d <_ZN5alloc11collections5btree4node210Handle$LT$alloc..collections..btree..node..NodeRef$LT$alloc..collections..btree..node..marker..Mut$C$K$C$V$C$alloc..collections..btree..node..marker..Leaf$GT$$C$alloc..collections..btree..node..marker..Edge$GT$16insert_recursing17hbd73feceb6747ab4E+0xc3d>
   18c85:	8d 51 01             	lea    0x1(%rcx),%edx
   18c88:	66 89 90 c2 01 00 00 	mov    %dx,0x1c2(%rax)
   18c8f:	48 8b 95 58 ff ff ff 	mov    -0xa8(%rbp),%rdx
   18c96:	48 89 94 c8 68 01 00 	mov    %rdx,0x168(%rax,%rcx,8)
   18c9d:	00 
   18c9e:	89 ca                	mov    %ecx,%edx
   18ca0:	c1 e2 05             	shl    $0x5,%edx
   18ca3:	0f 28 85 e0 fe ff ff 	movaps -0x120(%rbp),%xmm0
   18caa:	0f 11 04 10          	movups %xmm0,(%rax,%rdx,1)
   18cae:	48 89 7c 10 10       	mov    %rdi,0x10(%rax,%rdx,1)
   18cb3:	48 89 74 10 18       	mov    %rsi,0x18(%rax,%rdx,1)
   18cb8:	4c 89 84 c8 d0 01 00 	mov    %r8,0x1d0(%rax,%rcx,8)
   18cbf:	00 
   18cc0:	66 3b 88 c2 01 00 00 	cmp    0x1c2(%rax),%cx
   18cc7:	0f 83 be 04 00 00    	jae    1918b <_ZN5alloc11collections5btree4node210Handle$LT$alloc..collections..btree..node..NodeRef$LT$alloc..collections..btree..node..marker..Mut$C$K$C$V$C$alloc..collections..btree..node..marker..Leaf$GT$$C$alloc..collections..btree..node..marker..Edge$GT$16insert_recursing17hbd73feceb6747ab4E+0xc5b>
   18ccd:	48 8d 14 c8          	lea    (%rax,%rcx,8),%rdx
   18cd1:	48 81 c2 d0 01 00 00 	add    $0x1d0,%rdx
   18cd8:	f6 c2 07             	test   $0x7,%dl
   18cdb:	0f 85 c3 04 00 00    	jne    191a4 <_ZN5alloc11collections5btree4node210Handle$LT$alloc..collections..btree..node..NodeRef$LT$alloc..collections..btree..node..marker..Mut$C$K$C$V$C$alloc..collections..btree..node..marker..Leaf$GT$$C$alloc..collections..btree..node..marker..Edge$GT$16insert_recursing17hbd73feceb6747ab4E+0xc74>
   18ce1:	48 ff c1             	inc    %rcx
   18ce4:	49 89 80 60 01 00 00 	mov    %rax,0x160(%r8)
   18ceb:	66 41 89 88 c0 01 00 	mov    %cx,0x1c0(%r8)
   18cf2:	00 
   18cf3:	4c 8b b5 10 ff ff ff 	mov    -0xf0(%rbp),%r14
   18cfa:	4c 8b a5 08 ff ff ff 	mov    -0xf8(%rbp),%r12
   18d01:	eb 51                	jmp    18d54 <_ZN5alloc11collections5btree4node210Handle$LT$alloc..collections..btree..node..NodeRef$LT$alloc..collections..btree..node..marker..Mut$C$K$C$V$C$alloc..collections..btree..node..marker..Leaf$GT$$C$alloc..collections..btree..node..marker..Edge$GT$16insert_recursing17hbd73feceb6747ab4E+0x824>
   18d03:	4c 89 bd 98 fe ff ff 	mov    %r15,-0x168(%rbp)
   18d0a:	48 89 b5 a0 fe ff ff 	mov    %rsi,-0x160(%rbp)
   18d11:	48 89 9d 90 fe ff ff 	mov    %rbx,-0x170(%rbp)
   18d18:	49 ff cf             	dec    %r15
   18d1b:	48 8d bd 90 fe ff ff 	lea    -0x170(%rbp),%rdi
   18d22:	48 8d 95 30 ff ff ff 	lea    -0xd0(%rbp),%rdx
   18d29:	48 8b b5 20 ff ff ff 	mov    -0xe0(%rbp),%rsi
   18d30:	48 8b 8d 60 ff ff ff 	mov    -0xa0(%rbp),%rcx
   18d37:	4d 89 f8             	mov    %r15,%r8
   18d3a:	e8 81 06 00 00       	call   193c0 <_ZN5alloc11collections5btree4node214Handle$LT$alloc..collections..btree..node..NodeRef$LT$alloc..collections..btree..node..marker..Mut$C$K$C$V$C$alloc..collections..btree..node..marker..Internal$GT$$C$alloc..collections..btree..node..marker..Edge$GT$10insert_fit17haf9d313387f40ed6E>
   18d3f:	4c 8b b5 10 ff ff ff 	mov    -0xf0(%rbp),%r14
   18d46:	4c 8b a5 08 ff ff ff 	mov    -0xf8(%rbp),%r12
   18d4d:	48 8b 9d 28 ff ff ff 	mov    -0xd8(%rbp),%rbx
   18d54:	4d 89 34 24          	mov    %r14,(%r12)
   18d58:	48 8b 85 00 ff ff ff 	mov    -0x100(%rbp),%rax
   18d5f:	49 89 44 24 08       	mov    %rax,0x8(%r12)
   18d64:	49 89 5c 24 10       	mov    %rbx,0x10(%r12)
   18d69:	4c 89 e0             	mov    %r12,%rax
   18d6c:	48 81 c4 68 01 00 00 	add    $0x168,%rsp
   18d73:	5b                   	pop    %rbx
   18d74:	41 5c                	pop    %r12
   18d76:	41 5d                	pop    %r13
   18d78:	41 5e                	pop    %r14
   18d7a:	41 5f                	pop    %r15
   18d7c:	5d                   	pop    %rbp
   18d7d:	c3                   	ret
   18d7e:	48 8d 05 17 c6 fe ff 	lea    -0x139e9(%rip),%rax        # 539c <__abi_tag+0x5068>
   18d85:	48 89 85 70 ff ff ff 	mov    %rax,-0x90(%rbp)
   18d8c:	48 c7 85 78 ff ff ff 	movq   $0x11b,-0x88(%rbp)
   18d93:	1b 01 00 00 
   18d97:	48 8d 85 70 ff ff ff 	lea    -0x90(%rbp),%rax
   18d9e:	48 89 45 90          	mov    %rax,-0x70(%rbp)
   18da2:	48 c7 45 98 01 00 00 	movq   $0x1,-0x68(%rbp)
   18da9:	00 
   18daa:	48 c7 45 a0 08 00 00 	movq   $0x8,-0x60(%rbp)
   18db1:	00 
   18db2:	0f 57 c0             	xorps  %xmm0,%xmm0
   18db5:	0f 11 45 a8          	movups %xmm0,-0x58(%rbp)
   18db9:	48 8d 15 b8 dd 00 00 	lea    0xddb8(%rip),%rdx        # 26b78 <__frame_dummy_init_array_entry+0x3a8>
   18dc0:	48 8d 7d 90          	lea    -0x70(%rbp),%rdi
   18dc4:	31 f6                	xor    %esi,%esi
   18dc6:	ff 15 54 fb 00 00    	call   *0xfb54(%rip)        # 28920 <_DYNAMIC+0x298>
   18dcc:	48 8d 05 ef c4 fe ff 	lea    -0x13b11(%rip),%rax        # 52c2 <__abi_tag+0x4f8e>
   18dd3:	e9 b8 00 00 00       	jmp    18e90 <_ZN5alloc11collections5btree4node210Handle$LT$alloc..collections..btree..node..NodeRef$LT$alloc..collections..btree..node..marker..Mut$C$K$C$V$C$alloc..collections..btree..node..marker..Leaf$GT$$C$alloc..collections..btree..node..marker..Edge$GT$16insert_recursing17hbd73feceb6747ab4E+0x960>
   18dd8:	48 8d 05 e3 c4 fe ff 	lea    -0x13b1d(%rip),%rax        # 52c2 <__abi_tag+0x4f8e>
   18ddf:	48 89 85 70 ff ff ff 	mov    %rax,-0x90(%rbp)
   18de6:	48 c7 85 78 ff ff ff 	movq   $0xda,-0x88(%rbp)
   18ded:	da 00 00 00 
   18df1:	48 8d 85 70 ff ff ff 	lea    -0x90(%rbp),%rax
   18df8:	48 89 45 90          	mov    %rax,-0x70(%rbp)
   18dfc:	48 c7 45 98 01 00 00 	movq   $0x1,-0x68(%rbp)
   18e03:	00 
   18e04:	48 c7 45 a0 08 00 00 	movq   $0x8,-0x60(%rbp)
   18e0b:	00 
   18e0c:	0f 57 c0             	xorps  %xmm0,%xmm0
   18e0f:	0f 11 45 a8          	movups %xmm0,-0x58(%rbp)
   18e13:	48 8d 15 9e dc 00 00 	lea    0xdc9e(%rip),%rdx        # 26ab8 <__frame_dummy_init_array_entry+0x2e8>
   18e1a:	48 8d 7d 90          	lea    -0x70(%rbp),%rdi
   18e1e:	31 f6                	xor    %esi,%esi
   18e20:	ff 15 fa fa 00 00    	call   *0xfafa(%rip)        # 28920 <_DYNAMIC+0x298>
   18e26:	be 35 00 00 00       	mov    $0x35,%esi
   18e2b:	48 8d 15 26 df 00 00 	lea    0xdf26(%rip),%rdx        # 26d58 <__frame_dummy_init_array_entry+0x588>
   18e32:	48 8d 3d 14 cb fe ff 	lea    -0x134ec(%rip),%rdi        # 594d <__abi_tag+0x5619>
   18e39:	eb 1a                	jmp    18e55 <_ZN5alloc11collections5btree4node210Handle$LT$alloc..collections..btree..node..NodeRef$LT$alloc..collections..btree..node..marker..Mut$C$K$C$V$C$alloc..collections..btree..node..marker..Leaf$GT$$C$alloc..collections..btree..node..marker..Edge$GT$16insert_recursing17hbd73feceb6747ab4E+0x925>
   18e3b:	be 22 00 00 00       	mov    $0x22,%esi
   18e40:	48 8d 3d b9 c9 fe ff 	lea    -0x13647(%rip),%rdi        # 5800 <__abi_tag+0x54cc>
   18e47:	48 8d 15 da db 00 00 	lea    0xdbda(%rip),%rdx        # 26a28 <__frame_dummy_init_array_entry+0x258>
   18e4e:	4c 8b ad 68 ff ff ff 	mov    -0x98(%rbp),%r13
   18e55:	48 8b 5d d0          	mov    -0x30(%rbp),%rbx
   18e59:	ff 15 19 fb 00 00    	call   *0xfb19(%rip)        # 28978 <_DYNAMIC+0x2f0>
   18e5f:	e9 b9 03 00 00       	jmp    1921d <_ZN5alloc11collections5btree4node210Handle$LT$alloc..collections..btree..node..NodeRef$LT$alloc..collections..btree..node..marker..Mut$C$K$C$V$C$alloc..collections..btree..node..marker..Leaf$GT$$C$alloc..collections..btree..node..marker..Edge$GT$16insert_recursing17hbd73feceb6747ab4E+0xced>
   18e64:	48 8d 3d 8a ca fe ff 	lea    -0x13576(%rip),%rdi        # 58f5 <__abi_tag+0x55c1>
   18e6b:	48 8d 15 4e dd 00 00 	lea    0xdd4e(%rip),%rdx        # 26bc0 <__frame_dummy_init_array_entry+0x3f0>
   18e72:	be 2c 00 00 00       	mov    $0x2c,%esi
   18e77:	4c 8b ad 68 ff ff ff 	mov    -0x98(%rbp),%r13
   18e7e:	ff 15 f4 fa 00 00    	call   *0xfaf4(%rip)        # 28978 <_DYNAMIC+0x2f0>
   18e84:	e9 94 03 00 00       	jmp    1921d <_ZN5alloc11collections5btree4node210Handle$LT$alloc..collections..btree..node..NodeRef$LT$alloc..collections..btree..node..marker..Mut$C$K$C$V$C$alloc..collections..btree..node..marker..Leaf$GT$$C$alloc..collections..btree..node..marker..Edge$GT$16insert_recursing17hbd73feceb6747ab4E+0xced>
   18e89:	48 8d 05 c8 cb fe ff 	lea    -0x13438(%rip),%rax        # 5a58 <__abi_tag+0x5724>
   18e90:	48 89 85 70 ff ff ff 	mov    %rax,-0x90(%rbp)
   18e97:	48 c7 85 78 ff ff ff 	movq   $0xda,-0x88(%rbp)
   18e9e:	da 00 00 00 
   18ea2:	48 8d 85 70 ff ff ff 	lea    -0x90(%rbp),%rax
   18ea9:	48 89 45 90          	mov    %rax,-0x70(%rbp)
   18ead:	48 c7 45 98 01 00 00 	movq   $0x1,-0x68(%rbp)
   18eb4:	00 
   18eb5:	48 c7 45 a0 08 00 00 	movq   $0x8,-0x60(%rbp)
   18ebc:	00 
   18ebd:	0f 57 c0             	xorps  %xmm0,%xmm0
   18ec0:	0f 11 45 a8          	movups %xmm0,-0x58(%rbp)
   18ec4:	48 8d 15 45 db 00 00 	lea    0xdb45(%rip),%rdx        # 26a10 <__frame_dummy_init_array_entry+0x240>
   18ecb:	48 8d 7d 90          	lea    -0x70(%rbp),%rdi
   18ecf:	31 f6                	xor    %esi,%esi
   18ed1:	ff 15 49 fa 00 00    	call   *0xfa49(%rip)        # 28920 <_DYNAMIC+0x298>
   18ed7:	48 8d 05 d9 c5 fe ff 	lea    -0x13a27(%rip),%rax        # 54b7 <__abi_tag+0x5183>
   18ede:	48 89 85 70 ff ff ff 	mov    %rax,-0x90(%rbp)
   18ee5:	48 c7 85 78 ff ff ff 	movq   $0xda,-0x88(%rbp)
   18eec:	da 00 00 00 
   18ef0:	48 8d 85 70 ff ff ff 	lea    -0x90(%rbp),%rax
   18ef7:	48 89 45 90          	mov    %rax,-0x70(%rbp)
   18efb:	48 c7 45 98 01 00 00 	movq   $0x1,-0x68(%rbp)
   18f02:	00 
   18f03:	48 c7 45 a0 08 00 00 	movq   $0x8,-0x60(%rbp)
   18f0a:	00 
   18f0b:	0f 57 c0             	xorps  %xmm0,%xmm0
   18f0e:	0f 11 45 a8          	movups %xmm0,-0x58(%rbp)
   18f12:	48 8d 15 bf dc 00 00 	lea    0xdcbf(%rip),%rdx        # 26bd8 <__frame_dummy_init_array_entry+0x408>
   18f19:	48 8d 7d 90          	lea    -0x70(%rbp),%rdi
   18f1d:	31 f6                	xor    %esi,%esi
   18f1f:	ff 15 fb f9 00 00    	call   *0xf9fb(%rip)        # 28920 <_DYNAMIC+0x298>
   18f25:	48 8d 0d dc dc 00 00 	lea    0xdcdc(%rip),%rcx        # 26c08 <__frame_dummy_init_array_entry+0x438>
   18f2c:	ba 0b 00 00 00       	mov    $0xb,%edx
   18f31:	31 ff                	xor    %edi,%edi
   18f33:	4c 89 fe             	mov    %r15,%rsi
   18f36:	ff 15 7c fa 00 00    	call   *0xfa7c(%rip)        # 289b8 <_DYNAMIC+0x330>
   18f3c:	e9 dc 02 00 00       	jmp    1921d <_ZN5alloc11collections5btree4node210Handle$LT$alloc..collections..btree..node..NodeRef$LT$alloc..collections..btree..node..marker..Mut$C$K$C$V$C$alloc..collections..btree..node..marker..Leaf$GT$$C$alloc..collections..btree..node..marker..Edge$GT$16insert_recursing17hbd73feceb6747ab4E+0xced>
   18f41:	48 8d 0d 98 dd 00 00 	lea    0xdd98(%rip),%rcx        # 26ce0 <__frame_dummy_init_array_entry+0x510>
   18f48:	ba 0c 00 00 00       	mov    $0xc,%edx
   18f4d:	31 ff                	xor    %edi,%edi
   18f4f:	4c 8b ad 68 ff ff ff 	mov    -0x98(%rbp),%r13
   18f56:	ff 15 5c fa 00 00    	call   *0xfa5c(%rip)        # 289b8 <_DYNAMIC+0x330>
   18f5c:	e9 bc 02 00 00       	jmp    1921d <_ZN5alloc11collections5btree4node210Handle$LT$alloc..collections..btree..node..NodeRef$LT$alloc..collections..btree..node..marker..Mut$C$K$C$V$C$alloc..collections..btree..node..marker..Leaf$GT$$C$alloc..collections..btree..node..marker..Edge$GT$16insert_recursing17hbd73feceb6747ab4E+0xced>
   18f61:	48 8d 3d 65 c9 fe ff 	lea    -0x1369b(%rip),%rdi        # 58cd <__abi_tag+0x5599>
   18f68:	48 8d 15 f1 db 00 00 	lea    0xdbf1(%rip),%rdx        # 26b60 <__frame_dummy_init_array_entry+0x390>
   18f6f:	be 28 00 00 00       	mov    $0x28,%esi
   18f74:	ff 15 fe f9 00 00    	call   *0xf9fe(%rip)        # 28978 <_DYNAMIC+0x2f0>
   18f7a:	e9 9e 02 00 00       	jmp    1921d <_ZN5alloc11collections5btree4node210Handle$LT$alloc..collections..btree..node..NodeRef$LT$alloc..collections..btree..node..marker..Mut$C$K$C$V$C$alloc..collections..btree..node..marker..Leaf$GT$$C$alloc..collections..btree..node..marker..Edge$GT$16insert_recursing17hbd73feceb6747ab4E+0xced>
   18f7f:	48 8d 3d bd c8 fe ff 	lea    -0x13743(%rip),%rdi        # 5843 <__abi_tag+0x550f>
   18f86:	48 8d 15 cb da 00 00 	lea    0xdacb(%rip),%rdx        # 26a58 <__frame_dummy_init_array_entry+0x288>
   18f8d:	be 23 00 00 00       	mov    $0x23,%esi
   18f92:	ff 15 e0 f9 00 00    	call   *0xf9e0(%rip)        # 28978 <_DYNAMIC+0x2f0>
   18f98:	e9 80 02 00 00       	jmp    1921d <_ZN5alloc11collections5btree4node210Handle$LT$alloc..collections..btree..node..NodeRef$LT$alloc..collections..btree..node..marker..Mut$C$K$C$V$C$alloc..collections..btree..node..marker..Leaf$GT$$C$alloc..collections..btree..node..marker..Edge$GT$16insert_recursing17hbd73feceb6747ab4E+0xced>
   18f9d:	48 8d 05 1e c3 fe ff 	lea    -0x13ce2(%rip),%rax        # 52c2 <__abi_tag+0x4f8e>
   18fa4:	eb 68                	jmp    1900e <_ZN5alloc11collections5btree4node210Handle$LT$alloc..collections..btree..node..NodeRef$LT$alloc..collections..btree..node..marker..Mut$C$K$C$V$C$alloc..collections..btree..node..marker..Leaf$GT$$C$alloc..collections..btree..node..marker..Edge$GT$16insert_recursing17hbd73feceb6747ab4E+0xade>
   18fa6:	48 8d 05 ef c3 fe ff 	lea    -0x13c11(%rip),%rax        # 539c <__abi_tag+0x5068>
   18fad:	48 89 85 30 ff ff ff 	mov    %rax,-0xd0(%rbp)
   18fb4:	48 c7 85 38 ff ff ff 	movq   $0x11b,-0xc8(%rbp)
   18fbb:	1b 01 00 00 
   18fbf:	48 8d 85 30 ff ff ff 	lea    -0xd0(%rbp),%rax
   18fc6:	e9 d3 fd ff ff       	jmp    18d9e <_ZN5alloc11collections5btree4node210Handle$LT$alloc..collections..btree..node..NodeRef$LT$alloc..collections..btree..node..marker..Mut$C$K$C$V$C$alloc..collections..btree..node..marker..Leaf$GT$$C$alloc..collections..btree..node..marker..Edge$GT$16insert_recursing17hbd73feceb6747ab4E+0x86e>
   18fcb:	48 8d 3d 2e c8 fe ff 	lea    -0x137d2(%rip),%rdi        # 5800 <__abi_tag+0x54cc>
   18fd2:	48 8d 15 4f da 00 00 	lea    0xda4f(%rip),%rdx        # 26a28 <__frame_dummy_init_array_entry+0x258>
   18fd9:	be 22 00 00 00       	mov    $0x22,%esi
   18fde:	ff 15 94 f9 00 00    	call   *0xf994(%rip)        # 28978 <_DYNAMIC+0x2f0>
   18fe4:	e9 34 02 00 00       	jmp    1921d <_ZN5alloc11collections5btree4node210Handle$LT$alloc..collections..btree..node..NodeRef$LT$alloc..collections..btree..node..marker..Mut$C$K$C$V$C$alloc..collections..btree..node..marker..Leaf$GT$$C$alloc..collections..btree..node..marker..Edge$GT$16insert_recursing17hbd73feceb6747ab4E+0xced>
   18fe9:	48 8d 3d 05 c9 fe ff 	lea    -0x136fb(%rip),%rdi        # 58f5 <__abi_tag+0x55c1>
   18ff0:	48 8d 15 c9 db 00 00 	lea    0xdbc9(%rip),%rdx        # 26bc0 <__frame_dummy_init_array_entry+0x3f0>
   18ff7:	be 2c 00 00 00       	mov    $0x2c,%esi
   18ffc:	ff 15 76 f9 00 00    	call   *0xf976(%rip)        # 28978 <_DYNAMIC+0x2f0>
   19002:	e9 16 02 00 00       	jmp    1921d <_ZN5alloc11collections5btree4node210Handle$LT$alloc..collections..btree..node..NodeRef$LT$alloc..collections..btree..node..marker..Mut$C$K$C$V$C$alloc..collections..btree..node..marker..Leaf$GT$$C$alloc..collections..btree..node..marker..Edge$GT$16insert_recursing17hbd73feceb6747ab4E+0xced>
   19007:	48 8d 05 4a ca fe ff 	lea    -0x135b6(%rip),%rax        # 5a58 <__abi_tag+0x5724>
   1900e:	48 89 85 30 ff ff ff 	mov    %rax,-0xd0(%rbp)
   19015:	48 c7 85 38 ff ff ff 	movq   $0xda,-0xc8(%rbp)
   1901c:	da 00 00 00 
   19020:	48 8d 85 30 ff ff ff 	lea    -0xd0(%rbp),%rax
   19027:	e9 7d fe ff ff       	jmp    18ea9 <_ZN5alloc11collections5btree4node210Handle$LT$alloc..collections..btree..node..NodeRef$LT$alloc..collections..btree..node..marker..Mut$C$K$C$V$C$alloc..collections..btree..node..marker..Leaf$GT$$C$alloc..collections..btree..node..marker..Edge$GT$16insert_recursing17hbd73feceb6747ab4E+0x979>
   1902c:	48 8d 05 84 c4 fe ff 	lea    -0x13b7c(%rip),%rax        # 54b7 <__abi_tag+0x5183>
   19033:	48 89 85 30 ff ff ff 	mov    %rax,-0xd0(%rbp)
   1903a:	48 c7 85 38 ff ff ff 	movq   $0xda,-0xc8(%rbp)
   19041:	da 00 00 00 
   19045:	48 8d 85 30 ff ff ff 	lea    -0xd0(%rbp),%rax
   1904c:	e9 a6 fe ff ff       	jmp    18ef7 <_ZN5alloc11collections5btree4node210Handle$LT$alloc..collections..btree..node..NodeRef$LT$alloc..collections..btree..node..marker..Mut$C$K$C$V$C$alloc..collections..btree..node..marker..Leaf$GT$$C$alloc..collections..btree..node..marker..Edge$GT$16insert_recursing17hbd73feceb6747ab4E+0x9c7>
   19051:	48 8d 05 5f c4 fe ff 	lea    -0x13ba1(%rip),%rax        # 54b7 <__abi_tag+0x5183>
   19058:	48 89 85 30 ff ff ff 	mov    %rax,-0xd0(%rbp)
   1905f:	48 c7 85 38 ff ff ff 	movq   $0xda,-0xc8(%rbp)
   19066:	da 00 00 00 
   1906a:	48 8d 85 30 ff ff ff 	lea    -0xd0(%rbp),%rax
   19071:	48 89 45 90          	mov    %rax,-0x70(%rbp)
   19075:	48 c7 45 98 01 00 00 	movq   $0x1,-0x68(%rbp)
   1907c:	00 
   1907d:	48 c7 45 a0 08 00 00 	movq   $0x8,-0x60(%rbp)
   19084:	00 
   19085:	0f 57 c0             	xorps  %xmm0,%xmm0
   19088:	0f 11 45 a8          	movups %xmm0,-0x58(%rbp)
   1908c:	48 8d 15 5d db 00 00 	lea    0xdb5d(%rip),%rdx        # 26bf0 <__frame_dummy_init_array_entry+0x420>
   19093:	48 8d 7d 90          	lea    -0x70(%rbp),%rdi
   19097:	31 f6                	xor    %esi,%esi
   19099:	ff 15 81 f8 00 00    	call   *0xf881(%rip)        # 28920 <_DYNAMIC+0x298>
   1909f:	4d 89 c6             	mov    %r8,%r14
   190a2:	48 8d 0d 5f db 00 00 	lea    0xdb5f(%rip),%rcx        # 26c08 <__frame_dummy_init_array_entry+0x438>
   190a9:	ba 0b 00 00 00       	mov    $0xb,%edx
   190ae:	31 ff                	xor    %edi,%edi
   190b0:	4c 89 ee             	mov    %r13,%rsi
   190b3:	ff 15 ff f8 00 00    	call   *0xf8ff(%rip)        # 289b8 <_DYNAMIC+0x330>
   190b9:	e9 5f 01 00 00       	jmp    1921d <_ZN5alloc11collections5btree4node210Handle$LT$alloc..collections..btree..node..NodeRef$LT$alloc..collections..btree..node..marker..Mut$C$K$C$V$C$alloc..collections..btree..node..marker..Leaf$GT$$C$alloc..collections..btree..node..marker..Edge$GT$16insert_recursing17hbd73feceb6747ab4E+0xced>
   190be:	4d 89 c6             	mov    %r8,%r14
   190c1:	48 8d 3d 05 c8 fe ff 	lea    -0x137fb(%rip),%rdi        # 58cd <__abi_tag+0x5599>
   190c8:	48 8d 15 91 da 00 00 	lea    0xda91(%rip),%rdx        # 26b60 <__frame_dummy_init_array_entry+0x390>
   190cf:	be 28 00 00 00       	mov    $0x28,%esi
   190d4:	4c 8b 7d d0          	mov    -0x30(%rbp),%r15
   190d8:	ff 15 9a f8 00 00    	call   *0xf89a(%rip)        # 28978 <_DYNAMIC+0x2f0>
   190de:	e9 3a 01 00 00       	jmp    1921d <_ZN5alloc11collections5btree4node210Handle$LT$alloc..collections..btree..node..NodeRef$LT$alloc..collections..btree..node..marker..Mut$C$K$C$V$C$alloc..collections..btree..node..marker..Leaf$GT$$C$alloc..collections..btree..node..marker..Edge$GT$16insert_recursing17hbd73feceb6747ab4E+0xced>
   190e3:	49 89 d6             	mov    %rdx,%r14
   190e6:	48 8d 3d 56 c7 fe ff 	lea    -0x138aa(%rip),%rdi        # 5843 <__abi_tag+0x550f>
   190ed:	48 8d 15 64 d9 00 00 	lea    0xd964(%rip),%rdx        # 26a58 <__frame_dummy_init_array_entry+0x288>
   190f4:	be 23 00 00 00       	mov    $0x23,%esi
   190f9:	ff 15 79 f8 00 00    	call   *0xf879(%rip)        # 28978 <_DYNAMIC+0x2f0>
   190ff:	e9 19 01 00 00       	jmp    1921d <_ZN5alloc11collections5btree4node210Handle$LT$alloc..collections..btree..node..NodeRef$LT$alloc..collections..btree..node..marker..Mut$C$K$C$V$C$alloc..collections..btree..node..marker..Leaf$GT$$C$alloc..collections..btree..node..marker..Edge$GT$16insert_recursing17hbd73feceb6747ab4E+0xced>
   19104:	48 8d 3d 16 c8 fe ff 	lea    -0x137ea(%rip),%rdi        # 5921 <__abi_tag+0x55ed>
   1910b:	48 8d 15 b6 db 00 00 	lea    0xdbb6(%rip),%rdx        # 26cc8 <__frame_dummy_init_array_entry+0x4f8>
   19112:	be 2c 00 00 00       	mov    $0x2c,%esi
   19117:	ff 15 5b f8 00 00    	call   *0xf85b(%rip)        # 28978 <_DYNAMIC+0x2f0>
   1911d:	e9 fb 00 00 00       	jmp    1921d <_ZN5alloc11collections5btree4node210Handle$LT$alloc..collections..btree..node..NodeRef$LT$alloc..collections..btree..node..marker..Mut$C$K$C$V$C$alloc..collections..btree..node..marker..Leaf$GT$$C$alloc..collections..btree..node..marker..Edge$GT$16insert_recursing17hbd73feceb6747ab4E+0xced>
   19122:	48 8d 3d d7 c6 fe ff 	lea    -0x13929(%rip),%rdi        # 5800 <__abi_tag+0x54cc>
   19129:	48 8d 15 f8 d8 00 00 	lea    0xd8f8(%rip),%rdx        # 26a28 <__frame_dummy_init_array_entry+0x258>
   19130:	be 22 00 00 00       	mov    $0x22,%esi
   19135:	ff 15 3d f8 00 00    	call   *0xf83d(%rip)        # 28978 <_DYNAMIC+0x2f0>
   1913b:	e9 dd 00 00 00       	jmp    1921d <_ZN5alloc11collections5btree4node210Handle$LT$alloc..collections..btree..node..NodeRef$LT$alloc..collections..btree..node..marker..Mut$C$K$C$V$C$alloc..collections..btree..node..marker..Leaf$GT$$C$alloc..collections..btree..node..marker..Edge$GT$16insert_recursing17hbd73feceb6747ab4E+0xced>
   19140:	49 89 d7             	mov    %rdx,%r15
   19143:	49 89 ce             	mov    %rcx,%r14
   19146:	48 8d 3d 93 d8 00 00 	lea    0xd893(%rip),%rdi        # 269e0 <__frame_dummy_init_array_entry+0x210>
   1914d:	ff 15 05 f9 00 00    	call   *0xf905(%rip)        # 28a58 <_DYNAMIC+0x3d0>
   19153:	e9 c5 00 00 00       	jmp    1921d <_ZN5alloc11collections5btree4node210Handle$LT$alloc..collections..btree..node..NodeRef$LT$alloc..collections..btree..node..marker..Mut$C$K$C$V$C$alloc..collections..btree..node..marker..Leaf$GT$$C$alloc..collections..btree..node..marker..Edge$GT$16insert_recursing17hbd73feceb6747ab4E+0xced>
   19158:	48 8d 15 29 d9 00 00 	lea    0xd929(%rip),%rdx        # 26a88 <__frame_dummy_init_array_entry+0x2b8>
   1915f:	be 30 00 00 00       	mov    $0x30,%esi
   19164:	48 8d 3d fb c6 fe ff 	lea    -0x13905(%rip),%rdi        # 5866 <__abi_tag+0x5532>
   1916b:	eb 13                	jmp    19180 <_ZN5alloc11collections5btree4node210Handle$LT$alloc..collections..btree..node..NodeRef$LT$alloc..collections..btree..node..marker..Mut$C$K$C$V$C$alloc..collections..btree..node..marker..Leaf$GT$$C$alloc..collections..btree..node..marker..Edge$GT$16insert_recursing17hbd73feceb6747ab4E+0xc50>
   1916d:	48 8d 15 2c d9 00 00 	lea    0xd92c(%rip),%rdx        # 26aa0 <__frame_dummy_init_array_entry+0x2d0>
   19174:	be 20 00 00 00       	mov    $0x20,%esi
   19179:	48 8d 3d 60 c6 fe ff 	lea    -0x139a0(%rip),%rdi        # 57e0 <__abi_tag+0x54ac>
   19180:	ff 15 f2 f7 00 00    	call   *0xf7f2(%rip)        # 28978 <_DYNAMIC+0x2f0>
   19186:	e9 92 00 00 00       	jmp    1921d <_ZN5alloc11collections5btree4node210Handle$LT$alloc..collections..btree..node..NodeRef$LT$alloc..collections..btree..node..marker..Mut$C$K$C$V$C$alloc..collections..btree..node..marker..Leaf$GT$$C$alloc..collections..btree..node..marker..Edge$GT$16insert_recursing17hbd73feceb6747ab4E+0xced>
   1918b:	48 8d 3d b1 c6 fe ff 	lea    -0x1394f(%rip),%rdi        # 5843 <__abi_tag+0x550f>
   19192:	48 8d 15 bf d8 00 00 	lea    0xd8bf(%rip),%rdx        # 26a58 <__frame_dummy_init_array_entry+0x288>
   19199:	be 23 00 00 00       	mov    $0x23,%esi
   1919e:	ff 15 d4 f7 00 00    	call   *0xf7d4(%rip)        # 28978 <_DYNAMIC+0x2f0>
   191a4:	48 8d 05 0c c3 fe ff 	lea    -0x13cf4(%rip),%rax        # 54b7 <__abi_tag+0x5183>
   191ab:	48 89 85 30 ff ff ff 	mov    %rax,-0xd0(%rbp)
   191b2:	48 c7 85 38 ff ff ff 	movq   $0xda,-0xc8(%rbp)
   191b9:	da 00 00 00 
   191bd:	48 8d 85 30 ff ff ff 	lea    -0xd0(%rbp),%rax
   191c4:	48 89 45 90          	mov    %rax,-0x70(%rbp)
   191c8:	48 c7 45 98 01 00 00 	movq   $0x1,-0x68(%rbp)
   191cf:	00 
   191d0:	48 c7 45 a0 08 00 00 	movq   $0x8,-0x60(%rbp)
   191d7:	00 
   191d8:	0f 57 c0             	xorps  %xmm0,%xmm0
   191db:	0f 11 45 a8          	movups %xmm0,-0x58(%rbp)
   191df:	48 8d 15 b2 da 00 00 	lea    0xdab2(%rip),%rdx        # 26c98 <__frame_dummy_init_array_entry+0x4c8>
   191e6:	48 8d 7d 90          	lea    -0x70(%rbp),%rdi
   191ea:	31 f6                	xor    %esi,%esi
   191ec:	ff 15 2e f7 00 00    	call   *0xf72e(%rip)        # 28920 <_DYNAMIC+0x298>
   191f2:	48 8d 3d 77 db 00 00 	lea    0xdb77(%rip),%rdi        # 26d70 <__frame_dummy_init_array_entry+0x5a0>
   191f9:	ff 15 51 f7 00 00    	call   *0xf751(%rip)        # 28950 <_DYNAMIC+0x2c8>
   191ff:	eb 1c                	jmp    1921d <_ZN5alloc11collections5btree4node210Handle$LT$alloc..collections..btree..node..NodeRef$LT$alloc..collections..btree..node..marker..Mut$C$K$C$V$C$alloc..collections..btree..node..marker..Leaf$GT$$C$alloc..collections..btree..node..marker..Edge$GT$16insert_recursing17hbd73feceb6747ab4E+0xced>
   19201:	48 8d 3d c8 d8 00 00 	lea    0xd8c8(%rip),%rdi        # 26ad0 <__frame_dummy_init_array_entry+0x300>
   19208:	ff 15 42 f7 00 00    	call   *0xf742(%rip)        # 28950 <_DYNAMIC+0x2c8>
   1920e:	eb 0d                	jmp    1921d <_ZN5alloc11collections5btree4node210Handle$LT$alloc..collections..btree..node..NodeRef$LT$alloc..collections..btree..node..marker..Mut$C$K$C$V$C$alloc..collections..btree..node..marker..Leaf$GT$$C$alloc..collections..btree..node..marker..Edge$GT$16insert_recursing17hbd73feceb6747ab4E+0xced>
   19210:	48 8d 3d 59 d8 00 00 	lea    0xd859(%rip),%rdi        # 26a70 <__frame_dummy_init_array_entry+0x2a0>
   19217:	ff 15 c3 f7 00 00    	call   *0xf7c3(%rip)        # 289e0 <_DYNAMIC+0x358>
   1921d:	0f 0b                	ud2
   1921f:	48 89 df             	mov    %rbx,%rdi
   19222:	e8 f9 e9 ff ff       	call   17c20 <_ZN4core3ptr167drop_in_place$LT$alloc..boxed..Box$LT$alloc..collections..btree..node..InternalNode$LT$usize$C$std..sys..pal..unix..stack_overflow..thread_info..ThreadInfo$GT$$GT$$GT$17h032499cb52e66007E>
   19227:	0f 0b                	ud2
   19229:	eb 63                	jmp    1928e <_ZN5alloc11collections5btree4node210Handle$LT$alloc..collections..btree..node..NodeRef$LT$alloc..collections..btree..node..marker..Mut$C$K$C$V$C$alloc..collections..btree..node..marker..Leaf$GT$$C$alloc..collections..btree..node..marker..Edge$GT$16insert_recursing17hbd73feceb6747ab4E+0xd5e>
   1922b:	0f 0b                	ud2
   1922d:	eb 64                	jmp    19293 <_ZN5alloc11collections5btree4node210Handle$LT$alloc..collections..btree..node..NodeRef$LT$alloc..collections..btree..node..marker..Mut$C$K$C$V$C$alloc..collections..btree..node..marker..Leaf$GT$$C$alloc..collections..btree..node..marker..Edge$GT$16insert_recursing17hbd73feceb6747ab4E+0xd63>
   1922f:	e9 9f 00 00 00       	jmp    192d3 <_ZN5alloc11collections5btree4node210Handle$LT$alloc..collections..btree..node..NodeRef$LT$alloc..collections..btree..node..marker..Mut$C$K$C$V$C$alloc..collections..btree..node..marker..Leaf$GT$$C$alloc..collections..btree..node..marker..Edge$GT$16insert_recursing17hbd73feceb6747ab4E+0xda3>
   19234:	49 89 c4             	mov    %rax,%r12
   19237:	4c 89 ef             	mov    %r13,%rdi
   1923a:	48 8b 75 d0          	mov    -0x30(%rbp),%rsi
   1923e:	e9 83 00 00 00       	jmp    192c6 <_ZN5alloc11collections5btree4node210Handle$LT$alloc..collections..btree..node..NodeRef$LT$alloc..collections..btree..node..marker..Mut$C$K$C$V$C$alloc..collections..btree..node..marker..Leaf$GT$$C$alloc..collections..btree..node..marker..Edge$GT$16insert_recursing17hbd73feceb6747ab4E+0xd96>
   19243:	49 89 c4             	mov    %rax,%r12
   19246:	4c 8b ad 68 ff ff ff 	mov    -0x98(%rbp),%r13
   1924d:	e9 91 00 00 00       	jmp    192e3 <_ZN5alloc11collections5btree4node210Handle$LT$alloc..collections..btree..node..NodeRef$LT$alloc..collections..btree..node..marker..Mut$C$K$C$V$C$alloc..collections..btree..node..marker..Leaf$GT$$C$alloc..collections..btree..node..marker..Edge$GT$16insert_recursing17hbd73feceb6747ab4E+0xdb3>
   19252:	49 89 c4             	mov    %rax,%r12
   19255:	4c 89 ff             	mov    %r15,%rdi
   19258:	4c 89 f6             	mov    %r14,%rsi
   1925b:	eb 69                	jmp    192c6 <_ZN5alloc11collections5btree4node210Handle$LT$alloc..collections..btree..node..NodeRef$LT$alloc..collections..btree..node..marker..Mut$C$K$C$V$C$alloc..collections..btree..node..marker..Leaf$GT$$C$alloc..collections..btree..node..marker..Edge$GT$16insert_recursing17hbd73feceb6747ab4E+0xd96>
   1925d:	49 89 c4             	mov    %rax,%r12
   19260:	48 8b 7d c8          	mov    -0x38(%rbp),%rdi
   19264:	4c 89 f6             	mov    %r14,%rsi
   19267:	e8 44 ea ff ff       	call   17cb0 <_ZN4core3ptr189drop_in_place$LT$alloc..collections..btree..node..SplitResult$LT$usize$C$std..sys..pal..unix..stack_overflow..thread_info..ThreadInfo$C$alloc..collections..btree..node..marker..Leaf$GT$$GT$17h04dfb50a730d3555E>
   1926c:	eb 49                	jmp    192b7 <_ZN5alloc11collections5btree4node210Handle$LT$alloc..collections..btree..node..NodeRef$LT$alloc..collections..btree..node..marker..Mut$C$K$C$V$C$alloc..collections..btree..node..marker..Leaf$GT$$C$alloc..collections..btree..node..marker..Edge$GT$16insert_recursing17hbd73feceb6747ab4E+0xd87>
   1926e:	eb 23                	jmp    19293 <_ZN5alloc11collections5btree4node210Handle$LT$alloc..collections..btree..node..NodeRef$LT$alloc..collections..btree..node..marker..Mut$C$K$C$V$C$alloc..collections..btree..node..marker..Leaf$GT$$C$alloc..collections..btree..node..marker..Edge$GT$16insert_recursing17hbd73feceb6747ab4E+0xd63>
   19270:	49 89 c4             	mov    %rax,%r12
   19273:	48 8b 85 60 ff ff ff 	mov    -0xa0(%rbp),%rax
   1927a:	48 8b 78 10          	mov    0x10(%rax),%rdi
   1927e:	48 8b 70 18          	mov    0x18(%rax),%rsi
   19282:	e8 29 ea ff ff       	call   17cb0 <_ZN4core3ptr189drop_in_place$LT$alloc..collections..btree..node..SplitResult$LT$usize$C$std..sys..pal..unix..stack_overflow..thread_info..ThreadInfo$C$alloc..collections..btree..node..marker..Leaf$GT$$GT$17h04dfb50a730d3555E>
   19287:	eb 0d                	jmp    19296 <_ZN5alloc11collections5btree4node210Handle$LT$alloc..collections..btree..node..NodeRef$LT$alloc..collections..btree..node..marker..Mut$C$K$C$V$C$alloc..collections..btree..node..marker..Leaf$GT$$C$alloc..collections..btree..node..marker..Edge$GT$16insert_recursing17hbd73feceb6747ab4E+0xd66>
   19289:	49 89 c4             	mov    %rax,%r12
   1928c:	eb 21                	jmp    192af <_ZN5alloc11collections5btree4node210Handle$LT$alloc..collections..btree..node..NodeRef$LT$alloc..collections..btree..node..marker..Mut$C$K$C$V$C$alloc..collections..btree..node..marker..Leaf$GT$$C$alloc..collections..btree..node..marker..Edge$GT$16insert_recursing17hbd73feceb6747ab4E+0xd7f>
   1928e:	49 89 c4             	mov    %rax,%r12
   19291:	eb 24                	jmp    192b7 <_ZN5alloc11collections5btree4node210Handle$LT$alloc..collections..btree..node..NodeRef$LT$alloc..collections..btree..node..marker..Mut$C$K$C$V$C$alloc..collections..btree..node..marker..Leaf$GT$$C$alloc..collections..btree..node..marker..Edge$GT$16insert_recursing17hbd73feceb6747ab4E+0xd87>
   19293:	49 89 c4             	mov    %rax,%r12
   19296:	48 8b 7d c8          	mov    -0x38(%rbp),%rdi
   1929a:	48 8b 75 c0          	mov    -0x40(%rbp),%rsi
   1929e:	eb 26                	jmp    192c6 <_ZN5alloc11collections5btree4node210Handle$LT$alloc..collections..btree..node..NodeRef$LT$alloc..collections..btree..node..marker..Mut$C$K$C$V$C$alloc..collections..btree..node..marker..Leaf$GT$$C$alloc..collections..btree..node..marker..Edge$GT$16insert_recursing17hbd73feceb6747ab4E+0xd96>
   192a0:	49 89 c4             	mov    %rax,%r12
   192a3:	48 8b 7d c8          	mov    -0x38(%rbp),%rdi
   192a7:	4c 89 f6             	mov    %r14,%rsi
   192aa:	e8 01 ea ff ff       	call   17cb0 <_ZN4core3ptr189drop_in_place$LT$alloc..collections..btree..node..SplitResult$LT$usize$C$std..sys..pal..unix..stack_overflow..thread_info..ThreadInfo$C$alloc..collections..btree..node..marker..Leaf$GT$$GT$17h04dfb50a730d3555E>
   192af:	4c 89 ff             	mov    %r15,%rdi
   192b2:	e8 d9 e8 ff ff       	call   17b90 <_ZN4core3ptr163drop_in_place$LT$alloc..boxed..Box$LT$alloc..collections..btree..node..LeafNode$LT$usize$C$std..sys..pal..unix..stack_overflow..thread_info..ThreadInfo$GT$$GT$$GT$17ha89d8e81750e8d72E>
   192b7:	48 8b 85 60 ff ff ff 	mov    -0xa0(%rbp),%rax
   192be:	48 8b 78 10          	mov    0x10(%rax),%rdi
   192c2:	48 8b 70 18          	mov    0x18(%rax),%rsi
   192c6:	e8 e5 e9 ff ff       	call   17cb0 <_ZN4core3ptr189drop_in_place$LT$alloc..collections..btree..node..SplitResult$LT$usize$C$std..sys..pal..unix..stack_overflow..thread_info..ThreadInfo$C$alloc..collections..btree..node..marker..Leaf$GT$$GT$17h04dfb50a730d3555E>
   192cb:	4c 89 e7             	mov    %r12,%rdi
   192ce:	e8 bd c4 00 00       	call   25790 <_Unwind_Resume@plt>
   192d3:	49 89 c4             	mov    %rax,%r12
   192d6:	48 8b 7d c8          	mov    -0x38(%rbp),%rdi
   192da:	48 8b 75 c0          	mov    -0x40(%rbp),%rsi
   192de:	e8 cd e9 ff ff       	call   17cb0 <_ZN4core3ptr189drop_in_place$LT$alloc..collections..btree..node..SplitResult$LT$usize$C$std..sys..pal..unix..stack_overflow..thread_info..ThreadInfo$C$alloc..collections..btree..node..marker..Leaf$GT$$GT$17h04dfb50a730d3555E>
   192e3:	48 8b 5d d0          	mov    -0x30(%rbp),%rbx
   192e7:	eb 46                	jmp    1932f <_ZN5alloc11collections5btree4node210Handle$LT$alloc..collections..btree..node..NodeRef$LT$alloc..collections..btree..node..marker..Mut$C$K$C$V$C$alloc..collections..btree..node..marker..Leaf$GT$$C$alloc..collections..btree..node..marker..Edge$GT$16insert_recursing17hbd73feceb6747ab4E+0xdff>
   192e9:	49 89 c4             	mov    %rax,%r12
   192ec:	48 8b 7d c8          	mov    -0x38(%rbp),%rdi
   192f0:	48 8b 75 c0          	mov    -0x40(%rbp),%rsi
   192f4:	e8 b7 e9 ff ff       	call   17cb0 <_ZN4core3ptr189drop_in_place$LT$alloc..collections..btree..node..SplitResult$LT$usize$C$std..sys..pal..unix..stack_overflow..thread_info..ThreadInfo$C$alloc..collections..btree..node..marker..Leaf$GT$$GT$17h04dfb50a730d3555E>
   192f9:	4c 8b ad 68 ff ff ff 	mov    -0x98(%rbp),%r13
   19300:	eb 03                	jmp    19305 <_ZN5alloc11collections5btree4node210Handle$LT$alloc..collections..btree..node..NodeRef$LT$alloc..collections..btree..node..marker..Mut$C$K$C$V$C$alloc..collections..btree..node..marker..Leaf$GT$$C$alloc..collections..btree..node..marker..Edge$GT$16insert_recursing17hbd73feceb6747ab4E+0xdd5>
   19302:	49 89 c4             	mov    %rax,%r12
   19305:	48 8b 5d d0          	mov    -0x30(%rbp),%rbx
   19309:	eb 17                	jmp    19322 <_ZN5alloc11collections5btree4node210Handle$LT$alloc..collections..btree..node..NodeRef$LT$alloc..collections..btree..node..marker..Mut$C$K$C$V$C$alloc..collections..btree..node..marker..Leaf$GT$$C$alloc..collections..btree..node..marker..Edge$GT$16insert_recursing17hbd73feceb6747ab4E+0xdf2>
   1930b:	49 89 c4             	mov    %rax,%r12
   1930e:	48 8b 7d c8          	mov    -0x38(%rbp),%rdi
   19312:	48 8b 75 c0          	mov    -0x40(%rbp),%rsi
   19316:	e8 95 e9 ff ff       	call   17cb0 <_ZN4core3ptr189drop_in_place$LT$alloc..collections..btree..node..SplitResult$LT$usize$C$std..sys..pal..unix..stack_overflow..thread_info..ThreadInfo$C$alloc..collections..btree..node..marker..Leaf$GT$$GT$17h04dfb50a730d3555E>
   1931b:	48 8b 5d d0          	mov    -0x30(%rbp),%rbx
   1931f:	4d 89 fe             	mov    %r15,%r14
   19322:	4c 89 f7             	mov    %r14,%rdi
   19325:	e8 f6 e8 ff ff       	call   17c20 <_ZN4core3ptr167drop_in_place$LT$alloc..boxed..Box$LT$alloc..collections..btree..node..InternalNode$LT$usize$C$std..sys..pal..unix..stack_overflow..thread_info..ThreadInfo$GT$$GT$$GT$17h032499cb52e66007E>
   1932a:	eb 03                	jmp    1932f <_ZN5alloc11collections5btree4node210Handle$LT$alloc..collections..btree..node..NodeRef$LT$alloc..collections..btree..node..marker..Mut$C$K$C$V$C$alloc..collections..btree..node..marker..Leaf$GT$$C$alloc..collections..btree..node..marker..Edge$GT$16insert_recursing17hbd73feceb6747ab4E+0xdff>
   1932c:	49 89 c4             	mov    %rax,%r12
   1932f:	4d 85 ed             	test   %r13,%r13
   19332:	75 08                	jne    1933c <_ZN5alloc11collections5btree4node210Handle$LT$alloc..collections..btree..node..NodeRef$LT$alloc..collections..btree..node..marker..Mut$C$K$C$V$C$alloc..collections..btree..node..marker..Leaf$GT$$C$alloc..collections..btree..node..marker..Edge$GT$16insert_recursing17hbd73feceb6747ab4E+0xe0c>
   19334:	4c 89 e7             	mov    %r12,%rdi
   19337:	e8 54 c4 00 00       	call   25790 <_Unwind_Resume@plt>
   1933c:	be 01 00 00 00       	mov    $0x1,%esi
   19341:	48 89 df             	mov    %rbx,%rdi
   19344:	ff 15 4e f6 00 00    	call   *0xf64e(%rip)        # 28998 <_DYNAMIC+0x310>
   1934a:	84 c0                	test   %al,%al
   1934c:	74 1e                	je     1936c <_ZN5alloc11collections5btree4node210Handle$LT$alloc..collections..btree..node..NodeRef$LT$alloc..collections..btree..node..marker..Mut$C$K$C$V$C$alloc..collections..btree..node..marker..Leaf$GT$$C$alloc..collections..btree..node..marker..Edge$GT$16insert_recursing17hbd73feceb6747ab4E+0xe3c>
   1934e:	48 85 db             	test   %rbx,%rbx
   19351:	74 e1                	je     19334 <_ZN5alloc11collections5btree4node210Handle$LT$alloc..collections..btree..node..NodeRef$LT$alloc..collections..btree..node..marker..Mut$C$K$C$V$C$alloc..collections..btree..node..marker..Leaf$GT$$C$alloc..collections..btree..node..marker..Edge$GT$16insert_recursing17hbd73feceb6747ab4E+0xe04>
   19353:	ba 01 00 00 00       	mov    $0x1,%edx
   19358:	4c 89 ef             	mov    %r13,%rdi
   1935b:	48 89 de             	mov    %rbx,%rsi
   1935e:	ff 15 84 f5 00 00    	call   *0xf584(%rip)        # 288e8 <_DYNAMIC+0x260>
   19364:	4c 89 e7             	mov    %r12,%rdi
   19367:	e8 24 c4 00 00       	call   25790 <_Unwind_Resume@plt>
   1936c:	48 8d 05 f4 c2 fe ff 	lea    -0x13d0c(%rip),%rax        # 5667 <__abi_tag+0x5333>
   19373:	48 89 85 a8 fe ff ff 	mov    %rax,-0x158(%rbp)
   1937a:	48 c7 85 b0 fe ff ff 	movq   $0x119,-0x150(%rbp)
   19381:	19 01 00 00 
   19385:	48 8d 85 a8 fe ff ff 	lea    -0x158(%rbp),%rax
   1938c:	48 89 45 90          	mov    %rax,-0x70(%rbp)
   19390:	48 c7 45 98 01 00 00 	movq   $0x1,-0x68(%rbp)
   19397:	00 
   19398:	48 c7 45 a0 08 00 00 	movq   $0x8,-0x60(%rbp)
   1939f:	00 
   193a0:	0f 57 c0             	xorps  %xmm0,%xmm0
   193a3:	0f 11 45 a8          	movups %xmm0,-0x58(%rbp)
   193a7:	48 8d 15 0a da 00 00 	lea    0xda0a(%rip),%rdx        # 26db8 <__frame_dummy_init_array_entry+0x5e8>
   193ae:	48 8d 7d 90          	lea    -0x70(%rbp),%rdi
   193b2:	31 f6                	xor    %esi,%esi
   193b4:	ff 15 66 f5 00 00    	call   *0xf566(%rip)        # 28920 <_DYNAMIC+0x298>
   193ba:	ff 15 e8 f5 00 00    	call   *0xf5e8(%rip)        # 289a8 <_DYNAMIC+0x320>

00000000000193c0 <_ZN5alloc11collections5btree4node214Handle$LT$alloc..collections..btree..node..NodeRef$LT$alloc..collections..btree..node..marker..Mut$C$K$C$V$C$alloc..collections..btree..node..marker..Internal$GT$$C$alloc..collections..btree..node..marker..Edge$GT$10insert_fit17haf9d313387f40ed6E>:
   193c0:	55                   	push   %rbp
   193c1:	48 89 e5             	mov    %rsp,%rbp
   193c4:	41 57                	push   %r15
   193c6:	41 56                	push   %r14
   193c8:	41 55                	push   %r13
   193ca:	41 54                	push   %r12
   193cc:	53                   	push   %rbx
   193cd:	48 83 ec 58          	sub    $0x58,%rsp
   193d1:	49 89 d5             	mov    %rdx,%r13
   193d4:	4c 8b 37             	mov    (%rdi),%r14
   193d7:	45 0f b7 be c2 01 00 	movzwl 0x1c2(%r14),%r15d
   193de:	00 
   193df:	49 83 ff 0b          	cmp    $0xb,%r15
   193e3:	0f 83 8d 01 00 00    	jae    19576 <_ZN5alloc11collections5btree4node214Handle$LT$alloc..collections..btree..node..NodeRef$LT$alloc..collections..btree..node..marker..Mut$C$K$C$V$C$alloc..collections..btree..node..marker..Internal$GT$$C$alloc..collections..btree..node..marker..Edge$GT$10insert_fit17haf9d313387f40ed6E+0x1b6>
   193e9:	48 8b 57 08          	mov    0x8(%rdi),%rdx
   193ed:	48 85 d2             	test   %rdx,%rdx
   193f0:	0f 84 0e 02 00 00    	je     19604 <_ZN5alloc11collections5btree4node214Handle$LT$alloc..collections..btree..node..NodeRef$LT$alloc..collections..btree..node..marker..Mut$C$K$C$V$C$alloc..collections..btree..node..marker..Internal$GT$$C$alloc..collections..btree..node..marker..Edge$GT$10insert_fit17haf9d313387f40ed6E+0x244>
   193f6:	48 8d 42 ff          	lea    -0x1(%rdx),%rax
   193fa:	49 39 c0             	cmp    %rax,%r8
   193fd:	0f 85 88 01 00 00    	jne    1958b <_ZN5alloc11collections5btree4node214Handle$LT$alloc..collections..btree..node..NodeRef$LT$alloc..collections..btree..node..marker..Mut$C$K$C$V$C$alloc..collections..btree..node..marker..Internal$GT$$C$alloc..collections..btree..node..marker..Edge$GT$10insert_fit17haf9d313387f40ed6E+0x1cb>
   19403:	49 89 cc             	mov    %rcx,%r12
   19406:	48 89 f1             	mov    %rsi,%rcx
   19409:	48 89 55 80          	mov    %rdx,-0x80(%rbp)
   1940d:	49 ff c7             	inc    %r15
   19410:	49 8d 86 68 01 00 00 	lea    0x168(%r14),%rax
   19417:	48 8b 5f 10          	mov    0x10(%rdi),%rbx
   1941b:	48 89 c7             	mov    %rax,%rdi
   1941e:	4c 89 fe             	mov    %r15,%rsi
   19421:	48 89 da             	mov    %rbx,%rdx
   19424:	e8 37 ec ff ff       	call   18060 <_ZN5alloc11collections5btree4node12slice_insert17h4808c6f05ead0427E>
   19429:	4c 89 f7             	mov    %r14,%rdi
   1942c:	4c 89 fe             	mov    %r15,%rsi
   1942f:	48 89 da             	mov    %rbx,%rdx
   19432:	4c 89 e9             	mov    %r13,%rcx
   19435:	e8 96 ed ff ff       	call   181d0 <_ZN5alloc11collections5btree4node12slice_insert17hf269b8d2b60e2bc4E>
   1943a:	48 83 fb ff          	cmp    $0xffffffffffffffff,%rbx
   1943e:	0f 84 cf 01 00 00    	je     19613 <_ZN5alloc11collections5btree4node214Handle$LT$alloc..collections..btree..node..NodeRef$LT$alloc..collections..btree..node..marker..Mut$C$K$C$V$C$alloc..collections..btree..node..marker..Internal$GT$$C$alloc..collections..btree..node..marker..Edge$GT$10insert_fit17haf9d313387f40ed6E+0x253>
   19444:	4c 39 fb             	cmp    %r15,%rbx
   19447:	0f 83 59 01 00 00    	jae    195a6 <_ZN5alloc11collections5btree4node214Handle$LT$alloc..collections..btree..node..NodeRef$LT$alloc..collections..btree..node..marker..Mut$C$K$C$V$C$alloc..collections..btree..node..marker..Internal$GT$$C$alloc..collections..btree..node..marker..Edge$GT$10insert_fit17haf9d313387f40ed6E+0x1e6>
   1944d:	4c 89 65 88          	mov    %r12,-0x78(%rbp)
   19451:	4c 8d 6b 01          	lea    0x1(%rbx),%r13
   19455:	49 8d 86 c8 01 00 00 	lea    0x1c8(%r14),%rax
   1945c:	48 8d 4b 02          	lea    0x2(%rbx),%rcx
   19460:	4a 8d 34 ed 00 00 00 	lea    0x0(,%r13,8),%rsi
   19467:	00 
   19468:	49 89 c4             	mov    %rax,%r12
   1946b:	49 f7 d4             	not    %r12
   1946e:	4c 39 f9             	cmp    %r15,%rcx
   19471:	77 3d                	ja     194b0 <_ZN5alloc11collections5btree4node214Handle$LT$alloc..collections..btree..node..NodeRef$LT$alloc..collections..btree..node..marker..Mut$C$K$C$V$C$alloc..collections..btree..node..marker..Internal$GT$$C$alloc..collections..btree..node..marker..Edge$GT$10insert_fit17haf9d313387f40ed6E+0xf0>
   19473:	4c 39 e6             	cmp    %r12,%rsi
   19476:	0f 87 43 01 00 00    	ja     195bf <_ZN5alloc11collections5btree4node214Handle$LT$alloc..collections..btree..node..NodeRef$LT$alloc..collections..btree..node..marker..Mut$C$K$C$V$C$alloc..collections..btree..node..marker..Internal$GT$$C$alloc..collections..btree..node..marker..Edge$GT$10insert_fit17haf9d313387f40ed6E+0x1ff>
   1947c:	48 8d 14 cd 00 00 00 	lea    0x0(,%rcx,8),%rdx
   19483:	00 
   19484:	4c 39 e2             	cmp    %r12,%rdx
   19487:	0f 87 a4 00 00 00    	ja     19531 <_ZN5alloc11collections5btree4node214Handle$LT$alloc..collections..btree..node..NodeRef$LT$alloc..collections..btree..node..marker..Mut$C$K$C$V$C$alloc..collections..btree..node..marker..Internal$GT$$C$alloc..collections..btree..node..marker..Edge$GT$10insert_fit17haf9d313387f40ed6E+0x171>
   1948d:	48 89 75 90          	mov    %rsi,-0x70(%rbp)
   19491:	4a 8d 34 e8          	lea    (%rax,%r13,8),%rsi
   19495:	48 8d 3c c8          	lea    (%rax,%rcx,8),%rdi
   19499:	48 89 da             	mov    %rbx,%rdx
   1949c:	48 f7 d2             	not    %rdx
   1949f:	4c 01 fa             	add    %r15,%rdx
   194a2:	48 c1 e2 03          	shl    $0x3,%rdx
   194a6:	ff 15 bc f5 00 00    	call   *0xf5bc(%rip)        # 28a68 <memmove@GLIBC_2.2.5>
   194ac:	48 8b 75 90          	mov    -0x70(%rbp),%rsi
   194b0:	4c 39 e6             	cmp    %r12,%rsi
   194b3:	77 37                	ja     194ec <_ZN5alloc11collections5btree4node214Handle$LT$alloc..collections..btree..node..NodeRef$LT$alloc..collections..btree..node..marker..Mut$C$K$C$V$C$alloc..collections..btree..node..marker..Internal$GT$$C$alloc..collections..btree..node..marker..Edge$GT$10insert_fit17haf9d313387f40ed6E+0x12c>
   194b5:	4c 89 f9             	mov    %r15,%rcx
   194b8:	48 ff c1             	inc    %rcx
   194bb:	48 8b 45 88          	mov    -0x78(%rbp),%rax
   194bf:	49 89 84 de d0 01 00 	mov    %rax,0x1d0(%r14,%rbx,8)
   194c6:	00 
   194c7:	66 45 89 be c2 01 00 	mov    %r15w,0x1c2(%r14)
   194ce:	00 
   194cf:	4c 89 f7             	mov    %r14,%rdi
   194d2:	48 8b 75 80          	mov    -0x80(%rbp),%rsi
   194d6:	4c 89 ea             	mov    %r13,%rdx
   194d9:	48 83 c4 58          	add    $0x58,%rsp
   194dd:	5b                   	pop    %rbx
   194de:	41 5c                	pop    %r12
   194e0:	41 5d                	pop    %r13
   194e2:	41 5e                	pop    %r14
   194e4:	41 5f                	pop    %r15
   194e6:	5d                   	pop    %rbp
   194e7:	e9 24 e9 ff ff       	jmp    17e10 <_ZN5alloc11collections5btree4node119NodeRef$LT$alloc..collections..btree..node..marker..Mut$C$K$C$V$C$alloc..collections..btree..node..marker..Internal$GT$30correct_childrens_parent_links17hd5006c2086bc4c22E>
   194ec:	48 8d 05 9e c0 fe ff 	lea    -0x13f62(%rip),%rax        # 5591 <__abi_tag+0x525d>
   194f3:	48 89 45 c8          	mov    %rax,-0x38(%rbp)
   194f7:	48 c7 45 d0 d6 00 00 	movq   $0xd6,-0x30(%rbp)
   194fe:	00 
   194ff:	48 8d 45 c8          	lea    -0x38(%rbp),%rax
   19503:	48 89 45 98          	mov    %rax,-0x68(%rbp)
   19507:	48 c7 45 a0 01 00 00 	movq   $0x1,-0x60(%rbp)
   1950e:	00 
   1950f:	48 c7 45 a8 08 00 00 	movq   $0x8,-0x58(%rbp)
   19516:	00 
   19517:	0f 57 c0             	xorps  %xmm0,%xmm0
   1951a:	0f 11 45 b0          	movups %xmm0,-0x50(%rbp)
   1951e:	48 8d 15 23 d6 00 00 	lea    0xd623(%rip),%rdx        # 26b48 <__frame_dummy_init_array_entry+0x378>
   19525:	48 8d 7d 98          	lea    -0x68(%rbp),%rdi
   19529:	31 f6                	xor    %esi,%esi
   1952b:	ff 15 ef f3 00 00    	call   *0xf3ef(%rip)        # 28920 <_DYNAMIC+0x298>
   19531:	48 8d 05 59 c0 fe ff 	lea    -0x13fa7(%rip),%rax        # 5591 <__abi_tag+0x525d>
   19538:	48 89 45 c8          	mov    %rax,-0x38(%rbp)
   1953c:	48 c7 45 d0 d6 00 00 	movq   $0xd6,-0x30(%rbp)
   19543:	00 
   19544:	48 8d 45 c8          	lea    -0x38(%rbp),%rax
   19548:	48 89 45 98          	mov    %rax,-0x68(%rbp)
   1954c:	48 c7 45 a0 01 00 00 	movq   $0x1,-0x60(%rbp)
   19553:	00 
   19554:	48 c7 45 a8 08 00 00 	movq   $0x8,-0x58(%rbp)
   1955b:	00 
   1955c:	0f 57 c0             	xorps  %xmm0,%xmm0
   1955f:	0f 11 45 b0          	movups %xmm0,-0x50(%rbp)
   19563:	48 8d 15 c6 d5 00 00 	lea    0xd5c6(%rip),%rdx        # 26b30 <__frame_dummy_init_array_entry+0x360>
   1956a:	48 8d 7d 98          	lea    -0x68(%rbp),%rdi
   1956e:	31 f6                	xor    %esi,%esi
   19570:	ff 15 aa f3 00 00    	call   *0xf3aa(%rip)        # 28920 <_DYNAMIC+0x298>
   19576:	48 8d 15 7b d7 00 00 	lea    0xd77b(%rip),%rdx        # 26cf8 <__frame_dummy_init_array_entry+0x528>
   1957d:	be 2c 00 00 00       	mov    $0x2c,%esi
   19582:	48 8d 3d 98 c3 fe ff 	lea    -0x13c68(%rip),%rdi        # 5921 <__abi_tag+0x55ed>
   19589:	eb 13                	jmp    1959e <_ZN5alloc11collections5btree4node214Handle$LT$alloc..collections..btree..node..NodeRef$LT$alloc..collections..btree..node..marker..Mut$C$K$C$V$C$alloc..collections..btree..node..marker..Internal$GT$$C$alloc..collections..btree..node..marker..Edge$GT$10insert_fit17haf9d313387f40ed6E+0x1de>
   1958b:	48 8d 15 96 d7 00 00 	lea    0xd796(%rip),%rdx        # 26d28 <__frame_dummy_init_array_entry+0x558>
   19592:	be 35 00 00 00       	mov    $0x35,%esi
   19597:	48 8d 3d af c3 fe ff 	lea    -0x13c51(%rip),%rdi        # 594d <__abi_tag+0x5619>
   1959e:	ff 15 d4 f3 00 00    	call   *0xf3d4(%rip)        # 28978 <_DYNAMIC+0x2f0>
   195a4:	eb 6b                	jmp    19611 <_ZN5alloc11collections5btree4node214Handle$LT$alloc..collections..btree..node..NodeRef$LT$alloc..collections..btree..node..marker..Mut$C$K$C$V$C$alloc..collections..btree..node..marker..Internal$GT$$C$alloc..collections..btree..node..marker..Edge$GT$10insert_fit17haf9d313387f40ed6E+0x251>
   195a6:	48 8d 3d 05 c3 fe ff 	lea    -0x13cfb(%rip),%rdi        # 58b2 <__abi_tag+0x557e>
   195ad:	48 8d 15 4c d5 00 00 	lea    0xd54c(%rip),%rdx        # 26b00 <__frame_dummy_init_array_entry+0x330>
   195b4:	be 1b 00 00 00       	mov    $0x1b,%esi
   195b9:	ff 15 b9 f3 00 00    	call   *0xf3b9(%rip)        # 28978 <_DYNAMIC+0x2f0>
   195bf:	48 8d 05 cb bf fe ff 	lea    -0x14035(%rip),%rax        # 5591 <__abi_tag+0x525d>
   195c6:	48 89 45 c8          	mov    %rax,-0x38(%rbp)
   195ca:	48 c7 45 d0 d6 00 00 	movq   $0xd6,-0x30(%rbp)
   195d1:	00 
   195d2:	48 8d 45 c8          	lea    -0x38(%rbp),%rax
   195d6:	48 89 45 98          	mov    %rax,-0x68(%rbp)
   195da:	48 c7 45 a0 01 00 00 	movq   $0x1,-0x60(%rbp)
   195e1:	00 
   195e2:	48 c7 45 a8 08 00 00 	movq   $0x8,-0x58(%rbp)
   195e9:	00 
   195ea:	0f 57 c0             	xorps  %xmm0,%xmm0
   195ed:	0f 11 45 b0          	movups %xmm0,-0x50(%rbp)
   195f1:	48 8d 15 20 d5 00 00 	lea    0xd520(%rip),%rdx        # 26b18 <__frame_dummy_init_array_entry+0x348>
   195f8:	48 8d 7d 98          	lea    -0x68(%rbp),%rdi
   195fc:	31 f6                	xor    %esi,%esi
   195fe:	ff 15 1c f3 00 00    	call   *0xf31c(%rip)        # 28920 <_DYNAMIC+0x298>
   19604:	48 8d 3d 05 d7 00 00 	lea    0xd705(%rip),%rdi        # 26d10 <__frame_dummy_init_array_entry+0x540>
   1960b:	ff 15 cf f3 00 00    	call   *0xf3cf(%rip)        # 289e0 <_DYNAMIC+0x358>
   19611:	0f 0b                	ud2
   19613:	48 8d 3d 26 d7 00 00 	lea    0xd726(%rip),%rdi        # 26d40 <__frame_dummy_init_array_entry+0x570>
   1961a:	ff 15 30 f3 00 00    	call   *0xf330(%rip)        # 28950 <_DYNAMIC+0x2c8>
   19620:	48 89 c3             	mov    %rax,%rbx
   19623:	49 8b 7d 10          	mov    0x10(%r13),%rdi
   19627:	49 8b 75 18          	mov    0x18(%r13),%rsi
   1962b:	e8 80 e6 ff ff       	call   17cb0 <_ZN4core3ptr189drop_in_place$LT$alloc..collections..btree..node..SplitResult$LT$usize$C$std..sys..pal..unix..stack_overflow..thread_info..ThreadInfo$C$alloc..collections..btree..node..marker..Leaf$GT$$GT$17h04dfb50a730d3555E>
   19630:	48 89 df             	mov    %rbx,%rdi
   19633:	e8 58 c1 00 00       	call   25790 <_Unwind_Resume@plt>
   19638:	cc                   	int3
   19639:	cc                   	int3
   1963a:	cc                   	int3
   1963b:	cc                   	int3
   1963c:	cc                   	int3
   1963d:	cc                   	int3
   1963e:	cc                   	int3
   1963f:	cc                   	int3

0000000000019640 <_ZN5alloc11collections5btree4node21LeafNode$LT$K$C$V$GT$3new17ha0e3f522847526ffE>:
   19640:	55                   	push   %rbp
   19641:	48 89 e5             	mov    %rsp,%rbp
   19644:	e8 27 28 00 00       	call   1be70 <_ZN5alloc5boxed16Box$LT$T$C$A$GT$13new_uninit_in17h07a7707d4c379e04E>
   19649:	48 c7 80 60 01 00 00 	movq   $0x0,0x160(%rax)
   19650:	00 00 00 00 
   19654:	66 c7 80 c2 01 00 00 	movw   $0x0,0x1c2(%rax)
   1965b:	00 00 
   1965d:	5d                   	pop    %rbp
   1965e:	c3                   	ret
   1965f:	cc                   	int3

0000000000019660 <_ZN5alloc11collections5btree6search142_$LT$impl$u20$alloc..collections..btree..node..NodeRef$LT$BorrowType$C$K$C$V$C$alloc..collections..btree..node..marker..LeafOrInternal$GT$$GT$11search_tree17hb618ad0d20690877E>:
   19660:	55                   	push   %rbp
   19661:	48 89 e5             	mov    %rsp,%rbp
   19664:	48 83 ec 40          	sub    $0x40,%rsp
   19668:	44 0f b7 86 c2 01 00 	movzwl 0x1c2(%rsi),%r8d
   1966f:	00 
   19670:	66 41 83 f8 0b       	cmp    $0xb,%r8w
   19675:	0f 87 c6 00 00 00    	ja     19741 <_ZN5alloc11collections5btree6search142_$LT$impl$u20$alloc..collections..btree..node..NodeRef$LT$BorrowType$C$K$C$V$C$alloc..collections..btree..node..marker..LeafOrInternal$GT$$GT$11search_tree17hb618ad0d20690877E+0xe1>
   1967b:	48 8b 01             	mov    (%rcx),%rax
   1967e:	45 0f b7 c0          	movzwl %r8w,%r8d
   19682:	48 8d 8e 68 01 00 00 	lea    0x168(%rsi),%rcx
   19689:	46 8d 0c c5 00 00 00 	lea    0x0(,%r8,8),%r9d
   19690:	00 
   19691:	4c 01 c9             	add    %r9,%rcx
   19694:	0f 82 18 01 00 00    	jb     197b2 <_ZN5alloc11collections5btree6search142_$LT$impl$u20$alloc..collections..btree..node..NodeRef$LT$BorrowType$C$K$C$V$C$alloc..collections..btree..node..marker..LeafOrInternal$GT$$GT$11search_tree17hb618ad0d20690877E+0x152>
   1969a:	48 c7 c1 ff ff ff ff 	mov    $0xffffffffffffffff,%rcx
   196a1:	66 66 66 66 66 66 2e 	data16 data16 data16 data16 data16 cs nopw 0x0(%rax,%rax,1)
   196a8:	0f 1f 84 00 00 00 00 
   196af:	00 
   196b0:	4d 85 c9             	test   %r9,%r9
   196b3:	74 4b                	je     19700 <_ZN5alloc11collections5btree6search142_$LT$impl$u20$alloc..collections..btree..node..NodeRef$LT$BorrowType$C$K$C$V$C$alloc..collections..btree..node..marker..LeafOrInternal$GT$$GT$11search_tree17hb618ad0d20690877E+0xa0>
   196b5:	48 3b 84 ce 70 01 00 	cmp    0x170(%rsi,%rcx,8),%rax
   196bc:	00 
   196bd:	41 0f 97 c2          	seta   %r10b
   196c1:	41 80 da 00          	sbb    $0x0,%r10b
   196c5:	48 ff c1             	inc    %rcx
   196c8:	49 83 c1 f8          	add    $0xfffffffffffffff8,%r9
   196cc:	41 80 fa 01          	cmp    $0x1,%r10b
   196d0:	74 de                	je     196b0 <_ZN5alloc11collections5btree6search142_$LT$impl$u20$alloc..collections..btree..node..NodeRef$LT$BorrowType$C$K$C$V$C$alloc..collections..btree..node..marker..LeafOrInternal$GT$$GT$11search_tree17hb618ad0d20690877E+0x50>
   196d2:	45 0f b6 ca          	movzbl %r10b,%r9d
   196d6:	45 85 c9             	test   %r9d,%r9d
   196d9:	0f 84 a7 00 00 00    	je     19786 <_ZN5alloc11collections5btree6search142_$LT$impl$u20$alloc..collections..btree..node..NodeRef$LT$BorrowType$C$K$C$V$C$alloc..collections..btree..node..marker..LeafOrInternal$GT$$GT$11search_tree17hb618ad0d20690877E+0x126>
   196df:	4c 39 c1             	cmp    %r8,%rcx
   196e2:	0f 87 0f 01 00 00    	ja     197f7 <_ZN5alloc11collections5btree6search142_$LT$impl$u20$alloc..collections..btree..node..NodeRef$LT$BorrowType$C$K$C$V$C$alloc..collections..btree..node..marker..LeafOrInternal$GT$$GT$11search_tree17hb618ad0d20690877E+0x197>
   196e8:	48 83 ea 01          	sub    $0x1,%rdx
   196ec:	73 1f                	jae    1970d <_ZN5alloc11collections5btree6search142_$LT$impl$u20$alloc..collections..btree..node..NodeRef$LT$BorrowType$C$K$C$V$C$alloc..collections..btree..node..marker..LeafOrInternal$GT$$GT$11search_tree17hb618ad0d20690877E+0xad>
   196ee:	e9 b6 00 00 00       	jmp    197a9 <_ZN5alloc11collections5btree6search142_$LT$impl$u20$alloc..collections..btree..node..NodeRef$LT$BorrowType$C$K$C$V$C$alloc..collections..btree..node..marker..LeafOrInternal$GT$$GT$11search_tree17hb618ad0d20690877E+0x149>
   196f3:	66 66 66 66 2e 0f 1f 	data16 data16 data16 cs nopw 0x0(%rax,%rax,1)
   196fa:	84 00 00 00 00 00 
   19700:	4c 89 c1             	mov    %r8,%rcx
   19703:	48 83 ea 01          	sub    $0x1,%rdx
   19707:	0f 82 9c 00 00 00    	jb     197a9 <_ZN5alloc11collections5btree6search142_$LT$impl$u20$alloc..collections..btree..node..NodeRef$LT$BorrowType$C$K$C$V$C$alloc..collections..btree..node..marker..LeafOrInternal$GT$$GT$11search_tree17hb618ad0d20690877E+0x149>
   1970d:	48 83 f9 0c          	cmp    $0xc,%rcx
   19711:	0f 83 f9 00 00 00    	jae    19810 <_ZN5alloc11collections5btree6search142_$LT$impl$u20$alloc..collections..btree..node..NodeRef$LT$BorrowType$C$K$C$V$C$alloc..collections..btree..node..marker..LeafOrInternal$GT$$GT$11search_tree17hb618ad0d20690877E+0x1b0>
   19717:	48 8d 0c ce          	lea    (%rsi,%rcx,8),%rcx
   1971b:	48 81 c1 c8 01 00 00 	add    $0x1c8,%rcx
   19722:	f6 c1 07             	test   $0x7,%cl
   19725:	0f 85 2a 01 00 00    	jne    19855 <_ZN5alloc11collections5btree6search142_$LT$impl$u20$alloc..collections..btree..node..NodeRef$LT$BorrowType$C$K$C$V$C$alloc..collections..btree..node..marker..LeafOrInternal$GT$$GT$11search_tree17hb618ad0d20690877E+0x1f5>
   1972b:	48 8b 31             	mov    (%rcx),%rsi
   1972e:	44 0f b7 86 c2 01 00 	movzwl 0x1c2(%rsi),%r8d
   19735:	00 
   19736:	66 41 83 f8 0b       	cmp    $0xb,%r8w
   1973b:	0f 86 3d ff ff ff    	jbe    1967e <_ZN5alloc11collections5btree6search142_$LT$impl$u20$alloc..collections..btree..node..NodeRef$LT$BorrowType$C$K$C$V$C$alloc..collections..btree..node..marker..LeafOrInternal$GT$$GT$11search_tree17hb618ad0d20690877E+0x1e>
   19741:	48 8d 05 a4 ba fe ff 	lea    -0x1455c(%rip),%rax        # 51ec <__abi_tag+0x4eb8>
   19748:	48 89 45 f0          	mov    %rax,-0x10(%rbp)
   1974c:	48 c7 45 f8 d6 00 00 	movq   $0xd6,-0x8(%rbp)
   19753:	00 
   19754:	48 8d 45 f0          	lea    -0x10(%rbp),%rax
   19758:	48 89 45 c0          	mov    %rax,-0x40(%rbp)
   1975c:	48 c7 45 c8 01 00 00 	movq   $0x1,-0x38(%rbp)
   19763:	00 
   19764:	48 c7 45 d0 08 00 00 	movq   $0x8,-0x30(%rbp)
   1976b:	00 
   1976c:	0f 57 c0             	xorps  %xmm0,%xmm0
   1976f:	0f 11 45 d8          	movups %xmm0,-0x28(%rbp)
   19773:	48 8d 15 0e d6 00 00 	lea    0xd60e(%rip),%rdx        # 26d88 <__frame_dummy_init_array_entry+0x5b8>
   1977a:	48 8d 7d c0          	lea    -0x40(%rbp),%rdi
   1977e:	31 f6                	xor    %esi,%esi
   19780:	ff 15 9a f1 00 00    	call   *0xf19a(%rip)        # 28920 <_DYNAMIC+0x298>
   19786:	4c 39 c1             	cmp    %r8,%rcx
   19789:	0f 83 0b 01 00 00    	jae    1989a <_ZN5alloc11collections5btree6search142_$LT$impl$u20$alloc..collections..btree..node..NodeRef$LT$BorrowType$C$K$C$V$C$alloc..collections..btree..node..marker..LeafOrInternal$GT$$GT$11search_tree17hb618ad0d20690877E+0x23a>
   1978f:	31 c0                	xor    %eax,%eax
   19791:	48 89 77 08          	mov    %rsi,0x8(%rdi)
   19795:	48 89 57 10          	mov    %rdx,0x10(%rdi)
   19799:	48 89 4f 18          	mov    %rcx,0x18(%rdi)
   1979d:	48 89 07             	mov    %rax,(%rdi)
   197a0:	48 89 f8             	mov    %rdi,%rax
   197a3:	48 83 c4 40          	add    $0x40,%rsp
   197a7:	5d                   	pop    %rbp
   197a8:	c3                   	ret
   197a9:	b8 01 00 00 00       	mov    $0x1,%eax
   197ae:	31 d2                	xor    %edx,%edx
   197b0:	eb df                	jmp    19791 <_ZN5alloc11collections5btree6search142_$LT$impl$u20$alloc..collections..btree..node..NodeRef$LT$BorrowType$C$K$C$V$C$alloc..collections..btree..node..marker..LeafOrInternal$GT$$GT$11search_tree17hb618ad0d20690877E+0x131>
   197b2:	48 8d 05 d8 bd fe ff 	lea    -0x14228(%rip),%rax        # 5591 <__abi_tag+0x525d>
   197b9:	48 89 45 f0          	mov    %rax,-0x10(%rbp)
   197bd:	48 c7 45 f8 d6 00 00 	movq   $0xd6,-0x8(%rbp)
   197c4:	00 
   197c5:	48 8d 45 f0          	lea    -0x10(%rbp),%rax
   197c9:	48 89 45 c0          	mov    %rax,-0x40(%rbp)
   197cd:	48 c7 45 c8 01 00 00 	movq   $0x1,-0x38(%rbp)
   197d4:	00 
   197d5:	48 c7 45 d0 08 00 00 	movq   $0x8,-0x30(%rbp)
   197dc:	00 
   197dd:	0f 57 c0             	xorps  %xmm0,%xmm0
   197e0:	0f 11 45 d8          	movups %xmm0,-0x28(%rbp)
   197e4:	48 8d 15 b5 d5 00 00 	lea    0xd5b5(%rip),%rdx        # 26da0 <__frame_dummy_init_array_entry+0x5d0>
   197eb:	48 8d 7d c0          	lea    -0x40(%rbp),%rdi
   197ef:	31 f6                	xor    %esi,%esi
   197f1:	ff 15 29 f1 00 00    	call   *0xf129(%rip)        # 28920 <_DYNAMIC+0x298>
   197f7:	48 8d 3d 45 c0 fe ff 	lea    -0x13fbb(%rip),%rdi        # 5843 <__abi_tag+0x550f>
   197fe:	48 8d 15 53 d2 00 00 	lea    0xd253(%rip),%rdx        # 26a58 <__frame_dummy_init_array_entry+0x288>
   19805:	be 23 00 00 00       	mov    $0x23,%esi
   1980a:	ff 15 68 f1 00 00    	call   *0xf168(%rip)        # 28978 <_DYNAMIC+0x2f0>
   19810:	48 8d 05 6b c1 fe ff 	lea    -0x13e95(%rip),%rax        # 5982 <__abi_tag+0x564e>
   19817:	48 89 45 f0          	mov    %rax,-0x10(%rbp)
   1981b:	48 c7 45 f8 d6 00 00 	movq   $0xd6,-0x8(%rbp)
   19822:	00 
   19823:	48 8d 45 f0          	lea    -0x10(%rbp),%rax
   19827:	48 89 45 c0          	mov    %rax,-0x40(%rbp)
   1982b:	48 c7 45 c8 01 00 00 	movq   $0x1,-0x38(%rbp)
   19832:	00 
   19833:	48 c7 45 d0 08 00 00 	movq   $0x8,-0x30(%rbp)
   1983a:	00 
   1983b:	0f 57 c0             	xorps  %xmm0,%xmm0
   1983e:	0f 11 45 d8          	movups %xmm0,-0x28(%rbp)
   19842:	48 8d 15 37 d4 00 00 	lea    0xd437(%rip),%rdx        # 26c80 <__frame_dummy_init_array_entry+0x4b0>
   19849:	48 8d 7d c0          	lea    -0x40(%rbp),%rdi
   1984d:	31 f6                	xor    %esi,%esi
   1984f:	ff 15 cb f0 00 00    	call   *0xf0cb(%rip)        # 28920 <_DYNAMIC+0x298>
   19855:	48 8d 05 5b bc fe ff 	lea    -0x143a5(%rip),%rax        # 54b7 <__abi_tag+0x5183>
   1985c:	48 89 45 f0          	mov    %rax,-0x10(%rbp)
   19860:	48 c7 45 f8 da 00 00 	movq   $0xda,-0x8(%rbp)
   19867:	00 
   19868:	48 8d 45 f0          	lea    -0x10(%rbp),%rax
   1986c:	48 89 45 c0          	mov    %rax,-0x40(%rbp)
   19870:	48 c7 45 c8 01 00 00 	movq   $0x1,-0x38(%rbp)
   19877:	00 
   19878:	48 c7 45 d0 08 00 00 	movq   $0x8,-0x30(%rbp)
   1987f:	00 
   19880:	0f 57 c0             	xorps  %xmm0,%xmm0
   19883:	0f 11 45 d8          	movups %xmm0,-0x28(%rbp)
   19887:	48 8d 15 0a d4 00 00 	lea    0xd40a(%rip),%rdx        # 26c98 <__frame_dummy_init_array_entry+0x4c8>
   1988e:	48 8d 7d c0          	lea    -0x40(%rbp),%rdi
   19892:	31 f6                	xor    %esi,%esi
   19894:	ff 15 86 f0 00 00    	call   *0xf086(%rip)        # 28920 <_DYNAMIC+0x298>
   1989a:	48 8d 3d 5f bf fe ff 	lea    -0x140a1(%rip),%rdi        # 5800 <__abi_tag+0x54cc>
   198a1:	48 8d 15 80 d1 00 00 	lea    0xd180(%rip),%rdx        # 26a28 <__frame_dummy_init_array_entry+0x258>
   198a8:	be 22 00 00 00       	mov    $0x22,%esi
   198ad:	ff 15 c5 f0 00 00    	call   *0xf0c5(%rip)        # 28978 <_DYNAMIC+0x2f0>
   198b3:	cc                   	int3
   198b4:	cc                   	int3
   198b5:	cc                   	int3
   198b6:	cc                   	int3
   198b7:	cc                   	int3
   198b8:	cc                   	int3
   198b9:	cc                   	int3
   198ba:	cc                   	int3
   198bb:	cc                   	int3
   198bc:	cc                   	int3
   198bd:	cc                   	int3
   198be:	cc                   	int3
   198bf:	cc                   	int3

00000000000198c0 <_ZN103_$LT$std..sys..thread_local..abort_on_dtor_unwind..DtorUnwindGuard$u20$as$u20$core..ops..drop..Drop$GT$4drop17h637897dfe874bc69E>:
   198c0:	55                   	push   %rbp
   198c1:	48 89 e5             	mov    %rsp,%rbp
   198c4:	48 83 ec 40          	sub    $0x40,%rsp
   198c8:	48 8d 05 01 d5 00 00 	lea    0xd501(%rip),%rax        # 26dd0 <__frame_dummy_init_array_entry+0x600>
   198cf:	48 89 45 c8          	mov    %rax,-0x38(%rbp)
   198d3:	48 c7 45 d0 01 00 00 	movq   $0x1,-0x30(%rbp)
   198da:	00 
   198db:	48 c7 45 d8 08 00 00 	movq   $0x8,-0x28(%rbp)
   198e2:	00 
   198e3:	0f 57 c0             	xorps  %xmm0,%xmm0
   198e6:	0f 11 45 e0          	movups %xmm0,-0x20(%rbp)
   198ea:	48 8d 7d ff          	lea    -0x1(%rbp),%rdi
   198ee:	48 8d 75 c8          	lea    -0x38(%rbp),%rsi
   198f2:	e8 b9 4a 00 00       	call   1e3b0 <_ZN3std2io5Write9write_fmt17h6d7faffea9b289edE>
   198f7:	48 89 c7             	mov    %rax,%rdi
   198fa:	e8 e1 07 00 00       	call   1a0e0 <_ZN4core3ptr81drop_in_place$LT$core..result..Result$LT$$LP$$RP$$C$std..io..error..Error$GT$$GT$17h85d4474377f30692E>
   198ff:	ff 15 d3 f0 00 00    	call   *0xf0d3(%rip)        # 289d8 <_DYNAMIC+0x350>
   19905:	cc                   	int3
   19906:	cc                   	int3
   19907:	cc                   	int3
   19908:	cc                   	int3
   19909:	cc                   	int3
   1990a:	cc                   	int3
   1990b:	cc                   	int3
   1990c:	cc                   	int3
   1990d:	cc                   	int3
   1990e:	cc                   	int3
   1990f:	cc                   	int3

0000000000019910 <_ZN3std2io17default_write_fmt17hb185f31fcc69145eE>:
   19910:	55                   	push   %rbp
   19911:	48 89 e5             	mov    %rsp,%rbp
   19914:	53                   	push   %rbx
   19915:	48 83 ec 48          	sub    $0x48,%rsp
   19919:	48 89 f2             	mov    %rsi,%rdx
   1991c:	48 89 7d e8          	mov    %rdi,-0x18(%rbp)
   19920:	48 c7 45 f0 00 00 00 	movq   $0x0,-0x10(%rbp)
   19927:	00 
   19928:	48 8d 35 a9 c2 fe ff 	lea    -0x13d57(%rip),%rsi        # 5bd8 <__abi_tag+0x58a4>
   1992f:	48 8d 7d e8          	lea    -0x18(%rbp),%rdi
   19933:	ff 15 07 f1 00 00    	call   *0xf107(%rip)        # 28a40 <_DYNAMIC+0x3b8>
   19939:	89 c1                	mov    %eax,%ecx
   1993b:	48 8b 45 f0          	mov    -0x10(%rbp),%rax
   1993f:	84 c9                	test   %cl,%cl
   19941:	74 0c                	je     1994f <_ZN3std2io17default_write_fmt17hb185f31fcc69145eE+0x3f>
   19943:	48 85 c0             	test   %rax,%rax
   19946:	74 1d                	je     19965 <_ZN3std2io17default_write_fmt17hb185f31fcc69145eE+0x55>
   19948:	48 83 c4 48          	add    $0x48,%rsp
   1994c:	5b                   	pop    %rbx
   1994d:	5d                   	pop    %rbp
   1994e:	c3                   	ret
   1994f:	48 85 c0             	test   %rax,%rax
   19952:	74 08                	je     1995c <_ZN3std2io17default_write_fmt17hb185f31fcc69145eE+0x4c>
   19954:	48 89 c7             	mov    %rax,%rdi
   19957:	e8 84 05 00 00       	call   19ee0 <_ZN4core3ptr42drop_in_place$LT$std..io..error..Error$GT$17hbf98a7ea96b12467E>
   1995c:	31 c0                	xor    %eax,%eax
   1995e:	48 83 c4 48          	add    $0x48,%rsp
   19962:	5b                   	pop    %rbx
   19963:	5d                   	pop    %rbp
   19964:	c3                   	ret
   19965:	48 8d 05 74 d4 00 00 	lea    0xd474(%rip),%rax        # 26de0 <__frame_dummy_init_array_entry+0x610>
   1996c:	48 89 45 b8          	mov    %rax,-0x48(%rbp)
   19970:	48 c7 45 c0 01 00 00 	movq   $0x1,-0x40(%rbp)
   19977:	00 
   19978:	48 c7 45 c8 08 00 00 	movq   $0x8,-0x38(%rbp)
   1997f:	00 
   19980:	0f 57 c0             	xorps  %xmm0,%xmm0
   19983:	0f 11 45 d0          	movups %xmm0,-0x30(%rbp)
   19987:	48 8d 35 62 d4 00 00 	lea    0xd462(%rip),%rsi        # 26df0 <__frame_dummy_init_array_entry+0x620>
   1998e:	48 8d 7d b8          	lea    -0x48(%rbp),%rdi
   19992:	ff 15 a0 ef 00 00    	call   *0xefa0(%rip)        # 28938 <_DYNAMIC+0x2b0>
   19998:	0f 0b                	ud2
   1999a:	48 89 c3             	mov    %rax,%rbx
   1999d:	48 8b 7d f0          	mov    -0x10(%rbp),%rdi
   199a1:	48 85 ff             	test   %rdi,%rdi
   199a4:	74 05                	je     199ab <_ZN3std2io17default_write_fmt17hb185f31fcc69145eE+0x9b>
   199a6:	e8 35 05 00 00       	call   19ee0 <_ZN4core3ptr42drop_in_place$LT$std..io..error..Error$GT$17hbf98a7ea96b12467E>
   199ab:	48 89 df             	mov    %rbx,%rdi
   199ae:	e8 dd bd 00 00       	call   25790 <_Unwind_Resume@plt>
   199b3:	ff 15 6f ef 00 00    	call   *0xef6f(%rip)        # 28928 <_DYNAMIC+0x2a0>
   199b9:	cc                   	int3
   199ba:	cc                   	int3
   199bb:	cc                   	int3
   199bc:	cc                   	int3
   199bd:	cc                   	int3
   199be:	cc                   	int3
   199bf:	cc                   	int3

00000000000199c0 <_ZN3std3sys12thread_local6native5eager16Storage$LT$T$GT$10initialize17hcaffc6cad709d818E>:
   199c0:	55                   	push   %rbp
   199c1:	48 89 e5             	mov    %rsp,%rbp
   199c4:	53                   	push   %rbx
   199c5:	50                   	push   %rax
   199c6:	48 89 fb             	mov    %rdi,%rbx
   199c9:	48 8d 35 20 00 00 00 	lea    0x20(%rip),%rsi        # 199f0 <_ZN3std3sys12thread_local6native5eager7destroy17h1d25b0ba6e9ab218E>
   199d0:	ff 15 a2 f0 00 00    	call   *0xf0a2(%rip)        # 28a78 <_DYNAMIC+0x3f0>
   199d6:	c6 43 08 01          	movb   $0x1,0x8(%rbx)
   199da:	48 89 d8             	mov    %rbx,%rax
   199dd:	48 83 c4 08          	add    $0x8,%rsp
   199e1:	5b                   	pop    %rbx
   199e2:	5d                   	pop    %rbp
   199e3:	c3                   	ret
   199e4:	cc                   	int3
   199e5:	cc                   	int3
   199e6:	cc                   	int3
   199e7:	cc                   	int3
   199e8:	cc                   	int3
   199e9:	cc                   	int3
   199ea:	cc                   	int3
   199eb:	cc                   	int3
   199ec:	cc                   	int3
   199ed:	cc                   	int3
   199ee:	cc                   	int3
   199ef:	cc                   	int3

00000000000199f0 <_ZN3std3sys12thread_local6native5eager7destroy17h1d25b0ba6e9ab218E>:
   199f0:	55                   	push   %rbp
   199f1:	48 89 e5             	mov    %rsp,%rbp
   199f4:	48 83 ec 30          	sub    $0x30,%rsp
   199f8:	48 89 fe             	mov    %rdi,%rsi
   199fb:	40 f6 c6 07          	test   $0x7,%sil
   199ff:	75 67                	jne    19a68 <_ZN3std3sys12thread_local6native5eager7destroy17h1d25b0ba6e9ab218E+0x78>
   19a01:	48 85 f6             	test   %rsi,%rsi
   19a04:	74 74                	je     19a7a <_ZN3std3sys12thread_local6native5eager7destroy17h1d25b0ba6e9ab218E+0x8a>
   19a06:	c6 46 08 02          	movb   $0x2,0x8(%rsi)
   19a0a:	48 8b 06             	mov    (%rsi),%rax
   19a0d:	48 85 c0             	test   %rax,%rax
   19a10:	74 1b                	je     19a2d <_ZN3std3sys12thread_local6native5eager7destroy17h1d25b0ba6e9ab218E+0x3d>
   19a12:	f0 48 ff 08          	lock decq (%rax)
   19a16:	75 15                	jne    19a2d <_ZN3std3sys12thread_local6native5eager7destroy17h1d25b0ba6e9ab218E+0x3d>
   19a18:	48 8b 06             	mov    (%rsi),%rax
   19a1b:	48 3b 05 ee ef 00 00 	cmp    0xefee(%rip),%rax        # 28a10 <_DYNAMIC+0x388>
   19a22:	74 0f                	je     19a33 <_ZN3std3sys12thread_local6native5eager7destroy17h1d25b0ba6e9ab218E+0x43>
   19a24:	48 89 f7             	mov    %rsi,%rdi
   19a27:	ff 15 53 f0 00 00    	call   *0xf053(%rip)        # 28a80 <_DYNAMIC+0x3f8>
   19a2d:	48 83 c4 30          	add    $0x30,%rsp
   19a31:	5d                   	pop    %rbp
   19a32:	c3                   	ret
   19a33:	48 8d 05 be d4 00 00 	lea    0xd4be(%rip),%rax        # 26ef8 <__frame_dummy_init_array_entry+0x728>
   19a3a:	48 89 45 d0          	mov    %rax,-0x30(%rbp)
   19a3e:	48 c7 45 d8 01 00 00 	movq   $0x1,-0x28(%rbp)
   19a45:	00 
   19a46:	48 c7 45 e0 08 00 00 	movq   $0x8,-0x20(%rbp)
   19a4d:	00 
   19a4e:	0f 57 c0             	xorps  %xmm0,%xmm0
   19a51:	0f 11 45 e8          	movups %xmm0,-0x18(%rbp)
   19a55:	48 8d 35 ac d4 00 00 	lea    0xd4ac(%rip),%rsi        # 26f08 <__frame_dummy_init_array_entry+0x738>
   19a5c:	48 8d 7d d0          	lea    -0x30(%rbp),%rdi
   19a60:	ff 15 d2 ee 00 00    	call   *0xeed2(%rip)        # 28938 <_DYNAMIC+0x2b0>
   19a66:	eb 24                	jmp    19a8c <_ZN3std3sys12thread_local6native5eager7destroy17h1d25b0ba6e9ab218E+0x9c>
   19a68:	48 8d 15 01 d4 00 00 	lea    0xd401(%rip),%rdx        # 26e70 <__frame_dummy_init_array_entry+0x6a0>
   19a6f:	bf 08 00 00 00       	mov    $0x8,%edi
   19a74:	ff 15 c6 ee 00 00    	call   *0xeec6(%rip)        # 28940 <_DYNAMIC+0x2b8>
   19a7a:	48 8d 3d ef d3 00 00 	lea    0xd3ef(%rip),%rdi        # 26e70 <__frame_dummy_init_array_entry+0x6a0>
   19a81:	ff 15 c1 ee 00 00    	call   *0xeec1(%rip)        # 28948 <_DYNAMIC+0x2c0>
   19a87:	e8 34 fe ff ff       	call   198c0 <_ZN103_$LT$std..sys..thread_local..abort_on_dtor_unwind..DtorUnwindGuard$u20$as$u20$core..ops..drop..Drop$GT$4drop17h637897dfe874bc69E>
   19a8c:	0f 0b                	ud2
   19a8e:	ff 15 94 ee 00 00    	call   *0xee94(%rip)        # 28928 <_DYNAMIC+0x2a0>
   19a94:	cc                   	int3
   19a95:	cc                   	int3
   19a96:	cc                   	int3
   19a97:	cc                   	int3
   19a98:	cc                   	int3
   19a99:	cc                   	int3
   19a9a:	cc                   	int3
   19a9b:	cc                   	int3
   19a9c:	cc                   	int3
   19a9d:	cc                   	int3
   19a9e:	cc                   	int3
   19a9f:	cc                   	int3

0000000000019aa0 <_ZN3std3sys5alloc16realloc_fallback17ha8c6cc512c65fa28E>:
   19aa0:	55                   	push   %rbp
   19aa1:	48 89 e5             	mov    %rsp,%rbp
   19aa4:	41 57                	push   %r15
   19aa6:	41 56                	push   %r14
   19aa8:	41 54                	push   %r12
   19aaa:	53                   	push   %rbx
   19aab:	48 83 ec 40          	sub    $0x40,%rsp
   19aaf:	4d 89 c7             	mov    %r8,%r15
   19ab2:	49 89 ce             	mov    %rcx,%r14
   19ab5:	49 89 d4             	mov    %rdx,%r12
   19ab8:	48 89 f3             	mov    %rsi,%rbx
   19abb:	4c 89 c7             	mov    %r8,%rdi
   19abe:	48 89 d6             	mov    %rdx,%rsi
   19ac1:	ff 15 d1 ee 00 00    	call   *0xeed1(%rip)        # 28998 <_DYNAMIC+0x310>
   19ac7:	84 c0                	test   %al,%al
   19ac9:	0f 84 ee 00 00 00    	je     19bbd <_ZN3std3sys5alloc16realloc_fallback17ha8c6cc512c65fa28E+0x11d>
   19acf:	49 83 fc 11          	cmp    $0x11,%r12
   19ad3:	0f 92 c0             	setb   %al
   19ad6:	4d 39 fc             	cmp    %r15,%r12
   19ad9:	0f 96 c1             	setbe  %cl
   19adc:	84 c8                	test   %cl,%al
   19ade:	75 33                	jne    19b13 <_ZN3std3sys5alloc16realloc_fallback17ha8c6cc512c65fa28E+0x73>
   19ae0:	48 c7 45 a0 00 00 00 	movq   $0x0,-0x60(%rbp)
   19ae7:	00 
   19ae8:	49 83 fc 09          	cmp    $0x9,%r12
   19aec:	be 08 00 00 00       	mov    $0x8,%esi
   19af1:	49 0f 43 f4          	cmovae %r12,%rsi
   19af5:	48 8d 7d a0          	lea    -0x60(%rbp),%rdi
   19af9:	4c 89 fa             	mov    %r15,%rdx
   19afc:	ff 15 8e ef 00 00    	call   *0xef8e(%rip)        # 28a90 <posix_memalign@GLIBC_2.2.5>
   19b02:	85 c0                	test   %eax,%eax
   19b04:	75 09                	jne    19b0f <_ZN3std3sys5alloc16realloc_fallback17ha8c6cc512c65fa28E+0x6f>
   19b06:	48 8b 45 a0          	mov    -0x60(%rbp),%rax
   19b0a:	48 85 c0             	test   %rax,%rax
   19b0d:	75 12                	jne    19b21 <_ZN3std3sys5alloc16realloc_fallback17ha8c6cc512c65fa28E+0x81>
   19b0f:	31 c0                	xor    %eax,%eax
   19b11:	eb 58                	jmp    19b6b <_ZN3std3sys5alloc16realloc_fallback17ha8c6cc512c65fa28E+0xcb>
   19b13:	4c 89 ff             	mov    %r15,%rdi
   19b16:	ff 15 7c ef 00 00    	call   *0xef7c(%rip)        # 28a98 <malloc@GLIBC_2.2.5>
   19b1c:	48 85 c0             	test   %rax,%rax
   19b1f:	74 ee                	je     19b0f <_ZN3std3sys5alloc16realloc_fallback17ha8c6cc512c65fa28E+0x6f>
   19b21:	4d 39 f7             	cmp    %r14,%r15
   19b24:	4d 0f 42 f7          	cmovb  %r15,%r14
   19b28:	4d 85 f6             	test   %r14,%r14
   19b2b:	0f 94 c1             	sete   %cl
   19b2e:	48 85 db             	test   %rbx,%rbx
   19b31:	0f 95 c2             	setne  %dl
   19b34:	08 ca                	or     %cl,%dl
   19b36:	74 40                	je     19b78 <_ZN3std3sys5alloc16realloc_fallback17ha8c6cc512c65fa28E+0xd8>
   19b38:	48 89 d9             	mov    %rbx,%rcx
   19b3b:	48 29 c1             	sub    %rax,%rcx
   19b3e:	48 89 c2             	mov    %rax,%rdx
   19b41:	48 29 da             	sub    %rbx,%rdx
   19b44:	48 0f 42 d1          	cmovb  %rcx,%rdx
   19b48:	4c 39 f2             	cmp    %r14,%rdx
   19b4b:	72 2b                	jb     19b78 <_ZN3std3sys5alloc16realloc_fallback17ha8c6cc512c65fa28E+0xd8>
   19b4d:	48 89 c7             	mov    %rax,%rdi
   19b50:	48 89 de             	mov    %rbx,%rsi
   19b53:	4c 89 f2             	mov    %r14,%rdx
   19b56:	49 89 c6             	mov    %rax,%r14
   19b59:	ff 15 51 ee 00 00    	call   *0xee51(%rip)        # 289b0 <memcpy@GLIBC_2.14>
   19b5f:	48 89 df             	mov    %rbx,%rdi
   19b62:	ff 15 38 ef 00 00    	call   *0xef38(%rip)        # 28aa0 <free@GLIBC_2.2.5>
   19b68:	4c 89 f0             	mov    %r14,%rax
   19b6b:	48 83 c4 40          	add    $0x40,%rsp
   19b6f:	5b                   	pop    %rbx
   19b70:	41 5c                	pop    %r12
   19b72:	41 5e                	pop    %r14
   19b74:	41 5f                	pop    %r15
   19b76:	5d                   	pop    %rbp
   19b77:	c3                   	ret
   19b78:	48 8d 05 01 c1 fe ff 	lea    -0x13eff(%rip),%rax        # 5c80 <__abi_tag+0x594c>
   19b7f:	48 89 45 d0          	mov    %rax,-0x30(%rbp)
   19b83:	48 c7 45 d8 1b 01 00 	movq   $0x11b,-0x28(%rbp)
   19b8a:	00 
   19b8b:	48 8d 45 d0          	lea    -0x30(%rbp),%rax
   19b8f:	48 89 45 a0          	mov    %rax,-0x60(%rbp)
   19b93:	48 c7 45 a8 01 00 00 	movq   $0x1,-0x58(%rbp)
   19b9a:	00 
   19b9b:	48 c7 45 b0 08 00 00 	movq   $0x8,-0x50(%rbp)
   19ba2:	00 
   19ba3:	0f 57 c0             	xorps  %xmm0,%xmm0
   19ba6:	0f 11 45 b8          	movups %xmm0,-0x48(%rbp)
   19baa:	48 8d 15 a7 d2 00 00 	lea    0xd2a7(%rip),%rdx        # 26e58 <__frame_dummy_init_array_entry+0x688>
   19bb1:	48 8d 7d a0          	lea    -0x60(%rbp),%rdi
   19bb5:	31 f6                	xor    %esi,%esi
   19bb7:	ff 15 63 ed 00 00    	call   *0xed63(%rip)        # 28920 <_DYNAMIC+0x298>
   19bbd:	48 8d 05 a9 c2 fe ff 	lea    -0x13d57(%rip),%rax        # 5e6d <__abi_tag+0x5b39>
   19bc4:	48 89 45 d0          	mov    %rax,-0x30(%rbp)
   19bc8:	48 c7 45 d8 19 01 00 	movq   $0x119,-0x28(%rbp)
   19bcf:	00 
   19bd0:	48 8d 45 d0          	lea    -0x30(%rbp),%rax
   19bd4:	48 89 45 a0          	mov    %rax,-0x60(%rbp)
   19bd8:	48 c7 45 a8 01 00 00 	movq   $0x1,-0x58(%rbp)
   19bdf:	00 
   19be0:	48 c7 45 b0 08 00 00 	movq   $0x8,-0x50(%rbp)
   19be7:	00 
   19be8:	0f 57 c0             	xorps  %xmm0,%xmm0
   19beb:	0f 11 45 b8          	movups %xmm0,-0x48(%rbp)
   19bef:	48 8d 15 92 d2 00 00 	lea    0xd292(%rip),%rdx        # 26e88 <__frame_dummy_init_array_entry+0x6b8>
   19bf6:	48 8d 7d a0          	lea    -0x60(%rbp),%rdi
   19bfa:	31 f6                	xor    %esi,%esi
   19bfc:	ff 15 1e ed 00 00    	call   *0xed1e(%rip)        # 28920 <_DYNAMIC+0x298>
   19c02:	ff 15 a0 ed 00 00    	call   *0xeda0(%rip)        # 289a8 <_DYNAMIC+0x320>
   19c08:	cc                   	int3
   19c09:	cc                   	int3
   19c0a:	cc                   	int3
   19c0b:	cc                   	int3
   19c0c:	cc                   	int3
   19c0d:	cc                   	int3
   19c0e:	cc                   	int3
   19c0f:	cc                   	int3

0000000000019c10 <_ZN3std6thread5local17LocalKey$LT$T$GT$4with17h062dc54ba55b9915E>:
   19c10:	55                   	push   %rbp
   19c11:	48 89 e5             	mov    %rsp,%rbp
   19c14:	48 89 f8             	mov    %rdi,%rax
   19c17:	31 ff                	xor    %edi,%edi
   19c19:	ff 10                	call   *(%rax)
   19c1b:	48 85 c0             	test   %rax,%rax
   19c1e:	74 06                	je     19c26 <_ZN3std6thread5local17LocalKey$LT$T$GT$4with17h062dc54ba55b9915E+0x16>
   19c20:	c6 40 08 00          	movb   $0x0,0x8(%rax)
   19c24:	5d                   	pop    %rbp
   19c25:	c3                   	ret
   19c26:	48 8d 3d 73 d2 00 00 	lea    0xd273(%rip),%rdi        # 26ea0 <__frame_dummy_init_array_entry+0x6d0>
   19c2d:	ff 15 85 ee 00 00    	call   *0xee85(%rip)        # 28ab8 <_DYNAMIC+0x430>
   19c33:	cc                   	int3
   19c34:	cc                   	int3
   19c35:	cc                   	int3
   19c36:	cc                   	int3
   19c37:	cc                   	int3
   19c38:	cc                   	int3
   19c39:	cc                   	int3
   19c3a:	cc                   	int3
   19c3b:	cc                   	int3
   19c3c:	cc                   	int3
   19c3d:	cc                   	int3
   19c3e:	cc                   	int3
   19c3f:	cc                   	int3

0000000000019c40 <_ZN3std6thread5local17LocalKey$LT$T$GT$4with17h4bea78cd741c6655E>:
   19c40:	55                   	push   %rbp
   19c41:	48 89 e5             	mov    %rsp,%rbp
   19c44:	48 89 f8             	mov    %rdi,%rax
   19c47:	31 ff                	xor    %edi,%edi
   19c49:	ff 10                	call   *(%rax)
   19c4b:	48 85 c0             	test   %rax,%rax
   19c4e:	74 09                	je     19c59 <_ZN3std6thread5local17LocalKey$LT$T$GT$4with17h4bea78cd741c6655E+0x19>
   19c50:	48 83 38 00          	cmpq   $0x0,(%rax)
   19c54:	0f 94 c0             	sete   %al
   19c57:	5d                   	pop    %rbp
   19c58:	c3                   	ret
   19c59:	48 8d 3d 40 d2 00 00 	lea    0xd240(%rip),%rdi        # 26ea0 <__frame_dummy_init_array_entry+0x6d0>
   19c60:	ff 15 52 ee 00 00    	call   *0xee52(%rip)        # 28ab8 <_DYNAMIC+0x430>
   19c66:	cc                   	int3
   19c67:	cc                   	int3
   19c68:	cc                   	int3
   19c69:	cc                   	int3
   19c6a:	cc                   	int3
   19c6b:	cc                   	int3
   19c6c:	cc                   	int3
   19c6d:	cc                   	int3
   19c6e:	cc                   	int3
   19c6f:	cc                   	int3

0000000000019c70 <_ZN3std6thread5local17LocalKey$LT$T$GT$4with17h7dc53dcdb8e8f155E>:
   19c70:	55                   	push   %rbp
   19c71:	48 89 e5             	mov    %rsp,%rbp
   19c74:	53                   	push   %rbx
   19c75:	50                   	push   %rax
   19c76:	48 89 f8             	mov    %rdi,%rax
   19c79:	0f b6 1e             	movzbl (%rsi),%ebx
   19c7c:	31 ff                	xor    %edi,%edi
   19c7e:	ff 10                	call   *(%rax)
   19c80:	48 85 c0             	test   %rax,%rax
   19c83:	74 25                	je     19caa <_ZN3std6thread5local17LocalKey$LT$T$GT$4with17h7dc53dcdb8e8f155E+0x3a>
   19c85:	b1 01                	mov    $0x1,%cl
   19c87:	80 78 08 00          	cmpb   $0x0,0x8(%rax)
   19c8b:	75 14                	jne    19ca1 <_ZN3std6thread5local17LocalKey$LT$T$GT$4with17h7dc53dcdb8e8f155E+0x31>
   19c8d:	48 8b 08             	mov    (%rax),%rcx
   19c90:	48 83 f9 ff          	cmp    $0xffffffffffffffff,%rcx
   19c94:	74 21                	je     19cb7 <_ZN3std6thread5local17LocalKey$LT$T$GT$4with17h7dc53dcdb8e8f155E+0x47>
   19c96:	48 ff c1             	inc    %rcx
   19c99:	48 89 08             	mov    %rcx,(%rax)
   19c9c:	88 58 08             	mov    %bl,0x8(%rax)
   19c9f:	b1 02                	mov    $0x2,%cl
   19ca1:	89 c8                	mov    %ecx,%eax
   19ca3:	48 83 c4 08          	add    $0x8,%rsp
   19ca7:	5b                   	pop    %rbx
   19ca8:	5d                   	pop    %rbp
   19ca9:	c3                   	ret
   19caa:	48 8d 3d ef d1 00 00 	lea    0xd1ef(%rip),%rdi        # 26ea0 <__frame_dummy_init_array_entry+0x6d0>
   19cb1:	ff 15 01 ee 00 00    	call   *0xee01(%rip)        # 28ab8 <_DYNAMIC+0x430>
   19cb7:	48 8d 3d 22 d2 00 00 	lea    0xd222(%rip),%rdi        # 26ee0 <__frame_dummy_init_array_entry+0x710>
   19cbe:	ff 15 8c ec 00 00    	call   *0xec8c(%rip)        # 28950 <_DYNAMIC+0x2c8>
   19cc4:	cc                   	int3
   19cc5:	cc                   	int3
   19cc6:	cc                   	int3
   19cc7:	cc                   	int3
   19cc8:	cc                   	int3
   19cc9:	cc                   	int3
   19cca:	cc                   	int3
   19ccb:	cc                   	int3
   19ccc:	cc                   	int3
   19ccd:	cc                   	int3
   19cce:	cc                   	int3
   19ccf:	cc                   	int3

0000000000019cd0 <_ZN3std6thread5local17LocalKey$LT$T$GT$4with17h7ebfa65e12a6efc1E>:
   19cd0:	55                   	push   %rbp
   19cd1:	48 89 e5             	mov    %rsp,%rbp
   19cd4:	48 89 f8             	mov    %rdi,%rax
   19cd7:	31 ff                	xor    %edi,%edi
   19cd9:	ff 10                	call   *(%rax)
   19cdb:	48 85 c0             	test   %rax,%rax
   19cde:	74 05                	je     19ce5 <_ZN3std6thread5local17LocalKey$LT$T$GT$4with17h7ebfa65e12a6efc1E+0x15>
   19ce0:	48 8b 00             	mov    (%rax),%rax
   19ce3:	5d                   	pop    %rbp
   19ce4:	c3                   	ret
   19ce5:	48 8d 3d b4 d1 00 00 	lea    0xd1b4(%rip),%rdi        # 26ea0 <__frame_dummy_init_array_entry+0x6d0>
   19cec:	ff 15 c6 ed 00 00    	call   *0xedc6(%rip)        # 28ab8 <_DYNAMIC+0x430>
   19cf2:	cc                   	int3
   19cf3:	cc                   	int3
   19cf4:	cc                   	int3
   19cf5:	cc                   	int3
   19cf6:	cc                   	int3
   19cf7:	cc                   	int3
   19cf8:	cc                   	int3
   19cf9:	cc                   	int3
   19cfa:	cc                   	int3
   19cfb:	cc                   	int3
   19cfc:	cc                   	int3
   19cfd:	cc                   	int3
   19cfe:	cc                   	int3
   19cff:	cc                   	int3

0000000000019d00 <_ZN3std6thread5local17LocalKey$LT$T$GT$4with17hdd88c8769cfb0032E>:
   19d00:	55                   	push   %rbp
   19d01:	48 89 e5             	mov    %rsp,%rbp
   19d04:	48 89 f8             	mov    %rdi,%rax
   19d07:	31 ff                	xor    %edi,%edi
   19d09:	ff 10                	call   *(%rax)
   19d0b:	48 85 c0             	test   %rax,%rax
   19d0e:	74 14                	je     19d24 <_ZN3std6thread5local17LocalKey$LT$T$GT$4with17hdd88c8769cfb0032E+0x24>
   19d10:	48 8b 08             	mov    (%rax),%rcx
   19d13:	48 85 c9             	test   %rcx,%rcx
   19d16:	74 19                	je     19d31 <_ZN3std6thread5local17LocalKey$LT$T$GT$4with17hdd88c8769cfb0032E+0x31>
   19d18:	48 ff c9             	dec    %rcx
   19d1b:	48 89 08             	mov    %rcx,(%rax)
   19d1e:	c6 40 08 00          	movb   $0x0,0x8(%rax)
   19d22:	5d                   	pop    %rbp
   19d23:	c3                   	ret
   19d24:	48 8d 3d 75 d1 00 00 	lea    0xd175(%rip),%rdi        # 26ea0 <__frame_dummy_init_array_entry+0x6d0>
   19d2b:	ff 15 87 ed 00 00    	call   *0xed87(%rip)        # 28ab8 <_DYNAMIC+0x430>
   19d31:	48 8d 3d 90 d1 00 00 	lea    0xd190(%rip),%rdi        # 26ec8 <__frame_dummy_init_array_entry+0x6f8>
   19d38:	ff 15 a2 ec 00 00    	call   *0xeca2(%rip)        # 289e0 <_DYNAMIC+0x358>
   19d3e:	cc                   	int3
   19d3f:	cc                   	int3

0000000000019d40 <_ZN3std6thread5local18panic_access_error17hd9678c30f00afdfcE>:
   19d40:	55                   	push   %rbp
   19d41:	48 89 e5             	mov    %rsp,%rbp
   19d44:	48 83 ec 50          	sub    $0x50,%rsp
   19d48:	48 89 fe             	mov    %rdi,%rsi
   19d4b:	48 8d 45 ff          	lea    -0x1(%rbp),%rax
   19d4f:	48 89 45 e8          	mov    %rax,-0x18(%rbp)
   19d53:	48 8b 05 66 ed 00 00 	mov    0xed66(%rip),%rax        # 28ac0 <_DYNAMIC+0x438>
   19d5a:	48 89 45 f0          	mov    %rax,-0x10(%rbp)
   19d5e:	48 8d 05 53 d1 00 00 	lea    0xd153(%rip),%rax        # 26eb8 <__frame_dummy_init_array_entry+0x6e8>
   19d65:	48 89 45 b8          	mov    %rax,-0x48(%rbp)
   19d69:	48 c7 45 c0 01 00 00 	movq   $0x1,-0x40(%rbp)
   19d70:	00 
   19d71:	48 c7 45 d8 00 00 00 	movq   $0x0,-0x28(%rbp)
   19d78:	00 
   19d79:	48 8d 45 e8          	lea    -0x18(%rbp),%rax
   19d7d:	48 89 45 c8          	mov    %rax,-0x38(%rbp)
   19d81:	48 c7 45 d0 01 00 00 	movq   $0x1,-0x30(%rbp)
   19d88:	00 
   19d89:	48 8d 7d b8          	lea    -0x48(%rbp),%rdi
   19d8d:	ff 15 a5 eb 00 00    	call   *0xeba5(%rip)        # 28938 <_DYNAMIC+0x2b0>
   19d93:	cc                   	int3
   19d94:	cc                   	int3
   19d95:	cc                   	int3
   19d96:	cc                   	int3
   19d97:	cc                   	int3
   19d98:	cc                   	int3
   19d99:	cc                   	int3
   19d9a:	cc                   	int3
   19d9b:	cc                   	int3
   19d9c:	cc                   	int3
   19d9d:	cc                   	int3
   19d9e:	cc                   	int3
   19d9f:	cc                   	int3

0000000000019da0 <_ZN3std6thread7current12drop_current17h91a95bc632f58983E>:
   19da0:	55                   	push   %rbp
   19da1:	48 89 e5             	mov    %rsp,%rbp
   19da4:	48 83 ec 40          	sub    $0x40,%rsp
   19da8:	64 48 8b 04 25 00 00 	mov    %fs:0x0,%rax
   19daf:	00 00 
   19db1:	48 8d 80 d0 ff ff ff 	lea    -0x30(%rax),%rax
   19db8:	48 8b 38             	mov    (%rax),%rdi
   19dbb:	48 83 ff 02          	cmp    $0x2,%rdi
   19dbf:	76 2e                	jbe    19def <_ZN3std6thread7current12drop_current17h91a95bc632f58983E+0x4f>
   19dc1:	48 c7 00 02 00 00 00 	movq   $0x2,(%rax)
   19dc8:	ff 15 fa ec 00 00    	call   *0xecfa(%rip)        # 28ac8 <_DYNAMIC+0x440>
   19dce:	48 89 45 f8          	mov    %rax,-0x8(%rbp)
   19dd2:	f0 48 ff 08          	lock decq (%rax)
   19dd6:	75 17                	jne    19def <_ZN3std6thread7current12drop_current17h91a95bc632f58983E+0x4f>
   19dd8:	48 8b 45 f8          	mov    -0x8(%rbp),%rax
   19ddc:	48 3b 05 2d ec 00 00 	cmp    0xec2d(%rip),%rax        # 28a10 <_DYNAMIC+0x388>
   19de3:	74 10                	je     19df5 <_ZN3std6thread7current12drop_current17h91a95bc632f58983E+0x55>
   19de5:	48 8d 7d f8          	lea    -0x8(%rbp),%rdi
   19de9:	ff 15 e1 ec 00 00    	call   *0xece1(%rip)        # 28ad0 <_DYNAMIC+0x448>
   19def:	48 83 c4 40          	add    $0x40,%rsp
   19df3:	5d                   	pop    %rbp
   19df4:	c3                   	ret
   19df5:	48 8d 05 fc d0 00 00 	lea    0xd0fc(%rip),%rax        # 26ef8 <__frame_dummy_init_array_entry+0x728>
   19dfc:	48 89 45 c8          	mov    %rax,-0x38(%rbp)
   19e00:	48 c7 45 d0 01 00 00 	movq   $0x1,-0x30(%rbp)
   19e07:	00 
   19e08:	48 c7 45 d8 08 00 00 	movq   $0x8,-0x28(%rbp)
   19e0f:	00 
   19e10:	0f 57 c0             	xorps  %xmm0,%xmm0
   19e13:	0f 11 45 e0          	movups %xmm0,-0x20(%rbp)
   19e17:	48 8d 35 ea d0 00 00 	lea    0xd0ea(%rip),%rsi        # 26f08 <__frame_dummy_init_array_entry+0x738>
   19e1e:	48 8d 7d c8          	lea    -0x38(%rbp),%rdi
   19e22:	ff 15 10 eb 00 00    	call   *0xeb10(%rip)        # 28938 <_DYNAMIC+0x2b0>
   19e28:	cc                   	int3
   19e29:	cc                   	int3
   19e2a:	cc                   	int3
   19e2b:	cc                   	int3
   19e2c:	cc                   	int3
   19e2d:	cc                   	int3
   19e2e:	cc                   	int3
   19e2f:	cc                   	int3

0000000000019e30 <_ZN3std6thread7current13current_os_id17hd7c546f71f1169aeE>:
   19e30:	55                   	push   %rbp
   19e31:	48 89 e5             	mov    %rsp,%rbp
   19e34:	53                   	push   %rbx
   19e35:	50                   	push   %rax
   19e36:	e8 65 63 00 00       	call   201a0 <_ZN3std3sys6thread4unix13current_os_id17hf237cd9bc1d951fcE>
   19e3b:	48 89 c1             	mov    %rax,%rcx
   19e3e:	f6 c1 01             	test   $0x1,%cl
   19e41:	74 0a                	je     19e4d <_ZN3std6thread7current13current_os_id17hd7c546f71f1169aeE+0x1d>
   19e43:	48 89 d0             	mov    %rdx,%rax
   19e46:	48 83 c4 08          	add    $0x8,%rsp
   19e4a:	5b                   	pop    %rbx
   19e4b:	5d                   	pop    %rbp
   19e4c:	c3                   	ret
   19e4d:	64 48 8b 04 25 00 00 	mov    %fs:0x0,%rax
   19e54:	00 00 
   19e56:	48 8d 80 f8 ff ff ff 	lea    -0x8(%rax),%rax
   19e5d:	48 89 c3             	mov    %rax,%rbx
   19e60:	48 8b 00             	mov    (%rax),%rax
   19e63:	48 85 c0             	test   %rax,%rax
   19e66:	75 de                	jne    19e46 <_ZN3std6thread7current13current_os_id17hd7c546f71f1169aeE+0x16>
   19e68:	ff 15 3a ec 00 00    	call   *0xec3a(%rip)        # 28aa8 <_DYNAMIC+0x420>
   19e6e:	48 89 03             	mov    %rax,(%rbx)
   19e71:	48 83 c4 08          	add    $0x8,%rsp
   19e75:	5b                   	pop    %rbx
   19e76:	5d                   	pop    %rbp
   19e77:	c3                   	ret
   19e78:	cc                   	int3
   19e79:	cc                   	int3
   19e7a:	cc                   	int3
   19e7b:	cc                   	int3
   19e7c:	cc                   	int3
   19e7d:	cc                   	int3
   19e7e:	cc                   	int3
   19e7f:	cc                   	int3

0000000000019e80 <_ZN3std6thread7current16try_with_current17h2e5ae35bb3bd6270E>:
   19e80:	55                   	push   %rbp
   19e81:	48 89 e5             	mov    %rsp,%rbp
   19e84:	64 48 8b 04 25 00 00 	mov    %fs:0x0,%rax
   19e8b:	00 00 
   19e8d:	48 8d 80 d0 ff ff ff 	lea    -0x30(%rax),%rax
   19e94:	48 8b 38             	mov    (%rax),%rdi
   19e97:	48 83 ff 02          	cmp    $0x2,%rdi
   19e9b:	76 26                	jbe    19ec3 <_ZN3std6thread7current16try_with_current17h2e5ae35bb3bd6270E+0x43>
   19e9d:	ff 15 25 ec 00 00    	call   *0xec25(%rip)        # 28ac8 <_DYNAMIC+0x440>
   19ea3:	48 83 78 18 00       	cmpq   $0x0,0x18(%rax)
   19ea8:	74 19                	je     19ec3 <_ZN3std6thread7current16try_with_current17h2e5ae35bb3bd6270E+0x43>
   19eaa:	48 83 c0 18          	add    $0x18,%rax
   19eae:	48 89 c7             	mov    %rax,%rdi
   19eb1:	e8 fa 4c 00 00       	call   1ebb0 <_ZN3std6thread18thread_name_string16ThreadNameString6as_str17he5effa4745a8005eE>
   19eb6:	e8 e5 62 00 00       	call   201a0 <_ZN3std3sys6thread4unix13current_os_id17hf237cd9bc1d951fcE>
   19ebb:	ff 15 e7 eb 00 00    	call   *0xebe7(%rip)        # 28aa8 <_DYNAMIC+0x420>
   19ec1:	0f 0b                	ud2
   19ec3:	e8 a8 54 00 00       	call   1f370 <_ZN3std6thread11main_thread3get17h3a81f477117c28a0E>
   19ec8:	e8 d3 62 00 00       	call   201a0 <_ZN3std3sys6thread4unix13current_os_id17hf237cd9bc1d951fcE>
   19ecd:	ff 15 d5 eb 00 00    	call   *0xebd5(%rip)        # 28aa8 <_DYNAMIC+0x420>
   19ed3:	0f 0b                	ud2
   19ed5:	cc                   	int3
   19ed6:	cc                   	int3
   19ed7:	cc                   	int3
   19ed8:	cc                   	int3
   19ed9:	cc                   	int3
   19eda:	cc                   	int3
   19edb:	cc                   	int3
   19edc:	cc                   	int3
   19edd:	cc                   	int3
   19ede:	cc                   	int3
   19edf:	cc                   	int3

0000000000019ee0 <_ZN4core3ptr42drop_in_place$LT$std..io..error..Error$GT$17hbf98a7ea96b12467E>:
   19ee0:	55                   	push   %rbp
   19ee1:	48 89 e5             	mov    %rsp,%rbp
   19ee4:	41 57                	push   %r15
   19ee6:	41 56                	push   %r14
   19ee8:	41 54                	push   %r12
   19eea:	53                   	push   %rbx
   19eeb:	48 83 ec 50          	sub    $0x50,%rsp
   19eef:	48 89 fe             	mov    %rdi,%rsi
   19ef2:	48 89 7d 98          	mov    %rdi,-0x68(%rbp)
   19ef6:	89 f0                	mov    %esi,%eax
   19ef8:	83 e0 03             	and    $0x3,%eax
   19efb:	48 8d 0d 32 bc fe ff 	lea    -0x143ce(%rip),%rcx        # 5b34 <__abi_tag+0x5800>
   19f02:	48 63 04 81          	movslq (%rcx,%rax,4),%rax
   19f06:	48 01 c8             	add    %rcx,%rax
   19f09:	ff e0                	jmp    *%rax
   19f0b:	40 f6 c6 07          	test   $0x7,%sil
   19f0f:	0f 84 a2 00 00 00    	je     19fb7 <_ZN4core3ptr42drop_in_place$LT$std..io..error..Error$GT$17hbf98a7ea96b12467E+0xd7>
   19f15:	48 8d 15 24 cf 00 00 	lea    0xcf24(%rip),%rdx        # 26e40 <__frame_dummy_init_array_entry+0x670>
   19f1c:	bf 08 00 00 00       	mov    $0x8,%edi
   19f21:	ff 15 19 ea 00 00    	call   *0xea19(%rip)        # 28940 <_DYNAMIC+0x2b8>
   19f27:	48 89 f3             	mov    %rsi,%rbx
   19f2a:	48 ff cb             	dec    %rbx
   19f2d:	0f 84 d6 00 00 00    	je     1a009 <_ZN4core3ptr42drop_in_place$LT$std..io..error..Error$GT$17hbf98a7ea96b12467E+0x129>
   19f33:	4c 8b 76 ff          	mov    -0x1(%rsi),%r14
   19f37:	4c 8b 66 07          	mov    0x7(%rsi),%r12
   19f3b:	49 8b 04 24          	mov    (%r12),%rax
   19f3f:	48 85 c0             	test   %rax,%rax
   19f42:	74 05                	je     19f49 <_ZN4core3ptr42drop_in_place$LT$std..io..error..Error$GT$17hbf98a7ea96b12467E+0x69>
   19f44:	4c 89 f7             	mov    %r14,%rdi
   19f47:	ff d0                	call   *%rax
   19f49:	4d 8b 7c 24 08       	mov    0x8(%r12),%r15
   19f4e:	4d 8b 64 24 10       	mov    0x10(%r12),%r12
   19f53:	4c 89 ff             	mov    %r15,%rdi
   19f56:	4c 89 e6             	mov    %r12,%rsi
   19f59:	ff 15 39 ea 00 00    	call   *0xea39(%rip)        # 28998 <_DYNAMIC+0x310>
   19f5f:	84 c0                	test   %al,%al
