
target/debug/deps/no_vtable_check-633adcde5b7d780b:     file format elf64-x86-64

SYMBOL TABLE:
0000000000000334 l     O .note.ABI-tag	0000000000000020              __abi_tag
0000000000057a78 l     O .tm_clone_table	0000000000000000              __TMC_LIST__
00000000000148e0 l     F .text	0000000000000000              deregister_tm_clones
0000000000014910 l     F .text	0000000000000000              register_tm_clones
0000000000014950 l     F .text	0000000000000000              __do_global_dtors_aux
0000000000058438 l     O .bss	0000000000000001              completed.0
0000000000054350 l     O .fini_array	0000000000000000              __do_global_dtors_aux_fini_array_entry
0000000000014990 l     F .text	0000000000000000              frame_dummy
0000000000054360 l     O .init_array	0000000000000000              __frame_dummy_init_array_entry
0000000000057a78 l     O .data	0000000000000000              .hidden __dso_handle
0000000000000000 l    df *ABS*	0000000000000000              2if0wxlgw20drdephmblt02ai
00000000000149d0 l     F .text	000000000000003c              _RNvYNCINvNtCsefmIBSMl6ne_3std2rt10lang_startuE0INtNtNtCshhmRwEtsTQ2_4core3ops8function6FnOnceuE9call_onceCshm9upcCxmh6_15no_vtable_check
0000000000005100 l       .gcc_except_table	0000000000000000              GCC_except_table2
00000000000149a0 l     F .text	0000000000000016              .hidden _RNSNvYNCINvNtCsefmIBSMl6ne_3std2rt10lang_startuE0INtNtNtCshhmRwEtsTQ2_4core3ops8function6FnOnceuE9call_once6vtableCshm9upcCxmh6_15no_vtable_check
00000000000149c0 l     F .text	0000000000000010              .hidden _RNvYFEuINtNtNtCshhmRwEtsTQ2_4core3ops8function6FnOnceuE9call_onceCshm9upcCxmh6_15no_vtable_check
0000000000057a80 l     O .data	0000000000000008              .hidden DW.ref.rust_eh_personality
0000000000000000 l    df *ABS*	0000000000000000              4o3ib5sidemg726tdrenulfhv
0000000000014a40 l     F .text	0000000000000024              _RNvXCshm9upcCxmh6_15no_vtable_checkNtB2_8MyStructNtB2_7MyTrait10do_nothing
0000000000014a10 l     F .text	000000000000002a              .hidden _RNvCshm9upcCxmh6_15no_vtable_check4main
0000000000000000 l    df *ABS*	0000000000000000              672r3ijsqhque5rgwddbsezol
0000000000014a90 l     F .text	0000000000000013              .hidden _RINvNtNtCsefmIBSMl6ne_3std3sys9backtrace28___rust_begin_short_backtraceFEuuECshm9upcCxmh6_15no_vtable_check
0000000000000000 l    df *ABS*	0000000000000000              7vl6dovzmidfefcn5v7fk2wxq
0000000000014ab0 l     F .text	0000000000000003              .hidden _RNvXsZ_NtCsefmIBSMl6ne_3std7processuNtB5_11Termination6reportCshm9upcCxmh6_15no_vtable_check
0000000000000000 l    df *ABS*	0000000000000000              d60uctd5ernounpk9d7ivrc1g
0000000000014b00 l     F .text	0000000000000022              .hidden _RNCINvNtCsefmIBSMl6ne_3std2rt10lang_startuE0Cshm9upcCxmh6_15no_vtable_check
0000000000014ac0 l     F .text	000000000000003c              .hidden _RINvNtCsefmIBSMl6ne_3std2rt10lang_startuECshm9upcCxmh6_15no_vtable_check
0000000000000000 l    df *ABS*	0000000000000000              f50yhedgjdoh6zz0xbhw1wtar
0000000000014b30 l     F .text	0000000000000013              .hidden _RNvMs4_NtCshhmRwEtsTQ2_4core3fmtNtB5_9Arguments8from_strCshm9upcCxmh6_15no_vtable_check
0000000000000000 l    df *ABS*	0000000000000000              cyawdw2nnpo1sgr71c0c7w8jo
0000000000000000 l    df *ABS*	0000000000000000              std.a5f416d2deaea592-cgu.0
0000000000014ba0 l     F .text	0000000000000074              _RINvMNtCshhmRwEtsTQ2_4core3stre10split_oncecECsefmIBSMl6ne_3std
0000000000040c20 l     F .text	0000000000000205              _RNvXs_NtNtCshhmRwEtsTQ2_4core3str7patternNtB4_12CharSearcherNtB4_8Searcher10next_match
0000000000014c20 l     F .text	000000000000017f              _RINvMNtCshhmRwEtsTQ2_4core3stre18trim_start_matchesNvMNtNtB5_4char7methodsc13is_whitespaceECsefmIBSMl6ne_3std
0000000000014d9f l     F .text	0000000000000054              _RINvMNtNtCsefmIBSMl6ne_3std4sync9once_lockINtB3_8OnceLockINtNtB5_14reentrant_lock13ReentrantLockINtNtCshhmRwEtsTQ2_4core4cell7RefCellINtNtNtNtB7_2io8buffered10linewriter10LineWriterNtNtB2e_5stdio9StdoutRawEEEE10initializeNCINvB2_11get_or_initNCNvB2V_6stdout0E0zEB7_
0000000000057a90 l     O .data	0000000000000040              _RNvNtNtCsefmIBSMl6ne_3std2io5stdio6STDOUT
0000000000014df3 l     F .text	0000000000000058              _RINvMNtNtCsefmIBSMl6ne_3std4sync9once_lockINtB3_8OnceLockINtNtB5_14reentrant_lock13ReentrantLockINtNtCshhmRwEtsTQ2_4core4cell7RefCellINtNtNtNtB7_2io8buffered10linewriter10LineWriterNtNtB2e_5stdio9StdoutRawEEEE10initializeNCINvB2_11get_or_initNCNvB2V_7cleanup0E0zEB7_
000000000001e9e0 l     F .text	000000000000000b              _RINvNtCshhmRwEtsTQ2_4core3ptr13drop_in_placeINtNtB4_6result6ResultuNtNtNtCsefmIBSMl6ne_3std2io5error5ErrorEEB19_
000000000000510c l       .gcc_except_table	0000000000000000              GCC_except_table6
0000000000014e50 l     F .text	000000000000003d              _RINvMNtNtCshhmRwEtsTQ2_4core4cell4onceINtB3_8OnceCellINtNtB7_6result6ResultINtNtB7_6option6OptionINtNtCsavYRE6QVrtQ_5alloc5boxed3BoxINtNtCs7AZHiE2F3Qb_9addr2line4unit7DwoUnitINtNtNtCse3mZrgqRzNx_5gimli4read12endian_slice11EndianSliceNtNtB2T_9endianity12LittleEndianEEEENtB2R_5ErrorEE8try_initNCINvB2_11get_or_initNCNvMB29_INtB29_7ResUnitB2M_E14dwarf_and_units0_0E0zECsefmIBSMl6ne_3std
000000000001e940 l     F .text	0000000000000010              _RINvNtCshhmRwEtsTQ2_4core3ptr13drop_in_placeINtNtB4_6result6ResultRIBH_INtNtB4_6option6OptionINtNtCsavYRE6QVrtQ_5alloc5boxed3BoxINtNtCs7AZHiE2F3Qb_9addr2line4unit7DwoUnitINtNtNtCse3mZrgqRzNx_5gimli4read12endian_slice11EndianSliceNtNtB2P_9endianity12LittleEndianEEEENtB2N_5ErrorETB12_B13_EEECsefmIBSMl6ne_3std
0000000000014e90 l     F .text	0000000000000053              _RINvMNtNtCshhmRwEtsTQ2_4core4cell4onceINtB3_8OnceCellINtNtB7_6result6ResultINtNtB7_6option6OptionINtNtCsavYRE6QVrtQ_5alloc5boxed3BoxINtNtCs7AZHiE2F3Qb_9addr2line4unit7DwoUnitINtNtNtCse3mZrgqRzNx_5gimli4read12endian_slice11EndianSliceNtNtB2T_9endianity12LittleEndianEEEENtB2R_5ErrorEE8try_initNCINvB2_11get_or_initNCNvMB29_INtB29_7ResUnitB2M_E14dwarf_and_units2_0E0zECsefmIBSMl6ne_3std
0000000000014ef0 l     F .text	000000000000082d              _RINvMNtNtCshhmRwEtsTQ2_4core4cell4onceINtB3_8OnceCellINtNtB7_6result6ResultINtNtCs7AZHiE2F3Qb_9addr2line8function8FunctionINtNtNtCse3mZrgqRzNx_5gimli4read12endian_slice11EndianSliceNtNtB23_9endianity12LittleEndianEENtB21_5ErrorEE8try_initNCINvB2_11get_or_initNCNvMs_B1e_INtB1e_12LazyFunctionB1W_E6borrow0E0zECsefmIBSMl6ne_3std
0000000000020bb0 l     F .text	0000000000001454              _RINvNtNtCse3mZrgqRzNx_5gimli4read4unit15parse_attributeINtNtB4_12endian_slice11EndianSliceNtNtB6_9endianity12LittleEndianEECsefmIBSMl6ne_3std
0000000000037e10 l     F .text	00000000000005e6              _RNvMsb_NtNtCse3mZrgqRzNx_5gimli4read4unitINtB5_9AttributeINtNtB7_12endian_slice11EndianSliceNtNtB9_9endianity12LittleEndianEE5valueCsefmIBSMl6ne_3std
000000000002ce60 l     F .text	00000000000001e5              _RNvMs0_NtNtCse3mZrgqRzNx_5gimli4read5dwarfINtB5_5DwarfINtNtB7_12endian_slice11EndianSliceNtNtB9_9endianity12LittleEndianEE11attr_stringCsefmIBSMl6ne_3std
000000000001e070 l     F .text	000000000000019d              _RINvNtCs7AZHiE2F3Qb_9addr2line8function9name_attrINtNtNtCse3mZrgqRzNx_5gimli4read12endian_slice11EndianSliceNtNtBS_9endianity12LittleEndianEECsefmIBSMl6ne_3std
000000000002de50 l     F .text	0000000000001240              _RNvMs1_NtCs7AZHiE2F3Qb_9addr2line8functionINtB5_8FunctionINtNtNtCse3mZrgqRzNx_5gimli4read12endian_slice11EndianSliceNtNtB10_9endianity12LittleEndianEE14parse_childrenCsefmIBSMl6ne_3std
0000000000024040 l     F .text	00000000000000bf              _RINvNtNtNtNtCshhmRwEtsTQ2_4core5slice4sort6shared9smallsort25insertion_sort_shift_leftNtNtCs7AZHiE2F3Qb_9addr2line8function22InlinedFunctionAddressNCINvMNtCsavYRE6QVrtQ_5alloc5sliceSB1m_7sort_byNCNvMs1_B1o_INtB1o_8FunctionINtNtNtCse3mZrgqRzNx_5gimli4read12endian_slice11EndianSliceNtNtB3F_9endianity12LittleEndianEE5parse0E0ECsefmIBSMl6ne_3std
000000000001e950 l     F .text	0000000000000063              _RINvNtCshhmRwEtsTQ2_4core3ptr13drop_in_placeINtNtB4_6result6ResultRIBH_INtNtCs7AZHiE2F3Qb_9addr2line8function8FunctionINtNtNtCse3mZrgqRzNx_5gimli4read12endian_slice11EndianSliceNtNtB1Z_9endianity12LittleEndianEENtB1X_5ErrorETB12_B13_EEECsefmIBSMl6ne_3std
0000000000005124 l       .gcc_except_table	0000000000000000              GCC_except_table9
0000000000015720 l     F .text	0000000000000e4e              _RINvMNtNtCshhmRwEtsTQ2_4core4cell4onceINtB3_8OnceCellINtNtB7_6result6ResultINtNtCs7AZHiE2F3Qb_9addr2line8function9FunctionsINtNtNtCse3mZrgqRzNx_5gimli4read12endian_slice11EndianSliceNtNtB24_9endianity12LittleEndianEENtB22_5ErrorEE8try_initNCINvB2_11get_or_initNCNvMB1e_INtB1e_13LazyFunctionsB1X_E6borrow0E0zECsefmIBSMl6ne_3std
0000000000022010 l     F .text	0000000000000554              _RINvNtNtCse3mZrgqRzNx_5gimli4read4unit15skip_attributesINtNtB4_12endian_slice11EndianSliceNtNtB6_9endianity12LittleEndianEECsefmIBSMl6ne_3std
00000000000384e0 l     F .text	000000000000106c              _RNvMsc_NtNtCse3mZrgqRzNx_5gimli4read8rnglistsINtB5_11RngListIterINtNtB7_12endian_slice11EndianSliceNtNtB9_9endianity12LittleEndianEE4nextCsefmIBSMl6ne_3std
000000000001e9c0 l     F .text	0000000000000010              _RINvNtCshhmRwEtsTQ2_4core3ptr13drop_in_placeINtNtB4_6result6ResultRIBH_INtNtCs7AZHiE2F3Qb_9addr2line8function9FunctionsINtNtNtCse3mZrgqRzNx_5gimli4read12endian_slice11EndianSliceNtNtB20_9endianity12LittleEndianEENtB1Y_5ErrorETB12_B13_EEECsefmIBSMl6ne_3std
000000000001ed00 l     F .text	0000000000000063              _RINvNtCshhmRwEtsTQ2_4core3ptr13drop_in_placeINtNtCs7AZHiE2F3Qb_9addr2line8function12LazyFunctionINtNtNtCse3mZrgqRzNx_5gimli4read12endian_slice11EndianSliceNtNtB1D_9endianity12LittleEndianEEECsefmIBSMl6ne_3std
000000000001f220 l     F .text	00000000000000af              _RINvNtCshhmRwEtsTQ2_4core3ptr13drop_in_placeINtNtCsavYRE6QVrtQ_5alloc5boxed3BoxSINtNtCs7AZHiE2F3Qb_9addr2line8function12LazyFunctionINtNtNtCse3mZrgqRzNx_5gimli4read12endian_slice11EndianSliceNtNtB2d_9endianity12LittleEndianEEEECsefmIBSMl6ne_3std
000000000001ef40 l     F .text	00000000000000bc              _RINvNtCshhmRwEtsTQ2_4core3ptr13drop_in_placeINtNtCsavYRE6QVrtQ_5alloc3vec3VecINtNtCs7AZHiE2F3Qb_9addr2line8function12LazyFunctionINtNtNtCse3mZrgqRzNx_5gimli4read12endian_slice11EndianSliceNtNtB2a_9endianity12LittleEndianEEEECsefmIBSMl6ne_3std
0000000000005154 l       .gcc_except_table	0000000000000000              GCC_except_table10
0000000000016570 l     F .text	000000000000231b              _RINvMNtNtCshhmRwEtsTQ2_4core4cell4onceINtB3_8OnceCellINtNtB7_6result6ResultNtNtCs7AZHiE2F3Qb_9addr2line4line5LinesNtNtCse3mZrgqRzNx_5gimli4read5ErrorEE8try_initNCINvB2_11get_or_initNCINvMB1d_NtB1d_9LazyLines6borrowINtNtB1Q_12endian_slice11EndianSliceNtNtB1S_9endianity12LittleEndianEE0E0zECsefmIBSMl6ne_3std
000000000003fc80 l     F .text	000000000000018d              _RNvXs11_NtNtCse3mZrgqRzNx_5gimli4read4lineINtB6_9FileEntryINtNtB8_12endian_slice11EndianSliceNtNtBa_9endianity12LittleEndianEjENtNtCshhmRwEtsTQ2_4core5clone5Clone5cloneCsefmIBSMl6ne_3std
000000000001d820 l     F .text	0000000000000441              _RINvNtCs7AZHiE2F3Qb_9addr2line4line11render_fileINtNtNtCse3mZrgqRzNx_5gimli4read12endian_slice11EndianSliceNtNtBR_9endianity12LittleEndianEECsefmIBSMl6ne_3std
0000000000023f90 l     F .text	00000000000000a1              _RINvNtNtNtNtCshhmRwEtsTQ2_4core5slice4sort6shared9smallsort25insertion_sort_shift_leftNtNtCs7AZHiE2F3Qb_9addr2line4line12LineSequenceNCINvMNtCsavYRE6QVrtQ_5alloc5sliceSB1m_11sort_by_keyyNCINvMs_B1o_NtB1o_5Lines5parseINtNtNtCse3mZrgqRzNx_5gimli4read12endian_slice11EndianSliceNtNtB3z_9endianity12LittleEndianEEs_0E0ECsefmIBSMl6ne_3std
000000000001e9d0 l     F .text	0000000000000010              _RINvNtCshhmRwEtsTQ2_4core3ptr13drop_in_placeINtNtB4_6result6ResultRIBH_NtNtCs7AZHiE2F3Qb_9addr2line4line5LinesNtNtCse3mZrgqRzNx_5gimli4read5ErrorETB12_B13_EEECsefmIBSMl6ne_3std
000000000001f090 l     F .text	0000000000000090              _RINvNtCshhmRwEtsTQ2_4core3ptr13drop_in_placeINtNtCsavYRE6QVrtQ_5alloc3vec3VecNtNtCs7AZHiE2F3Qb_9addr2line4line12LineSequenceEECsefmIBSMl6ne_3std
000000000001f2d0 l     F .text	0000000000000082              _RINvNtCshhmRwEtsTQ2_4core3ptr13drop_in_placeINtNtCsavYRE6QVrtQ_5alloc5boxed3BoxSNtNtBL_6string6StringEECsefmIBSMl6ne_3std
000000000001f000 l     F .text	000000000000008c              _RINvNtCshhmRwEtsTQ2_4core3ptr13drop_in_placeINtNtCsavYRE6QVrtQ_5alloc3vec3VecNtNtBL_6string6StringEECsefmIBSMl6ne_3std
000000000001f360 l     F .text	0000000000000096              _RINvNtCshhmRwEtsTQ2_4core3ptr13drop_in_placeINtNtNtCse3mZrgqRzNx_5gimli4read4line8LineRowsINtNtBL_12endian_slice11EndianSliceNtNtBN_9endianity12LittleEndianEINtBJ_21IncompleteLineProgramB1q_jEjEECsefmIBSMl6ne_3std
0000000000005190 l       .gcc_except_table	0000000000000000              GCC_except_table11
000000000001888b l     F .text	0000000000003e32              _RINvMs0_NtNtNtCsefmIBSMl6ne_3std12backtrace_rs9symbolize5gimliNtB6_5Cache11with_globalNCNvB6_7resolves_0EBc_
0000000000057ad8 l     O .data	0000000000000940              _RNvNvMs0_NtNtNtCsefmIBSMl6ne_3std12backtrace_rs9symbolize5gimliNtB7_5Cache11with_global14MAPPINGS_CACHE
0000000000039ae0 l     F .text	000000000000019d              _RNvMsi_NtNtNtCsefmIBSMl6ne_3std3sys2fs4unixNtB5_4File6open_c
000000000003ce30 l     F .text	00000000000003e4              _RNvNtNtNtNtCsefmIBSMl6ne_3std12backtrace_rs9symbolize5gimli20libs_dl_iterate_phdr8callback
000000000003c530 l     F .text	0000000000000305              _RNvNtNtNtCsefmIBSMl6ne_3std12backtrace_rs9symbolize5gimli4mmap
0000000000037190 l     F .text	0000000000000744              _RNvMs_NtNtNtNtCsefmIBSMl6ne_3std12backtrace_rs9symbolize5gimli3elfNtB4_6Object5parse
0000000000037c70 l     F .text	0000000000000192              _RNvMs_NtNtNtNtCsefmIBSMl6ne_3std12backtrace_rs9symbolize5gimli3elfNtB4_6Object8build_id
000000000003d330 l     F .text	000000000000037f              _RNvNtNtNtNtCsefmIBSMl6ne_3std12backtrace_rs9symbolize5gimli3elf15locate_build_id
000000000002bc30 l     F .text	0000000000000c61              _RNvMNtNtNtNtCsefmIBSMl6ne_3std12backtrace_rs9symbolize5gimli3elfNtB4_7Mapping9new_debug
000000000003c840 l     F .text	00000000000000b1              _RNvNtNtNtCsefmIBSMl6ne_3std3sys2fs4unix12canonicalize
000000000002b8c0 l     F .text	0000000000000369              _RNvMNtNtNtNtCsefmIBSMl6ne_3std12backtrace_rs9symbolize5gimli3elfNtB4_7Mapping18load_dwarf_package
0000000000033e31 l     F .text	0000000000002f3e              _RNvMs_NtNtNtCsefmIBSMl6ne_3std12backtrace_rs9symbolize5gimliNtB4_7Context3new
000000000001fb00 l     F .text	00000000000000dd              _RINvNtCshhmRwEtsTQ2_4core3ptr13drop_in_placeNtNtNtNtNtCsefmIBSMl6ne_3std12backtrace_rs9symbolize5gimli5stash5StashEBQ_
000000000001fc50 l     F .text	0000000000000107              _RINvNtCshhmRwEtsTQ2_4core3ptr13drop_in_placeTjNtNtNtNtCsefmIBSMl6ne_3std12backtrace_rs9symbolize5gimli7MappingEEBQ_
000000000002b390 l     F .text	0000000000000530              _RNvMNtCs7AZHiE2F3Qb_9addr2line4unitINtB2_7ResUnitINtNtNtCse3mZrgqRzNx_5gimli4read12endian_slice11EndianSliceNtNtBS_9endianity12LittleEndianEE25find_function_or_locationCsefmIBSMl6ne_3std
000000000002f090 l     F .text	000000000000056a              _RNvMs2_NtCs7AZHiE2F3Qb_9addr2line6lookupINtB5_13LoopingLookupINtNtCshhmRwEtsTQ2_4core6result6ResultINtNtB7_5frame9FrameIterINtNtNtCse3mZrgqRzNx_5gimli4read12endian_slice11EndianSliceNtNtB24_9endianity12LittleEndianEENtB22_5ErrorEINtB5_12MappedLookupIBY_TINtNtB12_6option6OptionRINtNtB7_8function8FunctionB1X_EEIB45_NtB1C_8LocationEEB3s_EINtB5_12SimpleLookupIBY_TNtB7_9DebugFileINtNtB22_5dwarf7UnitRefB1X_EEB3s_EB1X_NCNvMNtB7_4unitINtB6K_7ResUnitB1X_E14dwarf_and_units4_0ENCNvB6J_25find_function_or_location0ENCNvMs_B7_INtB7_7ContextB1X_E11find_frames0E10new_lookupCsefmIBSMl6ne_3std
00000000000370d0 l     F .text	00000000000000b4              _RNvMs_NtNtNtNtCsefmIBSMl6ne_3std12backtrace_rs9symbolize5gimli3elfNtB4_6Object13search_symtab
0000000000029940 l     F .text	0000000000000082              _RINvNvMs2_NtCsavYRE6QVrtQ_5alloc7raw_vecINtB8_11RawVecInnerpE7reserve21do_reserve_and_handleNtNtBa_5alloc6GlobalECsefmIBSMl6ne_3std
00000000000378e0 l     F .text	0000000000000384              _RNvMs_NtNtNtNtCsefmIBSMl6ne_3std12backtrace_rs9symbolize5gimli3elfNtB4_6Object7section
000000000002a400 l     F .text	00000000000002ec              _RNCNvMNtCs7AZHiE2F3Qb_9addr2line4unitINtB4_7ResUnitINtNtNtCse3mZrgqRzNx_5gimli4read12endian_slice11EndianSliceNtNtBU_9endianity12LittleEndianEE25find_function_or_location0CsefmIBSMl6ne_3std
0000000000032540 l     F .text	0000000000000677              _RNvMs6_NtNtCse3mZrgqRzNx_5gimli4read4unitINtB5_24DebugInfoUnitHeadersIterINtNtB7_12endian_slice11EndianSliceNtNtB9_9endianity12LittleEndianEE4nextCsefmIBSMl6ne_3std
000000000002fcd0 l     F .text	0000000000002542              _RNvMs4_NtNtCse3mZrgqRzNx_5gimli4read5dwarfINtB5_4UnitINtNtB7_12endian_slice11EndianSliceNtNtB9_9endianity12LittleEndianEjE3newCsefmIBSMl6ne_3std
0000000000042320 l     F .text	000000000000026e              _RNvXsl_NtCsefmIBSMl6ne_3std4pathNtB5_10ComponentsNtNtCshhmRwEtsTQ2_4core3cmp9PartialEq2eq
0000000000058501 l     O .bss	0000000000000001              _RNvNvNtNtNtNtCsefmIBSMl6ne_3std12backtrace_rs9symbolize5gimli3elf17debug_path_exists17DEBUG_PATH_EXISTS.0
0000000000043b80 l     F .text	000000000000001b              _RNvYNvNtNtNtCsefmIBSMl6ne_3std3sys2fs4unix12canonicalizeINtNtNtCshhmRwEtsTQ2_4core3ops8function2FnTRNtNtNtBZ_3ffi5c_str4CStrEE4callBa_
00000000000226d0 l     F .text	00000000000000b7              _RINvNtNtNtCsefmIBSMl6ne_3std3sys7helpers14small_c_string24run_with_cstr_allocatingNtNtB8_4path7PathBufEB8_
000000000001e590 l     F .text	000000000000009f              _RINvNtCshhmRwEtsTQ2_4core3ptr13drop_in_placeINtNtB4_6option6OptionINtNtNtCse3mZrgqRzNx_5gimli4read4line21IncompleteLineProgramINtNtB17_12endian_slice11EndianSliceNtNtB19_9endianity12LittleEndianEjEEECsefmIBSMl6ne_3std
000000000001f400 l     F .text	000000000000004b              _RINvNtCshhmRwEtsTQ2_4core3ptr13drop_in_placeINtNtNtCse3mZrgqRzNx_5gimli4read5dwarf4UnitINtNtBL_12endian_slice11EndianSliceNtNtBN_9endianity12LittleEndianEjEECsefmIBSMl6ne_3std
000000000001f150 l     F .text	000000000000005c              _RINvNtCshhmRwEtsTQ2_4core3ptr13drop_in_placeINtNtCsavYRE6QVrtQ_5alloc4sync8ArcInnerINtNtNtCse3mZrgqRzNx_5gimli4read5dwarf5DwarfINtNtB1o_12endian_slice11EndianSliceNtNtB1q_9endianity12LittleEndianEEEECsefmIBSMl6ne_3std
000000000000520c l       .gcc_except_table	0000000000000000              GCC_except_table12
000000000001c6c0 l     F .text	0000000000000437              _RINvMs10_NtNtNtCsavYRE6QVrtQ_5alloc11collections5btree4nodeINtB7_16BalancingContextjNtNtNtNtNtNtCsefmIBSMl6ne_3std3sys3pal4unix14stack_overflow11thread_info10ThreadInfoE25merge_tracking_child_edgeNtNtBd_5alloc6GlobalEB1w_
000000000001f1b0 l     F .text	0000000000000069              _RINvNtCshhmRwEtsTQ2_4core3ptr13drop_in_placeINtNtCsavYRE6QVrtQ_5alloc5boxed3BoxDG0_INtNtNtB4_3ops8function2FnTRL1_INtNtCsefmIBSMl6ne_3std5panic13PanicHookInfoL0_EEEp6OutputuNtNtB4_6marker4SyncNtB2N_4SendEL_EEB1T_
00000000000053a4 l       .gcc_except_table	0000000000000000              GCC_except_table15
00000000000053bc l       .gcc_except_table	0000000000000000              GCC_except_table16
00000000000053e4 l       .gcc_except_table	0000000000000000              GCC_except_table17
0000000000005404 l       .gcc_except_table	0000000000000000              GCC_except_table18
000000000001cc20 l     F .text	0000000000000849              _RINvMs_NtNtNtCsavYRE6QVrtQ_5alloc11collections5btree6removeINtNtB7_4node6HandleINtBY_7NodeRefNtNtBY_6marker3MutjNtNtNtNtNtNtCsefmIBSMl6ne_3std3sys3pal4unix14stack_overflow11thread_info10ThreadInfoNtB1v_4LeafENtB1v_2KVE14remove_leaf_kvNCNvMs7_NtNtB7_3map5entryINtB3S_13OccupiedEntryjB1M_E9remove_kv0NtNtBb_5alloc6GlobalEB1Y_
000000000002d270 l     F .text	0000000000000347              _RNvMs10_NtNtNtCsavYRE6QVrtQ_5alloc11collections5btree4nodeINtB6_16BalancingContextjNtNtNtNtNtNtCsefmIBSMl6ne_3std3sys3pal4unix14stack_overflow11thread_info10ThreadInfoE15bulk_steal_leftB1v_
000000000002d5c0 l     F .text	00000000000003be              _RNvMs10_NtNtNtCsavYRE6QVrtQ_5alloc11collections5btree4nodeINtB6_16BalancingContextjNtNtNtNtNtNtCsefmIBSMl6ne_3std3sys3pal4unix14stack_overflow11thread_info10ThreadInfoE16bulk_steal_rightB1v_
0000000000005424 l       .gcc_except_table	0000000000000000              GCC_except_table19
000000000001d470 l     F .text	00000000000003a8              _RINvMse_NtNtCse3mZrgqRzNx_5gimli4read4lineNtB6_15FileEntryFormat5parseINtNtB8_12endian_slice11EndianSliceNtNtBa_9endianity12LittleEndianEECsefmIBSMl6ne_3std
0000000000005444 l       .gcc_except_table	0000000000000000              GCC_except_table20
0000000000005454 l       .gcc_except_table	0000000000000000              GCC_except_table22
000000000001dc70 l     F .text	00000000000003f7              _RINvNtCs7AZHiE2F3Qb_9addr2line8function10name_entryINtNtNtCse3mZrgqRzNx_5gimli4read12endian_slice11EndianSliceNtNtBU_9endianity12LittleEndianEECsefmIBSMl6ne_3std
000000000002cd00 l     F .text	0000000000000151              _RNvMs0_Cs7AZHiE2F3Qb_9addr2lineINtB5_7ContextINtNtNtCse3mZrgqRzNx_5gimli4read12endian_slice11EndianSliceNtNtBO_9endianity12LittleEndianEE9find_unitCsefmIBSMl6ne_3std
000000000000547c l       .gcc_except_table	0000000000000000              GCC_except_table25
000000000002fc10 l     F .text	00000000000000bc              _RNvMs4_NtCsavYRE6QVrtQ_5alloc7raw_vecNtB5_11RawVecInner11finish_growCsefmIBSMl6ne_3std
000000000001e210 l     F .text	00000000000002d6              _RINvNtCsefmIBSMl6ne_3std2io19default_read_to_endRNtNtB4_2fs4FileEB4_
00000000000299d0 l     F .text	00000000000000f8              _RINvNvNtCsefmIBSMl6ne_3std2io19default_read_to_end16small_probe_readRNtNtB6_2fs4FileEB6_
000000000001e4f0 l     F .text	0000000000000030              _RINvNtCsefmIBSMl6ne_3std2rt15handle_rt_paniciEB4_
0000000000043a20 l     F .text	0000000000000116              _RNvYNtNtNtNtCsefmIBSMl6ne_3std3sys5stdio4unix6StderrNtNtBa_2io5Write9write_fmtBa_
000000000001e520 l     F .text	0000000000000062              _RINvNtCshhmRwEtsTQ2_4core3ptr13drop_in_placeINtCs7AZHiE2F3Qb_9addr2line7ContextINtNtNtCse3mZrgqRzNx_5gimli4read12endian_slice11EndianSliceNtNtB1m_9endianity12LittleEndianEEECsefmIBSMl6ne_3std
000000000001eb40 l     F .text	00000000000000dd              _RINvNtCshhmRwEtsTQ2_4core3ptr13drop_in_placeINtNtCs7AZHiE2F3Qb_9addr2line4unit8ResUnitsINtNtNtCse3mZrgqRzNx_5gimli4read12endian_slice11EndianSliceNtNtB1u_9endianity12LittleEndianEEECsefmIBSMl6ne_3std
000000000001ec20 l     F .text	00000000000000dd              _RINvNtCshhmRwEtsTQ2_4core3ptr13drop_in_placeINtNtCs7AZHiE2F3Qb_9addr2line4unit8SupUnitsINtNtNtCse3mZrgqRzNx_5gimli4read12endian_slice11EndianSliceNtNtB1u_9endianity12LittleEndianEEECsefmIBSMl6ne_3std
000000000000548c l       .gcc_except_table	0000000000000000              GCC_except_table31
000000000001e630 l     F .text	00000000000000ae              _RINvNtCshhmRwEtsTQ2_4core3ptr13drop_in_placeINtNtB4_6result6ResultINtNtB4_6option6OptionINtNtCsavYRE6QVrtQ_5alloc5boxed3BoxINtNtCs7AZHiE2F3Qb_9addr2line4unit7DwoUnitINtNtNtCse3mZrgqRzNx_5gimli4read12endian_slice11EndianSliceNtNtB2K_9endianity12LittleEndianEEEENtB2I_5ErrorEECsefmIBSMl6ne_3std
00000000000054ac l       .gcc_except_table	0000000000000000              GCC_except_table37
000000000001e6e0 l     F .text	00000000000000e5              _RINvNtCshhmRwEtsTQ2_4core3ptr13drop_in_placeINtNtB4_6result6ResultINtNtCs7AZHiE2F3Qb_9addr2line8function9FunctionsINtNtNtCse3mZrgqRzNx_5gimli4read12endian_slice11EndianSliceNtNtB1V_9endianity12LittleEndianEENtB1T_5ErrorEECsefmIBSMl6ne_3std
000000000001e7d0 l     F .text	0000000000000067              _RINvNtCshhmRwEtsTQ2_4core3ptr13drop_in_placeINtNtB4_6result6ResultINtNtNtNtCsefmIBSMl6ne_3std4sync6poison5mutex10MutexGuarduEINtB17_11PoisonErrorB12_EEEB1b_
000000000001e840 l     F .text	00000000000000f9              _RINvNtCshhmRwEtsTQ2_4core3ptr13drop_in_placeINtNtB4_6result6ResultNtNtCs7AZHiE2F3Qb_9addr2line4line5LinesNtNtCse3mZrgqRzNx_5gimli4read5ErrorEECsefmIBSMl6ne_3std
000000000001f990 l     F .text	00000000000000a4              _RINvNtCshhmRwEtsTQ2_4core3ptr13drop_in_placeNtNtNtCsefmIBSMl6ne_3std2io5error5ErrorEBM_
000000000001e9f0 l     F .text	00000000000000f3              _RINvNtCshhmRwEtsTQ2_4core3ptr13drop_in_placeINtNtCs7AZHiE2F3Qb_9addr2line4unit7ResUnitINtNtNtCse3mZrgqRzNx_5gimli4read12endian_slice11EndianSliceNtNtB1t_9endianity12LittleEndianEEECsefmIBSMl6ne_3std
00000000000054cc l       .gcc_except_table	0000000000000000              GCC_except_table50
000000000001eaf0 l     F .text	000000000000004b              _RINvNtCshhmRwEtsTQ2_4core3ptr13drop_in_placeINtNtCs7AZHiE2F3Qb_9addr2line4unit7SupUnitINtNtNtCse3mZrgqRzNx_5gimli4read12endian_slice11EndianSliceNtNtB1t_9endianity12LittleEndianEEECsefmIBSMl6ne_3std
00000000000054ec l       .gcc_except_table	0000000000000000              GCC_except_table51
00000000000054f8 l       .gcc_except_table	0000000000000000              GCC_except_table52
0000000000005514 l       .gcc_except_table	0000000000000000              GCC_except_table53
0000000000005530 l       .gcc_except_table	0000000000000000              GCC_except_table55
000000000001ed70 l     F .text	00000000000000c6              _RINvNtCshhmRwEtsTQ2_4core3ptr13drop_in_placeINtNtCsavYRE6QVrtQ_5alloc3vec3VecINtNtCs7AZHiE2F3Qb_9addr2line4unit7ResUnitINtNtNtCse3mZrgqRzNx_5gimli4read12endian_slice11EndianSliceNtNtB20_9endianity12LittleEndianEEEECsefmIBSMl6ne_3std
000000000000553c l       .gcc_except_table	0000000000000000              GCC_except_table56
000000000001ee40 l     F .text	00000000000000f5              _RINvNtCshhmRwEtsTQ2_4core3ptr13drop_in_placeINtNtCsavYRE6QVrtQ_5alloc3vec3VecINtNtCs7AZHiE2F3Qb_9addr2line4unit7SupUnitINtNtNtCse3mZrgqRzNx_5gimli4read12endian_slice11EndianSliceNtNtB20_9endianity12LittleEndianEEEECsefmIBSMl6ne_3std
0000000000005558 l       .gcc_except_table	0000000000000000              GCC_except_table57
000000000001f120 l     F .text	0000000000000018              _RINvNtCshhmRwEtsTQ2_4core3ptr13drop_in_placeINtNtCsavYRE6QVrtQ_5alloc3vec3VechEECsefmIBSMl6ne_3std
000000000001f140 l     F .text	0000000000000010              _RINvNtCshhmRwEtsTQ2_4core3ptr13drop_in_placeINtNtCsavYRE6QVrtQ_5alloc4sync3ArcINtNtNtNtCsefmIBSMl6ne_3std4sync6poison5mutex5MutexINtNtBL_3vec3VechEEEEB1n_
000000000001f8b0 l     F .text	00000000000000dd              _RINvNtCshhmRwEtsTQ2_4core3ptr13drop_in_placeNtNtNtCse3mZrgqRzNx_5gimli4read6abbrev18AbbreviationsCacheECsefmIBSMl6ne_3std
0000000000005574 l       .gcc_except_table	0000000000000000              GCC_except_table66
0000000000005590 l       .gcc_except_table	0000000000000000              GCC_except_table67
000000000000559c l       .gcc_except_table	0000000000000000              GCC_except_table68
00000000000055a8 l       .gcc_except_table	0000000000000000              GCC_except_table69
00000000000055b4 l       .gcc_except_table	0000000000000000              GCC_except_table73
00000000000055c0 l       .gcc_except_table	0000000000000000              GCC_except_table75
000000000001f450 l     F .text	000000000000005c              _RINvNtCshhmRwEtsTQ2_4core3ptr13drop_in_placeINtNtNtCse3mZrgqRzNx_5gimli4read5dwarf5DwarfINtNtBL_12endian_slice11EndianSliceNtNtBN_9endianity12LittleEndianEEECsefmIBSMl6ne_3std
00000000000055cc l       .gcc_except_table	0000000000000000              GCC_except_table76
000000000001f4b0 l     F .text	0000000000000035              _RINvNtCshhmRwEtsTQ2_4core3ptr13drop_in_placeINtNtNtCsefmIBSMl6ne_3std4sync14reentrant_lock18ReentrantLockGuardINtNtB4_4cell7RefCellINtNtNtNtBN_2io8buffered10linewriter10LineWriterNtNtB2c_5stdio9StdoutRawEEEEBN_
000000000001f4f0 l     F .text	00000000000000fa              _RINvNtCshhmRwEtsTQ2_4core3ptr13drop_in_placeINtNtNtNtCsefmIBSMl6ne_3std2io8buffered10linewriter10LineWriterNtNtBN_5stdio9StdoutRawEEBP_
0000000000036e90 l     F .text	0000000000000235              _RNvMs_NtNtNtCsefmIBSMl6ne_3std2io8buffered9bufwriterINtB4_9BufWriterNtNtB8_5stdio9StdoutRawE9flush_bufBa_
00000000000055e8 l       .gcc_except_table	0000000000000000              GCC_except_table81
000000000001f5f0 l     F .text	0000000000000064              _RINvNtCshhmRwEtsTQ2_4core3ptr13drop_in_placeINtNtNtNtCsefmIBSMl6ne_3std4sync6poison5mutex10MutexGuardINtNtCsavYRE6QVrtQ_5alloc3vec3VechEEEBP_
000000000001f660 l     F .text	000000000000001d              _RINvNtCshhmRwEtsTQ2_4core3ptr13drop_in_placeINtNtNtNtCsefmIBSMl6ne_3std4sync9nonpoison6rwlock15RwLockReadGuardNtNtBP_9panicking4HookEEBP_
000000000001f680 l     F .text	0000000000000011              _RINvNtCshhmRwEtsTQ2_4core3ptr13drop_in_placeINtNvNtCsefmIBSMl6ne_3std2io17default_write_fmt7AdapterINtNtBL_6cursor6CursorQShEEEBN_
000000000001f6a0 l     F .text	0000000000000083              _RINvNtCshhmRwEtsTQ2_4core3ptr13drop_in_placeINtNvXsy_NtNtNtCsavYRE6QVrtQ_5alloc11collections5btree3mapINtBP_8IntoIterpppENtNtNtB4_3ops4drop4Drop4drop9DropGuardyINtNtB4_6result6ResultINtNtBV_4sync3ArcNtNtNtCse3mZrgqRzNx_5gimli4read6abbrev13AbbreviationsENtB3f_5ErrorENtNtBV_5alloc6GlobalEECsefmIBSMl6ne_3std
000000000003a2d0 l     F .text	00000000000003cd              _RNvMsz_NtNtNtCsavYRE6QVrtQ_5alloc11collections5btree3mapINtB5_8IntoIteryINtNtCshhmRwEtsTQ2_4core6result6ResultINtNtBb_4sync3ArcNtNtNtCse3mZrgqRzNx_5gimli4read6abbrev13AbbreviationsENtB25_5ErrorEE10dying_nextCsefmIBSMl6ne_3std
000000000001f730 l     F .text	0000000000000020              _RINvNtCshhmRwEtsTQ2_4core3ptr13drop_in_placeNCNvNtNtCsefmIBSMl6ne_3std3sys9backtrace10__print_fmt0EBO_
000000000001f750 l     F .text	0000000000000018              _RINvNtCshhmRwEtsTQ2_4core3ptr13drop_in_placeNtNtCsavYRE6QVrtQ_5alloc6string6StringECsefmIBSMl6ne_3std
000000000001f770 l     F .text	000000000000013d              _RINvNtCshhmRwEtsTQ2_4core3ptr13drop_in_placeNtNtNtCse3mZrgqRzNx_5gimli4read6abbrev13AbbreviationsECsefmIBSMl6ne_3std
000000000003a6a0 l     F .text	00000000000003cd              _RNvMsz_NtNtNtCsavYRE6QVrtQ_5alloc11collections5btree3mapINtB5_8IntoIteryNtNtNtCse3mZrgqRzNx_5gimli4read6abbrev12AbbreviationE10dying_nextCsefmIBSMl6ne_3std
00000000000055fc l       .gcc_except_table	0000000000000000              GCC_except_table100
0000000000005620 l       .gcc_except_table	0000000000000000              GCC_except_table101
000000000001fa40 l     F .text	0000000000000018              _RINvNtCshhmRwEtsTQ2_4core3ptr13drop_in_placeNtNtNtCsefmIBSMl6ne_3std3ffi6os_str8OsStringEBM_
000000000000562c l       .gcc_except_table	0000000000000000              GCC_except_table104
0000000000005648 l       .gcc_except_table	0000000000000000              GCC_except_table105
000000000001fa60 l     F .text	0000000000000024              _RINvNtCshhmRwEtsTQ2_4core3ptr13drop_in_placeNtNtNtNtCsefmIBSMl6ne_3std12backtrace_rs9backtrace9libunwind4BombEBO_
000000000001fa90 l     F .text	0000000000000049              _RINvNtCshhmRwEtsTQ2_4core3ptr13drop_in_placeNtNtNtNtCsefmIBSMl6ne_3std12backtrace_rs9symbolize5gimli7LibraryEBO_
0000000000005668 l       .gcc_except_table	0000000000000000              GCC_except_table109
000000000001fae0 l     F .text	000000000000001f              _RINvNtCshhmRwEtsTQ2_4core3ptr13drop_in_placeNtNtNtNtNtCsefmIBSMl6ne_3std12backtrace_rs9symbolize5gimli3elf6ObjectEBQ_
000000000003e8d0 l     F .text	000000000000055e              _RNvNtNtNtNtNtCsefmIBSMl6ne_3std3sys3pal4unix14stack_overflow3imp12drop_handler
0000000000005674 l       .gcc_except_table	0000000000000000              GCC_except_table117
000000000001fbe0 l     F .text	0000000000000050              _RINvNtCshhmRwEtsTQ2_4core3ptr13drop_in_placeNtNvMs_NtNtNtCsefmIBSMl6ne_3std2io8buffered9bufwriterINtBN_9BufWriterpE9flush_buf8BufGuardEBT_
000000000000568c l       .gcc_except_table	0000000000000000              GCC_except_table119
000000000001fc30 l     F .text	0000000000000018              _RINvNtCshhmRwEtsTQ2_4core3ptr13drop_in_placeNtNvXsf_NtNtCsavYRE6QVrtQ_5alloc5boxed7convertINtBQ_3BoxDNtNtB4_5error5ErrorNtNtB4_6marker4SyncNtB1W_4SendEL_EINtNtB4_7convert4FromNtNtBS_6string6StringE4from11StringErrorECsefmIBSMl6ne_3std
0000000000005698 l       .gcc_except_table	0000000000000000              GCC_except_table121
00000000000056b8 l       .gcc_except_table	0000000000000000              GCC_except_table124
000000000001fd90 l     F .text	00000000000002e9              _RINvNtNtCse3mZrgqRzNx_5gimli4read4line13parse_file_v5INtNtB4_12endian_slice11EndianSliceNtNtB6_9endianity12LittleEndianEECsefmIBSMl6ne_3std
0000000000020080 l     F .text	0000000000000a31              _RINvNtNtCse3mZrgqRzNx_5gimli4read4line15parse_attributeINtNtB4_12endian_slice11EndianSliceNtNtB6_9endianity12LittleEndianEECsefmIBSMl6ne_3std
0000000000020ac0 l     F .text	00000000000000e1              _RINvNtNtCse3mZrgqRzNx_5gimli4read4line18parse_directory_v5INtNtB4_12endian_slice11EndianSliceNtNtB6_9endianity12LittleEndianEECsefmIBSMl6ne_3std
00000000000430a0 l     F .text	00000000000000ff              _RNvYINtNtNtCse3mZrgqRzNx_5gimli4read12endian_slice11EndianSliceNtNtB9_9endianity12LittleEndianENtNtB7_6reader6Reader17read_sized_offsetCsefmIBSMl6ne_3std
0000000000042f40 l     F .text	00000000000000a6              _RNvYINtNtNtCse3mZrgqRzNx_5gimli4read12endian_slice11EndianSliceNtNtB9_9endianity12LittleEndianENtNtB7_6reader6Reader11read_offsetCsefmIBSMl6ne_3std
000000000002a720 l     F .text	000000000000002c              _RNCNvNtCsefmIBSMl6ne_3std5alloc8rust_oom0B5_
000000000002a8c0 l     F .text	00000000000000b0              _RNCNvNtCsefmIBSMl6ne_3std9panicking13panic_handler0B5_
0000000000022590 l     F .text	000000000000008c              _RINvNtNtCshhmRwEtsTQ2_4core3str11validations15next_code_pointINtNtNtB6_5slice4iter4IterhEECsefmIBSMl6ne_3std
0000000000022620 l     F .text	00000000000000ae              _RINvNtNtNtCsefmIBSMl6ne_3std3sys7helpers14small_c_string24run_with_cstr_allocatingINtNtCshhmRwEtsTQ2_4core6option6OptionNtNtNtB8_3ffi6os_str8OsStringEEB8_
000000000002abf0 l     F .text	0000000000000138              _RNCNvNtNtNtCsefmIBSMl6ne_3std3sys3env4unix6getenv0B9_
00000000000056e0 l       .gcc_except_table	0000000000000000              GCC_except_table139
00000000000056f4 l       .gcc_except_table	0000000000000000              GCC_except_table140
0000000000022790 l     F .text	00000000000000b5              _RINvNtNtNtCsefmIBSMl6ne_3std3sys7helpers14small_c_string24run_with_cstr_allocatingNtNtNtB6_2fs4unix4FileEB8_
0000000000005708 l       .gcc_except_table	0000000000000000              GCC_except_table141
0000000000022850 l     F .text	00000000000000b1              _RINvNtNtNtCsefmIBSMl6ne_3std3sys7helpers14small_c_string24run_with_cstr_allocatingNtNtNtB6_2fs4unix8FileAttrEB8_
000000000000571c l       .gcc_except_table	0000000000000000              GCC_except_table142
0000000000005730 l       .gcc_except_table	0000000000000000              GCC_except_table143
0000000000005744 l       .gcc_except_table	0000000000000000              GCC_except_table144
0000000000005758 l       .gcc_except_table	0000000000000000              GCC_except_table147
0000000000024100 l     F .text	000000000000067d              _RINvNtNtNtNtCshhmRwEtsTQ2_4core5slice4sort6stable5drift4sortNtNtCs7AZHiE2F3Qb_9addr2line4line12LineSequenceNCINvMNtCsavYRE6QVrtQ_5alloc5sliceSBW_11sort_by_keyyNCINvMs_BY_NtBY_5Lines5parseINtNtNtCse3mZrgqRzNx_5gimli4read12endian_slice11EndianSliceNtNtB36_9endianity12LittleEndianEEs_0E0ECsefmIBSMl6ne_3std
000000000000576c l       .gcc_except_table	0000000000000000              GCC_except_table148
0000000000024780 l     F .text	000000000000067d              _RINvNtNtNtNtCshhmRwEtsTQ2_4core5slice4sort6stable5drift4sortNtNtCs7AZHiE2F3Qb_9addr2line4unit9UnitRangeNCINvMNtCsavYRE6QVrtQ_5alloc5sliceSBW_11sort_by_keyyNCNvMs_BY_INtBY_8ResUnitsINtNtNtCse3mZrgqRzNx_5gimli4read12endian_slice11EndianSliceNtNtB2Z_9endianity12LittleEndianEE5parses2_0E0ECsefmIBSMl6ne_3std
0000000000005780 l       .gcc_except_table	0000000000000000              GCC_except_table149
0000000000024e00 l     F .text	00000000000006b2              _RINvNtNtNtNtCshhmRwEtsTQ2_4core5slice4sort6stable5drift4sortNtNtCs7AZHiE2F3Qb_9addr2line8function15FunctionAddressNCINvMNtCsavYRE6QVrtQ_5alloc5sliceSBW_11sort_by_keyyNCNvMs0_BY_INtBY_9FunctionsINtNtNtCse3mZrgqRzNx_5gimli4read12endian_slice11EndianSliceNtNtB3c_9endianity12LittleEndianEE5parses_0E0ECsefmIBSMl6ne_3std
0000000000005794 l       .gcc_except_table	0000000000000000              GCC_except_table150
00000000000254c0 l     F .text	00000000000006c3              _RINvNtNtNtNtCshhmRwEtsTQ2_4core5slice4sort6stable5drift4sortNtNtCs7AZHiE2F3Qb_9addr2line8function22InlinedFunctionAddressNCINvMNtCsavYRE6QVrtQ_5alloc5sliceSBW_7sort_byNCNvMs1_BY_INtBY_8FunctionINtNtNtCse3mZrgqRzNx_5gimli4read12endian_slice11EndianSliceNtNtB3c_9endianity12LittleEndianEE5parse0E0ECsefmIBSMl6ne_3std
00000000000057a8 l       .gcc_except_table	0000000000000000              GCC_except_table151
0000000000025b90 l     F .text	00000000000006a8              _RINvNtNtNtNtCshhmRwEtsTQ2_4core5slice4sort6stable5drift4sortTNtNtCse3mZrgqRzNx_5gimli6common15DebugInfoOffsetNtBZ_18DebugArangesOffsetENCINvMNtCsavYRE6QVrtQ_5alloc5sliceSBW_11sort_by_keyBX_NCNvMs_NtCs7AZHiE2F3Qb_9addr2line4unitINtB38_8ResUnitsINtNtNtB11_4read12endian_slice11EndianSliceNtNtB11_9endianity12LittleEndianEE5parse0E0ECsefmIBSMl6ne_3std
00000000000057bc l       .gcc_except_table	0000000000000000              GCC_except_table152
0000000000029520 l     F .text	000000000000041b              _RINvNtNtNtNtCshhmRwEtsTQ2_4core5slice4sort8unstable9quicksort9quicksortNtNtNtNtNtCsefmIBSMl6ne_3std12backtrace_rs9symbolize5gimli3elf9ParsedSymNCINvMB8_SB17_20sort_unstable_by_keyyNCNvMs_B19_NtB19_6Object5parses1_0E0EB1h_
0000000000023080 l     F .text	0000000000000019              _RINvNtNtNtNtCsefmIBSMl6ne_3std3sys12thread_local6native5eager7destroyINtNtCshhmRwEtsTQ2_4core4cell4CellINtNtB1a_6option6OptionINtNtCsavYRE6QVrtQ_5alloc4sync3ArcINtNtNtNtBa_4sync6poison5mutex5MutexINtNtB25_3vec3VechEEEEEEBa_
00000000000057d0 l       .gcc_except_table	0000000000000000              GCC_except_table155
000000000003cac0 l     F .text	00000000000002c8              _RNvNtNtNtCsefmIBSMl6ne_3std3sys2fs4unix9try_statx
00000000000057ec l       .gcc_except_table	0000000000000000              GCC_except_table156
00000000000230a0 l     F .text	00000000000000b2              _RINvNtNtNtNtCshhmRwEtsTQ2_4core5slice4sort6shared5pivot11median3_recNtNtCs7AZHiE2F3Qb_9addr2line4line12LineSequenceNCINvMNtCsavYRE6QVrtQ_5alloc5sliceSB14_11sort_by_keyyNCINvMs_B16_NtB16_5Lines5parseINtNtNtCse3mZrgqRzNx_5gimli4read12endian_slice11EndianSliceNtNtB3h_9endianity12LittleEndianEEs_0E0ECsefmIBSMl6ne_3std
0000000000023160 l     F .text	00000000000000b2              _RINvNtNtNtNtCshhmRwEtsTQ2_4core5slice4sort6shared5pivot11median3_recNtNtCs7AZHiE2F3Qb_9addr2line4unit9UnitRangeNCINvMNtCsavYRE6QVrtQ_5alloc5sliceSB14_11sort_by_keyyNCNvMs_B16_INtB16_8ResUnitsINtNtNtCse3mZrgqRzNx_5gimli4read12endian_slice11EndianSliceNtNtB3a_9endianity12LittleEndianEE5parses2_0E0ECsefmIBSMl6ne_3std
0000000000023220 l     F .text	00000000000000b3              _RINvNtNtNtNtCshhmRwEtsTQ2_4core5slice4sort6shared5pivot11median3_recNtNtCs7AZHiE2F3Qb_9addr2line8function15FunctionAddressNCINvMNtCsavYRE6QVrtQ_5alloc5sliceSB14_11sort_by_keyyNCNvMs0_B16_INtB16_9FunctionsINtNtNtCse3mZrgqRzNx_5gimli4read12endian_slice11EndianSliceNtNtB3n_9endianity12LittleEndianEE5parses_0E0ECsefmIBSMl6ne_3std
00000000000232e0 l     F .text	0000000000000103              _RINvNtNtNtNtCshhmRwEtsTQ2_4core5slice4sort6shared5pivot11median3_recNtNtCs7AZHiE2F3Qb_9addr2line8function22InlinedFunctionAddressNCINvMNtCsavYRE6QVrtQ_5alloc5sliceSB14_7sort_byNCNvMs1_B16_INtB16_8FunctionINtNtNtCse3mZrgqRzNx_5gimli4read12endian_slice11EndianSliceNtNtB3n_9endianity12LittleEndianEE5parse0E0ECsefmIBSMl6ne_3std
00000000000233f0 l     F .text	00000000000000b3              _RINvNtNtNtNtCshhmRwEtsTQ2_4core5slice4sort6shared5pivot11median3_recNtNtNtNtNtCsefmIBSMl6ne_3std12backtrace_rs9symbolize5gimli3elf9ParsedSymNCINvMB8_SB14_20sort_unstable_by_keyyNCNvMs_B16_NtB16_6Object5parses1_0E0EB1e_
00000000000234b0 l     F .text	00000000000000ac              _RINvNtNtNtNtCshhmRwEtsTQ2_4core5slice4sort6shared5pivot11median3_recTNtNtCse3mZrgqRzNx_5gimli6common15DebugInfoOffsetNtB17_18DebugArangesOffsetENCINvMNtCsavYRE6QVrtQ_5alloc5sliceSB14_11sort_by_keyB15_NCNvMs_NtCs7AZHiE2F3Qb_9addr2line4unitINtB3j_8ResUnitsINtNtNtB19_4read12endian_slice11EndianSliceNtNtB19_9endianity12LittleEndianEE5parse0E0ECsefmIBSMl6ne_3std
0000000000023560 l     F .text	0000000000000165              _RINvNtNtNtNtCshhmRwEtsTQ2_4core5slice4sort6shared9smallsort12sort4_stableNtNtCs7AZHiE2F3Qb_9addr2line8function22InlinedFunctionAddressNCINvMNtCsavYRE6QVrtQ_5alloc5sliceSB19_7sort_byNCNvMs1_B1b_INtB1b_8FunctionINtNtNtCse3mZrgqRzNx_5gimli4read12endian_slice11EndianSliceNtNtB3s_9endianity12LittleEndianEE5parse0E0ECsefmIBSMl6ne_3std
00000000000236d0 l     F .text	0000000000000376              _RINvNtNtNtNtCshhmRwEtsTQ2_4core5slice4sort6shared9smallsort12sort8_stableTNtNtCse3mZrgqRzNx_5gimli6common15DebugInfoOffsetNtB1c_18DebugArangesOffsetENCINvMNtCsavYRE6QVrtQ_5alloc5sliceSB19_11sort_by_keyB1a_NCNvMs_NtCs7AZHiE2F3Qb_9addr2line4unitINtB3o_8ResUnitsINtNtNtB1e_4read12endian_slice11EndianSliceNtNtB1e_9endianity12LittleEndianEE5parse0E0ECsefmIBSMl6ne_3std
0000000000023a50 l     F .text	0000000000000536              _RINvNtNtNtNtCshhmRwEtsTQ2_4core5slice4sort6shared9smallsort18small_sort_generalNtNtNtNtNtCsefmIBSMl6ne_3std12backtrace_rs9symbolize5gimli3elf9ParsedSymNCINvMB8_SB1f_20sort_unstable_by_keyyNCNvMs_B1h_NtB1h_6Object5parses1_0E0EB1p_
0000000000005800 l       .gcc_except_table	0000000000000000              GCC_except_table165
0000000000005810 l       .gcc_except_table	0000000000000000              GCC_except_table173
0000000000005824 l       .gcc_except_table	0000000000000000              GCC_except_table174
0000000000005838 l       .gcc_except_table	0000000000000000              GCC_except_table175
000000000000584c l       .gcc_except_table	0000000000000000              GCC_except_table176
0000000000005860 l       .gcc_except_table	0000000000000000              GCC_except_table177
0000000000029ad0 l     F .text	0000000000000069              _RINvXs_NvMNtCsavYRE6QVrtQ_5alloc5sliceSp9to_vec_inhNtB5_10ConvertVec6to_vecNtNtBa_5alloc6GlobalECsefmIBSMl6ne_3std
0000000000029b40 l     F .text	000000000000007d              _RNCINvMs0_NtNtCsefmIBSMl6ne_3std4sync4onceNtB8_4Once15call_once_forceNCINvMNtBa_9once_lockINtB1b_8OnceLockINtNtBa_14reentrant_lock13ReentrantLockINtNtCshhmRwEtsTQ2_4core4cell7RefCellINtNtNtNtBc_2io8buffered10linewriter10LineWriterNtNtB31_5stdio9StdoutRawEEEE10initializeNCINvB1a_11get_or_initNCNvB3I_6stdout0E0zE0E0Bc_
0000000000029bc0 l     F .text	0000000000000049              _RNCINvMs0_NtNtCsefmIBSMl6ne_3std4sync4onceNtB8_4Once15call_once_forceNCINvMNtBa_9once_lockINtB1b_8OnceLockINtNtBa_14reentrant_lock13ReentrantLockINtNtCshhmRwEtsTQ2_4core4cell7RefCellINtNtNtNtBc_2io8buffered10linewriter10LineWriterNtNtB31_5stdio9StdoutRawEEEE10initializeNCINvB1a_11get_or_initNCNvB3I_7cleanup0E0zE0E0Bc_
0000000000005874 l       .gcc_except_table	0000000000000000              GCC_except_table189
00000000000584f8 l     O .bss	0000000000000008              _RNvNvNtNtCsefmIBSMl6ne_3std3sys9backtrace4lock4LOCK
0000000000005888 l       .gcc_except_table	0000000000000000              GCC_except_table190
0000000000029c10 l     F .text	000000000000020b              _RNCINvMs0_NtNtCsefmIBSMl6ne_3std4sync4onceNtB8_4Once9call_onceNCNvNtBc_2rt7cleanup0E0Bc_
00000000000584e0 l     O .bss	0000000000000008              _RNvNvMNtNtCsefmIBSMl6ne_3std6thread2idNtB4_8ThreadId3new7COUNTER
00000000000584c8 l     O .bss	0000000000000008              _RNvNtNtNtNtNtCsefmIBSMl6ne_3std3sys3pal4unix14stack_overflow3imp13MAIN_ALTSTACK.0
000000000003f4b0 l     F .text	000000000000001d              _RNvNvMNtNtCsefmIBSMl6ne_3std6thread2idNtB4_8ThreadId3new9exhausted
00000000000058a0 l       .gcc_except_table	0000000000000000              GCC_except_table191
0000000000029e20 l     F .text	000000000000034b              _RNCINvNtNtCsefmIBSMl6ne_3std6thread7current17with_current_nameNCNCNvNtB8_9panicking12default_hook00uE0B8_
0000000000058470 l     O .bss	0000000000000008              _RNvNtNtCsefmIBSMl6ne_3std6thread11main_thread4MAIN.0
0000000000040000 l     F .text	0000000000000013              _RNvXs1i_NtCshhmRwEtsTQ2_4core3fmtReNtB6_7Display3fmtCsefmIBSMl6ne_3std
000000000003ff90 l     F .text	0000000000000062              _RNvXs1i_NtCshhmRwEtsTQ2_4core3fmtRNtNtNtB8_5panic8location8LocationNtB6_7Display3fmtCsefmIBSMl6ne_3std
00000000000431a0 l     F .text	0000000000000116              _RNvYINtNtNtCsefmIBSMl6ne_3std2io6cursor6CursorQShENtB7_5Write9write_fmtB9_
00000000000058cc l       .gcc_except_table	0000000000000000              GCC_except_table193
000000000002a170 l     F .text	0000000000000030              _RNCNCNCNvNtCsefmIBSMl6ne_3std2rt19lang_start_internal00s_0B9_
000000000002a1a0 l     F .text	0000000000000260              _RNCNCNvNtNtCsefmIBSMl6ne_3std3sys9backtrace10__print_fmts_00B9_
00000000000425c0 l     F .text	000000000000085d              _RNvXst_NtNtCshhmRwEtsTQ2_4core3str7patternReNtB5_7Pattern15is_contained_in
0000000000033960 l     F .text	00000000000003f2              _RNvMs_NtNtCsefmIBSMl6ne_3std12backtrace_rs5printNtB4_17BacktraceFrameFmt21print_raw_with_column
00000000000058f8 l       .gcc_except_table	0000000000000000              GCC_except_table198
0000000000005918 l       .gcc_except_table	0000000000000000              GCC_except_table199
0000000000058480 l     O .bss	000000000000000c              _RNvNtNtNtCsefmIBSMl6ne_3std3sys3env4unix8ENV_LOCK
000000000000593c l       .gcc_except_table	0000000000000000              GCC_except_table204
000000000002a6f0 l     F .text	0000000000000021              _RNCNvMsi_NtNtNtCsefmIBSMl6ne_3std3sys2fs4unixNtB7_4File4open0Bd_
000000000002a74c l     F .text	000000000000016f              _RNCNvNtCsefmIBSMl6ne_3std9panicking12default_hook0B5_
0000000000057a88 l     O .data	0000000000000001              _RNvNCNvNtCsefmIBSMl6ne_3std9panicking12default_hook011FIRST_PANIC
000000000000594c l       .gcc_except_table	0000000000000000              GCC_except_table208
000000000000595c l       .gcc_except_table	0000000000000000              GCC_except_table209
000000000002a970 l     F .text	000000000000001a              _RNCNvNtNtCsefmIBSMl6ne_3std3sys9backtrace10__print_fmt0B7_
000000000003c360 l     F .text	00000000000000ed              _RNvNtNtCsefmIBSMl6ne_3std3sys9backtrace15output_filename
000000000002a990 l     F .text	000000000000014c              _RNCNvNtNtCsefmIBSMl6ne_3std3sys9backtrace10__print_fmts_0B7_
0000000000005968 l       .gcc_except_table	0000000000000000              GCC_except_table217
000000000002aae0 l     F .text	00000000000000f0              _RNCNvNtNtCshhmRwEtsTQ2_4core3str7pattern13simd_containss0_0CsefmIBSMl6ne_3std
000000000002abd0 l     F .text	000000000000000c              _RNCNvNtNtNtCsefmIBSMl6ne_3std3sys11personality3gcc14find_eh_action0B9_
000000000002abe0 l     F .text	000000000000000c              _RNCNvNtNtNtCsefmIBSMl6ne_3std3sys11personality3gcc14find_eh_actions_0B9_
000000000000597c l       .gcc_except_table	0000000000000000              GCC_except_table225
0000000000005998 l       .gcc_except_table	0000000000000000              GCC_except_table228
00000000000059b4 l       .gcc_except_table	0000000000000000              GCC_except_table229
000000000002ad30 l     F .text	000000000000007d              _RNSNvYNCINvMs0_NtNtCsefmIBSMl6ne_3std4sync4onceNtBd_4Once15call_once_forceNCINvMNtBf_9once_lockINtB1g_8OnceLockINtNtBf_14reentrant_lock13ReentrantLockINtNtCshhmRwEtsTQ2_4core4cell7RefCellINtNtNtNtBh_2io8buffered10linewriter10LineWriterNtNtB36_5stdio9StdoutRawEEEE10initializeNCINvB1f_11get_or_initNCNvB3N_6stdout0E0zE0E0INtNtNtB2t_3ops8function6FnOnceTRNtBd_9OnceStateEE9call_once6vtableBh_
000000000002adb0 l     F .text	0000000000000049              _RNSNvYNCINvMs0_NtNtCsefmIBSMl6ne_3std4sync4onceNtBd_4Once15call_once_forceNCINvMNtBf_9once_lockINtB1g_8OnceLockINtNtBf_14reentrant_lock13ReentrantLockINtNtCshhmRwEtsTQ2_4core4cell7RefCellINtNtNtNtBh_2io8buffered10linewriter10LineWriterNtNtB36_5stdio9StdoutRawEEEE10initializeNCINvB1f_11get_or_initNCNvB3N_7cleanup0E0zE0E0INtNtNtB2t_3ops8function6FnOnceTRNtBd_9OnceStateEE9call_once6vtableBh_
00000000000059f0 l       .gcc_except_table	0000000000000000              GCC_except_table234
000000000002ae00 l     F .text	000000000000001e              _RNSNvYNCINvMs0_NtNtCsefmIBSMl6ne_3std4sync4onceNtBd_4Once9call_onceNCNvNtBh_2rt7cleanup0E0INtNtNtCshhmRwEtsTQ2_4core3ops8function6FnOnceTRNtBd_9OnceStateEE9call_once6vtableBh_
000000000002ae20 l     F .text	0000000000000005              _RNSNvYNCNCNvNtNtCsefmIBSMl6ne_3std3sys9backtrace10__print_fmts_00INtNtNtCshhmRwEtsTQ2_4core3ops8function6FnOnceTRNtNtNtBe_12backtrace_rs9symbolize6SymbolEE9call_once6vtableBe_
000000000002ae30 l     F .text	0000000000000082              _RNSNvYNCNvNtNtCsefmIBSMl6ne_3std3sys9backtrace10__print_fmt0INtNtNtCshhmRwEtsTQ2_4core3ops8function6FnOnceTQNtNtB13_3fmt9FormatterNtNtNtBc_12backtrace_rs5types17BytesOrWideStringEE9call_once6vtableBc_
0000000000005a04 l       .gcc_except_table	0000000000000000              GCC_except_table240
000000000002aec0 l     F .text	0000000000000005              _RNSNvYNCNvNtNtCsefmIBSMl6ne_3std3sys9backtrace10__print_fmts_0INtNtNtCshhmRwEtsTQ2_4core3ops8function6FnOnceTRNtNtNtBc_12backtrace_rs9backtrace5FrameEE9call_once6vtableBc_
000000000002aed0 l     F .text	000000000000000c              _RNSNvYNCNvNtNtNtCsefmIBSMl6ne_3std3sys11personality3gcc14find_eh_action0INtNtNtCshhmRwEtsTQ2_4core3ops8function6FnOnceuE9call_once6vtableBe_
000000000002aee0 l     F .text	000000000000000c              _RNSNvYNCNvNtNtNtCsefmIBSMl6ne_3std3sys11personality3gcc14find_eh_actions_0INtNtNtCshhmRwEtsTQ2_4core3ops8function6FnOnceuE9call_once6vtableBe_
0000000000005a10 l       .gcc_except_table	0000000000000000              GCC_except_table244
0000000000005a30 l       .gcc_except_table	0000000000000000              GCC_except_table251
0000000000005a44 l       .gcc_except_table	0000000000000000              GCC_except_table254
00000000000397b0 l     F .text	000000000000032d              _RNvMsf_NtNtCse3mZrgqRzNx_5gimli4read4unitINtB5_13EntriesCursorINtNtB7_12endian_slice11EndianSliceNtNtB9_9endianity12LittleEndianEE10next_entryCsefmIBSMl6ne_3std
0000000000005a58 l       .gcc_except_table	0000000000000000              GCC_except_table269
0000000000005a8c l       .gcc_except_table	0000000000000000              GCC_except_table319
0000000000005aa0 l       .gcc_except_table	0000000000000000              GCC_except_table322
0000000000005ad8 l       .gcc_except_table	0000000000000000              GCC_except_table323
000000000002c8a0 l     F .text	00000000000000f0              _RNvMNtNtNtNtCsefmIBSMl6ne_3std12backtrace_rs9symbolize5gimli5stashNtB2_5Stash8allocate
0000000000005b74 l       .gcc_except_table	0000000000000000              GCC_except_table324
0000000000005b88 l       .gcc_except_table	0000000000000000              GCC_except_table340
000000000005848c l     O .bss	0000000000000001              _RNvNtNtNtCsefmIBSMl6ne_3std3sys3pal4unix24ON_BROKEN_PIPE_FLAG_USED.0
0000000000005bac l       .gcc_except_table	0000000000000000              GCC_except_table341
0000000000005c8c l       .gcc_except_table	0000000000000000              GCC_except_table342
0000000000005ca8 l       .gcc_except_table	0000000000000000              GCC_except_table352
0000000000005cb4 l       .gcc_except_table	0000000000000000              GCC_except_table357
0000000000005cec l       .gcc_except_table	0000000000000000              GCC_except_table358
0000000000005d04 l       .gcc_except_table	0000000000000000              GCC_except_table365
0000000000005d18 l       .gcc_except_table	0000000000000000              GCC_except_table374
0000000000005d2c l       .gcc_except_table	0000000000000000              GCC_except_table381
0000000000005d54 l       .gcc_except_table	0000000000000000              GCC_except_table382
0000000000005d6c l       .gcc_except_table	0000000000000000              GCC_except_table384
000000000003fe10 l     F .text	00000000000000bc              _RNvXs1Y_NtCsefmIBSMl6ne_3std4pathNtB6_9ComponentNtNtCshhmRwEtsTQ2_4core3cmp9PartialEq2eq
0000000000005d80 l       .gcc_except_table	0000000000000000              GCC_except_table391
0000000000005d94 l       .gcc_except_table	0000000000000000              GCC_except_table398
0000000000005da8 l       .gcc_except_table	0000000000000000              GCC_except_table399
0000000000005dbc l       .gcc_except_table	0000000000000000              GCC_except_table400
0000000000005df0 l       .gcc_except_table	0000000000000000              GCC_except_table401
0000000000005e10 l       .gcc_except_table	0000000000000000              GCC_except_table402
0000000000005e24 l       .gcc_except_table	0000000000000000              GCC_except_table404
0000000000005e38 l       .gcc_except_table	0000000000000000              GCC_except_table411
0000000000005e5c l       .gcc_except_table	0000000000000000              GCC_except_table412
000000000003cda0 l     F .text	0000000000000089              _RNvNtNtNtCsefmIBSMl6ne_3std3sys3pal4unix17decode_error_kind
000000000003f5f0 l     F .text	0000000000000046              _RNvNvNtNtNtCsefmIBSMl6ne_3std12backtrace_rs9backtrace9libunwind5trace8trace_fn
0000000000005e90 l       .gcc_except_table	0000000000000000              GCC_except_table427
000000000002fba0 l     F .text	000000000000006e              _RNvMs4_NtCsavYRE6QVrtQ_5alloc7raw_vecINtB5_11RawVecInnerNtNtCsefmIBSMl6ne_3std5alloc6SystemE14grow_amortizedBW_
000000000002fb00 l     F .text	000000000000009c              _RNvMs4_NtCsavYRE6QVrtQ_5alloc7raw_vecINtB5_11RawVecInnerNtNtCsefmIBSMl6ne_3std5alloc6SystemE11finish_growBW_
0000000000042ff0 l     F .text	00000000000000ac              _RNvYINtNtNtCse3mZrgqRzNx_5gimli4read12endian_slice11EndianSliceNtNtB9_9endianity12LittleEndianENtNtB7_6reader6Reader12read_uleb128CsefmIBSMl6ne_3std
0000000000039550 l     F .text	0000000000000256              _RNvMsd_NtNtCse3mZrgqRzNx_5gimli4read4lineINtB5_9FileEntryINtNtB7_12endian_slice11EndianSliceNtNtB9_9endianity12LittleEndianEjE5parseCsefmIBSMl6ne_3std
0000000000005eb0 l       .gcc_except_table	0000000000000000              GCC_except_table447
0000000000032220 l     F .text	00000000000002a1              _RNvMs4_NtNtCse3mZrgqRzNx_5gimli4read7arangesINtB5_12ArangeHeaderINtNtB7_12endian_slice11EndianSliceNtNtB9_9endianity12LittleEndianEjE5parseCsefmIBSMl6ne_3std
0000000000005f34 l       .gcc_except_table	0000000000000000              GCC_except_table452
00000000000324d0 l     F .text	000000000000006f              _RNvMs5_NtNtNtCsefmIBSMl6ne_3std4sync6poison5mutexINtB5_5MutexINtNtCsavYRE6QVrtQ_5alloc3vec3VechEE4lockBb_
0000000000005f4c l       .gcc_except_table	0000000000000000              GCC_except_table460
0000000000032bc0 l     F .text	00000000000000f4              _RNvMs8_NtCsefmIBSMl6ne_3std4pathNtB5_10Components25parse_next_component_back
0000000000032f60 l     F .text	00000000000008d7              _RNvMs8_NtNtCse3mZrgqRzNx_5gimli4read5indexINtB5_9UnitIndexINtNtB7_12endian_slice11EndianSliceNtNtB9_9endianity12LittleEndianEE5parseCsefmIBSMl6ne_3std
0000000000033840 l     F .text	000000000000011c              _RNvMsD_NtCshhmRwEtsTQ2_4core3numy16from_ascii_radix
0000000000005f60 l       .gcc_except_table	0000000000000000              GCC_except_table470
0000000000005fc4 l       .gcc_except_table	0000000000000000              GCC_except_table474
00000000000425b0 l     F .text	0000000000000009              _RNvXsq_NtCshhmRwEtsTQ2_4core3fmtONtNtB7_3ffi6c_voidNtB5_5Debug3fmtCsefmIBSMl6ne_3std
0000000000006010 l       .gcc_except_table	0000000000000000              GCC_except_table482
0000000000006024 l       .gcc_except_table	0000000000000000              GCC_except_table486
000000000003aa70 l     F .text	0000000000000042              _RNvNtCsavYRE6QVrtQ_5alloc5alloc15exchange_malloc
0000000000006080 l       .gcc_except_table	0000000000000000              GCC_except_table487
0000000000006198 l       .gcc_except_table	0000000000000000              GCC_except_table490
00000000000061bc l       .gcc_except_table	0000000000000000              GCC_except_table492
00000000000061d0 l       .gcc_except_table	0000000000000000              GCC_except_table493
00000000000061ec l       .gcc_except_table	0000000000000000              GCC_except_table495
000000000003d220 l     F .text	0000000000000105              _RNvNtNtNtNtCsefmIBSMl6ne_3std12backtrace_rs9symbolize5gimli3elf15decompress_zlib
0000000000006208 l       .gcc_except_table	0000000000000000              GCC_except_table501
00000000000062b0 l       .gcc_except_table	0000000000000000              GCC_except_table502
00000000000062c4 l       .gcc_except_table	0000000000000000              GCC_except_table503
00000000000062d8 l       .gcc_except_table	0000000000000000              GCC_except_table504
000000000000630c l       .gcc_except_table	0000000000000000              GCC_except_table506
0000000000006320 l       .gcc_except_table	0000000000000000              GCC_except_table509
0000000000006338 l       .gcc_except_table	0000000000000000              GCC_except_table510
0000000000006354 l       .gcc_except_table	0000000000000000              GCC_except_table511
0000000000038400 l     F .text	0000000000000064              _RNvMsc_NtNtCse3mZrgqRzNx_5gimli4read4unitINtB5_14AttributeValueINtNtB7_12endian_slice11EndianSliceNtNtB9_9endianity12LittleEndianEjE8u8_valueCsefmIBSMl6ne_3std
0000000000038470 l     F .text	000000000000006c              _RNvMsc_NtNtCse3mZrgqRzNx_5gimli4read4unitINtB5_14AttributeValueINtNtB7_12endian_slice11EndianSliceNtNtB9_9endianity12LittleEndianEjE9u16_valueCsefmIBSMl6ne_3std
0000000000040930 l     F .text	000000000000004c              _RNvXsJ_NtNtCse3mZrgqRzNx_5gimli4read4unitINtB5_14AttributeValueINtNtB7_12endian_slice11EndianSliceNtNtB9_9endianity12LittleEndianEjENtNtCshhmRwEtsTQ2_4core5clone5Clone5cloneCsefmIBSMl6ne_3std
0000000000006370 l       .gcc_except_table	0000000000000000              GCC_except_table522
00000000000063c4 l       .gcc_except_table	0000000000000000              GCC_except_table523
0000000000006418 l       .gcc_except_table	0000000000000000              GCC_except_table531
0000000000006478 l       .gcc_except_table	0000000000000000              GCC_except_table532
0000000000006498 l       .gcc_except_table	0000000000000000              GCC_except_table538
00000000000064b4 l       .gcc_except_table	0000000000000000              GCC_except_table540
00000000000064c0 l       .gcc_except_table	0000000000000000              GCC_except_table542
00000000000064cc l       .gcc_except_table	0000000000000000              GCC_except_table543
000000000003a130 l     F .text	00000000000001a0              _RNvMsv_NtCshhmRwEtsTQ2_4core3numj16from_ascii_radix
00000000000064dc l       .gcc_except_table	0000000000000000              GCC_except_table557
00000000000064f0 l       .gcc_except_table	0000000000000000              GCC_except_table558
0000000000006504 l       .gcc_except_table	0000000000000000              GCC_except_table559
000000000003aac0 l     F .text	0000000000000182              _RNvNtCsefmIBSMl6ne_3std2fs24buffer_capacity_required
0000000000006518 l       .gcc_except_table	0000000000000000              GCC_except_table561
00000000000584d8 l     O .bss	0000000000000008              _RNvNtNtNtNtNtCsefmIBSMl6ne_3std3sys3pal4unix14stack_overflow3imp9PAGE_SIZE.0
00000000000584d0 l     O .bss	0000000000000001              _RNvNtNtNtNtNtCsefmIBSMl6ne_3std3sys3pal4unix14stack_overflow3imp13NEED_ALTSTACK.0
000000000003ee30 l     F .text	00000000000002aa              _RNvNtNtNtNtNtCsefmIBSMl6ne_3std3sys3pal4unix14stack_overflow3imp12make_handler
000000000003d860 l     F .text	000000000000106e              _RNvNtNtNtNtNtCsefmIBSMl6ne_3std3sys3pal4unix14stack_overflow11thread_info16set_current_info
000000000003f0e0 l     F .text	00000000000003cb              _RNvNtNtNtNtNtCsefmIBSMl6ne_3std3sys3pal4unix14stack_overflow3imp14signal_handler
0000000000058490 l     O .bss	0000000000000008              _RNvNtNtNtNtCsefmIBSMl6ne_3std3sys4args4unix3imp4ARGC.0
0000000000058498 l     O .bss	0000000000000008              _RNvNtNtNtNtCsefmIBSMl6ne_3std3sys4args4unix3imp4ARGV.0
0000000000058418 l     O .data	0000000000000004              _RNvNvNtCsefmIBSMl6ne_3std2rt7cleanup7CLEANUP
00000000000584f0 l     O .bss	0000000000000008              _RNvNvNtNtCsefmIBSMl6ne_3std3sys10exit_guard18unique_thread_exit17EXITING_THREAD_ID
0000000000000030 l       .tbss	0000000000000010              _RNvNCNKNvNtNtCsefmIBSMl6ne_3std9panicking11panic_count17LOCAL_PANIC_COUNT0s_023___RUST_STD_INTERNAL_VAL
0000000000006528 l       .gcc_except_table	0000000000000000              GCC_except_table562
0000000000006568 l       .gcc_except_table	0000000000000000              GCC_except_table564
000000000003c900 l     F .text	00000000000001bc              _RNvNtNtNtCsefmIBSMl6ne_3std3sys2fs4unix8readlink
0000000000006584 l       .gcc_except_table	0000000000000000              GCC_except_table565
0000000000006598 l       .gcc_except_table	0000000000000000              GCC_except_table566
00000000000065a8 l       .gcc_except_table	0000000000000000              GCC_except_table569
00000000000065c0 l       .gcc_except_table	0000000000000000              GCC_except_table570
00000000000065dc l       .gcc_except_table	0000000000000000              GCC_except_table571
000000000000662c l       .gcc_except_table	0000000000000000              GCC_except_table572
00000000000584e8 l     O .bss	0000000000000001              _RNvNvNtCsefmIBSMl6ne_3std5alloc24default_alloc_error_hook18PREV_ALLOC_FAILURE
0000000000006640 l       .gcc_except_table	0000000000000000              GCC_except_table576
0000000000058448 l     O .bss	0000000000000001              _RNvNtCsefmIBSMl6ne_3std5panic14SHOULD_CAPTURE
000000000003cd90 l     F .text	000000000000000a              _RNvNtNtNtCsefmIBSMl6ne_3std3sys3pal4unix14abort_internal
0000000000006658 l       .gcc_except_table	0000000000000000              GCC_except_table584
000000000000666c l       .gcc_except_table	0000000000000000              GCC_except_table585
0000000000040020 l     F .text	0000000000000010              _RNvXs1j_NtCshhmRwEtsTQ2_4core3fmtQDNtNtB8_5panic12PanicPayloadEL_NtB6_7Display3fmtCsefmIBSMl6ne_3std
0000000000006684 l       .gcc_except_table	0000000000000000              GCC_except_table587
00000000000066a8 l       .gcc_except_table	0000000000000000              GCC_except_table588
0000000000058468 l     O .bss	0000000000000001              _RNvNtNtCsefmIBSMl6ne_3std2io5stdio19OUTPUT_CAPTURE_USED.0
0000000000000020 l       .tbss	0000000000000010              _RNvNCNKNvNtNtCsefmIBSMl6ne_3std2io5stdio14OUTPUT_CAPTURE0023___RUST_STD_INTERNAL_VAL
00000000000066d0 l       .gcc_except_table	0000000000000000              GCC_except_table590
00000000000066e4 l       .gcc_except_table	0000000000000000              GCC_except_table591
000000000003bf00 l     F .text	0000000000000233              _RNvNtNtCsefmIBSMl6ne_3std2io5stdio31print_to_buffer_if_capture_used
00000000000066f4 l       .gcc_except_table	0000000000000000              GCC_except_table592
0000000000042e20 l     F .text	0000000000000116              _RNvYINtNtCsavYRE6QVrtQ_5alloc3vec3VechENtNtCsefmIBSMl6ne_3std2io5Write9write_fmtBF_
0000000000006708 l       .gcc_except_table	0000000000000000              GCC_except_table593
0000000000006724 l       .gcc_except_table	0000000000000000              GCC_except_table595
0000000000006748 l       .gcc_except_table	0000000000000000              GCC_except_table597
000000000000676c l       .gcc_except_table	0000000000000000              GCC_except_table598
0000000000006794 l       .gcc_except_table	0000000000000000              GCC_except_table609
00000000000067c8 l       .gcc_except_table	0000000000000000              GCC_except_table610
0000000000043ba0 l     F .text	00000000000000d8              _RNvYNvNtNtNtCsefmIBSMl6ne_3std3sys2fs4unix4statINtNtNtCshhmRwEtsTQ2_4core3ops8function2FnTRNtNtNtBQ_3ffi5c_str4CStrEE4callBa_
00000000000067dc l       .gcc_except_table	0000000000000000              GCC_except_table614
000000000003d790 l     F .text	00000000000000ca              _RNvNtNtNtNtCsefmIBSMl6ne_3std3sys12thread_local5guard3key6enable
0000000000006800 l       .gcc_except_table	0000000000000000              GCC_except_table623
0000000000006818 l       .gcc_except_table	0000000000000000              GCC_except_table627
000000000000683c l       .gcc_except_table	0000000000000000              GCC_except_table629
0000000000006908 l       .gcc_except_table	0000000000000000              GCC_except_table630
0000000000006924 l       .gcc_except_table	0000000000000000              GCC_except_table634
0000000000006984 l       .gcc_except_table	0000000000000000              GCC_except_table640
00000000000069a8 l       .gcc_except_table	0000000000000000              GCC_except_table645
0000000000006a00 l       .gcc_except_table	0000000000000000              GCC_except_table651
0000000000058500 l     O .bss	0000000000000001              _RNvNvNtNtNtCsefmIBSMl6ne_3std3sys2fs4unix9try_statx17STATX_SAVED_STATE.0
0000000000006a1c l       .gcc_except_table	0000000000000000              GCC_except_table657
0000000000006a48 l       .gcc_except_table	0000000000000000              GCC_except_table658
0000000000006a5c l       .gcc_except_table	0000000000000000              GCC_except_table660
0000000000006a90 l       .gcc_except_table	0000000000000000              GCC_except_table661
0000000000006ac4 l       .gcc_except_table	0000000000000000              GCC_except_table663
0000000000057ad0 l     O .data	0000000000000008              _rust_extern_with_linkage_a5f416d2deaea592___dso_handle
0000000000000000 l       .tdata	0000000000000020              _RNvNtNtNtNtCsefmIBSMl6ne_3std3sys12thread_local11destructors4list5DTORS
0000000000006ae8 l       .gcc_except_table	0000000000000000              GCC_except_table666
0000000000058420 l     O .data	0000000000000010              _RNvNvNtNtNtNtCsefmIBSMl6ne_3std3sys12thread_local5guard3key6enable5DTORS
0000000000006af8 l       .gcc_except_table	0000000000000000              GCC_except_table669
0000000000006b44 l       .gcc_except_table	0000000000000000              GCC_except_table670
0000000000006b68 l       .gcc_except_table	0000000000000000              GCC_except_table671
0000000000006b8c l       .gcc_except_table	0000000000000000              GCC_except_table677
0000000000006c04 l       .gcc_except_table	0000000000000000              GCC_except_table678
00000000000584b8 l     O .bss	0000000000000008              _RNvNtNtNtNtNtCsefmIBSMl6ne_3std3sys3pal4unix14stack_overflow11thread_info4LOCK
00000000000584c0 l     O .bss	0000000000000008              _RNvNtNtNtNtNtCsefmIBSMl6ne_3std3sys3pal4unix14stack_overflow11thread_info9SPIN_LOCK
00000000000584a0 l     O .bss	0000000000000008              _RNvNtNtNtNtNtCsefmIBSMl6ne_3std3sys3pal4unix14stack_overflow11thread_info11THREAD_INFO.0
00000000000584a8 l     O .bss	0000000000000008              _RNvNtNtNtNtNtCsefmIBSMl6ne_3std3sys3pal4unix14stack_overflow11thread_info11THREAD_INFO.1
00000000000584b0 l     O .bss	0000000000000008              _RNvNtNtNtNtNtCsefmIBSMl6ne_3std3sys3pal4unix14stack_overflow11thread_info11THREAD_INFO.2
0000000000006c1c l       .gcc_except_table	0000000000000000              GCC_except_table679
0000000000006c7c l       .gcc_except_table	0000000000000000              GCC_except_table680
0000000000006ca0 l       .gcc_except_table	0000000000000000              GCC_except_table681
0000000000006ccc l       .gcc_except_table	0000000000000000              GCC_except_table682
0000000000006cf4 l       .gcc_except_table	0000000000000000              GCC_except_table684
0000000000006d30 l       .gcc_except_table	0000000000000000              GCC_except_table690
0000000000006d64 l       .gcc_except_table	0000000000000000              GCC_except_table691
0000000000006d80 l       .gcc_except_table	0000000000000000              GCC_except_table692
0000000000006d94 l       .gcc_except_table	0000000000000000              GCC_except_table694
000000000003f640 l     F .text	00000000000000f2              _RNvNvNtNtNtNtCsefmIBSMl6ne_3std3sys12thread_local5guard3key6enable3run
0000000000006da8 l       .gcc_except_table	0000000000000000              GCC_except_table695
0000000000006dbc l       .gcc_except_table	0000000000000000              GCC_except_table700
000000000003f760 l     F .text	000000000000000e              _RNvXNtCshhmRwEtsTQ2_4core3anyNtNtCsavYRE6QVrtQ_5alloc6string6StringNtB2_3Any7type_idCsefmIBSMl6ne_3std
000000000003f770 l     F .text	000000000000000e              _RNvXNtCshhmRwEtsTQ2_4core3anyReNtB2_3Any7type_idCsefmIBSMl6ne_3std
0000000000006ddc l       .gcc_except_table	0000000000000000              GCC_except_table712
0000000000006dfc l       .gcc_except_table	0000000000000000              GCC_except_table717
0000000000006e20 l       .gcc_except_table	0000000000000000              GCC_except_table723
0000000000006e30 l       .gcc_except_table	0000000000000000              GCC_except_table724
0000000000006e68 l       .gcc_except_table	0000000000000000              GCC_except_table727
0000000000006e7c l       .gcc_except_table	0000000000000000              GCC_except_table730
0000000000006e94 l       .gcc_except_table	0000000000000000              GCC_except_table740
000000000003fa00 l     F .text	0000000000000098              _RNvXNvNtCsefmIBSMl6ne_3std2io17default_write_fmtINtB2_7AdapterINtNtB4_6cursor6CursorQShEENtNtCshhmRwEtsTQ2_4core3fmt5Write9write_strB6_
0000000000006eb0 l       .gcc_except_table	0000000000000000              GCC_except_table742
000000000003faa0 l     F .text	0000000000000067              _RNvXNvNtCsefmIBSMl6ne_3std2io17default_write_fmtINtB2_7AdapterINtNtCsavYRE6QVrtQ_5alloc3vec3VechEENtNtCshhmRwEtsTQ2_4core3fmt5Write9write_strB6_
0000000000006ec4 l       .gcc_except_table	0000000000000000              GCC_except_table744
000000000003fb10 l     F .text	0000000000000050              _RNvXNvNtCsefmIBSMl6ne_3std2io17default_write_fmtINtB2_7AdapterNtNtB4_5stdio10StdoutLockENtNtCshhmRwEtsTQ2_4core3fmt5Write9write_strB6_
0000000000006ed4 l       .gcc_except_table	0000000000000000              GCC_except_table745
000000000003fb60 l     F .text	00000000000000dd              _RNvXNvNtCsefmIBSMl6ne_3std2io17default_write_fmtINtB2_7AdapterNtNtNtNtB6_3sys5stdio4unix6StderrENtNtCshhmRwEtsTQ2_4core3fmt5Write9write_strB6_
0000000000006ee4 l       .gcc_except_table	0000000000000000              GCC_except_table746
0000000000006ef8 l       .gcc_except_table	0000000000000000              GCC_except_table747
00000000000437d0 l     F .text	0000000000000196              _RNvYNtNtNtNtCsefmIBSMl6ne_3std3sys5stdio4unix6StderrNtNtBa_2io5Write18write_all_vectoredBa_
0000000000006f0c l       .gcc_except_table	0000000000000000              GCC_except_table772
0000000000006f1c l       .gcc_except_table	0000000000000000              GCC_except_table788
000000000003fed0 l     F .text	000000000000000b              _RNvXs1_NvNtCsefmIBSMl6ne_3std9panicking13panic_handlerNtB5_16StaticStrPayloadNtNtCshhmRwEtsTQ2_4core5panic12PanicPayload3get
000000000003fee0 l     F .text	0000000000000008              _RNvXs1_NvNtCsefmIBSMl6ne_3std9panicking13panic_handlerNtB5_16StaticStrPayloadNtNtCshhmRwEtsTQ2_4core5panic12PanicPayload6as_str
0000000000006f48 l       .gcc_except_table	0000000000000000              GCC_except_table819
000000000003ff40 l     F .text	0000000000000026              _RNvXs1g_NtCshhmRwEtsTQ2_4core3fmtRlNtB6_5Debug3fmtCsefmIBSMl6ne_3std
000000000003ff70 l     F .text	0000000000000015              _RNvXs1g_NtCshhmRwEtsTQ2_4core3fmtRuNtB6_5Debug3fmtCsefmIBSMl6ne_3std
0000000000006f5c l       .gcc_except_table	0000000000000000              GCC_except_table856
0000000000006f6c l       .gcc_except_table	0000000000000000              GCC_except_table869
0000000000040130 l     F .text	0000000000000035              _RNvXs2a_NtCsefmIBSMl6ne_3std4pathNtB6_16StripPrefixErrorNtNtCshhmRwEtsTQ2_4core3fmt5Debug3fmt
0000000000006f7c l       .gcc_except_table	0000000000000000              GCC_except_table886
0000000000006f8c l       .gcc_except_table	0000000000000000              GCC_except_table887
0000000000006f9c l       .gcc_except_table	0000000000000000              GCC_except_table889
0000000000006fac l       .gcc_except_table	0000000000000000              GCC_except_table890
0000000000006fbc l       .gcc_except_table	0000000000000000              GCC_except_table898
00000000000401c0 l     F .text	0000000000000003              _RNvXs3_NtNtNtCsefmIBSMl6ne_3std3sys5stdio4unixNtB5_6StderrNtNtBb_2io5Write17is_write_vectored
00000000000401d0 l     F .text	0000000000000003              _RNvXs3_NtNtNtCsefmIBSMl6ne_3std3sys5stdio4unixNtB5_6StderrNtNtBb_2io5Write5flush
0000000000006fd0 l       .gcc_except_table	0000000000000000              GCC_except_table914
000000000000700c l       .gcc_except_table	0000000000000000              GCC_except_table920
000000000000701c l       .gcc_except_table	0000000000000000              GCC_except_table921
000000000000702c l       .gcc_except_table	0000000000000000              GCC_except_table923
000000000000703c l       .gcc_except_table	0000000000000000              GCC_except_table924
000000000000704c l       .gcc_except_table	0000000000000000              GCC_except_table945
0000000000007064 l       .gcc_except_table	0000000000000000              GCC_except_table946
0000000000007074 l       .gcc_except_table	0000000000000000              GCC_except_table949
0000000000007084 l       .gcc_except_table	0000000000000000              GCC_except_table950
00000000000070bc l       .gcc_except_table	0000000000000000              GCC_except_table957
00000000000070dc l       .gcc_except_table	0000000000000000              GCC_except_table958
0000000000007110 l       .gcc_except_table	0000000000000000              GCC_except_table960
0000000000042590 l     F .text	0000000000000014              _RNvXsq_NtCsavYRE6QVrtQ_5alloc6stringNtB5_6StringNtNtCshhmRwEtsTQ2_4core3fmt7Display3fmt
0000000000007134 l       .gcc_except_table	0000000000000000              GCC_except_table965
000000000000714c l       .gcc_except_table	0000000000000000              GCC_except_table979
0000000000040520 l     F .text	0000000000000187              _RNvXs9_NtNtCsefmIBSMl6ne_3std2io5implsINtNtCsavYRE6QVrtQ_5alloc3vec3VechENtB7_5Write14write_vectoredB9_
00000000000406b0 l     F .text	0000000000000003              _RNvXs9_NtNtCsefmIBSMl6ne_3std2io5implsINtNtCsavYRE6QVrtQ_5alloc3vec3VechENtB7_5Write17is_write_vectoredB9_
00000000000406c0 l     F .text	000000000000017c              _RNvXs9_NtNtCsefmIBSMl6ne_3std2io5implsINtNtCsavYRE6QVrtQ_5alloc3vec3VechENtB7_5Write18write_all_vectoredB9_
0000000000040840 l     F .text	0000000000000003              _RNvXs9_NtNtCsefmIBSMl6ne_3std2io5implsINtNtCsavYRE6QVrtQ_5alloc3vec3VechENtB7_5Write5flushB9_
0000000000040850 l     F .text	000000000000006b              _RNvXs9_NtNtCsefmIBSMl6ne_3std2io5implsINtNtCsavYRE6QVrtQ_5alloc3vec3VechENtB7_5Write5writeB9_
00000000000408c0 l     F .text	0000000000000067              _RNvXs9_NtNtCsefmIBSMl6ne_3std2io5implsINtNtCsavYRE6QVrtQ_5alloc3vec3VechENtB7_5Write9write_allB9_
000000000000716c l       .gcc_except_table	0000000000000000              GCC_except_table994
0000000000007180 l       .gcc_except_table	0000000000000000              GCC_except_table996
0000000000040a90 l     F .text	0000000000000112              _RNvXsZ_NtCsavYRE6QVrtQ_5alloc6stringNtB5_6StringNtNtCshhmRwEtsTQ2_4core3fmt5Write10write_char
0000000000040bb0 l     F .text	0000000000000067              _RNvXsZ_NtCsavYRE6QVrtQ_5alloc6stringNtB5_6StringNtNtCshhmRwEtsTQ2_4core3fmt5Write9write_str
0000000000007194 l       .gcc_except_table	0000000000000000              GCC_except_table1033
00000000000071bc l       .gcc_except_table	0000000000000000              GCC_except_table1041
00000000000071dc l       .gcc_except_table	0000000000000000              GCC_except_table1056
0000000000007200 l       .gcc_except_table	0000000000000000              GCC_except_table1057
0000000000007224 l       .gcc_except_table	0000000000000000              GCC_except_table1069
0000000000007230 l       .gcc_except_table	0000000000000000              GCC_except_table1070
0000000000007244 l       .gcc_except_table	0000000000000000              GCC_except_table1077
0000000000007258 l       .gcc_except_table	0000000000000000              GCC_except_table1092
000000000000726c l       .gcc_except_table	0000000000000000              GCC_except_table1093
000000000000728c l       .gcc_except_table	0000000000000000              GCC_except_table1094
00000000000072a0 l       .gcc_except_table	0000000000000000              GCC_except_table1118
00000000000072bc l       .gcc_except_table	0000000000000000              GCC_except_table1119
00000000000072cc l       .gcc_except_table	0000000000000000              GCC_except_table1120
00000000000072e8 l       .gcc_except_table	0000000000000000              GCC_except_table1121
00000000000072f8 l       .gcc_except_table	0000000000000000              GCC_except_table1122
0000000000007308 l       .gcc_except_table	0000000000000000              GCC_except_table1123
000000000000733c l       .gcc_except_table	0000000000000000              GCC_except_table1128
0000000000007348 l       .gcc_except_table	0000000000000000              GCC_except_table1129
0000000000007374 l       .gcc_except_table	0000000000000000              GCC_except_table1130
0000000000007380 l       .gcc_except_table	0000000000000000              GCC_except_table1131
000000000000739c l       .gcc_except_table	0000000000000000              GCC_except_table1132
00000000000073c0 l       .gcc_except_table	0000000000000000              GCC_except_table1138
00000000000073d0 l       .gcc_except_table	0000000000000000              GCC_except_table1142
00000000000073e8 l       .gcc_except_table	0000000000000000              GCC_except_table1145
0000000000007400 l       .gcc_except_table	0000000000000000              GCC_except_table1154
0000000000007418 l       .gcc_except_table	0000000000000000              GCC_except_table1155
0000000000007430 l       .gcc_except_table	0000000000000000              GCC_except_table1157
0000000000007444 l       .gcc_except_table	0000000000000000              GCC_except_table1158
0000000000007460 l       .gcc_except_table	0000000000000000              GCC_except_table1159
0000000000007474 l       .gcc_except_table	0000000000000000              GCC_except_table1160
0000000000007488 l       .gcc_except_table	0000000000000000              GCC_except_table1161
0000000000007498 l       .gcc_except_table	0000000000000000              GCC_except_table1162
00000000000074cc l       .gcc_except_table	0000000000000000              GCC_except_table1172
00000000000074d8 l       .gcc_except_table	0000000000000000              GCC_except_table1175
00000000000074ec l       .gcc_except_table	0000000000000000              GCC_except_table1186
0000000000007514 l       .gcc_except_table	0000000000000000              GCC_except_table1190
00000000000432c0 l     F .text	0000000000000122              _RNvYINtNvNtCsefmIBSMl6ne_3std2io17default_write_fmt7AdapterINtNtB7_6cursor6CursorQShEENtNtCshhmRwEtsTQ2_4core3fmt5Write10write_charB9_
000000000000753c l       .gcc_except_table	0000000000000000              GCC_except_table1191
00000000000433f0 l     F .text	0000000000000013              _RNvYINtNvNtCsefmIBSMl6ne_3std2io17default_write_fmt7AdapterINtNtB7_6cursor6CursorQShEENtNtCshhmRwEtsTQ2_4core3fmt5Write9write_fmtB9_
0000000000043410 l     F .text	00000000000000e5              _RNvYINtNvNtCsefmIBSMl6ne_3std2io17default_write_fmt7AdapterINtNtCsavYRE6QVrtQ_5alloc3vec3VechEENtNtCshhmRwEtsTQ2_4core3fmt5Write10write_charB9_
0000000000043500 l     F .text	0000000000000013              _RNvYINtNvNtCsefmIBSMl6ne_3std2io17default_write_fmt7AdapterINtNtCsavYRE6QVrtQ_5alloc3vec3VechEENtNtCshhmRwEtsTQ2_4core3fmt5Write9write_fmtB9_
0000000000007550 l       .gcc_except_table	0000000000000000              GCC_except_table1195
0000000000043520 l     F .text	00000000000000d6              _RNvYINtNvNtCsefmIBSMl6ne_3std2io17default_write_fmt7AdapterNtNtB7_5stdio10StdoutLockENtNtCshhmRwEtsTQ2_4core3fmt5Write10write_charB9_
0000000000007564 l       .gcc_except_table	0000000000000000              GCC_except_table1197
0000000000043600 l     F .text	0000000000000013              _RNvYINtNvNtCsefmIBSMl6ne_3std2io17default_write_fmt7AdapterNtNtB7_5stdio10StdoutLockENtNtCshhmRwEtsTQ2_4core3fmt5Write9write_fmtB9_
0000000000043620 l     F .text	000000000000015d              _RNvYINtNvNtCsefmIBSMl6ne_3std2io17default_write_fmt7AdapterNtNtNtNtB9_3sys5stdio4unix6StderrENtNtCshhmRwEtsTQ2_4core3fmt5Write10write_charB9_
0000000000007578 l       .gcc_except_table	0000000000000000              GCC_except_table1199
0000000000043780 l     F .text	0000000000000013              _RNvYINtNvNtCsefmIBSMl6ne_3std2io17default_write_fmt7AdapterNtNtNtNtB9_3sys5stdio4unix6StderrENtNtCshhmRwEtsTQ2_4core3fmt5Write9write_fmtB9_
000000000000758c l       .gcc_except_table	0000000000000000              GCC_except_table1201
00000000000437a0 l     F .text	0000000000000003              _RNvYINtNvNtCsefmIBSMl6ne_3std9panicking11begin_panic7PayloadReENtNtCshhmRwEtsTQ2_4core5panic12PanicPayload6as_strB9_
00000000000437b0 l     F .text	0000000000000013              _RNvYNtNtCsavYRE6QVrtQ_5alloc6string6StringNtNtCshhmRwEtsTQ2_4core3fmt5Write9write_fmtCsefmIBSMl6ne_3std
0000000000043970 l     F .text	00000000000000a4              _RNvYNtNtNtNtCsefmIBSMl6ne_3std3sys5stdio4unix6StderrNtNtBa_2io5Write9write_allBa_
00000000000075a0 l       .gcc_except_table	0000000000000000              GCC_except_table1213
0000000000043b40 l     F .text	000000000000000d              _RNvYNtNvXsf_NtNtCsavYRE6QVrtQ_5alloc5boxed7convertINtBc_3BoxDNtNtCshhmRwEtsTQ2_4core5error5ErrorNtNtB11_6marker4SyncNtB1y_4SendEL_EINtNtB11_7convert4FromNtNtBe_6string6StringE4from11StringErrorBX_11descriptionCsefmIBSMl6ne_3std
0000000000043b50 l     F .text	0000000000000003              _RNvYNtNvXsf_NtNtCsavYRE6QVrtQ_5alloc5boxed7convertINtBc_3BoxDNtNtCshhmRwEtsTQ2_4core5error5ErrorNtNtB11_6marker4SyncNtB1y_4SendEL_EINtNtB11_7convert4FromNtNtBe_6string6StringE4from11StringErrorBX_5causeCsefmIBSMl6ne_3std
0000000000043b60 l     F .text	0000000000000001              _RNvYNtNvXsf_NtNtCsavYRE6QVrtQ_5alloc5boxed7convertINtBc_3BoxDNtNtCshhmRwEtsTQ2_4core5error5ErrorNtNtB11_6marker4SyncNtB1y_4SendEL_EINtNtB11_7convert4FromNtNtBe_6string6StringE4from11StringErrorBX_7provideCsefmIBSMl6ne_3std
0000000000043b70 l     F .text	000000000000000e              _RNvYNtNvXsf_NtNtCsavYRE6QVrtQ_5alloc5boxed7convertINtBc_3BoxDNtNtCshhmRwEtsTQ2_4core5error5ErrorNtNtB11_6marker4SyncNtB1y_4SendEL_EINtNtB11_7convert4FromNtNtBe_6string6StringE4from11StringErrorBX_7type_idCsefmIBSMl6ne_3std
00000000000075c8 l       .gcc_except_table	0000000000000000              GCC_except_table1227
000000000002af40 l     F .text	000000000000005d              .hidden _RNvCsl5Zt2FtcpFZ_7___rustc11___rdl_alloc
000000000002afa0 l     F .text	0000000000000006              .hidden _RNvCsl5Zt2FtcpFZ_7___rustc13___rdl_dealloc
000000000002afb0 l     F .text	00000000000000a7              .hidden _RNvCsl5Zt2FtcpFZ_7___rustc13___rdl_realloc
000000000002b1b0 l     F .text	000000000000008c              .hidden _RNvCsl5Zt2FtcpFZ_7___rustc18___rdl_alloc_zeroed
0000000000000000 l    df *ABS*	0000000000000000              panic_unwind.39032b8f648ab0da-cgu.0
0000000000044240 l     F .text	000000000000008d              _RINvNtCshhmRwEtsTQ2_4core3ptr13drop_in_placeINtNtCsavYRE6QVrtQ_5alloc5boxed3BoxNtNtCs4Ttu7PFJIj6_12panic_unwind3imp9ExceptionEEB1j_
00000000000075e0 l       .gcc_except_table	0000000000000000              GCC_except_table0
00000000000442d0 l     F .text	0000000000000069              _RINvNtCshhmRwEtsTQ2_4core3ptr13drop_in_placeNtNtCs4Ttu7PFJIj6_12panic_unwind3imp9ExceptionEBK_
00000000000075ec l       .gcc_except_table	0000000000000000              GCC_except_table1
0000000000044450 l     F .text	0000000000000018              _RNvNvNtCs4Ttu7PFJIj6_12panic_unwind3imp5panic17exception_cleanup
000000000000bf24 l     O .rodata	0000000000000001              _RNvNtCs4Ttu7PFJIj6_12panic_unwind3imp6CANARY
00000000000075f8 l       .gcc_except_table	0000000000000000              GCC_except_table2
0000000000007618 l       .gcc_except_table	0000000000000000              GCC_except_table4
0000000000000000 l    df *ABS*	0000000000000000              object.7c35760b7980c53e-cgu.0
0000000000007620 l       .gcc_except_table	0000000000000000              GCC_except_table17
0000000000007638 l       .gcc_except_table	0000000000000000              GCC_except_table19
0000000000007650 l       .gcc_except_table	0000000000000000              GCC_except_table57
0000000000000000 l    df *ABS*	0000000000000000              memchr.b468506a9aa646c1-cgu.0
0000000000044690 l     F .text	00000000000001af              _RNvNvNtNtNtCsfuiTwxgcPoz_6memchr4arch6x86_646memchr10memchr_raw9find_sse2
0000000000000000 l    df *ABS*	0000000000000000              addr2line.587bc101f9b3ce89-cgu.0
000000000004483f l     F .text	0000000000000037              _RINvNtCshhmRwEtsTQ2_4core3ptr13drop_in_placeNtNtCsavYRE6QVrtQ_5alloc6string6StringECs7AZHiE2F3Qb_9addr2line
0000000000007660 l       .gcc_except_table	0000000000000000              GCC_except_table0
00000000000449c7 l     F .text	0000000000000033              _RNvNtCs7AZHiE2F3Qb_9addr2line4line23has_backward_slash_root
000000000000767c l       .gcc_except_table	0000000000000000              GCC_except_table8
0000000000000000 l    df *ABS*	0000000000000000              gimli.a3b32dd2888dd6c5-cgu.0
0000000000007694 l       .gcc_except_table	0000000000000000              GCC_except_table5
00000000000076a4 l       .gcc_except_table	0000000000000000              GCC_except_table7
00000000000076b4 l       .gcc_except_table	0000000000000000              GCC_except_table8
00000000000076d0 l       .gcc_except_table	0000000000000000              GCC_except_table9
00000000000076f0 l       .gcc_except_table	0000000000000000              GCC_except_table10
0000000000007700 l       .gcc_except_table	0000000000000000              GCC_except_table11
0000000000007720 l       .gcc_except_table	0000000000000000              GCC_except_table33
0000000000007730 l       .gcc_except_table	0000000000000000              GCC_except_table35
000000000000773c l       .gcc_except_table	0000000000000000              GCC_except_table36
0000000000007754 l       .gcc_except_table	0000000000000000              GCC_except_table37
0000000000007768 l       .gcc_except_table	0000000000000000              GCC_except_table50
000000000000777c l       .gcc_except_table	0000000000000000              GCC_except_table78
0000000000007788 l       .gcc_except_table	0000000000000000              GCC_except_table79
0000000000007798 l       .gcc_except_table	0000000000000000              GCC_except_table81
00000000000077ac l       .gcc_except_table	0000000000000000              GCC_except_table82
00000000000077c4 l       .gcc_except_table	0000000000000000              GCC_except_table83
00000000000077d8 l       .gcc_except_table	0000000000000000              GCC_except_table84
00000000000077ec l       .gcc_except_table	0000000000000000              GCC_except_table87
0000000000007800 l       .gcc_except_table	0000000000000000              GCC_except_table92
0000000000007814 l       .gcc_except_table	0000000000000000              GCC_except_table94
0000000000007828 l       .gcc_except_table	0000000000000000              GCC_except_table95
000000000000783c l       .gcc_except_table	0000000000000000              GCC_except_table96
0000000000007850 l       .gcc_except_table	0000000000000000              GCC_except_table99
0000000000007864 l       .gcc_except_table	0000000000000000              GCC_except_table100
0000000000007878 l       .gcc_except_table	0000000000000000              GCC_except_table101
000000000000788c l       .gcc_except_table	0000000000000000              GCC_except_table102
00000000000078a0 l       .gcc_except_table	0000000000000000              GCC_except_table103
00000000000078b4 l       .gcc_except_table	0000000000000000              GCC_except_table104
00000000000078c8 l       .gcc_except_table	0000000000000000              GCC_except_table106
00000000000078dc l       .gcc_except_table	0000000000000000              GCC_except_table107
00000000000078f0 l       .gcc_except_table	0000000000000000              GCC_except_table108
0000000000007904 l       .gcc_except_table	0000000000000000              GCC_except_table109
0000000000007918 l       .gcc_except_table	0000000000000000              GCC_except_table110
000000000000792c l       .gcc_except_table	0000000000000000              GCC_except_table112
0000000000007940 l       .gcc_except_table	0000000000000000              GCC_except_table113
0000000000007954 l       .gcc_except_table	0000000000000000              GCC_except_table114
0000000000007968 l       .gcc_except_table	0000000000000000              GCC_except_table115
000000000000797c l       .gcc_except_table	0000000000000000              GCC_except_table116
0000000000007990 l       .gcc_except_table	0000000000000000              GCC_except_table117
00000000000079a4 l       .gcc_except_table	0000000000000000              GCC_except_table118
00000000000079b8 l       .gcc_except_table	0000000000000000              GCC_except_table119
00000000000079cc l       .gcc_except_table	0000000000000000              GCC_except_table122
00000000000079e4 l       .gcc_except_table	0000000000000000              GCC_except_table123
00000000000079f8 l       .gcc_except_table	0000000000000000              GCC_except_table126
0000000000007a0c l       .gcc_except_table	0000000000000000              GCC_except_table128
0000000000000000 l    df *ABS*	0000000000000000              rustc_demangle.cc866b8af438ad7a-cgu.0
000000000004b604 l     F .text	0000000000000372              _RNvXsv_NtNtCshhmRwEtsTQ2_4core3str7patternNtB5_11StrSearcherNtB5_8Searcher4next
00000000000460a9 l     F .text	00000000000000ee              _RINvMs4_NtCshyGilOMHUF2_14rustc_demangle2v0NtB6_7Printer13print_backrefNCNvB2_10print_paths_0EB8_
000000000004839e l     F .text	000000000000007e              _RNvMs2_NtCshyGilOMHUF2_14rustc_demangle2v0NtB5_6Parser7backref
000000000004846b l     F .text	00000000000006dc              _RNvMs4_NtCshyGilOMHUF2_14rustc_demangle2v0NtB5_7Printer10print_path
0000000000046197 l     F .text	00000000000000ee              _RINvMs4_NtCshyGilOMHUF2_14rustc_demangle2v0NtB6_7Printer13print_backrefNCNvB2_11print_consts4_0EB8_
0000000000049056 l     F .text	00000000000006a7              _RNvMs4_NtCshyGilOMHUF2_14rustc_demangle2v0NtB5_7Printer11print_const
0000000000046285 l     F .text	00000000000000e1              _RINvMs4_NtCshyGilOMHUF2_14rustc_demangle2v0NtB6_7Printer13print_backrefNvB2_10print_typeEB8_
0000000000048b47 l     F .text	000000000000050f              _RNvMs4_NtCshyGilOMHUF2_14rustc_demangle2v0NtB5_7Printer10print_type
0000000000046366 l     F .text	0000000000000097              _RINvMs4_NtCshyGilOMHUF2_14rustc_demangle2v0NtB6_7Printer14print_sep_listNCNvB2_11print_consts0_0EB8_
00000000000463fd l     F .text	00000000000000a2              _RINvMs4_NtCshyGilOMHUF2_14rustc_demangle2v0NtB6_7Printer14print_sep_listNCNvB2_11print_consts1_0EB8_
000000000004649f l     F .text	00000000000001d9              _RINvMs4_NtCshyGilOMHUF2_14rustc_demangle2v0NtB6_7Printer14print_sep_listNCNvB2_11print_consts3_0EB8_
0000000000048150 l     F .text	0000000000000074              _RNvMs2_NtCshyGilOMHUF2_14rustc_demangle2v0NtB5_6Parser14opt_integer_62
00000000000481c4 l     F .text	00000000000001da              _RNvMs2_NtCshyGilOMHUF2_14rustc_demangle2v0NtB5_6Parser5ident
0000000000046678 l     F .text	000000000000009d              _RINvMs4_NtCshyGilOMHUF2_14rustc_demangle2v0NtB6_7Printer14print_sep_listNvB2_10print_typeEB8_
0000000000046715 l     F .text	000000000000022d              _RINvMs4_NtCshyGilOMHUF2_14rustc_demangle2v0NtB6_7Printer14print_sep_listNvB2_15print_dyn_traitEB8_
0000000000049c8d l     F .text	0000000000000147              _RNvMs4_NtCshyGilOMHUF2_14rustc_demangle2v0NtB5_7Printer30print_path_maybe_open_generics
0000000000046942 l     F .text	0000000000000145              _RINvMs4_NtCshyGilOMHUF2_14rustc_demangle2v0NtB6_7Printer14print_sep_listNvB2_17print_generic_argEB8_
0000000000048011 l     F .text	00000000000000a0              _RNvMs2_NtCshyGilOMHUF2_14rustc_demangle2v0NtB5_6Parser10integer_62
0000000000049b9c l     F .text	00000000000000f1              _RNvMs4_NtCshyGilOMHUF2_14rustc_demangle2v0NtB5_7Printer25print_lifetime_from_index
0000000000046a87 l     F .text	0000000000000056              _RINvMs4_NtCshyGilOMHUF2_14rustc_demangle2v0NtB6_7Printer17skipping_printingNCNvB2_10print_path0EB8_
0000000000046add l     F .text	00000000000001ae              _RINvMs4_NtCshyGilOMHUF2_14rustc_demangle2v0NtB6_7Printer26print_quoted_escaped_charsINtNtNtNtCshhmRwEtsTQ2_4core4iter7sources4once4OncecEEB8_
0000000000046f8c l     F .text	00000000000000be              _RINvNtCshhmRwEtsTQ2_4core6escape14escape_unicodeKja_ECshyGilOMHUF2_14rustc_demangle
0000000000046c8b l     F .text	0000000000000183              _RINvMs4_NtCshyGilOMHUF2_14rustc_demangle2v0NtB6_7Printer9in_binderNCNvB2_10print_type0EB8_
000000000004704a l     F .text	000000000000038c              _RNCNvMs4_NtCshyGilOMHUF2_14rustc_demangle2v0NtB7_7Printer10print_type0B9_
0000000000046e0e l     F .text	000000000000017e              _RINvMs4_NtCshyGilOMHUF2_14rustc_demangle2v0NtB6_7Printer9in_binderNCNvB2_10print_types_0EB8_
0000000000049fb7 l     F .text	0000000000000160              _RNvMsf_NtNtCshhmRwEtsTQ2_4core3str4iterINtB5_13SplitInternalcE4nextCshyGilOMHUF2_14rustc_demangle
0000000000047f13 l     F .text	00000000000000fe              _RNvMs1_NtCshyGilOMHUF2_14rustc_demangle2v0NtB5_10HexNibbles14try_parse_uint
00000000000480b1 l     F .text	000000000000009f              _RNvMs2_NtCshyGilOMHUF2_14rustc_demangle2v0NtB5_6Parser11hex_nibbles
000000000004841c l     F .text	000000000000004f              _RNvMs2_NtCshyGilOMHUF2_14rustc_demangle2v0NtB5_6Parser9namespace
000000000004a117 l     F .text	000000000000002b              _RNvNtCshyGilOMHUF2_14rustc_demangle2v010basic_type
0000000000049dd4 l     F .text	00000000000001e3              _RNvMs4_NtCshyGilOMHUF2_14rustc_demangle2v0NtB5_7Printer9print_pat
00000000000496fd l     F .text	0000000000000169              _RNvMs4_NtCshyGilOMHUF2_14rustc_demangle2v0NtB5_7Printer16print_const_uint
0000000000049866 l     F .text	0000000000000336              _RNvMs4_NtCshyGilOMHUF2_14rustc_demangle2v0NtB5_7Printer23print_const_str_literal
000000000004ac62 l     F .text	00000000000002d4              _RNvXNtNtNtCshhmRwEtsTQ2_4core4iter7sources7from_fnINtB2_6FromFnNCNvMs1_NtCshyGilOMHUF2_14rustc_demangle2v0NtB17_10HexNibbles19try_parse_str_charss0_0ENtNtNtB6_6traits8iterator8Iterator4nextB19_
000000000004ac4d l     F .text	0000000000000015              _RNvXNtNtCshhmRwEtsTQ2_4core3str4iterNtB2_5CharsNtNtNtNtB6_4iter6traits8iterator8Iterator5count
000000000004b4d0 l     F .text	0000000000000015              _RNvXs8_CshyGilOMHUF2_14rustc_demangleNtB5_18SizeLimitExhaustedNtNtCshhmRwEtsTQ2_4core3fmt5Debug3fmt
000000000004b4e5 l     F .text	0000000000000015              _RNvXsK_NtCshhmRwEtsTQ2_4core3fmtNtB5_5ErrorNtB5_5Debug3fmt
000000000004b53d l     F .text	0000000000000045              _RNvXsc_NtNtCshhmRwEtsTQ2_4core3num5errorNtB5_13ParseIntErrorNtNtB9_3fmt5Debug3fmt
000000000004b5ef l     F .text	0000000000000015              _RNvXss_NtCshhmRwEtsTQ2_4core3fmtuNtB5_5Debug3fmt
0000000000000000 l    df *ABS*	0000000000000000              miniz_oxide.8cc9556e932dfe06-cgu.0
000000000004dc1a l     F .text	00000000000003f7              _RNvNtNtCsc5oZdsSfmiE_11miniz_oxide7inflate4core9init_tree
000000000004d82c l     F .text	00000000000003ee              _RNvNtNtCsc5oZdsSfmiE_11miniz_oxide7inflate4core8transfer
000000000004d3e8 l     F .text	0000000000000444              _RNvNtNtCsc5oZdsSfmiE_11miniz_oxide7inflate4core15decompress_fast
000000000004d299 l     F .text	000000000000014f              _RNvNtNtCsc5oZdsSfmiE_11miniz_oxide7inflate4core11apply_match
0000000000000000 l    df *ABS*	0000000000000000              adler2.7eaf8f592c1890ec-cgu.0
0000000000000000 l    df *ABS*	0000000000000000              alloc.7a7c0300d30d45e0-cgu.0
000000000004e400 l     F .text	0000000000000072              _RINvNvMs2_NtCsavYRE6QVrtQ_5alloc7raw_vecINtB8_11RawVecInnerpE7reserve21do_reserve_and_handleNtNtBa_5alloc6GlobalEBa_
000000000004e750 l     F .text	0000000000000092              _RNvMs4_NtCsavYRE6QVrtQ_5alloc7raw_vecNtB5_11RawVecInner11finish_growB7_
0000000000007a24 l       .gcc_except_table	0000000000000000              GCC_except_table3
0000000000007a3c l       .gcc_except_table	0000000000000000              GCC_except_table5
0000000000007a54 l       .gcc_except_table	0000000000000000              GCC_except_table7
0000000000007a6c l       .gcc_except_table	0000000000000000              GCC_except_table8
0000000000007a88 l       .gcc_except_table	0000000000000000              GCC_except_table9
0000000000007ab0 l       .gcc_except_table	0000000000000000              GCC_except_table11
0000000000007acc l       .gcc_except_table	0000000000000000              GCC_except_table12
0000000000007af4 l       .gcc_except_table	0000000000000000              GCC_except_table13
0000000000007b00 l       .gcc_except_table	0000000000000000              GCC_except_table16
0000000000007b10 l       .gcc_except_table	0000000000000000              GCC_except_table19
0000000000007b34 l       .gcc_except_table	0000000000000000              GCC_except_table20
0000000000007b68 l       .gcc_except_table	0000000000000000              GCC_except_table21
0000000000007b80 l       .gcc_except_table	0000000000000000              GCC_except_table25
0000000000007ba0 l       .gcc_except_table	0000000000000000              GCC_except_table32
0000000000007bcc l       .gcc_except_table	0000000000000000              GCC_except_table34
0000000000007bdc l       .gcc_except_table	0000000000000000              GCC_except_table35
0000000000007bf4 l       .gcc_except_table	0000000000000000              GCC_except_table37
0000000000007c08 l       .gcc_except_table	0000000000000000              GCC_except_table39
0000000000007c14 l       .gcc_except_table	0000000000000000              GCC_except_table50
0000000000007c30 l       .gcc_except_table	0000000000000000              GCC_except_table54
0000000000007c44 l       .gcc_except_table	0000000000000000              GCC_except_table62
0000000000007c58 l       .gcc_except_table	0000000000000000              GCC_except_table71
0000000000007c68 l       .gcc_except_table	0000000000000000              GCC_except_table72
0000000000007c78 l       .gcc_except_table	0000000000000000              GCC_except_table75
0000000000007c84 l       .gcc_except_table	0000000000000000              GCC_except_table77
0000000000007c94 l       .gcc_except_table	0000000000000000              GCC_except_table80
0000000000007ca8 l       .gcc_except_table	0000000000000000              GCC_except_table84
0000000000007cb4 l       .gcc_except_table	0000000000000000              GCC_except_table85
0000000000007cc8 l       .gcc_except_table	0000000000000000              GCC_except_table87
0000000000007ce8 l       .gcc_except_table	0000000000000000              GCC_except_table88
0000000000007cfc l       .gcc_except_table	0000000000000000              GCC_except_table89
0000000000007d10 l       .gcc_except_table	0000000000000000              GCC_except_table91
0000000000007d1c l       .gcc_except_table	0000000000000000              GCC_except_table95
0000000000000000 l    df *ABS*	0000000000000000              core.c945c22d053963e8-cgu.0
0000000000052710 l     F .text	0000000000000013              _RNvXs1i_NtCshhmRwEtsTQ2_4core3fmtReNtB6_7Display3fmtB8_
000000000004eb60 l     F .text	0000000000000223              _RNvMNtNtCshhmRwEtsTQ2_4core4char7methodsc16escape_debug_ext
0000000000051e30 l     F .text	0000000000000054              _RNvNvMsa_NtCshhmRwEtsTQ2_4core3fmtNtB7_9Formatter12pad_integral12write_prefix
000000000004fd30 l     F .text	00000000000001ae              _RNvMsa_NtNtNtCshhmRwEtsTQ2_4core3fmt3num3impm10__fmt_inner
000000000004fee0 l     F .text	00000000000001bc              _RNvMsf_NtNtNtCshhmRwEtsTQ2_4core3fmt3num3impy10__fmt_inner
0000000000052b00 l     F .text	000000000000004a              _RNvXs_NtNtCshhmRwEtsTQ2_4core3ops5rangeINtB4_5RangejENtNtB8_3fmt5Debug3fmtB8_
0000000000052610 l     F .text	0000000000000010              _RNvXs1g_NtCshhmRwEtsTQ2_4core3fmtRDNtB6_5DebugEL_Bx_3fmtB8_
0000000000007d38 l       .gcc_except_table	0000000000000000              GCC_except_table143
000000000000d3c0 l     O .rodata	0000000000000084              _RNvNtNtNtCshhmRwEtsTQ2_4core7unicode12unicode_data15grapheme_extend17SHORT_OFFSET_RUNS
000000000000c854 l     O .rodata	00000000000002ff              _RNvNtNtNtCshhmRwEtsTQ2_4core7unicode12unicode_data15grapheme_extend7OFFSETS
0000000000052a10 l     F .text	00000000000000ec              _RNvXsZ_NtNtCshhmRwEtsTQ2_4core3fmt3numjNtB7_5Debug3fmt
0000000000052620 l     F .text	00000000000000ec              _RNvXs1g_NtCshhmRwEtsTQ2_4core3fmtRyNtB6_5Debug3fmtB8_
00000000000532c0 l     F .text	0000000000000013              _RNvYNtNtNtCshhmRwEtsTQ2_4core3fmt8builders10PadAdapterNtB6_5Write9write_fmtB8_
0000000000000000 l    df *ABS*	0000000000000000              compiler_builtins.839caebdbfecad6c-cgu.190
0000000000000000 l    df *ABS*	0000000000000000              compiler_builtins.839caebdbfecad6c-cgu.198
0000000000000000 l    df *ABS*	0000000000000000              compiler_builtins.839caebdbfecad6c-cgu.209
0000000000000000 l    df *ABS*	0000000000000000              compiler_builtins.839caebdbfecad6c-cgu.261
000000000000e598 l     O .eh_frame	0000000000000000              __FRAME_END__
0000000000057a78 l     O .tm_clone_table	0000000000000000              .hidden __TMC_END__
0000000000056a50 l       .got.plt	0000000000000000              .hidden _GLOBAL_OFFSET_TABLE_
0000000000055fc0 l       .dynamic	0000000000000000              .hidden _DYNAMIC
00000000000532d4 l     F .init	0000000000000000              .hidden _init
00000000000532f0 l     F .fini	0000000000000000              .hidden _fini
00000000000148b0 g     F .text	0000000000000026              _start
0000000000014a70 g     F .text	0000000000000020              main
0000000000000000       F *UND*	0000000000000000              __libc_start_main
0000000000000000  w      *UND*	0000000000000000              __gmon_start__
0000000000000000  w      *UND*	0000000000000000              _ITM_deregisterTMCloneTable
0000000000000000  w      *UND*	0000000000000000              _ITM_registerTMCloneTable
0000000000000000  w    F *UND*	0000000000000000              __cxa_finalize
000000000002aef0 g     F .text	000000000000004b              _RNvCsl5Zt2FtcpFZ_7___rustc10rust_panic
000000000002b060 g     F .text	0000000000000125              _RNvCsl5Zt2FtcpFZ_7___rustc17___rust_drop_panic
000000000002b190 g     F .text	000000000000001d              _RNvCsl5Zt2FtcpFZ_7___rustc17rust_begin_unwind
000000000002b240 g     F .text	0000000000000125              _RNvCsl5Zt2FtcpFZ_7___rustc24___rust_foreign_exception
000000000002b370 g     F .text	0000000000000013              _RNvCsl5Zt2FtcpFZ_7___rustc26___rust_alloc_error_handler
0000000000054358 g     O .init_array	0000000000000008              _RNvNtNtNtNtCsefmIBSMl6ne_3std3sys4args4unix3imp15ARGV_INIT_ARRAY
0000000000043c80 g     F .text	00000000000005bf              rust_eh_personality
0000000000044340 g     F .text	00000000000000a1              _RNvCsl5Zt2FtcpFZ_7___rustc18___rust_start_panic
00000000000443f0 g     F .text	0000000000000052              _RNvCsl5Zt2FtcpFZ_7___rustc20___rust_panic_cleanup
0000000000000000       F *UND*	0000000000000000              _Unwind_Resume
0000000000007d48  w    O .debug_gdb_scripts	0000000000000022              __rustc_debug_gdb_scripts_section__
000000000003c140 g     F .text	00000000000000cd              _RNvNtNtCsefmIBSMl6ne_3std2io5stdio6__print
000000000003ac50 g     F .text	00000000000006cb              _RNvNtCsefmIBSMl6ne_3std2rt19lang_start_internal
0000000000014b50 g     F .text	0000000000000005              _RNvCsl5Zt2FtcpFZ_7___rustc12___rust_alloc
0000000000014b60 g     F .text	0000000000000005              _RNvCsl5Zt2FtcpFZ_7___rustc14___rust_dealloc
0000000000014b70 g     F .text	0000000000000005              _RNvCsl5Zt2FtcpFZ_7___rustc14___rust_realloc
0000000000014b80 g     F .text	0000000000000005              _RNvCsl5Zt2FtcpFZ_7___rustc19___rust_alloc_zeroed
0000000000014b90 g     F .text	0000000000000001              _RNvCsl5Zt2FtcpFZ_7___rustc35___rust_no_alloc_shim_is_unstable_v2
000000000002d050 g     F .text	000000000000021c              _RNvMs0_NtNtNtNtCsefmIBSMl6ne_3std3sys4sync4once5futexNtB5_4Once4call
0000000000022d00 g     F .text	0000000000000139              _RINvNtNtNtCshhmRwEtsTQ2_4core5slice4sort6stable14driftsort_mainNtNtCs7AZHiE2F3Qb_9addr2line8function22InlinedFunctionAddressNCINvMNtCsavYRE6QVrtQ_5alloc5sliceSBZ_7sort_byNCNvMs1_B11_INtB11_8FunctionINtNtNtCse3mZrgqRzNx_5gimli4read12endian_slice11EndianSliceNtNtB3h_9endianity12LittleEndianEE5parse0E0INtNtB26_3vec3VecBZ_EECsefmIBSMl6ne_3std
000000000002f600 g     F .text	0000000000000067              _RNvMs3_NtCsavYRE6QVrtQ_5alloc7raw_vecINtB5_6RawVecINtNtB7_3vec3VechEE8grow_oneCsefmIBSMl6ne_3std
000000000002f7c0 g     F .text	0000000000000067              _RNvMs3_NtCsavYRE6QVrtQ_5alloc7raw_vecINtB5_6RawVecINtNtCs7AZHiE2F3Qb_9addr2line8function12LazyFunctionINtNtNtCse3mZrgqRzNx_5gimli4read12endian_slice11EndianSliceNtNtB1J_9endianity12LittleEndianEEE8grow_oneCsefmIBSMl6ne_3std
0000000000022ba0 g     F .text	0000000000000159              _RINvNtNtNtCshhmRwEtsTQ2_4core5slice4sort6stable14driftsort_mainNtNtCs7AZHiE2F3Qb_9addr2line8function15FunctionAddressNCINvMNtCsavYRE6QVrtQ_5alloc5sliceSBZ_11sort_by_keyyNCNvMs0_B11_INtB11_9FunctionsINtNtNtCse3mZrgqRzNx_5gimli4read12endian_slice11EndianSliceNtNtB3h_9endianity12LittleEndianEE5parses_0E0INtNtB1Z_3vec3VecBZ_EECsefmIBSMl6ne_3std
000000000002f8a0 g     F .text	0000000000000067              _RNvMs3_NtCsavYRE6QVrtQ_5alloc7raw_vecINtB5_6RawVecINtNtNtCse3mZrgqRzNx_5gimli4read4line9FileEntryINtNtBR_12endian_slice11EndianSliceNtNtBT_9endianity12LittleEndianEjEE8grow_oneCsefmIBSMl6ne_3std
000000000002f910 g     F .text	0000000000000067              _RNvMs3_NtCsavYRE6QVrtQ_5alloc7raw_vecINtB5_6RawVecNtNtCs7AZHiE2F3Qb_9addr2line4line12LineSequenceE8grow_oneCsefmIBSMl6ne_3std
0000000000022910 g     F .text	0000000000000149              _RINvNtNtNtCshhmRwEtsTQ2_4core5slice4sort6stable14driftsort_mainNtNtCs7AZHiE2F3Qb_9addr2line4line12LineSequenceNCINvMNtCsavYRE6QVrtQ_5alloc5sliceSBZ_11sort_by_keyyNCINvMs_B11_NtB11_5Lines5parseINtNtNtCse3mZrgqRzNx_5gimli4read12endian_slice11EndianSliceNtNtB3b_9endianity12LittleEndianEEs_0E0INtNtB1S_3vec3VecBZ_EECsefmIBSMl6ne_3std
0000000000040220 g     F .text	00000000000000fa              _RNvXs7_NtCsefmIBSMl6ne_3std2fsRNtB5_4FileNtNtB7_2io4Read14read_to_string
0000000000040e30 g     F .text	00000000000007d0              _RNvXs_NtNtNtNtCsefmIBSMl6ne_3std12backtrace_rs9symbolize5gimli19parse_running_mmapsNtB4_9MapsEntryNtNtNtCshhmRwEtsTQ2_4core3str6traits7FromStr8from_str
0000000000041f50 g     F .text	00000000000003c9              _RNvXsj_NtCsefmIBSMl6ne_3std4pathNtB5_10ComponentsNtNtNtNtCshhmRwEtsTQ2_4core4iter6traits12double_ended19DoubleEndedIterator9next_back
0000000000032cc0 g     F .text	0000000000000297              _RNvMs8_NtCsefmIBSMl6ne_3std4pathNtB5_10Components7as_path
000000000002f670 g     F .text	0000000000000067              _RNvMs3_NtCsavYRE6QVrtQ_5alloc7raw_vecINtB5_6RawVecINtNtB7_5boxed3BoxDINtNtNtCshhmRwEtsTQ2_4core3ops8function5FnMutuEp6OutputINtNtB1c_6result6ResultuNtNtNtCsefmIBSMl6ne_3std2io5error5ErrorENtNtB1c_6marker4SyncNtB32_4SendEL_EE8grow_oneB2s_
0000000000039c80 g     F .text	00000000000000a0              _RNvMsn_NtCsavYRE6QVrtQ_5alloc4syncINtB5_3ArcINtNtNtCse3mZrgqRzNx_5gimli4read5dwarf5DwarfINtNtBL_12endian_slice11EndianSliceNtNtBN_9endianity12LittleEndianEEE9drop_slowCsefmIBSMl6ne_3std
000000000002dd60 g     F .text	00000000000000e1              _RNvMs16_NtCsefmIBSMl6ne_3std4pathNtB6_4Path7is_file
000000000002dc70 g     F .text	00000000000000e1              _RNvMs16_NtCsefmIBSMl6ne_3std4pathNtB6_4Path6is_dir
000000000002d980 g     F .text	00000000000002ed              _RNvMs16_NtCsefmIBSMl6ne_3std4pathNtB6_4Path13__strip_prefix
0000000000039d70 g     F .text	0000000000000067              _RNvMsn_NtCsavYRE6QVrtQ_5alloc4syncINtB5_3ArcNtNtNtCse3mZrgqRzNx_5gimli4read6abbrev13AbbreviationsE9drop_slowCsefmIBSMl6ne_3std
000000000001cb00 g     F .text	0000000000000119              _RINvMs5_NtNtCsefmIBSMl6ne_3std2io5errorNtB6_5Error3newReEBa_
000000000002f9f0 g     F .text	0000000000000067              _RNvMs3_NtCsavYRE6QVrtQ_5alloc7raw_vecINtB5_6RawVecNtNtNtCse3mZrgqRzNx_5gimli4read4line15FileEntryFormatE8grow_oneCsefmIBSMl6ne_3std
000000000003ba80 g     F .text	0000000000000009              _RNvNtCsefmIBSMl6ne_3std7process5abort
0000000000058478 g     O .bss	0000000000000008              _RNvNtNtCsefmIBSMl6ne_3std9panicking11panic_count18GLOBAL_PANIC_COUNT
000000000003c4c0 g     F .text	000000000000001d              _RNvNtNtCsefmIBSMl6ne_3std9panicking11panic_count17is_zero_slow_path
0000000000039d20 g     F .text	000000000000004e              _RNvMsn_NtCsavYRE6QVrtQ_5alloc4syncINtB5_3ArcINtNtNtNtCsefmIBSMl6ne_3std4sync6poison5mutex5MutexINtNtB7_3vec3VechEEE9drop_slowBP_
0000000000039de0 g     F .text	000000000000004c              _RNvMsn_NtCsavYRE6QVrtQ_5alloc4syncINtB5_3ArcNtNtNtCsefmIBSMl6ne_3std6thread6thread5InnerNtNtBM_5alloc6SystemE9drop_slowBM_
000000000001fd57 g     F .text	0000000000000035              _RINvNtCshhmRwEtsTQ2_4core9panicking13assert_failedllECsefmIBSMl6ne_3std
000000000002cc20 g     F .text	00000000000000d7              _RNvMNtNtNtNtCsefmIBSMl6ne_3std3sys4sync6rwlock5futexNtB2_6RwLock22wake_writer_or_readers
0000000000022570 g     F .text	0000000000000009              _RINvNtNtCsefmIBSMl6ne_3std3sys9backtrace26___rust_end_short_backtraceNCNvNtB6_5alloc8rust_oom0zEB6_
0000000000022580 g     F .text	0000000000000009              _RINvNtNtCsefmIBSMl6ne_3std3sys9backtrace26___rust_end_short_backtraceNCNvNtB6_9panicking13panic_handler0zEB6_
0000000000022a60 g     F .text	0000000000000139              _RINvNtNtNtCshhmRwEtsTQ2_4core5slice4sort6stable14driftsort_mainNtNtCs7AZHiE2F3Qb_9addr2line4unit9UnitRangeNCINvMNtCsavYRE6QVrtQ_5alloc5sliceSBZ_11sort_by_keyyNCNvMs_B11_INtB11_8ResUnitsINtNtNtCse3mZrgqRzNx_5gimli4read12endian_slice11EndianSliceNtNtB34_9endianity12LittleEndianEE5parses2_0E0INtNtB1O_3vec3VecBZ_EECsefmIBSMl6ne_3std
0000000000022e40 g     F .text	0000000000000139              _RINvNtNtNtCshhmRwEtsTQ2_4core5slice4sort6stable14driftsort_mainTNtNtCse3mZrgqRzNx_5gimli6common15DebugInfoOffsetNtB12_18DebugArangesOffsetENCINvMNtCsavYRE6QVrtQ_5alloc5sliceSBZ_11sort_by_keyB10_NCNvMs_NtCs7AZHiE2F3Qb_9addr2line4unitINtB3d_8ResUnitsINtNtNtB14_4read12endian_slice11EndianSliceNtNtB14_9endianity12LittleEndianEE5parse0E0INtNtB2l_3vec3VecBZ_EECsefmIBSMl6ne_3std
0000000000022f80 g     F .text	00000000000000f2              _RINvNtNtNtCshhmRwEtsTQ2_4core5slice4sort8unstable7ipnsortNtNtNtNtNtCsefmIBSMl6ne_3std12backtrace_rs9symbolize5gimli3elf9ParsedSymNCINvMB6_SBT_20sort_unstable_by_keyyNCNvMs_BV_NtBV_6Object5parses1_0E0EB13_
0000000000026240 g     F .text	0000000000000a20              _RINvNtNtNtNtCshhmRwEtsTQ2_4core5slice4sort6stable9quicksort9quicksortNtNtCs7AZHiE2F3Qb_9addr2line4line12LineSequenceNCINvMNtCsavYRE6QVrtQ_5alloc5sliceSB15_11sort_by_keyyNCINvMs_B17_NtB17_5Lines5parseINtNtNtCse3mZrgqRzNx_5gimli4read12endian_slice11EndianSliceNtNtB3i_9endianity12LittleEndianEEs_0E0ECsefmIBSMl6ne_3std
0000000000026c60 g     F .text	0000000000000a20              _RINvNtNtNtNtCshhmRwEtsTQ2_4core5slice4sort6stable9quicksort9quicksortNtNtCs7AZHiE2F3Qb_9addr2line4unit9UnitRangeNCINvMNtCsavYRE6QVrtQ_5alloc5sliceSB15_11sort_by_keyyNCNvMs_B17_INtB17_8ResUnitsINtNtNtCse3mZrgqRzNx_5gimli4read12endian_slice11EndianSliceNtNtB3b_9endianity12LittleEndianEE5parses2_0E0ECsefmIBSMl6ne_3std
0000000000027680 g     F .text	00000000000009c4              _RINvNtNtNtNtCshhmRwEtsTQ2_4core5slice4sort6stable9quicksort9quicksortNtNtCs7AZHiE2F3Qb_9addr2line8function15FunctionAddressNCINvMNtCsavYRE6QVrtQ_5alloc5sliceSB15_11sort_by_keyyNCNvMs0_B17_INtB17_9FunctionsINtNtNtCse3mZrgqRzNx_5gimli4read12endian_slice11EndianSliceNtNtB3o_9endianity12LittleEndianEE5parses_0E0ECsefmIBSMl6ne_3std
0000000000028050 g     F .text	000000000000097b              _RINvNtNtNtNtCshhmRwEtsTQ2_4core5slice4sort6stable9quicksort9quicksortNtNtCs7AZHiE2F3Qb_9addr2line8function22InlinedFunctionAddressNCINvMNtCsavYRE6QVrtQ_5alloc5sliceSB15_7sort_byNCNvMs1_B17_INtB17_8FunctionINtNtNtCse3mZrgqRzNx_5gimli4read12endian_slice11EndianSliceNtNtB3o_9endianity12LittleEndianEE5parse0E0ECsefmIBSMl6ne_3std
00000000000289d0 g     F .text	0000000000000a45              _RINvNtNtNtNtCshhmRwEtsTQ2_4core5slice4sort6stable9quicksort9quicksortTNtNtCse3mZrgqRzNx_5gimli6common15DebugInfoOffsetNtB18_18DebugArangesOffsetENCINvMNtCsavYRE6QVrtQ_5alloc5sliceSB15_11sort_by_keyB16_NCNvMs_NtCs7AZHiE2F3Qb_9addr2line4unitINtB3k_8ResUnitsINtNtNtB1a_4read12endian_slice11EndianSliceNtNtB1a_9endianity12LittleEndianEE5parse0E0ECsefmIBSMl6ne_3std
0000000000029420 g     F .text	00000000000000f4              _RINvNtNtNtNtCshhmRwEtsTQ2_4core5slice4sort8unstable8heapsort8heapsortNtNtNtNtNtCsefmIBSMl6ne_3std12backtrace_rs9symbolize5gimli3elf9ParsedSymNCINvMB8_SB15_20sort_unstable_by_keyyNCNvMs_B17_NtB17_6Object5parses1_0E0EB1f_
000000000002c990 g     F .text	00000000000000e7              _RNvMNtNtNtNtCsefmIBSMl6ne_3std3sys4sync5mutex5futexNtB2_5Mutex14lock_contended
0000000000000048 g       .tbss	0000000000000008              _RNvNtNtNtCsefmIBSMl6ne_3std6thread7current2id2ID
000000000003bc46 g     F .text	00000000000001f1              _RNvNtCsefmIBSMl6ne_3std9panicking15panic_with_hook
0000000000033d60 g     F .text	00000000000000d1              _RNvMs_NtNtCsefmIBSMl6ne_3std12backtrace_rs9symbolizeNtB4_6Symbol4name
000000000002f980 g     F .text	0000000000000067              _RNvMs3_NtCsavYRE6QVrtQ_5alloc7raw_vecINtB5_6RawVecNtNtCsefmIBSMl6ne_3std9backtrace14BacktraceFrameE8grow_oneBQ_
0000000000058440 g     O .bss	0000000000000008              _RNvNtCsefmIBSMl6ne_3std5alloc4HOOK
000000000003b819 g     F .text	0000000000000168              _RNvNtCsefmIBSMl6ne_3std5alloc24default_alloc_error_hook
000000000003c450 g     F .text	0000000000000063              _RNvNtNtCsefmIBSMl6ne_3std3sys9backtrace4lock
0000000000000040 g       .tbss	0000000000000008              _RNvNtNtCsefmIBSMl6ne_3std6thread7current7CURRENT
000000000003f780 g     F .text	0000000000000271              _RNvXNvMNtNtCsefmIBSMl6ne_3std3sys9backtraceNtB5_13BacktraceLock5printNtB2_16DisplayBacktraceNtNtCshhmRwEtsTQ2_4core3fmt7Display3fmt
000000000002ca80 g     F .text	0000000000000195              _RNvMNtNtNtNtCsefmIBSMl6ne_3std3sys4sync6rwlock5futexNtB2_6RwLock14read_contended
000000000003ba89 g     F .text	0000000000000135              _RNvNtCsefmIBSMl6ne_3std9panicking12default_hook
000000000000c754 g     O .rodata	0000000000000100              _RNvNtNtNtCshhmRwEtsTQ2_4core7unicode12unicode_data11white_space14WHITESPACE_MAP
0000000000050c8b g     F .text	0000000000000014              _RNvNtCshhmRwEtsTQ2_4core9panicking16panic_in_cleanup
0000000000050e60 g     F .text	000000000000002c              _RNvNtCshhmRwEtsTQ2_4core9panicking9panic_fmt
0000000000045ff6 g     F .text	000000000000003c              _RNvXsa_NtNtCse3mZrgqRzNx_5gimli4read6abbrevNtB5_10AttributesNtNtNtCshhmRwEtsTQ2_4core3ops5deref5Deref5deref
000000000004e8f1 g     F .text	0000000000000015              _RNvNtCsavYRE6QVrtQ_5alloc7raw_vec12handle_error
0000000000050bf0 g     F .text	0000000000000019              _RNvNtCshhmRwEtsTQ2_4core6option13unwrap_failed
0000000000000000       F *UND*	0000000000000000              memcpy
0000000000051ca0 g     F .text	0000000000000019              _RNvNtNtCshhmRwEtsTQ2_4core9panicking11panic_const23panic_const_div_by_zero
0000000000051cc0 g     F .text	0000000000000019              _RNvNtNtCshhmRwEtsTQ2_4core9panicking11panic_const23panic_const_rem_by_zero
000000000004ef20 g     F .text	0000000000000111              _RNvMs3_NtNtCshhmRwEtsTQ2_4core3ffi5c_strNtB5_4CStr19from_bytes_with_nul
0000000000000000       F *UND*	0000000000000000              dl_iterate_phdr
0000000000044470 g     F .text	000000000000004f              _RNvXNtNtCsaF9XJth8yAc_6object4read8read_refRShNtB2_7ReadRef19read_bytes_at_until
0000000000000000       F *UND*	0000000000000000              bcmp
0000000000000000       F *UND*	0000000000000000              close
0000000000051730 g     F .text	00000000000000c8              _RNvNtNtCshhmRwEtsTQ2_4core5slice5index16slice_index_fail
0000000000000000       F *UND*	0000000000000000              munmap
000000000004e8de g     F .text	0000000000000013              _RNvNtCsavYRE6QVrtQ_5alloc5alloc18handle_alloc_error
0000000000050c9f g     F .text	000000000000003d              _RNvNtCshhmRwEtsTQ2_4core9panicking18panic_bounds_check
0000000000050c10 g     F .text	0000000000000052              _RNvNtCshhmRwEtsTQ2_4core6result13unwrap_failed
0000000000000000       F *UND*	0000000000000000              memmove
0000000000050e40 g     F .text	0000000000000012              _RNvNtCshhmRwEtsTQ2_4core9panicking5panic
000000000004e510 g     F .text	000000000000023b              _RNvMNtCsavYRE6QVrtQ_5alloc6stringNtB2_6String15from_utf8_lossy
00000000000449fa g     F .text	0000000000000196              _RNvNtCs7AZHiE2F3Qb_9addr2line4line9path_push
0000000000000000       F *UND*	0000000000000000              read
0000000000000000       F *UND*	0000000000000000              __errno_location
0000000000051800 g     F .text	00000000000000d7              _RNvNtNtCshhmRwEtsTQ2_4core5slice6memchr14memchr_aligned
0000000000000000       F *UND*	0000000000000000              syscall
0000000000000000       F *UND*	0000000000000000              pthread_attr_destroy
0000000000050d15 g     F .text	00000000000000ee              _RNvNtCshhmRwEtsTQ2_4core9panicking19assert_failed_inner
000000000004e9e0 g     F .text	0000000000000124              _RNvXs_NvMs_NtNtCsavYRE6QVrtQ_5alloc3ffi5c_strNtB9_7CString3newRShNtB4_11SpecNewImpl13spec_new_impl
0000000000000000       F *UND*	0000000000000000              fstat64
0000000000051de0 g     F .text	000000000000001d              _RNvNtNtNtNtCshhmRwEtsTQ2_4core5slice4sort6shared9smallsort22panic_on_ord_violation
0000000000051e00 g     F .text	0000000000000026              _RNvNtNtNtNtCshhmRwEtsTQ2_4core5slice4sort6stable5drift11sqrt_approx
0000000000000000       F *UND*	0000000000000000              _Unwind_GetIP
0000000000000000       F *UND*	0000000000000000              __tls_get_addr
0000000000050b80 g     F .text	000000000000002f              _RNvNtCshhmRwEtsTQ2_4core4cell22panic_already_borrowed
0000000000000000  w    F *UND*	0000000000000000              gettid
0000000000000000       F *UND*	0000000000000000              memset
0000000000052b60 g     F .text	0000000000000051              _RNvXsd_NtNtNtCshhmRwEtsTQ2_4core3fmt3num3impyNtB9_7Display3fmt
0000000000052b60 g     F .text	0000000000000051              _RNvXsi_NtNtNtCshhmRwEtsTQ2_4core3fmt3num3impjNtB9_7Display3fmt
00000000000506b0 g     F .text	00000000000001c0              _RNvNtCshhmRwEtsTQ2_4core3fmt5write
0000000000051530 g     F .text	00000000000001f7              _RNvNtNtCshhmRwEtsTQ2_4core3str8converts9from_utf8
000000000004489d g     F .text	000000000000012a              _RNvMs_NtCs7AZHiE2F3Qb_9addr2line4lineNtB4_5Lines13find_location
0000000000000000       F *UND*	0000000000000000              open64
0000000000000000       F *UND*	0000000000000000              _Unwind_GetTextRelBase
0000000000000000       F *UND*	0000000000000000              _Unwind_GetDataRelBase
0000000000000000       F *UND*	0000000000000000              getenv
0000000000000000       F *UND*	0000000000000000              strlen
0000000000052950 g     F .text	0000000000000050              _RNvXs8_NtNtNtCshhmRwEtsTQ2_4core3fmt3num3impmNtB9_7Display3fmt
0000000000000000       F *UND*	0000000000000000              malloc
0000000000000000       F *UND*	0000000000000000              posix_memalign
0000000000000000       F *UND*	0000000000000000              free
0000000000000000       F *UND*	0000000000000000              realloc
0000000000000000       F *UND*	0000000000000000              write
0000000000050e03 g     F .text	0000000000000014              _RNvNtCshhmRwEtsTQ2_4core9panicking19panic_cannot_unwind
0000000000000000       F *UND*	0000000000000000              calloc
000000000003b990 g     F .text	000000000000001a              _RNvNtCsefmIBSMl6ne_3std5alloc8rust_oom
0000000000050bb0 g     F .text	0000000000000034              _RNvNtCshhmRwEtsTQ2_4core6option13expect_failed
0000000000000000       F *UND*	0000000000000000              poll
0000000000000000       F *UND*	0000000000000000              fcntl
0000000000000000       F *UND*	0000000000000000              writev
0000000000039e30 g     F .text	00000000000002f1              _RNvMsr_NtCsefmIBSMl6ne_3std4pathNtB5_7PathBuf14__set_extension
0000000000000000       F *UND*	0000000000000000              signal
0000000000000000       F *UND*	0000000000000000              sysconf
0000000000040320 g     F .text	00000000000001f9              _RNvXs7_NtNtCsefmIBSMl6ne_3std2io5errorNtB5_5ErrorNtNtCshhmRwEtsTQ2_4core3fmt7Display3fmt
0000000000041a10 g     F .text	00000000000002f3              _RNvXsi_NtCsefmIBSMl6ne_3std4pathNtB5_10ComponentsNtNtNtNtCshhmRwEtsTQ2_4core4iter6traits8iterator8Iterator4next
000000000003c210 g     F .text	0000000000000148              _RNvNtNtCsefmIBSMl6ne_3std3sys2fs8metadata
000000000002f830 g     F .text	0000000000000067              _RNvMs3_NtCsavYRE6QVrtQ_5alloc7raw_vecINtB5_6RawVecINtNtCs7AZHiE2F3Qb_9addr2line8function15InlinedFunctionINtNtNtCse3mZrgqRzNx_5gimli4read12endian_slice11EndianSliceNtNtB1M_9endianity12LittleEndianEEE8grow_oneCsefmIBSMl6ne_3std
000000000002fa60 g     F .text	0000000000000067              _RNvMs3_NtCsavYRE6QVrtQ_5alloc7raw_vecINtB5_6RawVecPaE8grow_oneCsefmIBSMl6ne_3std
0000000000000000       F *UND*	0000000000000000              _Unwind_Backtrace
000000000003b6b0 g     F .text	0000000000000169              _RNvNtCsefmIBSMl6ne_3std3env7__var_os
000000000002f6e0 g     F .text	0000000000000067              _RNvMs3_NtCsavYRE6QVrtQ_5alloc7raw_vecINtB5_6RawVecINtNtCs7AZHiE2F3Qb_9addr2line4unit7ResUnitINtNtNtCse3mZrgqRzNx_5gimli4read12endian_slice11EndianSliceNtNtB1z_9endianity12LittleEndianEEE8grow_oneCsefmIBSMl6ne_3std
000000000002f750 g     F .text	0000000000000067              _RNvMs3_NtCsavYRE6QVrtQ_5alloc7raw_vecINtB5_6RawVecINtNtCs7AZHiE2F3Qb_9addr2line4unit7SupUnitINtNtNtCse3mZrgqRzNx_5gimli4read12endian_slice11EndianSliceNtNtB1z_9endianity12LittleEndianEEE8grow_oneCsefmIBSMl6ne_3std
000000000002fad0 g     F .text	0000000000000029              _RNvMs3_NtCsavYRE6QVrtQ_5alloc7raw_vecINtB5_6RawVecTOhFUKCBN_EuENtNtCsefmIBSMl6ne_3std5alloc6SystemE8grow_oneB13_
00000000000457fb g     F .text	0000000000000139              _RNvMs6_NtNtCse3mZrgqRzNx_5gimli4read6abbrevNtB5_10Attributes4push
0000000000045779 g     F .text	0000000000000082              _RNvMs5_NtNtCse3mZrgqRzNx_5gimli4read6abbrevNtB5_12Abbreviation3new
000000000004567f g     F .text	00000000000000fa              _RNvMs4_NtNtCse3mZrgqRzNx_5gimli4read6abbrevNtB5_13Abbreviations6insert
0000000000040030 g     F .text	00000000000000d9              _RNvXs2_NtNtCsefmIBSMl6ne_3std12backtrace_rs9symbolizeNtB5_10SymbolNameNtNtCshhmRwEtsTQ2_4core3fmt7Display3fmt
000000000004fd20 g     F .text	0000000000000010              _RNvMsa_NtCshhmRwEtsTQ2_4core3fmtNtB5_9Formatter9write_str
00000000000473d6 g     F .text	0000000000000055              _RNvCshyGilOMHUF2_14rustc_demangle12try_demangle
000000000003d6b0 g     F .text	00000000000000d9              _RNvNtNtNtNtCsefmIBSMl6ne_3std3sys12thread_local11destructors10linux_like8register
0000000000036d70 g     F .text	000000000000011e              _RNvMs_NtNtNtCsefmIBSMl6ne_3std2io8buffered9bufwriterINtB4_9BufWriterNtNtB8_5stdio9StdoutRawE14write_all_coldBa_
000000000004bac1 g     F .text	00000000000017d8              _RNvNtNtCsc5oZdsSfmiE_11miniz_oxide7inflate4core10decompress
0000000000050870 g     F .text	000000000000000a              _RNvNtCshhmRwEtsTQ2_4core3str16slice_error_fail
000000000004e7f0 g     F .text	00000000000000ee              _RNvMs_NtNtCsavYRE6QVrtQ_5alloc3ffi5c_strNtB4_7CString19__from_vec_unchecked
000000000003f4d0 g     F .text	0000000000000112              _RNvNvMs7_NtNtNtCsefmIBSMl6ne_3std3sys6os_str5bytesNtB7_5Slice21check_public_boundary9slow_path
0000000000040980 g     F .text	000000000000001f              _RNvXsP_NtNtCsefmIBSMl6ne_3std3ffi6os_strNtB5_7DisplayNtNtCshhmRwEtsTQ2_4core3fmt5Debug3fmt
0000000000000000       F *UND*	0000000000000000              lseek64
0000000000000000       F *UND*	0000000000000000              dup
0000000000000000       F *UND*	0000000000000000              abort
0000000000000000       F *UND*	0000000000000000              pthread_self
0000000000000000       F *UND*	0000000000000000              pthread_getattr_np
0000000000000000       F *UND*	0000000000000000              pthread_attr_getstack
0000000000000000       F *UND*	0000000000000000              sigaction
0000000000000000       F *UND*	0000000000000000              pause
0000000000050c70 g     F .text	000000000000001b              _RNvNtCshhmRwEtsTQ2_4core9panicking14panic_nounwind
000000000003b320 g     F .text	00000000000001c8              _RNvNtCsefmIBSMl6ne_3std3env11current_dir
0000000000000000       F *UND*	0000000000000000              getcwd
000000000003b4f0 g     F .text	00000000000001b8              _RNvNtCsefmIBSMl6ne_3std3env11current_exe
000000000003b9b0 g     F .text	00000000000000c9              _RNvNtCsefmIBSMl6ne_3std5panic19get_backtrace_style
000000000003bbc0 g     F .text	0000000000000086              _RNvNtCsefmIBSMl6ne_3std9panicking14payload_as_str
000000000003be40 g     F .text	00000000000000b8              _RNvNtNtCsefmIBSMl6ne_3std2io5stdio22try_set_output_capture
000000000003c4e0 g     F .text	000000000000004e              _RNvNtNtCsefmIBSMl6ne_3std9panicking11panic_count8increase
0000000000058450 g     O .bss	0000000000000018              _RNvNtCsefmIBSMl6ne_3std9panicking4HOOK
00000000000417c0 g     F .text	0000000000000243              _RNvXsf_NtNtCsefmIBSMl6ne_3std2io5stdioRNtB5_6StdoutNtB7_5Write9write_fmt
0000000000000000       F *UND*	0000000000000000              stat64
0000000000053100 g     F .text	00000000000000b7              _RNvXsk_NtCshhmRwEtsTQ2_4core3fmtcNtB5_7Display3fmt
00000000000409a0 g     F .text	00000000000000e4              _RNvXsQ_NtNtCsefmIBSMl6ne_3std3ffi6os_strNtB5_7DisplayNtNtCshhmRwEtsTQ2_4core3fmt7Display3fmt
0000000000000000       F *UND*	0000000000000000              mmap64
0000000000000000       F *UND*	0000000000000000              realpath
000000000004ed90 g     F .text	0000000000000186              _RNvMs1_NtNtCshhmRwEtsTQ2_4core3fmt8buildersNtB5_11DebugStruct5field
0000000000000000       F *UND*	0000000000000000              readlink
0000000000000000  w    F *UND*	0000000000000000              statx
0000000000000000  w    F *UND*	0000000000000000              __cxa_thread_atexit_impl
0000000000000000       F *UND*	0000000000000000              pthread_key_create
0000000000000000       F *UND*	0000000000000000              pthread_key_delete
0000000000000000       F *UND*	0000000000000000              pthread_setspecific
000000000004eb24 g     F .text	0000000000000035              _RINvNtCshhmRwEtsTQ2_4core9panicking13assert_failedyyEB4_
0000000000000000       F *UND*	0000000000000000              getauxval
0000000000000000       F *UND*	0000000000000000              sigaltstack
0000000000000000       F *UND*	0000000000000000              pthread_attr_getguardsize
0000000000000000       F *UND*	0000000000000000              mprotect
000000000003f740 g     F .text	0000000000000012              _RNvNvNtNtNtNtCsefmIBSMl6ne_3std3sys4args4unix3imp15ARGV_INIT_ARRAY12init_wrapper
000000000004f1a0 g     F .text	0000000000000037              _RNvMsa_NtCshhmRwEtsTQ2_4core3fmtNtB5_9Formatter10debug_list
000000000004f160 g     F .text	0000000000000034              _RNvMs5_NtNtCshhmRwEtsTQ2_4core3fmt8buildersNtB5_9DebugList6finish
000000000004f040 g     F .text	0000000000000112              _RNvMs5_NtNtCshhmRwEtsTQ2_4core3fmt8buildersNtB5_9DebugList5entry
0000000000052ca0 g     F .text	0000000000000397              _RNvXsh_NtCshhmRwEtsTQ2_4core3fmteNtB5_5Debug3fmt
0000000000041d10 g     F .text	0000000000000234              _RNvXsi_NtNtCsefmIBSMl6ne_3std2io5stdioNtB5_10StdoutLockNtB7_5Write9write_all
0000000000053040 g     F .text	0000000000000012              _RNvXsi_NtCshhmRwEtsTQ2_4core3fmteNtB5_7Display3fmt
00000000000518e0 g     F .text	000000000000010d              _RNvNtNtCshhmRwEtsTQ2_4core5slice6memchr7memrchr
000000000003fc40 g     F .text	0000000000000036              _RNvXs0_NvNtCsefmIBSMl6ne_3std9panicking13panic_handlerNtB5_19FormatStringPayloadNtNtCshhmRwEtsTQ2_4core3fmt7Display3fmt
0000000000052240 g     F .text	00000000000003c3              _RNvXs0_NtNtCshhmRwEtsTQ2_4core3str5lossyNtB5_5DebugNtNtB9_3fmt5Debug3fmt
000000000003fef0 g     F .text	000000000000004c              _RNvXs1_NvNtCsefmIBSMl6ne_3std9panicking13panic_handlerNtB5_16StaticStrPayloadNtNtCshhmRwEtsTQ2_4core5panic12PanicPayload8take_box
000000000004f6f0 g     F .text	000000000000013a              _RNvMsa_NtCshhmRwEtsTQ2_4core3fmtNtB5_9Formatter25debug_tuple_field1_finish
00000000000528c0 g     F .text	0000000000000065              _RNvXsC_NtNtCshhmRwEtsTQ2_4core3fmt3numyNtB7_8LowerHex3fmt
0000000000051ed0 g     F .text	0000000000000095              _RNvXNtNtNtCshhmRwEtsTQ2_4core3fmt3num3imphNtB6_7Display3fmt
0000000000052bc0 g     F .text	0000000000000063              _RNvXse_NtNtCshhmRwEtsTQ2_4core3fmt3numhNtB7_8LowerHex3fmt
0000000000052c30 g     F .text	0000000000000063              _RNvXsg_NtNtCshhmRwEtsTQ2_4core3fmt3numhNtB7_8UpperHex3fmt
00000000000529a0 g     F .text	0000000000000063              _RNvXs9_NtNtNtCshhmRwEtsTQ2_4core3fmt3num3implNtB9_7Display3fmt
00000000000531e0 g     F .text	0000000000000062              _RNvXsv_NtNtCshhmRwEtsTQ2_4core3fmt3numlNtB7_8LowerHex3fmt
0000000000053250 g     F .text	0000000000000062              _RNvXsx_NtNtCshhmRwEtsTQ2_4core3fmt3numlNtB7_8UpperHex3fmt
000000000004f8e0 g     F .text	0000000000000439              _RNvMsa_NtCshhmRwEtsTQ2_4core3fmtNtB5_9Formatter3pad
000000000004b34d g     F .text	0000000000000105              _RNvXs1_CshyGilOMHUF2_14rustc_demangleNtB5_8DemangleNtNtCshhmRwEtsTQ2_4core3fmt7Display3fmt
0000000000052730 g     F .text	0000000000000190              _RNvXs2_NtNtCshhmRwEtsTQ2_4core3str5lossyNtB5_10Utf8ChunksNtNtNtNtB9_4iter6traits8iterator8Iterator4next
0000000000052b50 g     F .text	0000000000000010              _RNvXsb_NtCshhmRwEtsTQ2_4core3fmtNtB5_9FormatterNtB5_5Write10write_char
0000000000040110 g     F .text	0000000000000013              _RNvXs2_NvNtCsefmIBSMl6ne_3std9panicking13panic_handlerNtB5_16StaticStrPayloadNtNtCshhmRwEtsTQ2_4core3fmt7Display3fmt
0000000000040170 g     F .text	000000000000004d              _RNvXs3_NtNtNtCsefmIBSMl6ne_3std3sys5stdio4unixNtB5_6StderrNtNtBb_2io5Write14write_vectored
00000000000401e0 g     F .text	000000000000003d              _RNvXs3_NtNtNtCsefmIBSMl6ne_3std3sys5stdio4unixNtB5_6StderrNtNtBb_2io5Write5write
0000000000000000       F *UND*	0000000000000000              __xpg_strerror_r
000000000004e950 g     F .text	000000000000008a              _RNvXsP_NtCsavYRE6QVrtQ_5alloc6stringNtB5_6StringINtNtCshhmRwEtsTQ2_4core7convert4FromINtNtB7_6borrow3CoweEE4from
000000000004e480 g     F .text	000000000000008b              _RNvMNtCsavYRE6QVrtQ_5alloc6stringNtB2_6String11try_reserve
00000000000528c0 g     F .text	0000000000000065              _RNvXs6_NtNtCshhmRwEtsTQ2_4core3fmt3numjNtB7_8LowerHex3fmt
0000000000041600 g     F .text	0000000000000095              _RNvXs_NvNtCsefmIBSMl6ne_3std9panicking13panic_handlerNtB4_19FormatStringPayloadNtNtCshhmRwEtsTQ2_4core5panic12PanicPayload3get
00000000000416a0 g     F .text	0000000000000112              _RNvXs_NvNtCsefmIBSMl6ne_3std9panicking13panic_handlerNtB4_19FormatStringPayloadNtNtCshhmRwEtsTQ2_4core5panic12PanicPayload8take_box
0000000000050610 g     F .text	00000000000000a0              _RNvNtCshhmRwEtsTQ2_4core3fmt17pointer_fmt_inner
000000000004f830 g     F .text	00000000000000aa              _RNvMsa_NtCshhmRwEtsTQ2_4core3fmtNtB5_9Formatter26debug_struct_field1_finish
00000000000500a0 g     F .text	0000000000000564              _RNvMsu_NtNtCshhmRwEtsTQ2_4core3str7patternNtB5_11StrSearcher3new
0000000000000000       F *UND*	0000000000000000              _Unwind_GetLanguageSpecificData
0000000000000000       F *UND*	0000000000000000              _Unwind_GetIPInfo
0000000000000000       F *UND*	0000000000000000              _Unwind_GetRegionStart
0000000000000000       F *UND*	0000000000000000              _Unwind_SetGR
0000000000000000       F *UND*	0000000000000000              _Unwind_SetIP
000000000004eb10 g     F .text	0000000000000014              _RNvXs_NvXsf_NtNtCsavYRE6QVrtQ_5alloc5boxed7convertINtBc_3BoxDNtNtCshhmRwEtsTQ2_4core5error5ErrorNtNtB11_6marker4SyncNtB1y_4SendEL_EINtNtB11_7convert4FromNtNtBe_6string6StringE4fromNtB4_11StringErrorNtNtB11_3fmt7Display3fmt
000000000004e930 g     F .text	0000000000000014              _RNvXs0_NvXsf_NtNtCsavYRE6QVrtQ_5alloc5boxed7convertINtBd_3BoxDNtNtCshhmRwEtsTQ2_4core5error5ErrorNtNtB12_6marker4SyncNtB1z_4SendEL_EINtNtB12_7convert4FromNtNtBf_6string6StringE4fromNtB5_11StringErrorNtNtB12_3fmt5Debug3fmt
000000000002f600 g     F .text	0000000000000067              _RNvMs3_NtCsavYRE6QVrtQ_5alloc7raw_vecINtB5_6RawVecINtNtNtCse3mZrgqRzNx_5gimli4read4unit14AttributeValueINtNtBR_12endian_slice11EndianSliceNtNtBT_9endianity12LittleEndianEjEE8grow_oneCsefmIBSMl6ne_3std
000000000002f600 g     F .text	0000000000000067              _RNvMs3_NtCsavYRE6QVrtQ_5alloc7raw_vecINtB5_6RawVecNtNtB7_6string6StringE8grow_oneCsefmIBSMl6ne_3std
000000000002f600 g     F .text	0000000000000067              _RNvMs3_NtCsavYRE6QVrtQ_5alloc7raw_vecINtB5_6RawVecNtNtCs7AZHiE2F3Qb_9addr2line4line7LineRowE8grow_oneCsefmIBSMl6ne_3std
000000000002f910 g     F .text	0000000000000067              _RNvMs3_NtCsavYRE6QVrtQ_5alloc7raw_vecINtB5_6RawVecNtNtCs7AZHiE2F3Qb_9addr2line4unit9UnitRangeE8grow_oneCsefmIBSMl6ne_3std
000000000002f600 g     F .text	0000000000000067              _RNvMs3_NtCsavYRE6QVrtQ_5alloc7raw_vecINtB5_6RawVecNtNtCs7AZHiE2F3Qb_9addr2line8function15FunctionAddressE8grow_oneCsefmIBSMl6ne_3std
000000000002f910 g     F .text	0000000000000067              _RNvMs3_NtCsavYRE6QVrtQ_5alloc7raw_vecINtB5_6RawVecNtNtCs7AZHiE2F3Qb_9addr2line8function22InlinedFunctionAddressE8grow_oneCsefmIBSMl6ne_3std
000000000002f7c0 g     F .text	0000000000000067              _RNvMs3_NtCsavYRE6QVrtQ_5alloc7raw_vecINtB5_6RawVecNtNtCsefmIBSMl6ne_3std9backtrace15BacktraceSymbolE8grow_oneBQ_
000000000002f600 g     F .text	0000000000000067              _RNvMs3_NtCsavYRE6QVrtQ_5alloc7raw_vecINtB5_6RawVecNtNtNtCsefmIBSMl6ne_3std3ffi6os_str8OsStringE8grow_oneBS_
000000000002f980 g     F .text	0000000000000067              _RNvMs3_NtCsavYRE6QVrtQ_5alloc7raw_vecINtB5_6RawVecNtNtNtNtCsefmIBSMl6ne_3std12backtrace_rs9symbolize5gimli7LibraryE8grow_oneBU_
000000000002f8a0 g     F .text	0000000000000067              _RNvMs3_NtCsavYRE6QVrtQ_5alloc7raw_vecINtB5_6RawVecNtNtNtNtNtCsefmIBSMl6ne_3std12backtrace_rs9symbolize5gimli19parse_running_mmaps9MapsEntryE8grow_oneBW_
000000000002f670 g     F .text	0000000000000067              _RNvMs3_NtCsavYRE6QVrtQ_5alloc7raw_vecINtB5_6RawVecNtNtNtNtNtCsefmIBSMl6ne_3std12backtrace_rs9symbolize5gimli4mmap4MmapE8grow_oneBW_
000000000002fa60 g     F .text	0000000000000067              _RNvMs3_NtCsavYRE6QVrtQ_5alloc7raw_vecINtB5_6RawVecRINtNtCs7AZHiE2F3Qb_9addr2line8function15InlinedFunctionINtNtNtCse3mZrgqRzNx_5gimli4read12endian_slice11EndianSliceNtNtB1N_9endianity12LittleEndianEEE8grow_oneCsefmIBSMl6ne_3std
000000000002f670 g     F .text	0000000000000067              _RNvMs3_NtCsavYRE6QVrtQ_5alloc7raw_vecINtB5_6RawVecTNtNtCse3mZrgqRzNx_5gimli6common15DebugInfoOffsetNtBP_18DebugArangesOffsetEE8grow_oneCsefmIBSMl6ne_3std
000000000002f830 g     F .text	0000000000000067              _RNvMs3_NtCsavYRE6QVrtQ_5alloc7raw_vecINtB5_6RawVecTNtNtNtCsefmIBSMl6ne_3std3ffi6os_str8OsStringBN_EE8grow_oneBT_
0000000000000000       F *UND*	0000000000000000              _Unwind_RaiseException
0000000000000000       F *UND*	0000000000000000              _Unwind_DeleteException
0000000000058430 g     O .data	0000000000000008              _RNvNvNtNtNtCsfuiTwxgcPoz_6memchr4arch6x86_646memchr10memchr_raw2FN
00000000000444c0 g     F .text	00000000000001cf              _RNvNvNtNtNtCsfuiTwxgcPoz_6memchr4arch6x86_646memchr10memchr_raw6detect
0000000000044876 g     F .text	0000000000000027              _RINvNvMs2_NtCsavYRE6QVrtQ_5alloc7raw_vecINtB8_11RawVecInnerpE7reserve21do_reserve_and_handleNtNtBa_5alloc6GlobalECs7AZHiE2F3Qb_9addr2line
0000000000046032 g     F .text	0000000000000001              _RNvXso_NtCsavYRE6QVrtQ_5alloc3vecINtB5_3VechENtNtNtCshhmRwEtsTQ2_4core3ops4drop4Drop4dropCse3mZrgqRzNx_5gimli
0000000000045fe6 g     F .text	0000000000000010              _RNvXs1_NtCsavYRE6QVrtQ_5alloc7raw_vecINtB5_6RawVechENtNtNtCshhmRwEtsTQ2_4core3ops4drop4Drop4dropCse3mZrgqRzNx_5gimli
0000000000045531 g     F .text	0000000000000093              _RNvMs4_NtCsavYRE6QVrtQ_5alloc7raw_vecNtB5_11RawVecInner14grow_amortizedCse3mZrgqRzNx_5gimli
00000000000455c4 g     F .text	00000000000000bb              _RNvMs4_NtCsavYRE6QVrtQ_5alloc7raw_vecNtB5_11RawVecInner15try_allocate_inCse3mZrgqRzNx_5gimli
0000000000045dad g     F .text	0000000000000031              _RNvMs_NtCsavYRE6QVrtQ_5alloc5boxedINtB4_3BoxINtNtNtNtB6_11collections5btree4node8LeafNodeyNtNtNtCse3mZrgqRzNx_5gimli4read6abbrev12AbbreviationEE13new_uninit_inB1w_
0000000000044b90 g     F .text	0000000000000088              _RINvMs9_NtNtNtCsavYRE6QVrtQ_5alloc11collections5btree4nodeINtB6_7NodeRefNtNtB6_6marker5OwnedyNtNtNtCse3mZrgqRzNx_5gimli4read6abbrev12AbbreviationNtB1a_8InternalE12new_internalNtNtBc_5alloc6GlobalEB1z_
0000000000045d7c g     F .text	0000000000000031              _RNvMs_NtCsavYRE6QVrtQ_5alloc5boxedINtB4_3BoxINtNtNtNtB6_11collections5btree4node12InternalNodeyNtNtNtCse3mZrgqRzNx_5gimli4read6abbrev12AbbreviationEE13new_uninit_inB1B_
0000000000044c18 g     F .text	0000000000000164              _RINvMsK_NtNtNtCsavYRE6QVrtQ_5alloc11collections5btree4nodeINtB6_6HandleINtB6_7NodeRefNtNtB6_6marker3MutyNtNtNtCse3mZrgqRzNx_5gimli4read6abbrev12AbbreviationNtB1n_4LeafENtB1n_4EdgeE6insertNtNtBc_5alloc6GlobalEB1K_
0000000000045a00 g     F .text	0000000000000107              _RNvMsJ_NtNtNtCsavYRE6QVrtQ_5alloc11collections5btree4nodeINtB5_6HandleINtB5_7NodeRefNtNtB5_6marker3MutyNtNtNtCse3mZrgqRzNx_5gimli4read6abbrev12AbbreviationNtB1m_4LeafENtB1m_4EdgeE10insert_fitB1J_
00000000000450e1 g     F .text	000000000000009c              _RINvMsV_NtNtNtCsavYRE6QVrtQ_5alloc11collections5btree4nodeINtB6_6HandleINtB6_7NodeRefNtNtB6_6marker3MutyNtNtNtCse3mZrgqRzNx_5gimli4read6abbrev12AbbreviationNtB1n_4LeafENtB1n_2KVE5splitNtNtBc_5alloc6GlobalEB1K_
0000000000045381 g     F .text	0000000000000046              _RNvMs2_NtCsavYRE6QVrtQ_5alloc7raw_vecNtB5_11RawVecInner10deallocateCse3mZrgqRzNx_5gimli
0000000000044d7c g     F .text	000000000000014b              _RINvMsM_NtNtNtCsavYRE6QVrtQ_5alloc11collections5btree4nodeINtB6_6HandleINtB6_7NodeRefNtNtB6_6marker3MutyNtNtNtCse3mZrgqRzNx_5gimli4read6abbrev12AbbreviationNtB1n_8InternalENtB1n_4EdgeE6insertNtNtBc_5alloc6GlobalEB1K_
0000000000045b07 g     F .text	000000000000014f              _RNvMsM_NtNtNtCsavYRE6QVrtQ_5alloc11collections5btree4nodeINtB5_6HandleINtB5_7NodeRefNtNtB5_6marker3MutyNtNtNtCse3mZrgqRzNx_5gimli4read6abbrev12AbbreviationNtB1m_8InternalENtB1m_4EdgeE10insert_fitB1J_
000000000004517d g     F .text	000000000000018c              _RINvMsW_NtNtNtCsavYRE6QVrtQ_5alloc11collections5btree4nodeINtB6_6HandleINtB6_7NodeRefNtNtB6_6marker3MutyNtNtNtCse3mZrgqRzNx_5gimli4read6abbrev12AbbreviationNtB1n_8InternalENtB1n_2KVE5splitNtNtBc_5alloc6GlobalEB1K_
0000000000044ec7 g     F .text	000000000000021a              _RINvMsN_NtNtNtCsavYRE6QVrtQ_5alloc11collections5btree4nodeINtB6_6HandleINtB6_7NodeRefNtNtB6_6marker3MutyNtNtNtCse3mZrgqRzNx_5gimli4read6abbrev12AbbreviationNtB1n_4LeafENtB1n_4EdgeE16insert_recursingNtNtBc_5alloc6GlobalNCNvMs6_NtNtB8_3map5entryINtB3C_11VacantEntryyB1E_E12insert_entry0EB1K_
0000000000045f21 g     F .text	00000000000000c5              _RNvMsv_NtNtNtCsavYRE6QVrtQ_5alloc11collections5btree4nodeINtB5_7NodeRefNtNtB5_6marker3MutyNtNtNtCse3mZrgqRzNx_5gimli4read6abbrev12AbbreviationNtB19_8InternalE4pushB1w_
0000000000045c56 g     F .text	0000000000000126              _RNvMsU_NtNtNtCsavYRE6QVrtQ_5alloc11collections5btree4nodeINtB5_6HandleINtB5_7NodeRefNtNtB5_6marker3MutyNtNtNtCse3mZrgqRzNx_5gimli4read6abbrev12AbbreviationNtB1m_4LeafENtB1m_2KVE15split_leaf_dataB1J_
0000000000045309 g     F .text	0000000000000078              _RINvMsi_NtNtNtCsavYRE6QVrtQ_5alloc11collections5btree3mapINtB6_8BTreeMapyNtNtNtCse3mZrgqRzNx_5gimli4read6abbrev12AbbreviationE3getyEB1f_
00000000000453c7 g     F .text	000000000000003a              _RNvMs3_NtCsavYRE6QVrtQ_5alloc7raw_vecINtB5_6RawVecNtNtNtCse3mZrgqRzNx_5gimli4read6abbrev12AbbreviationE8grow_oneBS_
0000000000045401 g     F .text	000000000000003a              _RNvMs3_NtCsavYRE6QVrtQ_5alloc7raw_vecINtB5_6RawVecNtNtNtCse3mZrgqRzNx_5gimli4read6abbrev22AttributeSpecificationE8grow_oneBS_
000000000004543b g     F .text	00000000000000f6              _RNvMs4_NtCsavYRE6QVrtQ_5alloc7raw_vecNtB5_11RawVecInner11finish_growCse3mZrgqRzNx_5gimli
0000000000045dde g     F .text	00000000000000a5              _RNvMsi_NtNtNtCsavYRE6QVrtQ_5alloc11collections5btree3mapINtB5_8BTreeMapyNtNtNtCse3mZrgqRzNx_5gimli4read6abbrev12AbbreviationE5entryB1e_
0000000000045934 g     F .text	00000000000000cc              _RNvMs6_NtNtNtNtCsavYRE6QVrtQ_5alloc11collections5btree3map5entryINtB5_11VacantEntryyNtNtNtCse3mZrgqRzNx_5gimli4read6abbrev12AbbreviationE12insert_entryB1q_
0000000000045e83 g     F .text	000000000000009e              _RNvMsu_NtNtNtCsavYRE6QVrtQ_5alloc11collections5btree4nodeINtB5_7NodeRefNtNtB5_6marker3MutyNtNtNtCse3mZrgqRzNx_5gimli4read6abbrev12AbbreviationNtB19_4LeafE16push_with_handleB1w_
0000000000046032 g     F .text	0000000000000001              _RNvXso_NtCsavYRE6QVrtQ_5alloc3vecINtB5_3VecNtNtNtCse3mZrgqRzNx_5gimli4read6abbrev22AttributeSpecificationENtNtNtCshhmRwEtsTQ2_4core3ops4drop4Drop4dropBL_
0000000000045c56 g     F .text	0000000000000126              _RNvMsU_NtNtNtCsavYRE6QVrtQ_5alloc11collections5btree4nodeINtB5_6HandleINtB5_7NodeRefNtNtB5_6marker3MutyNtNtNtCse3mZrgqRzNx_5gimli4read6abbrev12AbbreviationNtB1m_8InternalENtB1m_2KVE15split_leaf_dataB1J_
0000000000046033 g     F .text	0000000000000076              _RINvMNtCshhmRwEtsTQ2_4core3stre18trim_start_matchesReECshyGilOMHUF2_14rustc_demangle
000000000004af5b g     F .text	00000000000003f2              _RNvXs0_NtCshyGilOMHUF2_14rustc_demangle2v0NtB5_5IdentNtNtCshhmRwEtsTQ2_4core3fmt7Display3fmt
0000000000051ce0 g     F .text	00000000000000f9              _RNvNtNtNtCshhmRwEtsTQ2_4core7unicode12unicode_data15grapheme_extend11lookup_slow
00000000000519f0 g     F .text	00000000000002a5              _RNvNtNtCshhmRwEtsTQ2_4core7unicode9printable12is_printable
000000000004742b g     F .text	0000000000000ae8              _RNvCshyGilOMHUF2_14rustc_demangle8demangle
000000000004fd20 g     F .text	0000000000000010              _RNvXsb_NtCshhmRwEtsTQ2_4core3fmtNtB5_9FormatterNtB5_5Write9write_str
000000000004a142 g     F .text	0000000000000b0b              _RNvXNtCshyGilOMHUF2_14rustc_demangle6legacyNtB2_8DemangleNtNtCshhmRwEtsTQ2_4core3fmt7Display3fmt
0000000000051460 g     F .text	00000000000000c9              _RNvNtNtCshhmRwEtsTQ2_4core3str5count23char_count_general_case
0000000000050e90 g     F .text	00000000000005cb              _RNvNtNtCshhmRwEtsTQ2_4core3str5count14do_count_chars
000000000004b4b4 g     F .text	0000000000000013              _RNvXs1h_NtCshhmRwEtsTQ2_4core3fmtQShNtB6_5Debug3fmtCshyGilOMHUF2_14rustc_demangle
000000000004b47d g     F .text	0000000000000013              _RNvXs1g_NtCshhmRwEtsTQ2_4core3fmtReNtB6_5Debug3fmtCshyGilOMHUF2_14rustc_demangle
000000000004af36 g     F .text	0000000000000025              _RNvXs0_CshyGilOMHUF2_14rustc_demangleINtB5_21SizeLimitedFmtAdapterQNtNtCshhmRwEtsTQ2_4core3fmt9FormatterENtB15_5Write9write_strB5_
000000000004b4c7 g     F .text	0000000000000009              _RNvXs1i_NtCshhmRwEtsTQ2_4core3fmtRNtCshyGilOMHUF2_14rustc_demangle13DemangleStyleNtB6_7Display3fmtBy_
000000000004b452 g     F .text	000000000000002b              _RNvXs1g_NtCshhmRwEtsTQ2_4core3fmtRNtNtNtB8_3num5error12IntErrorKindNtB6_5Debug3fmtCshyGilOMHUF2_14rustc_demangle
000000000004b490 g     F .text	0000000000000024              _RNvXs1g_NtCshhmRwEtsTQ2_4core3fmtRhNtB6_5Debug3fmtCshyGilOMHUF2_14rustc_demangle
000000000004b582 g     F .text	000000000000006d              _RNvXsr_NtCshhmRwEtsTQ2_4core3fmtShNtB5_5Debug3fmtCshyGilOMHUF2_14rustc_demangle
000000000004b4fa g     F .text	0000000000000043              _RNvXs_CshyGilOMHUF2_14rustc_demangleNtB4_13DemangleStyleNtNtCshhmRwEtsTQ2_4core3fmt7Display3fmt
000000000004b976 g     F .text	000000000000009a              _RNvYINtCshyGilOMHUF2_14rustc_demangle21SizeLimitedFmtAdapterQNtNtCshhmRwEtsTQ2_4core3fmt9FormatterENtBZ_5Write10write_charB5_
000000000004ba10 g     F .text	0000000000000013              _RNvYINtCshyGilOMHUF2_14rustc_demangle21SizeLimitedFmtAdapterQNtNtCshhmRwEtsTQ2_4core3fmt9FormatterENtBZ_5Write9write_fmtB5_
000000000004ba23 g     F .text	000000000000005d              _RINvMNtCshhmRwEtsTQ2_4core5sliceSh11copy_withinINtNtNtB5_3ops5range14RangeInclusivejEECsc5oZdsSfmiE_11miniz_oxide
000000000004ba80 g     F .text	0000000000000041              _RINvNtNtCshhmRwEtsTQ2_4core5slice5index5rangeINtNtNtB6_3ops5range14RangeInclusivejEECsc5oZdsSfmiE_11miniz_oxide
0000000000051e90 g     F .text	0000000000000040              _RNvNvNtCshhmRwEtsTQ2_4core5slice20copy_from_slice_impl17len_mismatch_fail
000000000004e020 g     F .text	00000000000003d8              _RNvMCsaSlpS0XDfWG_6adler2NtB2_7Adler3211write_slice
0000000000050ce0 g     F .text	0000000000000035              _RNvNtCshhmRwEtsTQ2_4core9panicking18panic_nounwind_fmt
000000000004e910 g     F .text	000000000000001d              _RNvNtCsavYRE6QVrtQ_5alloc7raw_vec17capacity_overflow
0000000000051fd0 g     F .text	000000000000026e              _RNvXs0_NtNtCshhmRwEtsTQ2_4core3fmt8buildersNtB5_10PadAdapterNtB7_5Write9write_str
000000000004f040 g     F .text	0000000000000112              _RNvMs4_NtNtCshhmRwEtsTQ2_4core3fmt8buildersNtB5_8DebugSet5entry
000000000004f1e0 g     F .text	000000000000050f              _RNvMsa_NtCshhmRwEtsTQ2_4core3fmtNtB5_9Formatter12pad_integral
0000000000050880 g     F .text	00000000000002f4              _RNvNtCshhmRwEtsTQ2_4core3str19slice_error_fail_rt
0000000000053060 g     F .text	0000000000000099              _RNvXsj_NtCshhmRwEtsTQ2_4core3fmtcNtB5_5Debug3fmt
00000000000531c0 g     F .text	0000000000000015              _RNvXso_NtCshhmRwEtsTQ2_4core4cellNtB5_14BorrowMutErrorNtNtB7_3fmt7Display3fmt
0000000000050e20 g     F .text	000000000000001e              _RNvNtCshhmRwEtsTQ2_4core9panicking26panic_nounwind_nobacktrace
0000000000052930 g     F .text	0000000000000017              _RNvXs8_NtCshhmRwEtsTQ2_4core3fmtNtB5_9ArgumentsNtB5_7Display3fmt
0000000000051f70 g     F .text	000000000000005f              _RNvXs0_NtNtCshhmRwEtsTQ2_4core3fmt8buildersNtB5_10PadAdapterNtB7_5Write10write_char


