
compiled_results/no_assume_used.o:     file format mach-o-arm64


Disassembly of section .text:

0000000000000000 <_<rand::rngs::reseeding::ReseedingCore<R,Rsdr> as rand_core::block::BlockRngCore>::generate>:
       0:	d10103ff 	sub	sp, sp, #0x40
       4:	a9037bfd 	stp	x29, x30, [sp, #48]
       8:	9100c3fd 	add	x29, sp, #0x30
       c:	f9000be0 	str	x0, [sp, #16]
      10:	f9000fe1 	str	x1, [sp, #24]
      14:	aa0003e8 	mov	x8, x0
      18:	f81f03a8 	stur	x8, [x29, #-16]
      1c:	f9401c08 	ldr	x8, [x0, #56]
      20:	f1000108 	subs	x8, x8, #0x0
      24:	540001ad 	b.le	58 <_<rand::rngs::reseeding::ReseedingCore<R,Rsdr> as rand_core::block::BlockRngCore>::generate+0x58>
      28:	14000001 	b	2c <_<rand::rngs::reseeding::ReseedingCore<R,Rsdr> as rand_core::block::BlockRngCore>::generate+0x2c>
      2c:	910063e0 	add	x0, sp, #0x18
      30:	94000000 	bl	1d6c <_<&mut T as core::convert::AsRef<U>>::as_ref>
      34:	94000000 	bl	db0 <_core::mem::size_of_val>
      38:	f9400be8 	ldr	x8, [sp, #16]
      3c:	f81f83a0 	stur	x0, [x29, #-8]
      40:	f9401d08 	ldr	x8, [x8, #56]
      44:	eb000108 	subs	x8, x8, x0
      48:	f90007e8 	str	x8, [sp, #8]
      4c:	1a9f77e8 	cset	w8, vs
      50:	37000188 	tbnz	w8, #0, 80 <_<rand::rngs::reseeding::ReseedingCore<R,Rsdr> as rand_core::block::BlockRngCore>::generate+0x80>
      54:	14000005 	b	68 <_<rand::rngs::reseeding::ReseedingCore<R,Rsdr> as rand_core::block::BlockRngCore>::generate+0x68>
      58:	f9400be0 	ldr	x0, [sp, #16]
      5c:	f9400fe1 	ldr	x1, [sp, #24]
      60:	94000000 	bl	1810 <_rand::rngs::reseeding::ReseedingCore<R,Rsdr>::reseed_and_generate>
      64:	1400000a 	b	8c <_<rand::rngs::reseeding::ReseedingCore<R,Rsdr> as rand_core::block::BlockRngCore>::generate+0x8c>
      68:	f9400be0 	ldr	x0, [sp, #16]
      6c:	f94007e8 	ldr	x8, [sp, #8]
      70:	f9001c08 	str	x8, [x0, #56]
      74:	f9400fe1 	ldr	x1, [sp, #24]
      78:	94000000 	bl	2340 <_<rand_chacha::chacha::ChaCha12Core as rand_core::block::BlockRngCore>::generate>
      7c:	14000004 	b	8c <_<rand::rngs::reseeding::ReseedingCore<R,Rsdr> as rand_core::block::BlockRngCore>::generate+0x8c>
      80:	90000000 	adrp	x0, d390 <l_alloc_8a8305002a5686bad8b99ad20f996174>
      84:	91000000 	add	x0, x0, #0x0
      88:	94000000 	bl	0 <_core::panicking::panic_const::panic_const_sub_overflow>
      8c:	a9437bfd 	ldp	x29, x30, [sp, #48]
      90:	910103ff 	add	sp, sp, #0x40
      94:	d65f03c0 	ret

0000000000000098 <_<core::ops::range::RangeTo<usize> as rand::distr::uniform::SampleRange<usize>>::sample_single>:
      98:	d100c3ff 	sub	sp, sp, #0x30
      9c:	a9027bfd 	stp	x29, x30, [sp, #32]
      a0:	910083fd 	add	x29, sp, #0x20
      a4:	f90007e0 	str	x0, [sp, #8]
      a8:	aa0103e2 	mov	x2, x1
      ac:	f94007e1 	ldr	x1, [sp, #8]
      b0:	f9000be1 	str	x1, [sp, #16]
      b4:	aa0203e9 	mov	x9, x2
      b8:	f81f83a9 	stur	x9, [x29, #-8]
      bc:	d2800000 	mov	x0, #0x0                   	// #0
      c0:	94000000 	bl	c338 <_<rand::distr::uniform::int::UniformUsize as rand::distr::uniform::UniformSampler>::sample_single>
      c4:	a9427bfd 	ldp	x29, x30, [sp, #32]
      c8:	9100c3ff 	add	sp, sp, #0x30
      cc:	d65f03c0 	ret

00000000000000d0 <_<core::ops::range::RangeTo<usize> as rand::distr::uniform::SampleRange<usize>>::is_empty>:
      d0:	d10043ff 	sub	sp, sp, #0x10
      d4:	aa0003e8 	mov	x8, x0
      d8:	f90007e8 	str	x8, [sp, #8]
      dc:	f9400009 	ldr	x9, [x0]
      e0:	d2800008 	mov	x8, #0x0                   	// #0
      e4:	eb090108 	subs	x8, x8, x9
      e8:	1a9f17e0 	cset	w0, eq	// eq = none
      ec:	910043ff 	add	sp, sp, #0x10
      f0:	d65f03c0 	ret

00000000000000f4 <_<rand::distr::uniform::int::UniformInt<u32> as rand::distr::uniform::UniformSampler>::sample_single>:
      f4:	d10203ff 	sub	sp, sp, #0x80
      f8:	a9077bfd 	stp	x29, x30, [sp, #112]
      fc:	9101c3fd 	add	x29, sp, #0x70
     100:	f9000fe2 	str	x2, [sp, #24]
     104:	910083e8 	add	x8, sp, #0x20
     108:	b90023e0 	str	w0, [sp, #32]
     10c:	b90027e1 	str	w1, [sp, #36]
     110:	f9001fe2 	str	x2, [sp, #56]
     114:	f81f83a8 	stur	x8, [x29, #-8]
     118:	14000006 	b	130 <_<rand::distr::uniform::int::UniformInt<u32> as rand::distr::uniform::UniformSampler>::sample_single+0x3c>
     11c:	14000035 	b	1f0 <_<rand::distr::uniform::int::UniformInt<u32> as rand::distr::uniform::UniformSampler>::sample_single+0xfc>
     120:	f81d03a0 	stur	x0, [x29, #-48]
     124:	aa0103e8 	mov	x8, x1
     128:	b81d83a8 	stur	w8, [x29, #-40]
     12c:	17fffffc 	b	11c <_<rand::distr::uniform::int::UniformInt<u32> as rand::distr::uniform::UniformSampler>::sample_single+0x28>
     130:	b94023e8 	ldr	w8, [sp, #32]
     134:	b90017e8 	str	w8, [sp, #20]
     138:	b81e03a8 	stur	w8, [x29, #-32]
     13c:	910093e8 	add	x8, sp, #0x24
     140:	f81f03a8 	stur	x8, [x29, #-16]
     144:	14000001 	b	148 <_<rand::distr::uniform::int::UniformInt<u32> as rand::distr::uniform::UniformSampler>::sample_single+0x54>
     148:	b94017e8 	ldr	w8, [sp, #20]
     14c:	b94027e9 	ldr	w9, [sp, #36]
     150:	b90013e9 	str	w9, [sp, #16]
     154:	b81e43a9 	stur	w9, [x29, #-28]
     158:	6b090108 	subs	w8, w8, w9
     15c:	54000123 	b.cc	180 <_<rand::distr::uniform::int::UniformInt<u32> as rand::distr::uniform::UniformSampler>::sample_single+0x8c>  // b.lo, b.ul, b.last
     160:	14000001 	b	164 <_<rand::distr::uniform::int::UniformInt<u32> as rand::distr::uniform::UniformSampler>::sample_single+0x70>
     164:	3900dfff 	strb	wzr, [sp, #55]
     168:	3940dfe9 	ldrb	w9, [sp, #55]
     16c:	52800028 	mov	w8, #0x1                   	// #1
     170:	12000129 	and	w9, w9, #0x1
     174:	3900a7e9 	strb	w9, [sp, #41]
     178:	3900a3e8 	strb	w8, [sp, #40]
     17c:	14000007 	b	198 <_<rand::distr::uniform::int::UniformInt<u32> as rand::distr::uniform::UniformSampler>::sample_single+0xa4>
     180:	b94013e8 	ldr	w8, [sp, #16]
     184:	71000509 	subs	w9, w8, #0x1
     188:	b9000fe9 	str	w9, [sp, #12]
     18c:	71000508 	subs	w8, w8, #0x1
     190:	540001a3 	b.cc	1c4 <_<rand::distr::uniform::int::UniformInt<u32> as rand::distr::uniform::UniformSampler>::sample_single+0xd0>  // b.lo, b.ul, b.last
     194:	14000006 	b	1ac <_<rand::distr::uniform::int::UniformInt<u32> as rand::distr::uniform::UniformSampler>::sample_single+0xb8>
     198:	14000001 	b	19c <_<rand::distr::uniform::int::UniformInt<u32> as rand::distr::uniform::UniformSampler>::sample_single+0xa8>
     19c:	f94017e0 	ldr	x0, [sp, #40]
     1a0:	a9477bfd 	ldp	x29, x30, [sp, #112]
     1a4:	910203ff 	add	sp, sp, #0x80
     1a8:	d65f03c0 	ret
     1ac:	f9400fe2 	ldr	x2, [sp, #24]
     1b0:	b9400fe1 	ldr	w1, [sp, #12]
     1b4:	b94017e0 	ldr	w0, [sp, #20]
     1b8:	94000000 	bl	1f8 <_<rand::distr::uniform::int::UniformInt<u32> as rand::distr::uniform::UniformSampler>::sample_single_inclusive>
     1bc:	f90003e0 	str	x0, [sp]
     1c0:	14000006 	b	1d8 <_<rand::distr::uniform::int::UniformInt<u32> as rand::distr::uniform::UniformSampler>::sample_single+0xe4>
     1c4:	90000000 	adrp	x0, d3a8 <l_alloc_5fc73023334f87bc750c79ae2dfc5958>
     1c8:	91000000 	add	x0, x0, #0x0
     1cc:	94000000 	bl	0 <_core::panicking::panic_const::panic_const_sub_overflow>
     1d0:	14000001 	b	1d4 <_<rand::distr::uniform::int::UniformInt<u32> as rand::distr::uniform::UniformSampler>::sample_single+0xe0>
     1d4:	d4200020 	brk	#0x1
     1d8:	f94003e8 	ldr	x8, [sp]
     1dc:	f81e83a8 	stur	x8, [x29, #-24]
     1e0:	f85e83a8 	ldur	x8, [x29, #-24]
     1e4:	f90017e8 	str	x8, [sp, #40]
     1e8:	14000001 	b	1ec <_<rand::distr::uniform::int::UniformInt<u32> as rand::distr::uniform::UniformSampler>::sample_single+0xf8>
     1ec:	17ffffec 	b	19c <_<rand::distr::uniform::int::UniformInt<u32> as rand::distr::uniform::UniformSampler>::sample_single+0xa8>
     1f0:	f85d03a0 	ldur	x0, [x29, #-48]
     1f4:	94000000 	bl	0 <__Unwind_Resume>

00000000000001f8 <_<rand::distr::uniform::int::UniformInt<u32> as rand::distr::uniform::UniformSampler>::sample_single_inclusive>:
     1f8:	d104c3ff 	sub	sp, sp, #0x130
     1fc:	a9116ffc 	stp	x28, x27, [sp, #272]
     200:	a9127bfd 	stp	x29, x30, [sp, #288]
     204:	910483fd 	add	x29, sp, #0x120
     208:	f90037e2 	str	x2, [sp, #104]
     20c:	9101c3e8 	add	x8, sp, #0x70
     210:	b90073e0 	str	w0, [sp, #112]
     214:	b90077e1 	str	w1, [sp, #116]
     218:	f9004be2 	str	x2, [sp, #144]
     21c:	f81e83a8 	stur	x8, [x29, #-24]
     220:	14000006 	b	238 <_<rand::distr::uniform::int::UniformInt<u32> as rand::distr::uniform::UniformSampler>::sample_single_inclusive+0x40>
     224:	140000ad 	b	4d8 <_<rand::distr::uniform::int::UniformInt<u32> as rand::distr::uniform::UniformSampler>::sample_single_inclusive+0x2e0>
     228:	f81783a0 	stur	x0, [x29, #-136]
     22c:	aa0103e8 	mov	x8, x1
     230:	b81803a8 	stur	w8, [x29, #-128]
     234:	17fffffc 	b	224 <_<rand::distr::uniform::int::UniformInt<u32> as rand::distr::uniform::UniformSampler>::sample_single_inclusive+0x2c>
     238:	b94073e8 	ldr	w8, [sp, #112]
     23c:	b90067e8 	str	w8, [sp, #100]
     240:	b818c3a8 	stur	w8, [x29, #-116]
     244:	9101d3e8 	add	x8, sp, #0x74
     248:	f81e03a8 	stur	x8, [x29, #-32]
     24c:	14000001 	b	250 <_<rand::distr::uniform::int::UniformInt<u32> as rand::distr::uniform::UniformSampler>::sample_single_inclusive+0x58>
     250:	b94067e8 	ldr	w8, [sp, #100]
     254:	b94077e9 	ldr	w9, [sp, #116]
     258:	b90063e9 	str	w9, [sp, #96]
     25c:	b81903a9 	stur	w9, [x29, #-112]
     260:	6b090108 	subs	w8, w8, w9
     264:	54000129 	b.ls	288 <_<rand::distr::uniform::int::UniformInt<u32> as rand::distr::uniform::UniformSampler>::sample_single_inclusive+0x90>  // b.plast
     268:	14000001 	b	26c <_<rand::distr::uniform::int::UniformInt<u32> as rand::distr::uniform::UniformSampler>::sample_single_inclusive+0x74>
     26c:	39020fff 	strb	wzr, [sp, #131]
     270:	39420fe9 	ldrb	w9, [sp, #131]
     274:	52800028 	mov	w8, #0x1                   	// #1
     278:	12000129 	and	w9, w9, #0x1
     27c:	3901e7e9 	strb	w9, [sp, #121]
     280:	3901e3e8 	strb	w8, [sp, #120]
     284:	14000008 	b	2a4 <_<rand::distr::uniform::int::UniformInt<u32> as rand::distr::uniform::UniformSampler>::sample_single_inclusive+0xac>
     288:	b94063e8 	ldr	w8, [sp, #96]
     28c:	b94067e9 	ldr	w9, [sp, #100]
     290:	b81b83a8 	stur	w8, [x29, #-72]
     294:	b81bc3a9 	stur	w9, [x29, #-68]
     298:	6b090108 	subs	w8, w8, w9
     29c:	b9005fe8 	str	w8, [sp, #92]
     2a0:	14000002 	b	2a8 <_<rand::distr::uniform::int::UniformInt<u32> as rand::distr::uniform::UniformSampler>::sample_single_inclusive+0xb0>
     2a4:	14000018 	b	304 <_<rand::distr::uniform::int::UniformInt<u32> as rand::distr::uniform::UniformSampler>::sample_single_inclusive+0x10c>
     2a8:	b9405fe8 	ldr	w8, [sp, #92]
     2ac:	b81ac3a8 	stur	w8, [x29, #-84]
     2b0:	52800029 	mov	w9, #0x1                   	// #1
     2b4:	b81b03a9 	stur	w9, [x29, #-80]
     2b8:	11000508 	add	w8, w8, #0x1
     2bc:	b9005be8 	str	w8, [sp, #88]
     2c0:	14000001 	b	2c4 <_<rand::distr::uniform::int::UniformInt<u32> as rand::distr::uniform::UniformSampler>::sample_single_inclusive+0xcc>
     2c4:	b9405be8 	ldr	w8, [sp, #88]
     2c8:	b81943a8 	stur	w8, [x29, #-108]
     2cc:	350000c8 	cbnz	w8, 2e4 <_<rand::distr::uniform::int::UniformInt<u32> as rand::distr::uniform::UniformSampler>::sample_single_inclusive+0xec>
     2d0:	14000001 	b	2d4 <_<rand::distr::uniform::int::UniformInt<u32> as rand::distr::uniform::UniformSampler>::sample_single_inclusive+0xdc>
     2d4:	f94037e0 	ldr	x0, [sp, #104]
     2d8:	94000000 	bl	1718 <_rand::rng::Rng::random>
     2dc:	b90057e0 	str	w0, [sp, #84]
     2e0:	14000005 	b	2f4 <_<rand::distr::uniform::int::UniformInt<u32> as rand::distr::uniform::UniformSampler>::sample_single_inclusive+0xfc>
     2e4:	f94037e0 	ldr	x0, [sp, #104]
     2e8:	94000000 	bl	1718 <_rand::rng::Rng::random>
     2ec:	b90053e0 	str	w0, [sp, #80]
     2f0:	1400000b 	b	31c <_<rand::distr::uniform::int::UniformInt<u32> as rand::distr::uniform::UniformSampler>::sample_single_inclusive+0x124>
     2f4:	b94057e8 	ldr	w8, [sp, #84]
     2f8:	b9007fe8 	str	w8, [sp, #124]
     2fc:	3901e3ff 	strb	wzr, [sp, #120]
     300:	17ffffe9 	b	2a4 <_<rand::distr::uniform::int::UniformInt<u32> as rand::distr::uniform::UniformSampler>::sample_single_inclusive+0xac>
     304:	14000001 	b	308 <_<rand::distr::uniform::int::UniformInt<u32> as rand::distr::uniform::UniformSampler>::sample_single_inclusive+0x110>
     308:	f9403fe0 	ldr	x0, [sp, #120]
     30c:	a9527bfd 	ldp	x29, x30, [sp, #288]
     310:	a9516ffc 	ldp	x28, x27, [sp, #272]
     314:	9104c3ff 	add	sp, sp, #0x130
     318:	d65f03c0 	ret
     31c:	b94053e9 	ldr	w9, [sp, #80]
     320:	b9405bea 	ldr	w10, [sp, #88]
     324:	b81d03a9 	stur	w9, [x29, #-48]
     328:	b81d43aa 	stur	w10, [x29, #-44]
     32c:	2a0903e8 	mov	w8, w9
     330:	2a0a03eb 	mov	w11, w10
     334:	9bcb7d08 	umulh	x8, x8, x11
     338:	9baa7d29 	umull	x9, w9, w10
     33c:	f90027e9 	str	x9, [sp, #72]
     340:	f1000108 	subs	x8, x8, #0x0
     344:	1a9f07e8 	cset	w8, ne	// ne = any
     348:	360000e8 	tbz	w8, #0, 364 <_<rand::distr::uniform::int::UniformInt<u32> as rand::distr::uniform::UniformSampler>::sample_single_inclusive+0x16c>
     34c:	14000001 	b	350 <_<rand::distr::uniform::int::UniformInt<u32> as rand::distr::uniform::UniformSampler>::sample_single_inclusive+0x158>
     350:	90000000 	adrp	x0, d690 <l_alloc_0e203e6d2c8e3f24bc8531bafa2f894b>
     354:	91000000 	add	x0, x0, #0x0
     358:	94000000 	bl	0 <_core::panicking::panic_const::panic_const_mul_overflow>
     35c:	14000001 	b	360 <_<rand::distr::uniform::int::UniformInt<u32> as rand::distr::uniform::UniformSampler>::sample_single_inclusive+0x168>
     360:	d4200020 	brk	#0x1
     364:	f94027e8 	ldr	x8, [sp, #72]
     368:	f81d83a8 	stur	x8, [x29, #-40]
     36c:	d360fd09 	lsr	x9, x8, #32
     370:	f9001fe9 	str	x9, [sp, #56]
     374:	b90047e8 	str	w8, [sp, #68]
     378:	14000001 	b	37c <_<rand::distr::uniform::int::UniformInt<u32> as rand::distr::uniform::UniformSampler>::sample_single_inclusive+0x184>
     37c:	b9405be9 	ldr	w9, [sp, #88]
     380:	f94027e8 	ldr	x8, [sp, #72]
     384:	f9401fea 	ldr	x10, [sp, #56]
     388:	b90087ea 	str	w10, [sp, #132]
     38c:	b81983a8 	stur	w8, [x29, #-104]
     390:	b81b43a9 	stur	w9, [x29, #-76]
     394:	52800008 	mov	w8, #0x0                   	// #0
     398:	6b090108 	subs	w8, w8, w9
     39c:	b90037e8 	str	w8, [sp, #52]
     3a0:	14000001 	b	3a4 <_<rand::distr::uniform::int::UniformInt<u32> as rand::distr::uniform::UniformSampler>::sample_single_inclusive+0x1ac>
     3a4:	b94047e8 	ldr	w8, [sp, #68]
     3a8:	b94037e9 	ldr	w9, [sp, #52]
     3ac:	6b090108 	subs	w8, w8, w9
     3b0:	54000128 	b.hi	3d4 <_<rand::distr::uniform::int::UniformInt<u32> as rand::distr::uniform::UniformSampler>::sample_single_inclusive+0x1dc>  // b.pmore
     3b4:	14000001 	b	3b8 <_<rand::distr::uniform::int::UniformInt<u32> as rand::distr::uniform::UniformSampler>::sample_single_inclusive+0x1c0>
     3b8:	b94067e8 	ldr	w8, [sp, #100]
     3bc:	b94087e9 	ldr	w9, [sp, #132]
     3c0:	b81a43a8 	stur	w8, [x29, #-92]
     3c4:	b81a83a9 	stur	w9, [x29, #-88]
     3c8:	0b090108 	add	w8, w8, w9
     3cc:	b90033e8 	str	w8, [sp, #48]
     3d0:	1400003d 	b	4c4 <_<rand::distr::uniform::int::UniformInt<u32> as rand::distr::uniform::UniformSampler>::sample_single_inclusive+0x2cc>
     3d4:	f94037e0 	ldr	x0, [sp, #104]
     3d8:	94000000 	bl	1718 <_rand::rng::Rng::random>
     3dc:	b9002fe0 	str	w0, [sp, #44]
     3e0:	14000001 	b	3e4 <_<rand::distr::uniform::int::UniformInt<u32> as rand::distr::uniform::UniformSampler>::sample_single_inclusive+0x1ec>
     3e4:	b9402fe9 	ldr	w9, [sp, #44]
     3e8:	b9405bea 	ldr	w10, [sp, #88]
     3ec:	b81c03a9 	stur	w9, [x29, #-64]
     3f0:	b81c43aa 	stur	w10, [x29, #-60]
     3f4:	2a0903e8 	mov	w8, w9
     3f8:	2a0a03eb 	mov	w11, w10
     3fc:	9bcb7d08 	umulh	x8, x8, x11
     400:	9baa7d29 	umull	x9, w9, w10
     404:	f90013e9 	str	x9, [sp, #32]
     408:	f1000108 	subs	x8, x8, #0x0
     40c:	1a9f07e8 	cset	w8, ne	// ne = any
     410:	360000e8 	tbz	w8, #0, 42c <_<rand::distr::uniform::int::UniformInt<u32> as rand::distr::uniform::UniformSampler>::sample_single_inclusive+0x234>
     414:	14000001 	b	418 <_<rand::distr::uniform::int::UniformInt<u32> as rand::distr::uniform::UniformSampler>::sample_single_inclusive+0x220>
     418:	90000000 	adrp	x0, d690 <l_alloc_0e203e6d2c8e3f24bc8531bafa2f894b>
     41c:	91000000 	add	x0, x0, #0x0
     420:	94000000 	bl	0 <_core::panicking::panic_const::panic_const_mul_overflow>
     424:	14000001 	b	428 <_<rand::distr::uniform::int::UniformInt<u32> as rand::distr::uniform::UniformSampler>::sample_single_inclusive+0x230>
     428:	d4200020 	brk	#0x1
     42c:	f94013e8 	ldr	x8, [sp, #32]
     430:	f81c83a8 	stur	x8, [x29, #-56]
     434:	d360fd08 	lsr	x8, x8, #32
     438:	f9000be8 	str	x8, [sp, #16]
     43c:	b9001fe8 	str	w8, [sp, #28]
     440:	14000001 	b	444 <_<rand::distr::uniform::int::UniformInt<u32> as rand::distr::uniform::UniformSampler>::sample_single_inclusive+0x24c>
     444:	b9401fe1 	ldr	w1, [sp, #28]
     448:	b94047e0 	ldr	w0, [sp, #68]
     44c:	f9400be8 	ldr	x8, [sp, #16]
     450:	b819c3a8 	stur	w8, [x29, #-100]
     454:	94000000 	bl	dd0 <_core::num::<impl u32>::checked_add>
     458:	b9000be0 	str	w0, [sp, #8]
     45c:	b9000fe1 	str	w1, [sp, #12]
     460:	14000001 	b	464 <_<rand::distr::uniform::int::UniformInt<u32> as rand::distr::uniform::UniformSampler>::sample_single_inclusive+0x26c>
     464:	b9400fe8 	ldr	w8, [sp, #12]
     468:	b9400be9 	ldr	w9, [sp, #8]
     46c:	910223e0 	add	x0, sp, #0x88
     470:	b9008be9 	str	w9, [sp, #136]
     474:	b9008fe8 	str	w8, [sp, #140]
     478:	94000000 	bl	1470 <_core::option::Option<T>::is_none>
     47c:	b90007e0 	str	w0, [sp, #4]
     480:	14000001 	b	484 <_<rand::distr::uniform::int::UniformInt<u32> as rand::distr::uniform::UniformSampler>::sample_single_inclusive+0x28c>
     484:	b94007e9 	ldr	w9, [sp, #4]
     488:	381a33a9 	sturb	w9, [x29, #-93]
     48c:	b94087e8 	ldr	w8, [sp, #132]
     490:	2b090108 	adds	w8, w8, w9
     494:	b90003e8 	str	w8, [sp]
     498:	1a9f37e8 	cset	w8, cs	// cs = hs, nlast
     49c:	370000a8 	tbnz	w8, #0, 4b0 <_<rand::distr::uniform::int::UniformInt<u32> as rand::distr::uniform::UniformSampler>::sample_single_inclusive+0x2b8>
     4a0:	14000001 	b	4a4 <_<rand::distr::uniform::int::UniformInt<u32> as rand::distr::uniform::UniformSampler>::sample_single_inclusive+0x2ac>
     4a4:	b94003e8 	ldr	w8, [sp]
     4a8:	b90087e8 	str	w8, [sp, #132]
     4ac:	17ffffc3 	b	3b8 <_<rand::distr::uniform::int::UniformInt<u32> as rand::distr::uniform::UniformSampler>::sample_single_inclusive+0x1c0>
     4b0:	90000000 	adrp	x0, d3a8 <l_alloc_5fc73023334f87bc750c79ae2dfc5958>
     4b4:	91000000 	add	x0, x0, #0x0
     4b8:	94000000 	bl	0 <_core::panicking::panic_const::panic_const_add_overflow>
     4bc:	14000001 	b	4c0 <_<rand::distr::uniform::int::UniformInt<u32> as rand::distr::uniform::UniformSampler>::sample_single_inclusive+0x2c8>
     4c0:	d4200020 	brk	#0x1
     4c4:	b94033e8 	ldr	w8, [sp, #48]
     4c8:	b9007fe8 	str	w8, [sp, #124]
     4cc:	3901e3ff 	strb	wzr, [sp, #120]
     4d0:	14000001 	b	4d4 <_<rand::distr::uniform::int::UniformInt<u32> as rand::distr::uniform::UniformSampler>::sample_single_inclusive+0x2dc>
     4d4:	17ffff8d 	b	308 <_<rand::distr::uniform::int::UniformInt<u32> as rand::distr::uniform::UniformSampler>::sample_single_inclusive+0x110>
     4d8:	f85783a0 	ldur	x0, [x29, #-136]
     4dc:	94000000 	bl	0 <__Unwind_Resume>

00000000000004e0 <_<rand::distr::uniform::int::UniformInt<u64> as rand::distr::uniform::UniformSampler>::sample_single>:
     4e0:	d10243ff 	sub	sp, sp, #0x90
     4e4:	a9087bfd 	stp	x29, x30, [sp, #128]
     4e8:	910203fd 	add	x29, sp, #0x80
     4ec:	f90013e8 	str	x8, [sp, #32]
     4f0:	f90017e2 	str	x2, [sp, #40]
     4f4:	9100c3e8 	add	x8, sp, #0x30
     4f8:	f9001be0 	str	x0, [sp, #48]
     4fc:	f9001fe1 	str	x1, [sp, #56]
     500:	f81c83a2 	stur	x2, [x29, #-56]
     504:	f81f83a8 	stur	x8, [x29, #-8]
     508:	14000006 	b	520 <_<rand::distr::uniform::int::UniformInt<u64> as rand::distr::uniform::UniformSampler>::sample_single+0x40>
     50c:	14000031 	b	5d0 <_<rand::distr::uniform::int::UniformInt<u64> as rand::distr::uniform::UniformSampler>::sample_single+0xf0>
     510:	f81d03a0 	stur	x0, [x29, #-48]
     514:	aa0103e8 	mov	x8, x1
     518:	b81d83a8 	stur	w8, [x29, #-40]
     51c:	17fffffc 	b	50c <_<rand::distr::uniform::int::UniformInt<u64> as rand::distr::uniform::UniformSampler>::sample_single+0x2c>
     520:	f9401be8 	ldr	x8, [sp, #48]
     524:	f9000fe8 	str	x8, [sp, #24]
     528:	f81e03a8 	stur	x8, [x29, #-32]
     52c:	9100e3e8 	add	x8, sp, #0x38
     530:	f81f03a8 	stur	x8, [x29, #-16]
     534:	14000001 	b	538 <_<rand::distr::uniform::int::UniformInt<u64> as rand::distr::uniform::UniformSampler>::sample_single+0x58>
     538:	f9400fe8 	ldr	x8, [sp, #24]
     53c:	f9401fe9 	ldr	x9, [sp, #56]
     540:	f9000be9 	str	x9, [sp, #16]
     544:	f81e83a9 	stur	x9, [x29, #-24]
     548:	eb090108 	subs	x8, x8, x9
     54c:	54000143 	b.cc	574 <_<rand::distr::uniform::int::UniformInt<u64> as rand::distr::uniform::UniformSampler>::sample_single+0x94>  // b.lo, b.ul, b.last
     550:	14000001 	b	554 <_<rand::distr::uniform::int::UniformInt<u64> as rand::distr::uniform::UniformSampler>::sample_single+0x74>
     554:	f94013e9 	ldr	x9, [sp, #32]
     558:	381c73bf 	sturb	wzr, [x29, #-57]
     55c:	385c73aa 	ldurb	w10, [x29, #-57]
     560:	52800028 	mov	w8, #0x1                   	// #1
     564:	1200014a 	and	w10, w10, #0x1
     568:	3900052a 	strb	w10, [x9, #1]
     56c:	39000128 	strb	w8, [x9]
     570:	14000007 	b	58c <_<rand::distr::uniform::int::UniformInt<u64> as rand::distr::uniform::UniformSampler>::sample_single+0xac>
     574:	f9400be8 	ldr	x8, [sp, #16]
     578:	f1000509 	subs	x9, x8, #0x1
     57c:	f90007e9 	str	x9, [sp, #8]
     580:	f1000508 	subs	x8, x8, #0x1
     584:	54000183 	b.cc	5b4 <_<rand::distr::uniform::int::UniformInt<u64> as rand::distr::uniform::UniformSampler>::sample_single+0xd4>  // b.lo, b.ul, b.last
     588:	14000005 	b	59c <_<rand::distr::uniform::int::UniformInt<u64> as rand::distr::uniform::UniformSampler>::sample_single+0xbc>
     58c:	14000001 	b	590 <_<rand::distr::uniform::int::UniformInt<u64> as rand::distr::uniform::UniformSampler>::sample_single+0xb0>
     590:	a9487bfd 	ldp	x29, x30, [sp, #128]
     594:	910243ff 	add	sp, sp, #0x90
     598:	d65f03c0 	ret
     59c:	f94017e2 	ldr	x2, [sp, #40]
     5a0:	f94007e1 	ldr	x1, [sp, #8]
     5a4:	f9400fe0 	ldr	x0, [sp, #24]
     5a8:	f94013e8 	ldr	x8, [sp, #32]
     5ac:	94000000 	bl	5d8 <_<rand::distr::uniform::int::UniformInt<u64> as rand::distr::uniform::UniformSampler>::sample_single_inclusive>
     5b0:	14000006 	b	5c8 <_<rand::distr::uniform::int::UniformInt<u64> as rand::distr::uniform::UniformSampler>::sample_single+0xe8>
     5b4:	90000000 	adrp	x0, d3c0 <l_alloc_b7bef978aede28df3b19e88fa8cc4254>
     5b8:	91000000 	add	x0, x0, #0x0
     5bc:	94000000 	bl	0 <_core::panicking::panic_const::panic_const_sub_overflow>
     5c0:	14000001 	b	5c4 <_<rand::distr::uniform::int::UniformInt<u64> as rand::distr::uniform::UniformSampler>::sample_single+0xe4>
     5c4:	d4200020 	brk	#0x1
     5c8:	14000001 	b	5cc <_<rand::distr::uniform::int::UniformInt<u64> as rand::distr::uniform::UniformSampler>::sample_single+0xec>
     5cc:	17fffff1 	b	590 <_<rand::distr::uniform::int::UniformInt<u64> as rand::distr::uniform::UniformSampler>::sample_single+0xb0>
     5d0:	f85d03a0 	ldur	x0, [x29, #-48]
     5d4:	94000000 	bl	0 <__Unwind_Resume>

00000000000005d8 <_<rand::distr::uniform::int::UniformInt<u64> as rand::distr::uniform::UniformSampler>::sample_single_inclusive>:
     5d8:	d10783ff 	sub	sp, sp, #0x1e0
     5dc:	a91c6ffc 	stp	x28, x27, [sp, #448]
     5e0:	a91d7bfd 	stp	x29, x30, [sp, #464]
     5e4:	910743fd 	add	x29, sp, #0x1d0
     5e8:	f9005be2 	str	x2, [sp, #176]
     5ec:	f9005fe8 	str	x8, [sp, #184]
     5f0:	f90063e0 	str	x0, [sp, #192]
     5f4:	f90067e1 	str	x1, [sp, #200]
     5f8:	f81203a2 	stur	x2, [x29, #-224]
     5fc:	910303e8 	add	x8, sp, #0xc0
     600:	f81e83a8 	stur	x8, [x29, #-24]
     604:	14000006 	b	61c <_<rand::distr::uniform::int::UniformInt<u64> as rand::distr::uniform::UniformSampler>::sample_single_inclusive+0x44>
     608:	140000b5 	b	8dc <_<rand::distr::uniform::int::UniformInt<u64> as rand::distr::uniform::UniformSampler>::sample_single_inclusive+0x304>
     60c:	f81283a0 	stur	x0, [x29, #-216]
     610:	aa0103e8 	mov	x8, x1
     614:	b81303a8 	stur	w8, [x29, #-208]
     618:	17fffffc 	b	608 <_<rand::distr::uniform::int::UniformInt<u64> as rand::distr::uniform::UniformSampler>::sample_single_inclusive+0x30>
     61c:	f94063e8 	ldr	x8, [sp, #192]
     620:	aa0803e9 	mov	x9, x8
     624:	f90057e9 	str	x9, [sp, #168]
     628:	f81383a8 	stur	x8, [x29, #-200]
     62c:	910323e8 	add	x8, sp, #0xc8
     630:	f81e03a8 	stur	x8, [x29, #-32]
     634:	14000001 	b	638 <_<rand::distr::uniform::int::UniformInt<u64> as rand::distr::uniform::UniformSampler>::sample_single_inclusive+0x60>
     638:	f94057e8 	ldr	x8, [sp, #168]
     63c:	f94067e9 	ldr	x9, [sp, #200]
     640:	aa0903ea 	mov	x10, x9
     644:	f90053ea 	str	x10, [sp, #160]
     648:	f81403a9 	stur	x9, [x29, #-192]
     64c:	eb090108 	subs	x8, x8, x9
     650:	54000169 	b.ls	67c <_<rand::distr::uniform::int::UniformInt<u64> as rand::distr::uniform::UniformSampler>::sample_single_inclusive+0xa4>  // b.plast
     654:	14000001 	b	658 <_<rand::distr::uniform::int::UniformInt<u64> as rand::distr::uniform::UniformSampler>::sample_single_inclusive+0x80>
     658:	f9405fe9 	ldr	x9, [sp, #184]
     65c:	52800008 	mov	w8, #0x0                   	// #0
     660:	39035fe8 	strb	w8, [sp, #215]
     664:	39435fe8 	ldrb	w8, [sp, #215]
     668:	12000108 	and	w8, w8, #0x1
     66c:	39000528 	strb	w8, [x9, #1]
     670:	52800028 	mov	w8, #0x1                   	// #1
     674:	39000128 	strb	w8, [x9]
     678:	14000008 	b	698 <_<rand::distr::uniform::int::UniformInt<u64> as rand::distr::uniform::UniformSampler>::sample_single_inclusive+0xc0>
     67c:	f94053e8 	ldr	x8, [sp, #160]
     680:	f94057e9 	ldr	x9, [sp, #168]
     684:	f81903a8 	stur	x8, [x29, #-112]
     688:	f81983a9 	stur	x9, [x29, #-104]
     68c:	eb090108 	subs	x8, x8, x9
     690:	f9004fe8 	str	x8, [sp, #152]
     694:	14000002 	b	69c <_<rand::distr::uniform::int::UniformInt<u64> as rand::distr::uniform::UniformSampler>::sample_single_inclusive+0xc4>
     698:	1400001a 	b	700 <_<rand::distr::uniform::int::UniformInt<u64> as rand::distr::uniform::UniformSampler>::sample_single_inclusive+0x128>
     69c:	f9404fe8 	ldr	x8, [sp, #152]
     6a0:	f81783a8 	stur	x8, [x29, #-136]
     6a4:	52800029 	mov	w9, #0x1                   	// #1
     6a8:	f81803a9 	stur	x9, [x29, #-128]
     6ac:	91000508 	add	x8, x8, #0x1
     6b0:	f9004be8 	str	x8, [sp, #144]
     6b4:	14000001 	b	6b8 <_<rand::distr::uniform::int::UniformInt<u64> as rand::distr::uniform::UniformSampler>::sample_single_inclusive+0xe0>
     6b8:	f9404be8 	ldr	x8, [sp, #144]
     6bc:	f81483a8 	stur	x8, [x29, #-184]
     6c0:	b50000c8 	cbnz	x8, 6d8 <_<rand::distr::uniform::int::UniformInt<u64> as rand::distr::uniform::UniformSampler>::sample_single_inclusive+0x100>
     6c4:	14000001 	b	6c8 <_<rand::distr::uniform::int::UniformInt<u64> as rand::distr::uniform::UniformSampler>::sample_single_inclusive+0xf0>
     6c8:	f9405be0 	ldr	x0, [sp, #176]
     6cc:	94000000 	bl	16e8 <_rand::rng::Rng::random>
     6d0:	f90047e0 	str	x0, [sp, #136]
     6d4:	14000005 	b	6e8 <_<rand::distr::uniform::int::UniformInt<u64> as rand::distr::uniform::UniformSampler>::sample_single_inclusive+0x110>
     6d8:	f9405be0 	ldr	x0, [sp, #176]
     6dc:	94000000 	bl	16e8 <_rand::rng::Rng::random>
     6e0:	f90043e0 	str	x0, [sp, #128]
     6e4:	1400000c 	b	714 <_<rand::distr::uniform::int::UniformInt<u64> as rand::distr::uniform::UniformSampler>::sample_single_inclusive+0x13c>
     6e8:	f9405fe9 	ldr	x9, [sp, #184]
     6ec:	f94047e8 	ldr	x8, [sp, #136]
     6f0:	f9000528 	str	x8, [x9, #8]
     6f4:	52800008 	mov	w8, #0x0                   	// #0
     6f8:	39000128 	strb	w8, [x9]
     6fc:	17ffffe7 	b	698 <_<rand::distr::uniform::int::UniformInt<u64> as rand::distr::uniform::UniformSampler>::sample_single_inclusive+0xc0>
     700:	14000001 	b	704 <_<rand::distr::uniform::int::UniformInt<u64> as rand::distr::uniform::UniformSampler>::sample_single_inclusive+0x12c>
     704:	a95d7bfd 	ldp	x29, x30, [sp, #464]
     708:	a95c6ffc 	ldp	x28, x27, [sp, #448]
     70c:	910783ff 	add	sp, sp, #0x1e0
     710:	d65f03c0 	ret
     714:	f94043e8 	ldr	x8, [sp, #128]
     718:	f9404bea 	ldr	x10, [sp, #144]
     71c:	f81c03a8 	stur	x8, [x29, #-64]
     720:	f81c83aa 	stur	x10, [x29, #-56]
     724:	9bca7d09 	umulh	x9, x8, x10
     728:	9b0a7d08 	mul	x8, x8, x10
     72c:	f9003be9 	str	x9, [sp, #112]
     730:	f9003fe8 	str	x8, [sp, #120]
     734:	52800028 	mov	w8, #0x1                   	// #1
     738:	350000e8 	cbnz	w8, 754 <_<rand::distr::uniform::int::UniformInt<u64> as rand::distr::uniform::UniformSampler>::sample_single_inclusive+0x17c>
     73c:	14000001 	b	740 <_<rand::distr::uniform::int::UniformInt<u64> as rand::distr::uniform::UniformSampler>::sample_single_inclusive+0x168>
     740:	90000000 	adrp	x0, d6a8 <l_alloc_cbcc5b3e1826322f6bac87ad33b55b85>
     744:	91000000 	add	x0, x0, #0x0
     748:	94000000 	bl	0 <_core::panicking::panic_const::panic_const_mul_overflow>
     74c:	14000001 	b	750 <_<rand::distr::uniform::int::UniformInt<u64> as rand::distr::uniform::UniformSampler>::sample_single_inclusive+0x178>
     750:	d4200020 	brk	#0x1
     754:	f9403be8 	ldr	x8, [sp, #112]
     758:	f9403fe9 	ldr	x9, [sp, #120]
     75c:	f81d03a9 	stur	x9, [x29, #-48]
     760:	f81d83a8 	stur	x8, [x29, #-40]
     764:	f90033e9 	str	x9, [sp, #96]
     768:	f90037e8 	str	x8, [sp, #104]
     76c:	14000001 	b	770 <_<rand::distr::uniform::int::UniformInt<u64> as rand::distr::uniform::UniformSampler>::sample_single_inclusive+0x198>
     770:	f9404be9 	ldr	x9, [sp, #144]
     774:	f94033e8 	ldr	x8, [sp, #96]
     778:	f94037ea 	ldr	x10, [sp, #104]
     77c:	aa0803eb 	mov	x11, x8
     780:	f9002beb 	str	x11, [sp, #80]
     784:	f9006fea 	str	x10, [sp, #216]
     788:	f81503a8 	stur	x8, [x29, #-176]
     78c:	f81883a9 	stur	x9, [x29, #-120]
     790:	d2800008 	mov	x8, #0x0                   	// #0
     794:	eb090108 	subs	x8, x8, x9
     798:	f9002fe8 	str	x8, [sp, #88]
     79c:	14000001 	b	7a0 <_<rand::distr::uniform::int::UniformInt<u64> as rand::distr::uniform::UniformSampler>::sample_single_inclusive+0x1c8>
     7a0:	f9402be8 	ldr	x8, [sp, #80]
     7a4:	f9402fe9 	ldr	x9, [sp, #88]
     7a8:	eb090108 	subs	x8, x8, x9
     7ac:	54000128 	b.hi	7d0 <_<rand::distr::uniform::int::UniformInt<u64> as rand::distr::uniform::UniformSampler>::sample_single_inclusive+0x1f8>  // b.pmore
     7b0:	14000001 	b	7b4 <_<rand::distr::uniform::int::UniformInt<u64> as rand::distr::uniform::UniformSampler>::sample_single_inclusive+0x1dc>
     7b4:	f94057e8 	ldr	x8, [sp, #168]
     7b8:	f9406fe9 	ldr	x9, [sp, #216]
     7bc:	f81683a8 	stur	x8, [x29, #-152]
     7c0:	f81703a9 	stur	x9, [x29, #-144]
     7c4:	8b090108 	add	x8, x8, x9
     7c8:	f90027e8 	str	x8, [sp, #72]
     7cc:	1400003d 	b	8c0 <_<rand::distr::uniform::int::UniformInt<u64> as rand::distr::uniform::UniformSampler>::sample_single_inclusive+0x2e8>
     7d0:	f9405be0 	ldr	x0, [sp, #176]
     7d4:	94000000 	bl	16e8 <_rand::rng::Rng::random>
     7d8:	f90023e0 	str	x0, [sp, #64]
     7dc:	14000001 	b	7e0 <_<rand::distr::uniform::int::UniformInt<u64> as rand::distr::uniform::UniformSampler>::sample_single_inclusive+0x208>
     7e0:	f94023e8 	ldr	x8, [sp, #64]
     7e4:	f9404bea 	ldr	x10, [sp, #144]
     7e8:	f81a03a8 	stur	x8, [x29, #-96]
     7ec:	f81a83aa 	stur	x10, [x29, #-88]
     7f0:	9bca7d09 	umulh	x9, x8, x10
     7f4:	9b0a7d08 	mul	x8, x8, x10
     7f8:	f9001be9 	str	x9, [sp, #48]
     7fc:	f9001fe8 	str	x8, [sp, #56]
     800:	52800028 	mov	w8, #0x1                   	// #1
     804:	350000e8 	cbnz	w8, 820 <_<rand::distr::uniform::int::UniformInt<u64> as rand::distr::uniform::UniformSampler>::sample_single_inclusive+0x248>
     808:	14000001 	b	80c <_<rand::distr::uniform::int::UniformInt<u64> as rand::distr::uniform::UniformSampler>::sample_single_inclusive+0x234>
     80c:	90000000 	adrp	x0, d6a8 <l_alloc_cbcc5b3e1826322f6bac87ad33b55b85>
     810:	91000000 	add	x0, x0, #0x0
     814:	94000000 	bl	0 <_core::panicking::panic_const::panic_const_mul_overflow>
     818:	14000001 	b	81c <_<rand::distr::uniform::int::UniformInt<u64> as rand::distr::uniform::UniformSampler>::sample_single_inclusive+0x244>
     81c:	d4200020 	brk	#0x1
     820:	f9401be8 	ldr	x8, [sp, #48]
     824:	f9401fe0 	ldr	x0, [sp, #56]
     828:	f81b03a0 	stur	x0, [x29, #-80]
     82c:	f81b83a8 	stur	x8, [x29, #-72]
     830:	f90017e8 	str	x8, [sp, #40]
     834:	14000001 	b	838 <_<rand::distr::uniform::int::UniformInt<u64> as rand::distr::uniform::UniformSampler>::sample_single_inclusive+0x260>
     838:	f94017e1 	ldr	x1, [sp, #40]
     83c:	f9402be0 	ldr	x0, [sp, #80]
     840:	f81583a1 	stur	x1, [x29, #-168]
     844:	94000000 	bl	e44 <_core::num::<impl u64>::checked_add>
     848:	f9000fe1 	str	x1, [sp, #24]
     84c:	f90013e0 	str	x0, [sp, #32]
     850:	14000001 	b	854 <_<rand::distr::uniform::int::UniformInt<u64> as rand::distr::uniform::UniformSampler>::sample_single_inclusive+0x27c>
     854:	f9400fe8 	ldr	x8, [sp, #24]
     858:	f94013e9 	ldr	x9, [sp, #32]
     85c:	f90073e9 	str	x9, [sp, #224]
     860:	f90077e8 	str	x8, [sp, #232]
     864:	910383e0 	add	x0, sp, #0xe0
     868:	94000000 	bl	1490 <_core::option::Option<T>::is_none>
     86c:	b90017e0 	str	w0, [sp, #20]
     870:	14000001 	b	874 <_<rand::distr::uniform::int::UniformInt<u64> as rand::distr::uniform::UniformSampler>::sample_single_inclusive+0x29c>
     874:	b94017e9 	ldr	w9, [sp, #20]
     878:	12000128 	and	w8, w9, #0x1
     87c:	381673a8 	sturb	w8, [x29, #-153]
     880:	aa0903e8 	mov	x8, x9
     884:	92400109 	and	x9, x8, #0x1
     888:	f9406fe8 	ldr	x8, [sp, #216]
     88c:	ab090109 	adds	x9, x8, x9
     890:	1a9f37e8 	cset	w8, cs	// cs = hs, nlast
     894:	f90007e9 	str	x9, [sp, #8]
     898:	370000a8 	tbnz	w8, #0, 8ac <_<rand::distr::uniform::int::UniformInt<u64> as rand::distr::uniform::UniformSampler>::sample_single_inclusive+0x2d4>
     89c:	14000001 	b	8a0 <_<rand::distr::uniform::int::UniformInt<u64> as rand::distr::uniform::UniformSampler>::sample_single_inclusive+0x2c8>
     8a0:	f94007e8 	ldr	x8, [sp, #8]
     8a4:	f9006fe8 	str	x8, [sp, #216]
     8a8:	17ffffc3 	b	7b4 <_<rand::distr::uniform::int::UniformInt<u64> as rand::distr::uniform::UniformSampler>::sample_single_inclusive+0x1dc>
     8ac:	90000000 	adrp	x0, d3c0 <l_alloc_b7bef978aede28df3b19e88fa8cc4254>
     8b0:	91000000 	add	x0, x0, #0x0
     8b4:	94000000 	bl	0 <_core::panicking::panic_const::panic_const_add_overflow>
     8b8:	14000001 	b	8bc <_<rand::distr::uniform::int::UniformInt<u64> as rand::distr::uniform::UniformSampler>::sample_single_inclusive+0x2e4>
     8bc:	d4200020 	brk	#0x1
     8c0:	f9405fe9 	ldr	x9, [sp, #184]
     8c4:	f94027e8 	ldr	x8, [sp, #72]
     8c8:	f9000528 	str	x8, [x9, #8]
     8cc:	52800008 	mov	w8, #0x0                   	// #0
     8d0:	39000128 	strb	w8, [x9]
     8d4:	14000001 	b	8d8 <_<rand::distr::uniform::int::UniformInt<u64> as rand::distr::uniform::UniformSampler>::sample_single_inclusive+0x300>
     8d8:	17ffff8b 	b	704 <_<rand::distr::uniform::int::UniformInt<u64> as rand::distr::uniform::UniformSampler>::sample_single_inclusive+0x12c>
     8dc:	f85283a0 	ldur	x0, [x29, #-216]
     8e0:	94000000 	bl	0 <__Unwind_Resume>

00000000000008e4 <_<core::iter::adapters::enumerate::Enumerate<I> as core::iter::traits::iterator::Iterator>::next>:
     8e4:	d10243ff 	sub	sp, sp, #0x90
     8e8:	a9087bfd 	stp	x29, x30, [sp, #128]
     8ec:	910203fd 	add	x29, sp, #0x80
     8f0:	f9000fe0 	str	x0, [sp, #24]
     8f4:	aa0003e8 	mov	x8, x0
     8f8:	f90023e8 	str	x8, [sp, #64]
     8fc:	94000000 	bl	c23c <_<core::slice::iter::Iter<T> as core::iter::traits::iterator::Iterator>::next>
     900:	f9001fe0 	str	x0, [sp, #56]
     904:	f9401fe8 	ldr	x8, [sp, #56]
     908:	f1000108 	subs	x8, x8, #0x0
     90c:	9a9f07e8 	cset	x8, ne	// ne = any
     910:	b5000088 	cbnz	x8, 920 <_<core::iter::adapters::enumerate::Enumerate<I> as core::iter::traits::iterator::Iterator>::next+0x3c>
     914:	14000001 	b	918 <_<core::iter::adapters::enumerate::Enumerate<I> as core::iter::traits::iterator::Iterator>::next+0x34>
     918:	f90017ff 	str	xzr, [sp, #40]
     91c:	14000012 	b	964 <_<core::iter::adapters::enumerate::Enumerate<I> as core::iter::traits::iterator::Iterator>::next+0x80>
     920:	f9400fe8 	ldr	x8, [sp, #24]
     924:	f9401fe9 	ldr	x9, [sp, #56]
     928:	f81d03a9 	stur	x9, [x29, #-48]
     92c:	f9001be9 	str	x9, [sp, #48]
     930:	f9401be9 	ldr	x9, [sp, #48]
     934:	f90003e9 	str	x9, [sp]
     938:	f81d83a9 	stur	x9, [x29, #-40]
     93c:	f81e03a9 	stur	x9, [x29, #-32]
     940:	f9400909 	ldr	x9, [x8, #16]
     944:	f90007e9 	str	x9, [sp, #8]
     948:	f81e83a9 	stur	x9, [x29, #-24]
     94c:	f9400908 	ldr	x8, [x8, #16]
     950:	b1000508 	adds	x8, x8, #0x1
     954:	f9000be8 	str	x8, [sp, #16]
     958:	1a9f37e8 	cset	w8, cs	// cs = hs, nlast
     95c:	370001e8 	tbnz	w8, #0, 998 <_<core::iter::adapters::enumerate::Enumerate<I> as core::iter::traits::iterator::Iterator>::next+0xb4>
     960:	14000006 	b	978 <_<core::iter::adapters::enumerate::Enumerate<I> as core::iter::traits::iterator::Iterator>::next+0x94>
     964:	f94013e0 	ldr	x0, [sp, #32]
     968:	f94017e1 	ldr	x1, [sp, #40]
     96c:	a9487bfd 	ldp	x29, x30, [sp, #128]
     970:	910243ff 	add	sp, sp, #0x90
     974:	d65f03c0 	ret
     978:	f94003e8 	ldr	x8, [sp]
     97c:	f94007e9 	ldr	x9, [sp, #8]
     980:	f9400bea 	ldr	x10, [sp, #16]
     984:	f9400feb 	ldr	x11, [sp, #24]
     988:	f900096a 	str	x10, [x11, #16]
     98c:	f90013e9 	str	x9, [sp, #32]
     990:	f90017e8 	str	x8, [sp, #40]
     994:	17fffff4 	b	964 <_<core::iter::adapters::enumerate::Enumerate<I> as core::iter::traits::iterator::Iterator>::next+0x80>
     998:	90000000 	adrp	x0, d468 <l_alloc_3407c9cb6ff21ee44260c564f9754364>
     99c:	91000000 	add	x0, x0, #0x0
     9a0:	94000000 	bl	0 <_core::panicking::panic_const::panic_const_add_overflow>
     9a4:	14000007 	b	9c0 <_<core::iter::adapters::enumerate::Enumerate<I> as core::iter::traits::iterator::Iterator>::next+0xdc>
     9a8:	f85f03a0 	ldur	x0, [x29, #-16]
     9ac:	94000000 	bl	0 <__Unwind_Resume>
     9b0:	f81f03a0 	stur	x0, [x29, #-16]
     9b4:	aa0103e8 	mov	x8, x1
     9b8:	b81f83a8 	stur	w8, [x29, #-8]
     9bc:	17fffffb 	b	9a8 <_<core::iter::adapters::enumerate::Enumerate<I> as core::iter::traits::iterator::Iterator>::next+0xc4>
     9c0:	d4200020 	brk	#0x1

00000000000009c4 <_<alloc::vec::Vec<T> as alloc::vec::spec_from_iter_nested::SpecFromIterNested<T,I>>::from_iter>:
     9c4:	d10343ff 	sub	sp, sp, #0xd0
     9c8:	a90c7bfd 	stp	x29, x30, [sp, #192]
     9cc:	910303fd 	add	x29, sp, #0xc0
     9d0:	f9000fe8 	str	x8, [sp, #24]
     9d4:	aa0003e8 	mov	x8, x0
     9d8:	f90013e2 	str	x2, [sp, #32]
     9dc:	9100a3e0 	add	x0, sp, #0x28
     9e0:	b9002be8 	str	w8, [sp, #40]
     9e4:	b9002fe1 	str	w1, [sp, #44]
     9e8:	90000008 	adrp	x8, d480 <l_alloc_11d257f5ed6cc7fc38feaa801053bac6>
     9ec:	91000108 	add	x8, x8, #0x0
     9f0:	f81d83a8 	stur	x8, [x29, #-40]
     9f4:	52800028 	mov	w8, #0x1                   	// #1
     9f8:	381d73a8 	sturb	w8, [x29, #-41]
     9fc:	910123e8 	add	x8, sp, #0x48
     a00:	94000000 	bl	1070 <_core::iter::range::<impl core::iter::traits::iterator::Iterator for core::ops::range::Range<A>>::size_hint>
     a04:	14000008 	b	a24 <_<alloc::vec::Vec<T> as alloc::vec::spec_from_iter_nested::SpecFromIterNested<T,I>>::from_iter+0x60>
     a08:	385d73a8 	ldurb	w8, [x29, #-41]
     a0c:	370008c8 	tbnz	w8, #0, b24 <_<alloc::vec::Vec<T> as alloc::vec::spec_from_iter_nested::SpecFromIterNested<T,I>>::from_iter+0x160>
     a10:	14000043 	b	b1c <_<alloc::vec::Vec<T> as alloc::vec::spec_from_iter_nested::SpecFromIterNested<T,I>>::from_iter+0x158>
     a14:	f81e83a0 	stur	x0, [x29, #-24]
     a18:	aa0103e8 	mov	x8, x1
     a1c:	b81f03a8 	stur	w8, [x29, #-16]
     a20:	17fffffa 	b	a08 <_<alloc::vec::Vec<T> as alloc::vec::spec_from_iter_nested::SpecFromIterNested<T,I>>::from_iter+0x44>
     a24:	f9402be8 	ldr	x8, [sp, #80]
     a28:	f1000508 	subs	x8, x8, #0x1
     a2c:	54000181 	b.ne	a5c <_<alloc::vec::Vec<T> as alloc::vec::spec_from_iter_nested::SpecFromIterNested<T,I>>::from_iter+0x98>  // b.any
     a30:	14000001 	b	a34 <_<alloc::vec::Vec<T> as alloc::vec::spec_from_iter_nested::SpecFromIterNested<T,I>>::from_iter+0x70>
     a34:	f94013e3 	ldr	x3, [sp, #32]
     a38:	f9402fe0 	ldr	x0, [sp, #88]
     a3c:	f81f83a0 	stur	x0, [x29, #-8]
     a40:	52800088 	mov	w8, #0x4                   	// #4
     a44:	aa0803e2 	mov	x2, x8
     a48:	aa0203e1 	mov	x1, x2
     a4c:	94000000 	bl	1c64 <_alloc::raw_vec::RawVecInner<A>::with_capacity_in>
     a50:	f90007e0 	str	x0, [sp, #8]
     a54:	f9000be1 	str	x1, [sp, #16]
     a58:	14000014 	b	aa8 <_<alloc::vec::Vec<T> as alloc::vec::spec_from_iter_nested::SpecFromIterNested<T,I>>::from_iter+0xe4>
     a5c:	f94013e1 	ldr	x1, [sp, #32]
     a60:	910183e0 	add	x0, sp, #0x60
     a64:	90000008 	adrp	x8, d480 <l_alloc_11d257f5ed6cc7fc38feaa801053bac6>
     a68:	91000108 	add	x8, x8, #0x0
     a6c:	f90033e8 	str	x8, [sp, #96]
     a70:	52800028 	mov	w8, #0x1                   	// #1
     a74:	f90037e8 	str	x8, [sp, #104]
     a78:	90000008 	adrp	x8, d838 <l___unnamed_1>
     a7c:	90000009 	adrp	x9, d838 <l___unnamed_1>
     a80:	91000129 	add	x9, x9, #0x0
     a84:	f940010a 	ldr	x10, [x8]
     a88:	52800108 	mov	w8, #0x8                   	// #8
     a8c:	f9400529 	ldr	x9, [x9, #8]
     a90:	f90043ea 	str	x10, [sp, #128]
     a94:	f90047e9 	str	x9, [sp, #136]
     a98:	f9003be8 	str	x8, [sp, #112]
     a9c:	f9003fff 	str	xzr, [sp, #120]
     aa0:	94000000 	bl	0 <_core::panicking::panic_fmt>
     aa4:	1400001d 	b	b18 <_<alloc::vec::Vec<T> as alloc::vec::spec_from_iter_nested::SpecFromIterNested<T,I>>::from_iter+0x154>
     aa8:	f94013e3 	ldr	x3, [sp, #32]
     aac:	f9400be8 	ldr	x8, [sp, #16]
     ab0:	f94007e9 	ldr	x9, [sp, #8]
     ab4:	9100c3e0 	add	x0, sp, #0x30
     ab8:	f9001be9 	str	x9, [sp, #48]
     abc:	f9001fe8 	str	x8, [sp, #56]
     ac0:	f90023ff 	str	xzr, [sp, #64]
     ac4:	381d73bf 	sturb	wzr, [x29, #-41]
     ac8:	b9402be1 	ldr	w1, [sp, #40]
     acc:	b9402fe2 	ldr	w2, [sp, #44]
     ad0:	94000000 	bl	c4a0 <_<alloc::vec::Vec<T,A> as alloc::vec::spec_extend::SpecExtend<T,I>>::spec_extend>
     ad4:	14000008 	b	af4 <_<alloc::vec::Vec<T> as alloc::vec::spec_from_iter_nested::SpecFromIterNested<T,I>>::from_iter+0x130>
     ad8:	9100c3e0 	add	x0, sp, #0x30
     adc:	94000000 	bl	f20 <_core::ptr::drop_in_place<alloc::vec::Vec<i32>>>
     ae0:	17ffffca 	b	a08 <_<alloc::vec::Vec<T> as alloc::vec::spec_from_iter_nested::SpecFromIterNested<T,I>>::from_iter+0x44>
     ae4:	f81e83a0 	stur	x0, [x29, #-24]
     ae8:	aa0103e8 	mov	x8, x1
     aec:	b81f03a8 	stur	w8, [x29, #-16]
     af0:	17fffffa 	b	ad8 <_<alloc::vec::Vec<T> as alloc::vec::spec_from_iter_nested::SpecFromIterNested<T,I>>::from_iter+0x114>
     af4:	f9400fe9 	ldr	x9, [sp, #24]
     af8:	3dc00fe0 	ldr	q0, [sp, #48]
     afc:	3d800120 	str	q0, [x9]
     b00:	f94023e8 	ldr	x8, [sp, #64]
     b04:	f9000928 	str	x8, [x9, #16]
     b08:	a94c7bfd 	ldp	x29, x30, [sp, #192]
     b0c:	910343ff 	add	sp, sp, #0xd0
     b10:	d65f03c0 	ret
     b14:	94000000 	bl	0 <_core::panicking::panic_in_cleanup>
     b18:	d4200020 	brk	#0x1
     b1c:	f85e83a0 	ldur	x0, [x29, #-24]
     b20:	94000000 	bl	0 <__Unwind_Resume>
     b24:	17fffffe 	b	b1c <_<alloc::vec::Vec<T> as alloc::vec::spec_from_iter_nested::SpecFromIterNested<T,I>>::from_iter+0x158>

0000000000000b28 <_<core::ops::range::RangeInclusive<usize> as core::slice::index::SliceIndex<[T]>>::index>:
     b28:	d10383ff 	sub	sp, sp, #0xe0
     b2c:	a90d7bfd 	stp	x29, x30, [sp, #208]
     b30:	910343fd 	add	x29, sp, #0xd0
     b34:	f90013e0 	str	x0, [sp, #32]
     b38:	f90017e1 	str	x1, [sp, #40]
     b3c:	f9001be2 	str	x2, [sp, #48]
     b40:	f9001fe3 	str	x3, [sp, #56]
     b44:	f9002be1 	str	x1, [sp, #80]
     b48:	f9002fe2 	str	x2, [sp, #88]
     b4c:	aa0003e8 	mov	x8, x0
     b50:	f90033e8 	str	x8, [sp, #96]
     b54:	f9400408 	ldr	x8, [x0, #8]
     b58:	f90023e8 	str	x8, [sp, #64]
     b5c:	f90037e8 	str	x8, [sp, #104]
     b60:	b1000508 	adds	x8, x8, #0x1
     b64:	54000200 	b.eq	ba4 <_<core::ops::range::RangeInclusive<usize> as core::slice::index::SliceIndex<[T]>>::index+0x7c>  // b.none
     b68:	14000001 	b	b6c <_<core::ops::range::RangeInclusive<usize> as core::slice::index::SliceIndex<[T]>>::index+0x44>
     b6c:	f94023e9 	ldr	x9, [sp, #64]
     b70:	f94013e8 	ldr	x8, [sp, #32]
     b74:	f940010a 	ldr	x10, [x8]
     b78:	f9000bea 	str	x10, [sp, #16]
     b7c:	f81a03aa 	stur	x10, [x29, #-96]
     b80:	39404108 	ldrb	w8, [x8, #16]
     b84:	5280002a 	mov	w10, #0x1                   	// #1
     b88:	0a0a010a 	and	w10, w8, w10
     b8c:	381af3aa 	sturb	w10, [x29, #-81]
     b90:	91000529 	add	x9, x9, #0x1
     b94:	f9000fe9 	str	x9, [sp, #24]
     b98:	f81b03a9 	stur	x9, [x29, #-80]
     b9c:	370000e8 	tbnz	w8, #0, bb8 <_<core::ops::range::RangeInclusive<usize> as core::slice::index::SliceIndex<[T]>>::index+0x90>
     ba0:	14000003 	b	bac <_<core::ops::range::RangeInclusive<usize> as core::slice::index::SliceIndex<[T]>>::index+0x84>
     ba4:	f9401fe0 	ldr	x0, [sp, #56]
     ba8:	94000000 	bl	0 <_core::slice::index::slice_end_index_overflow_fail>
     bac:	f9400be8 	ldr	x8, [sp, #16]
     bb0:	f90027e8 	str	x8, [sp, #72]
     bb4:	14000004 	b	bc4 <_<core::ops::range::RangeInclusive<usize> as core::slice::index::SliceIndex<[T]>>::index+0x9c>
     bb8:	f9400fe8 	ldr	x8, [sp, #24]
     bbc:	f90027e8 	str	x8, [sp, #72]
     bc0:	14000001 	b	bc4 <_<core::ops::range::RangeInclusive<usize> as core::slice::index::SliceIndex<[T]>>::index+0x9c>
     bc4:	f9400fe8 	ldr	x8, [sp, #24]
     bc8:	f9401bea 	ldr	x10, [sp, #48]
     bcc:	f94017eb 	ldr	x11, [sp, #40]
     bd0:	f94027e9 	ldr	x9, [sp, #72]
     bd4:	f90007e9 	str	x9, [sp, #8]
     bd8:	f81c83a9 	stur	x9, [x29, #-56]
     bdc:	f81d03a8 	stur	x8, [x29, #-48]
     be0:	f81d83ab 	stur	x11, [x29, #-40]
     be4:	f81e03aa 	stur	x10, [x29, #-32]
     be8:	f81e83a8 	stur	x8, [x29, #-24]
     bec:	f81f03a9 	stur	x9, [x29, #-16]
     bf0:	eb090108 	subs	x8, x8, x9
     bf4:	540001e3 	b.cc	c30 <_<core::ops::range::RangeInclusive<usize> as core::slice::index::SliceIndex<[T]>>::index+0x108>  // b.lo, b.ul, b.last
     bf8:	14000001 	b	bfc <_<core::ops::range::RangeInclusive<usize> as core::slice::index::SliceIndex<[T]>>::index+0xd4>
     bfc:	f9400fe8 	ldr	x8, [sp, #24]
     c00:	f9401be9 	ldr	x9, [sp, #48]
     c04:	f94007ea 	ldr	x10, [sp, #8]
     c08:	eb0a010a 	subs	x10, x8, x10
     c0c:	f81c03aa 	stur	x10, [x29, #-64]
     c10:	5280002a 	mov	w10, #0x1                   	// #1
     c14:	f81b83aa 	stur	x10, [x29, #-72]
     c18:	f85c03aa 	ldur	x10, [x29, #-64]
     c1c:	f90003ea 	str	x10, [sp]
     c20:	f81f83aa 	stur	x10, [x29, #-8]
     c24:	eb090108 	subs	x8, x8, x9
     c28:	540000c8 	b.hi	c40 <_<core::ops::range::RangeInclusive<usize> as core::slice::index::SliceIndex<[T]>>::index+0x118>  // b.pmore
     c2c:	14000009 	b	c50 <_<core::ops::range::RangeInclusive<usize> as core::slice::index::SliceIndex<[T]>>::index+0x128>
     c30:	f9401fe2 	ldr	x2, [sp, #56]
     c34:	f9400fe1 	ldr	x1, [sp, #24]
     c38:	f94007e0 	ldr	x0, [sp, #8]
     c3c:	94000000 	bl	0 <_core::slice::index::slice_index_order_fail>
     c40:	f9401fe2 	ldr	x2, [sp, #56]
     c44:	f9401be1 	ldr	x1, [sp, #48]
     c48:	f9400fe0 	ldr	x0, [sp, #24]
     c4c:	94000000 	bl	0 <_core::slice::index::slice_end_index_len_fail>
     c50:	f94003e1 	ldr	x1, [sp]
     c54:	f94017e8 	ldr	x8, [sp, #40]
     c58:	f94007e9 	ldr	x9, [sp, #8]
     c5c:	8b090900 	add	x0, x8, x9, lsl #2
     c60:	a94d7bfd 	ldp	x29, x30, [sp, #208]
     c64:	910383ff 	add	sp, sp, #0xe0
     c68:	d65f03c0 	ret

0000000000000c6c <_<i32 as core::iter::range::Step>::steps_between>:
     c6c:	d10143ff 	sub	sp, sp, #0x50
     c70:	f90003e8 	str	x8, [sp]
     c74:	f90007e0 	str	x0, [sp, #8]
     c78:	f9000be1 	str	x1, [sp, #16]
     c7c:	aa0003e8 	mov	x8, x0
     c80:	f90017e8 	str	x8, [sp, #40]
     c84:	aa0103e8 	mov	x8, x1
     c88:	f9001be8 	str	x8, [sp, #48]
     c8c:	b9400008 	ldr	w8, [x0]
     c90:	b9400029 	ldr	w9, [x1]
     c94:	6b090108 	subs	w8, w8, w9
     c98:	5400018d 	b.le	cc8 <_<i32 as core::iter::range::Step>::steps_between+0x5c>
     c9c:	14000001 	b	ca0 <_<i32 as core::iter::range::Step>::steps_between+0x34>
     ca0:	f94003e9 	ldr	x9, [sp]
     ca4:	f900013f 	str	xzr, [x9]
     ca8:	9000000a 	adrp	x10, d838 <l___unnamed_1>
     cac:	90000008 	adrp	x8, d838 <l___unnamed_1>
     cb0:	91000108 	add	x8, x8, #0x0
     cb4:	f940014a 	ldr	x10, [x10]
     cb8:	f9400508 	ldr	x8, [x8, #8]
     cbc:	f900052a 	str	x10, [x9, #8]
     cc0:	f9000928 	str	x8, [x9, #16]
     cc4:	14000013 	b	d10 <_<i32 as core::iter::range::Step>::steps_between+0xa4>
     cc8:	f94003e9 	ldr	x9, [sp]
     ccc:	f94007ea 	ldr	x10, [sp, #8]
     cd0:	f9400be8 	ldr	x8, [sp, #16]
     cd4:	b9800108 	ldrsw	x8, [x8]
     cd8:	f9001fe8 	str	x8, [sp, #56]
     cdc:	b980014a 	ldrsw	x10, [x10]
     ce0:	f90023ea 	str	x10, [sp, #64]
     ce4:	eb0a0108 	subs	x8, x8, x10
     ce8:	f90027e8 	str	x8, [sp, #72]
     cec:	f90013e8 	str	x8, [sp, #32]
     cf0:	5280002a 	mov	w10, #0x1                   	// #1
     cf4:	f9000fea 	str	x10, [sp, #24]
     cf8:	f9000128 	str	x8, [x9]
     cfc:	f9400fea 	ldr	x10, [sp, #24]
     d00:	f94013e8 	ldr	x8, [sp, #32]
     d04:	f900052a 	str	x10, [x9, #8]
     d08:	f9000928 	str	x8, [x9, #16]
     d0c:	14000001 	b	d10 <_<i32 as core::iter::range::Step>::steps_between+0xa4>
     d10:	910143ff 	add	sp, sp, #0x50
     d14:	d65f03c0 	ret

0000000000000d18 <_<i32 as core::iter::range::Step>::forward_unchecked>:
     d18:	d10103ff 	sub	sp, sp, #0x40
     d1c:	a9037bfd 	stp	x29, x30, [sp, #48]
     d20:	9100c3fd 	add	x29, sp, #0x30
     d24:	b90017e0 	str	w0, [sp, #20]
     d28:	f9000fe1 	str	x1, [sp, #24]
     d2c:	aa0103e9 	mov	x9, x1
     d30:	aa0103e8 	mov	x8, x1
     d34:	b81f03a8 	stur	w8, [x29, #-16]
     d38:	2b09000a 	adds	w10, w0, w9
     d3c:	b9000bea 	str	w10, [sp, #8]
     d40:	1a9f77e8 	cset	w8, vs
     d44:	b81f43aa 	stur	w10, [x29, #-12]
     d48:	71000129 	subs	w9, w9, #0x0
     d4c:	1a9fa7e9 	cset	w9, lt	// lt = tstop
     d50:	4a090108 	eor	w8, w8, w9
     d54:	12000109 	and	w9, w8, #0x1
     d58:	381fb3a9 	sturb	w9, [x29, #-5]
     d5c:	37000168 	tbnz	w8, #0, d88 <_<i32 as core::iter::range::Step>::forward_unchecked+0x70>
     d60:	14000001 	b	d64 <_<i32 as core::iter::range::Step>::forward_unchecked+0x4c>
     d64:	b9400be8 	ldr	w8, [sp, #8]
     d68:	b90013e8 	str	w8, [sp, #16]
     d6c:	52800028 	mov	w8, #0x1                   	// #1
     d70:	b9000fe8 	str	w8, [sp, #12]
     d74:	b94013e0 	ldr	w0, [sp, #16]
     d78:	b81fc3a0 	stur	w0, [x29, #-4]
     d7c:	a9437bfd 	ldp	x29, x30, [sp, #48]
     d80:	910103ff 	add	sp, sp, #0x40
     d84:	d65f03c0 	ret
     d88:	90000009 	adrp	x9, d858 <l___unnamed_2>
     d8c:	90000008 	adrp	x8, d858 <l___unnamed_2>
     d90:	91000108 	add	x8, x8, #0x0
     d94:	b9400129 	ldr	w9, [x9]
     d98:	b9400508 	ldr	w8, [x8, #4]
     d9c:	b9000fe9 	str	w9, [sp, #12]
     da0:	b90013e8 	str	w8, [sp, #16]
     da4:	94000000 	bl	1030 <_core::hint::unreachable_unchecked::precondition_check>
     da8:	d4200020 	brk	#0x1

0000000000000dac <_core::intrinsics::cold_path>:
     dac:	d65f03c0 	ret

0000000000000db0 <_core::mem::size_of_val>:
     db0:	d10083ff 	sub	sp, sp, #0x20
     db4:	f90007e0 	str	x0, [sp, #8]
     db8:	f9000be1 	str	x1, [sp, #16]
     dbc:	d37ef428 	lsl	x8, x1, #2
     dc0:	f9000fe8 	str	x8, [sp, #24]
     dc4:	f9400fe0 	ldr	x0, [sp, #24]
     dc8:	910083ff 	add	sp, sp, #0x20
     dcc:	d65f03c0 	ret

0000000000000dd0 <_core::num::<impl u32>::checked_add>:
     dd0:	d10083ff 	sub	sp, sp, #0x20
     dd4:	b90007e0 	str	w0, [sp, #4]
     dd8:	b9000be1 	str	w1, [sp, #8]
     ddc:	b90017e0 	str	w0, [sp, #20]
     de0:	b9001be1 	str	w1, [sp, #24]
     de4:	2b010008 	adds	w8, w0, w1
     de8:	1a9f37e8 	cset	w8, cs	// cs = hs, nlast
     dec:	39007fe8 	strb	w8, [sp, #31]
     df0:	37000128 	tbnz	w8, #0, e14 <_core::num::<impl u32>::checked_add+0x44>
     df4:	14000001 	b	df8 <_core::num::<impl u32>::checked_add+0x28>
     df8:	b94007e8 	ldr	w8, [sp, #4]
     dfc:	b9400be9 	ldr	w9, [sp, #8]
     e00:	0b090108 	add	w8, w8, w9
     e04:	b90013e8 	str	w8, [sp, #16]
     e08:	52800028 	mov	w8, #0x1                   	// #1
     e0c:	b9000fe8 	str	w8, [sp, #12]
     e10:	14000009 	b	e34 <_core::num::<impl u32>::checked_add+0x64>
     e14:	90000009 	adrp	x9, d858 <l___unnamed_2>
     e18:	90000008 	adrp	x8, d858 <l___unnamed_2>
     e1c:	91000108 	add	x8, x8, #0x0
     e20:	b9400129 	ldr	w9, [x9]
     e24:	b9400508 	ldr	w8, [x8, #4]
     e28:	b9000fe9 	str	w9, [sp, #12]
     e2c:	b90013e8 	str	w8, [sp, #16]
     e30:	14000001 	b	e34 <_core::num::<impl u32>::checked_add+0x64>
     e34:	b9400fe0 	ldr	w0, [sp, #12]
     e38:	b94013e1 	ldr	w1, [sp, #16]
     e3c:	910083ff 	add	sp, sp, #0x20
     e40:	d65f03c0 	ret

0000000000000e44 <_core::num::<impl u64>::checked_add>:
     e44:	d10103ff 	sub	sp, sp, #0x40
     e48:	f90007e0 	str	x0, [sp, #8]
     e4c:	f9000be1 	str	x1, [sp, #16]
     e50:	f90017e0 	str	x0, [sp, #40]
     e54:	f9001be1 	str	x1, [sp, #48]
     e58:	ab010008 	adds	x8, x0, x1
     e5c:	1a9f37e8 	cset	w8, cs	// cs = hs, nlast
     e60:	3900ffe8 	strb	w8, [sp, #63]
     e64:	37000128 	tbnz	w8, #0, e88 <_core::num::<impl u64>::checked_add+0x44>
     e68:	14000001 	b	e6c <_core::num::<impl u64>::checked_add+0x28>
     e6c:	f94007e8 	ldr	x8, [sp, #8]
     e70:	f9400be9 	ldr	x9, [sp, #16]
     e74:	8b090108 	add	x8, x8, x9
     e78:	f90013e8 	str	x8, [sp, #32]
     e7c:	52800028 	mov	w8, #0x1                   	// #1
     e80:	f9000fe8 	str	x8, [sp, #24]
     e84:	14000009 	b	ea8 <_core::num::<impl u64>::checked_add+0x64>
     e88:	90000009 	adrp	x9, d838 <l___unnamed_1>
     e8c:	90000008 	adrp	x8, d838 <l___unnamed_1>
     e90:	91000108 	add	x8, x8, #0x0
     e94:	f9400129 	ldr	x9, [x9]
     e98:	f9400508 	ldr	x8, [x8, #8]
     e9c:	f9000fe9 	str	x9, [sp, #24]
     ea0:	f90013e8 	str	x8, [sp, #32]
     ea4:	14000001 	b	ea8 <_core::num::<impl u64>::checked_add+0x64>
     ea8:	f9400fe0 	ldr	x0, [sp, #24]
     eac:	f94013e1 	ldr	x1, [sp, #32]
     eb0:	910103ff 	add	sp, sp, #0x40
     eb4:	d65f03c0 	ret

0000000000000eb8 <_core::ops::range::RangeInclusive<Idx>::new>:
     eb8:	d10043ff 	sub	sp, sp, #0x10
     ebc:	f90003e0 	str	x0, [sp]
     ec0:	f90007e1 	str	x1, [sp, #8]
     ec4:	f9000100 	str	x0, [x8]
     ec8:	f9000501 	str	x1, [x8, #8]
     ecc:	3900411f 	strb	wzr, [x8, #16]
     ed0:	910043ff 	add	sp, sp, #0x10
     ed4:	d65f03c0 	ret

0000000000000ed8 <_core::ptr::drop_in_place<alloc::vec::Vec<i32>::extend_trusted<core::ops::range::Range<i32>>::{{closure}}>>:
     ed8:	d10083ff 	sub	sp, sp, #0x20
     edc:	a9017bfd 	stp	x29, x30, [sp, #16]
     ee0:	910043fd 	add	x29, sp, #0x10
     ee4:	aa0003e8 	mov	x8, x0
     ee8:	f90007e8 	str	x8, [sp, #8]
     eec:	94000000 	bl	fd4 <_core::ptr::drop_in_place<alloc::vec::set_len_on_drop::SetLenOnDrop>>
     ef0:	a9417bfd 	ldp	x29, x30, [sp, #16]
     ef4:	910083ff 	add	sp, sp, #0x20
     ef8:	d65f03c0 	ret

0000000000000efc <_core::ptr::drop_in_place<core::iter::traits::iterator::Iterator::for_each::call<i32,alloc::vec::Vec<i32>::extend_trusted<core::ops::range::Range<i32>>::{{closure}}>::{{closure}}>>:
     efc:	d10083ff 	sub	sp, sp, #0x20
     f00:	a9017bfd 	stp	x29, x30, [sp, #16]
     f04:	910043fd 	add	x29, sp, #0x10
     f08:	aa0003e8 	mov	x8, x0
     f0c:	f90007e8 	str	x8, [sp, #8]
     f10:	94000000 	bl	ed8 <_core::ptr::drop_in_place<alloc::vec::Vec<i32>::extend_trusted<core::ops::range::Range<i32>>::{{closure}}>>
     f14:	a9417bfd 	ldp	x29, x30, [sp, #16]
     f18:	910083ff 	add	sp, sp, #0x20
     f1c:	d65f03c0 	ret

0000000000000f20 <_core::ptr::drop_in_place<alloc::vec::Vec<i32>>>:
     f20:	d100c3ff 	sub	sp, sp, #0x30
     f24:	a9027bfd 	stp	x29, x30, [sp, #32]
     f28:	910083fd 	add	x29, sp, #0x20
     f2c:	f90003e0 	str	x0, [sp]
     f30:	aa0003e8 	mov	x8, x0
     f34:	f90007e8 	str	x8, [sp, #8]
     f38:	94000000 	bl	1e50 <_<alloc::vec::Vec<T,A> as core::ops::drop::Drop>::drop>
     f3c:	14000008 	b	f5c <_core::ptr::drop_in_place<alloc::vec::Vec<i32>>+0x3c>
     f40:	f94003e0 	ldr	x0, [sp]
     f44:	94000000 	bl	fb0 <_core::ptr::drop_in_place<alloc::raw_vec::RawVec<i32>>>
     f48:	1400000b 	b	f74 <_core::ptr::drop_in_place<alloc::vec::Vec<i32>>+0x54>
     f4c:	f9000be0 	str	x0, [sp, #16]
     f50:	aa0103e8 	mov	x8, x1
     f54:	b9001be8 	str	w8, [sp, #24]
     f58:	17fffffa 	b	f40 <_core::ptr::drop_in_place<alloc::vec::Vec<i32>>+0x20>
     f5c:	f94003e0 	ldr	x0, [sp]
     f60:	94000000 	bl	fb0 <_core::ptr::drop_in_place<alloc::raw_vec::RawVec<i32>>>
     f64:	a9427bfd 	ldp	x29, x30, [sp, #32]
     f68:	9100c3ff 	add	sp, sp, #0x30
     f6c:	d65f03c0 	ret
     f70:	94000000 	bl	0 <_core::panicking::panic_in_cleanup>
     f74:	f9400be0 	ldr	x0, [sp, #16]
     f78:	94000000 	bl	0 <__Unwind_Resume>

0000000000000f7c <_core::ptr::drop_in_place<rand::distr::uniform::Error>>:
     f7c:	d10043ff 	sub	sp, sp, #0x10
     f80:	f90007e0 	str	x0, [sp, #8]
     f84:	910043ff 	add	sp, sp, #0x10
     f88:	d65f03c0 	ret

0000000000000f8c <_core::ptr::drop_in_place<rand::rngs::thread::ThreadRng>>:
     f8c:	d10083ff 	sub	sp, sp, #0x20
     f90:	a9017bfd 	stp	x29, x30, [sp, #16]
     f94:	910043fd 	add	x29, sp, #0x10
     f98:	aa0003e8 	mov	x8, x0
     f9c:	f90007e8 	str	x8, [sp, #8]
     fa0:	94000000 	bl	0 <_core::ptr::drop_in_place<alloc::rc::Rc<core::cell::UnsafeCell<rand::rngs::reseeding::ReseedingRng<rand_chacha::chacha::ChaCha12Core,rand_core::os::OsRng>>>>>
     fa4:	a9417bfd 	ldp	x29, x30, [sp, #16]
     fa8:	910083ff 	add	sp, sp, #0x20
     fac:	d65f03c0 	ret

0000000000000fb0 <_core::ptr::drop_in_place<alloc::raw_vec::RawVec<i32>>>:
     fb0:	d10083ff 	sub	sp, sp, #0x20
     fb4:	a9017bfd 	stp	x29, x30, [sp, #16]
     fb8:	910043fd 	add	x29, sp, #0x10
     fbc:	aa0003e8 	mov	x8, x0
     fc0:	f90007e8 	str	x8, [sp, #8]
     fc4:	94000000 	bl	22f0 <_<alloc::raw_vec::RawVec<T,A> as core::ops::drop::Drop>::drop>
     fc8:	a9417bfd 	ldp	x29, x30, [sp, #16]
     fcc:	910083ff 	add	sp, sp, #0x20
     fd0:	d65f03c0 	ret

0000000000000fd4 <_core::ptr::drop_in_place<alloc::vec::set_len_on_drop::SetLenOnDrop>>:
     fd4:	d10083ff 	sub	sp, sp, #0x20
     fd8:	a9017bfd 	stp	x29, x30, [sp, #16]
     fdc:	910043fd 	add	x29, sp, #0x10
     fe0:	aa0003e8 	mov	x8, x0
     fe4:	f90007e8 	str	x8, [sp, #8]
     fe8:	94000000 	bl	2320 <_<alloc::vec::set_len_on_drop::SetLenOnDrop as core::ops::drop::Drop>::drop>
     fec:	a9417bfd 	ldp	x29, x30, [sp, #16]
     ff0:	910083ff 	add	sp, sp, #0x20
     ff4:	d65f03c0 	ret

0000000000000ff8 <_core::hint::assert_unchecked::precondition_check>:
     ff8:	d10083ff 	sub	sp, sp, #0x20
     ffc:	a9017bfd 	stp	x29, x30, [sp, #16]
    1000:	910043fd 	add	x29, sp, #0x10
    1004:	381ff3a0 	sturb	w0, [x29, #-1]
    1008:	370000e0 	tbnz	w0, #0, 1024 <_core::hint::assert_unchecked::precondition_check+0x2c>
    100c:	14000001 	b	1010 <_core::hint::assert_unchecked::precondition_check+0x18>
    1010:	90000000 	adrp	x0, cf2c <l_alloc_ab14703751a9eb3585c49b2e55e9a9e5>
    1014:	91000000 	add	x0, x0, #0x0
    1018:	52800d08 	mov	w8, #0x68                  	// #104
    101c:	aa0803e1 	mov	x1, x8
    1020:	94000000 	bl	0 <_core::panicking::panic_nounwind>
    1024:	a9417bfd 	ldp	x29, x30, [sp, #16]
    1028:	910083ff 	add	sp, sp, #0x20
    102c:	d65f03c0 	ret

0000000000001030 <_core::hint::unreachable_unchecked::precondition_check>:
    1030:	a9bf7bfd 	stp	x29, x30, [sp, #-16]!
    1034:	910003fd 	mov	x29, sp
    1038:	90000000 	adrp	x0, cf94 <l_alloc_1eb6f53a157dccb32488e066ad957e6d>
    103c:	91000000 	add	x0, x0, #0x0
    1040:	52800a48 	mov	w8, #0x52                  	// #82
    1044:	aa0803e1 	mov	x1, x8
    1048:	94000000 	bl	0 <_core::panicking::panic_nounwind>

000000000000104c <_core::iter::range::<impl core::iter::traits::iterator::Iterator for core::ops::range::Range<A>>::next>:
    104c:	d10083ff 	sub	sp, sp, #0x20
    1050:	a9017bfd 	stp	x29, x30, [sp, #16]
    1054:	910043fd 	add	x29, sp, #0x10
    1058:	aa0003e8 	mov	x8, x0
    105c:	f90007e8 	str	x8, [sp, #8]
    1060:	94000000 	bl	c1ac <_<core::ops::range::Range<T> as core::iter::range::RangeIteratorImpl>::spec_next>
    1064:	a9417bfd 	ldp	x29, x30, [sp, #16]
    1068:	910083ff 	add	sp, sp, #0x20
    106c:	d65f03c0 	ret

0000000000001070 <_core::iter::range::<impl core::iter::traits::iterator::Iterator for core::ops::range::Range<A>>::size_hint>:
    1070:	d10103ff 	sub	sp, sp, #0x40
    1074:	a9037bfd 	stp	x29, x30, [sp, #48]
    1078:	9100c3fd 	add	x29, sp, #0x30
    107c:	f90007e8 	str	x8, [sp, #8]
    1080:	f9000be0 	str	x0, [sp, #16]
    1084:	aa0003e8 	mov	x8, x0
    1088:	f9000fe8 	str	x8, [sp, #24]
    108c:	aa0003e8 	mov	x8, x0
    1090:	f81f03a8 	stur	x8, [x29, #-16]
    1094:	91001008 	add	x8, x0, #0x4
    1098:	f81f83a8 	stur	x8, [x29, #-8]
    109c:	b9400008 	ldr	w8, [x0]
    10a0:	b9400409 	ldr	w9, [x0, #4]
    10a4:	6b090108 	subs	w8, w8, w9
    10a8:	5400018b 	b.lt	10d8 <_core::iter::range::<impl core::iter::traits::iterator::Iterator for core::ops::range::Range<A>>::size_hint+0x68>  // b.tstop
    10ac:	14000001 	b	10b0 <_core::iter::range::<impl core::iter::traits::iterator::Iterator for core::ops::range::Range<A>>::size_hint+0x40>
    10b0:	f94007e9 	ldr	x9, [sp, #8]
    10b4:	f900013f 	str	xzr, [x9]
    10b8:	9000000a 	adrp	x10, d848 <l___unnamed_3>
    10bc:	90000008 	adrp	x8, d848 <l___unnamed_3>
    10c0:	91000108 	add	x8, x8, #0x0
    10c4:	f940014a 	ldr	x10, [x10]
    10c8:	f9400508 	ldr	x8, [x8, #8]
    10cc:	f900052a 	str	x10, [x9, #8]
    10d0:	f9000928 	str	x8, [x9, #16]
    10d4:	14000006 	b	10ec <_core::iter::range::<impl core::iter::traits::iterator::Iterator for core::ops::range::Range<A>>::size_hint+0x7c>
    10d8:	f9400be0 	ldr	x0, [sp, #16]
    10dc:	f94007e8 	ldr	x8, [sp, #8]
    10e0:	91001001 	add	x1, x0, #0x4
    10e4:	94000000 	bl	c6c <_<i32 as core::iter::range::Step>::steps_between>
    10e8:	14000001 	b	10ec <_core::iter::range::<impl core::iter::traits::iterator::Iterator for core::ops::range::Range<A>>::size_hint+0x7c>
    10ec:	a9437bfd 	ldp	x29, x30, [sp, #48]
    10f0:	910103ff 	add	sp, sp, #0x40
    10f4:	d65f03c0 	ret

00000000000010f8 <_core::iter::traits::iterator::Iterator::fold>:
    10f8:	d10143ff 	sub	sp, sp, #0x50
    10fc:	a9047bfd 	stp	x29, x30, [sp, #64]
    1100:	910103fd 	add	x29, sp, #0x40
    1104:	f90007e2 	str	x2, [sp, #8]
    1108:	b90017e0 	str	w0, [sp, #20]
    110c:	b9001be1 	str	w1, [sp, #24]
    1110:	52800028 	mov	w8, #0x1                   	// #1
    1114:	381e53a8 	sturb	w8, [x29, #-27]
    1118:	14000001 	b	111c <_core::iter::traits::iterator::Iterator::fold+0x24>
    111c:	910053e0 	add	x0, sp, #0x14
    1120:	94000000 	bl	104c <_core::iter::range::<impl core::iter::traits::iterator::Iterator for core::ops::range::Range<A>>::next>
    1124:	b90003e0 	str	w0, [sp]
    1128:	b90007e1 	str	w1, [sp, #4]
    112c:	14000008 	b	114c <_core::iter::traits::iterator::Iterator::fold+0x54>
    1130:	385e53a8 	ldurb	w8, [x29, #-27]
    1134:	370004e8 	tbnz	w8, #0, 11d0 <_core::iter::traits::iterator::Iterator::fold+0xd8>
    1138:	14000023 	b	11c4 <_core::iter::traits::iterator::Iterator::fold+0xcc>
    113c:	f81e83a0 	stur	x0, [x29, #-24]
    1140:	aa0103e8 	mov	x8, x1
    1144:	b81f03a8 	stur	w8, [x29, #-16]
    1148:	17fffffa 	b	1130 <_core::iter::traits::iterator::Iterator::fold+0x38>
    114c:	b94007e8 	ldr	w8, [sp, #4]
    1150:	b94003e9 	ldr	w9, [sp]
    1154:	b9001fe9 	str	w9, [sp, #28]
    1158:	b90023e8 	str	w8, [sp, #32]
    115c:	b9401fe8 	ldr	w8, [sp, #28]
    1160:	f1000508 	subs	x8, x8, #0x1
    1164:	54000101 	b.ne	1184 <_core::iter::traits::iterator::Iterator::fold+0x8c>  // b.any
    1168:	14000001 	b	116c <_core::iter::traits::iterator::Iterator::fold+0x74>
    116c:	f94007e0 	ldr	x0, [sp, #8]
    1170:	b94023e1 	ldr	w1, [sp, #32]
    1174:	b81fc3a1 	stur	w1, [x29, #-4]
    1178:	381e53bf 	sturb	wzr, [x29, #-27]
    117c:	94000000 	bl	1240 <_core::iter::traits::iterator::Iterator::for_each::call::{{closure}}>
    1180:	14000002 	b	1188 <_core::iter::traits::iterator::Iterator::fold+0x90>
    1184:	14000004 	b	1194 <_core::iter::traits::iterator::Iterator::fold+0x9c>
    1188:	52800028 	mov	w8, #0x1                   	// #1
    118c:	381e53a8 	sturb	w8, [x29, #-27]
    1190:	17ffffe3 	b	111c <_core::iter::traits::iterator::Iterator::fold+0x24>
    1194:	f94007e0 	ldr	x0, [sp, #8]
    1198:	94000000 	bl	efc <_core::ptr::drop_in_place<core::iter::traits::iterator::Iterator::for_each::call<i32,alloc::vec::Vec<i32>::extend_trusted<core::ops::range::Range<i32>>::{{closure}}>::{{closure}}>>
    119c:	14000007 	b	11b8 <_core::iter::traits::iterator::Iterator::fold+0xc0>
    11a0:	f85e83a0 	ldur	x0, [x29, #-24]
    11a4:	94000000 	bl	0 <__Unwind_Resume>
    11a8:	f81e83a0 	stur	x0, [x29, #-24]
    11ac:	aa0103e8 	mov	x8, x1
    11b0:	b81f03a8 	stur	w8, [x29, #-16]
    11b4:	17fffffb 	b	11a0 <_core::iter::traits::iterator::Iterator::fold+0xa8>
    11b8:	a9447bfd 	ldp	x29, x30, [sp, #64]
    11bc:	910143ff 	add	sp, sp, #0x50
    11c0:	d65f03c0 	ret
    11c4:	f94007e0 	ldr	x0, [sp, #8]
    11c8:	94000000 	bl	efc <_core::ptr::drop_in_place<core::iter::traits::iterator::Iterator::for_each::call<i32,alloc::vec::Vec<i32>::extend_trusted<core::ops::range::Range<i32>>::{{closure}}>::{{closure}}>>
    11cc:	17fffff5 	b	11a0 <_core::iter::traits::iterator::Iterator::fold+0xa8>
    11d0:	17fffffd 	b	11c4 <_core::iter::traits::iterator::Iterator::fold+0xcc>
    11d4:	94000000 	bl	0 <_core::panicking::panic_in_cleanup>

00000000000011d8 <_core::iter::traits::iterator::Iterator::collect>:
    11d8:	d10083ff 	sub	sp, sp, #0x20
    11dc:	a9017bfd 	stp	x29, x30, [sp, #16]
    11e0:	910043fd 	add	x29, sp, #0x10
    11e4:	b9000be0 	str	w0, [sp, #8]
    11e8:	b9000fe1 	str	w1, [sp, #12]
    11ec:	90000002 	adrp	x2, d5b0 <l_alloc_ca96f6a372a20ad240fc8048bf4b5e42>
    11f0:	91000042 	add	x2, x2, #0x0
    11f4:	94000000 	bl	c300 <_<alloc::vec::Vec<T> as core::iter::traits::collect::FromIterator<T>>::from_iter>
    11f8:	a9417bfd 	ldp	x29, x30, [sp, #16]
    11fc:	910083ff 	add	sp, sp, #0x20
    1200:	d65f03c0 	ret

0000000000001204 <_core::iter::traits::iterator::Iterator::for_each>:
    1204:	d100c3ff 	sub	sp, sp, #0x30
    1208:	a9027bfd 	stp	x29, x30, [sp, #32]
    120c:	910083fd 	add	x29, sp, #0x20
    1210:	aa0203e8 	mov	x8, x2
    1214:	b81f83a0 	stur	w0, [x29, #-8]
    1218:	b81fc3a1 	stur	w1, [x29, #-4]
    121c:	3dc00100 	ldr	q0, [x8]
    1220:	910003e2 	mov	x2, sp
    1224:	3d8003e0 	str	q0, [sp]
    1228:	f9400908 	ldr	x8, [x8, #16]
    122c:	f9000be8 	str	x8, [sp, #16]
    1230:	94000000 	bl	10f8 <_core::iter::traits::iterator::Iterator::fold>
    1234:	a9427bfd 	ldp	x29, x30, [sp, #32]
    1238:	9100c3ff 	add	sp, sp, #0x30
    123c:	d65f03c0 	ret

0000000000001240 <_core::iter::traits::iterator::Iterator::for_each::call::{{closure}}>:
    1240:	d10083ff 	sub	sp, sp, #0x20
    1244:	a9017bfd 	stp	x29, x30, [sp, #16]
    1248:	910043fd 	add	x29, sp, #0x10
    124c:	aa0003e8 	mov	x8, x0
    1250:	f90003e8 	str	x8, [sp]
    1254:	b81fc3a1 	stur	w1, [x29, #-4]
    1258:	94000000 	bl	1b1c <_alloc::vec::Vec<T,A>::extend_trusted::{{closure}}>
    125c:	a9417bfd 	ldp	x29, x30, [sp, #16]
    1260:	910083ff 	add	sp, sp, #0x20
    1264:	d65f03c0 	ret

0000000000001268 <_core::iter::traits::iterator::Iterator::enumerate>:
    1268:	d10043ff 	sub	sp, sp, #0x10
    126c:	aa0003e9 	mov	x9, x0
    1270:	f90003e9 	str	x9, [sp]
    1274:	aa0103e9 	mov	x9, x1
    1278:	f90007e9 	str	x9, [sp, #8]
    127c:	f9000100 	str	x0, [x8]
    1280:	f9000501 	str	x1, [x8, #8]
    1284:	f900091f 	str	xzr, [x8, #16]
    1288:	910043ff 	add	sp, sp, #0x10
    128c:	d65f03c0 	ret

0000000000001290 <_core::slice::<impl [T]>::iter>:
    1290:	d10083ff 	sub	sp, sp, #0x20
    1294:	a9017bfd 	stp	x29, x30, [sp, #16]
    1298:	910043fd 	add	x29, sp, #0x10
    129c:	aa0003e8 	mov	x8, x0
    12a0:	f90003e8 	str	x8, [sp]
    12a4:	f90007e1 	str	x1, [sp, #8]
    12a8:	94000000 	bl	1420 <_core::slice::iter::Iter<T>::new>
    12ac:	a9417bfd 	ldp	x29, x30, [sp, #16]
    12b0:	910083ff 	add	sp, sp, #0x20
    12b4:	d65f03c0 	ret

00000000000012b8 <_core::slice::raw::from_raw_parts::precondition_check>:
    12b8:	d102c3ff 	sub	sp, sp, #0xb0
    12bc:	a90a7bfd 	stp	x29, x30, [sp, #160]
    12c0:	910283fd 	add	x29, sp, #0xa0
    12c4:	f90007e0 	str	x0, [sp, #8]
    12c8:	f9000be1 	str	x1, [sp, #16]
    12cc:	f9000fe2 	str	x2, [sp, #24]
    12d0:	f90013e3 	str	x3, [sp, #32]
    12d4:	f81c03a0 	stur	x0, [x29, #-64]
    12d8:	f81c83a1 	stur	x1, [x29, #-56]
    12dc:	f81d03a2 	stur	x2, [x29, #-48]
    12e0:	f81d83a3 	stur	x3, [x29, #-40]
    12e4:	381e63bf 	sturb	wzr, [x29, #-26]
    12e8:	381e73bf 	sturb	wzr, [x29, #-25]
    12ec:	90000008 	adrp	x8, d5c8 <l_alloc_e92e94d0ff530782b571cfd99ec66aef>
    12f0:	91000108 	add	x8, x8, #0x0
    12f4:	f81e83a8 	stur	x8, [x29, #-24]
    12f8:	f81f03a0 	stur	x0, [x29, #-16]
    12fc:	9e670040 	fmov	d0, x2
    1300:	0e205800 	cnt	v0.8b, v0.8b
    1304:	2e303800 	uaddlv	h0, v0.8b
    1308:	bc1fc3a0 	stur	s0, [x29, #-4]
    130c:	b85fc3a8 	ldur	w8, [x29, #-4]
    1310:	71000508 	subs	w8, w8, #0x1
    1314:	54000101 	b.ne	1334 <_core::slice::raw::from_raw_parts::precondition_check+0x7c>  // b.any
    1318:	14000001 	b	131c <_core::slice::raw::from_raw_parts::precondition_check+0x64>
    131c:	f94007e8 	ldr	x8, [sp, #8]
    1320:	f9400fe9 	ldr	x9, [sp, #24]
    1324:	f1000529 	subs	x9, x9, #0x1
    1328:	8a090108 	and	x8, x8, x9
    132c:	b40002c8 	cbz	x8, 1384 <_core::slice::raw::from_raw_parts::precondition_check+0xcc>
    1330:	14000018 	b	1390 <_core::slice::raw::from_raw_parts::precondition_check+0xd8>
    1334:	9100a3e0 	add	x0, sp, #0x28
    1338:	90000008 	adrp	x8, d5c8 <l_alloc_e92e94d0ff530782b571cfd99ec66aef>
    133c:	91000108 	add	x8, x8, #0x0
    1340:	f90017e8 	str	x8, [sp, #40]
    1344:	52800028 	mov	w8, #0x1                   	// #1
    1348:	f9001be8 	str	x8, [sp, #48]
    134c:	90000008 	adrp	x8, d838 <l___unnamed_1>
    1350:	90000009 	adrp	x9, d838 <l___unnamed_1>
    1354:	91000129 	add	x9, x9, #0x0
    1358:	f940010a 	ldr	x10, [x8]
    135c:	52800108 	mov	w8, #0x8                   	// #8
    1360:	f9400529 	ldr	x9, [x9, #8]
    1364:	f90027ea 	str	x10, [sp, #72]
    1368:	f9002be9 	str	x9, [sp, #80]
    136c:	f9001fe8 	str	x8, [sp, #56]
    1370:	f90023ff 	str	xzr, [sp, #64]
    1374:	90000001 	adrp	x1, d5f0 <l_alloc_68990143625ec2db4c689f394fa1b298>
    1378:	91000021 	add	x1, x1, #0x0
    137c:	94000000 	bl	0 <_core::panicking::panic_fmt>
    1380:	1400001e 	b	13f8 <_core::slice::raw::from_raw_parts::precondition_check+0x140>
    1384:	f94007e8 	ldr	x8, [sp, #8]
    1388:	b5000088 	cbnz	x8, 1398 <_core::slice::raw::from_raw_parts::precondition_check+0xe0>
    138c:	14000002 	b	1394 <_core::slice::raw::from_raw_parts::precondition_check+0xdc>
    1390:	14000001 	b	1394 <_core::slice::raw::from_raw_parts::precondition_check+0xdc>
    1394:	1400001e 	b	140c <_core::slice::raw::from_raw_parts::precondition_check+0x154>
    1398:	f9400be8 	ldr	x8, [sp, #16]
    139c:	b50000a8 	cbnz	x8, 13b0 <_core::slice::raw::from_raw_parts::precondition_check+0xf8>
    13a0:	14000001 	b	13a4 <_core::slice::raw::from_raw_parts::precondition_check+0xec>
    13a4:	92800008 	mov	x8, #0xffffffffffffffff    	// #-1
    13a8:	f81b83a8 	stur	x8, [x29, #-72]
    13ac:	14000004 	b	13bc <_core::slice::raw::from_raw_parts::precondition_check+0x104>
    13b0:	f9400be8 	ldr	x8, [sp, #16]
    13b4:	b4000188 	cbz	x8, 13e4 <_core::slice::raw::from_raw_parts::precondition_check+0x12c>
    13b8:	14000006 	b	13d0 <_core::slice::raw::from_raw_parts::precondition_check+0x118>
    13bc:	f94013e8 	ldr	x8, [sp, #32]
    13c0:	f85b83a9 	ldur	x9, [x29, #-72]
    13c4:	eb090108 	subs	x8, x8, x9
    13c8:	540001c9 	b.ls	1400 <_core::slice::raw::from_raw_parts::precondition_check+0x148>  // b.plast
    13cc:	1400000c 	b	13fc <_core::slice::raw::from_raw_parts::precondition_check+0x144>
    13d0:	f9400be9 	ldr	x9, [sp, #16]
    13d4:	92f00008 	mov	x8, #0x7fffffffffffffff    	// #9223372036854775807
    13d8:	9ac90908 	udiv	x8, x8, x9
    13dc:	f81b83a8 	stur	x8, [x29, #-72]
    13e0:	17fffff7 	b	13bc <_core::slice::raw::from_raw_parts::precondition_check+0x104>
    13e4:	90000000 	adrp	x0, d5d8 <l_alloc_1b63dcb5834fe0aae9c810c57972c0d7>
    13e8:	91000000 	add	x0, x0, #0x0
    13ec:	94000000 	bl	0 <_core::panicking::panic_const::panic_const_div_by_zero>
    13f0:	14000002 	b	13f8 <_core::slice::raw::from_raw_parts::precondition_check+0x140>
    13f4:	94000000 	bl	0 <_core::panicking::panic_cannot_unwind>
    13f8:	d4200020 	brk	#0x1
    13fc:	14000004 	b	140c <_core::slice::raw::from_raw_parts::precondition_check+0x154>
    1400:	a94a7bfd 	ldp	x29, x30, [sp, #160]
    1404:	9102c3ff 	add	sp, sp, #0xb0
    1408:	d65f03c0 	ret
    140c:	90000000 	adrp	x0, d0b5 <l_alloc_11195730e5236cfdc15ea13be1c301f9>
    1410:	91000000 	add	x0, x0, #0x0
    1414:	52801448 	mov	w8, #0xa2                  	// #162
    1418:	aa0803e1 	mov	x1, x8
    141c:	94000000 	bl	0 <_core::panicking::panic_nounwind>

0000000000001420 <_core::slice::iter::Iter<T>::new>:
    1420:	d10143ff 	sub	sp, sp, #0x50
    1424:	f90003e0 	str	x0, [sp]
    1428:	f90007e1 	str	x1, [sp, #8]
    142c:	f9000fe0 	str	x0, [sp, #24]
    1430:	f90013e1 	str	x1, [sp, #32]
    1434:	f90017e1 	str	x1, [sp, #40]
    1438:	f9001be0 	str	x0, [sp, #48]
    143c:	f9001fe1 	str	x1, [sp, #56]
    1440:	f90023e0 	str	x0, [sp, #64]
    1444:	14000001 	b	1448 <_core::slice::iter::Iter<T>::new+0x28>
    1448:	f94003e8 	ldr	x8, [sp]
    144c:	f94007e9 	ldr	x9, [sp, #8]
    1450:	f90027e8 	str	x8, [sp, #72]
    1454:	8b090d08 	add	x8, x8, x9, lsl #3
    1458:	f9000be8 	str	x8, [sp, #16]
    145c:	14000001 	b	1460 <_core::slice::iter::Iter<T>::new+0x40>
    1460:	f94003e0 	ldr	x0, [sp]
    1464:	f9400be1 	ldr	x1, [sp, #16]
    1468:	910143ff 	add	sp, sp, #0x50
    146c:	d65f03c0 	ret

0000000000001470 <_core::option::Option<T>::is_none>:
    1470:	d10043ff 	sub	sp, sp, #0x10
    1474:	aa0003e8 	mov	x8, x0
    1478:	f90007e8 	str	x8, [sp, #8]
    147c:	b9400008 	ldr	w8, [x0]
    1480:	f1000508 	subs	x8, x8, #0x1
    1484:	1a9f07e0 	cset	w0, ne	// ne = any
    1488:	910043ff 	add	sp, sp, #0x10
    148c:	d65f03c0 	ret

0000000000001490 <_core::option::Option<T>::is_none>:
    1490:	d10043ff 	sub	sp, sp, #0x10
    1494:	aa0003e8 	mov	x8, x0
    1498:	f90007e8 	str	x8, [sp, #8]
    149c:	f9400008 	ldr	x8, [x0]
    14a0:	f1000508 	subs	x8, x8, #0x1
    14a4:	1a9f07e0 	cset	w0, ne	// ne = any
    14a8:	910043ff 	add	sp, sp, #0x10
    14ac:	d65f03c0 	ret

00000000000014b0 <_core::result::Result<T,E>::map>:
    14b0:	d10103ff 	sub	sp, sp, #0x40
    14b4:	a9037bfd 	stp	x29, x30, [sp, #48]
    14b8:	9100c3fd 	add	x29, sp, #0x30
    14bc:	f90007e8 	str	x8, [sp, #8]
    14c0:	f9000be0 	str	x0, [sp, #16]
    14c4:	39400008 	ldrb	w8, [x0]
    14c8:	37000148 	tbnz	w8, #0, 14f0 <_core::result::Result<T,E>::map+0x40>
    14cc:	14000001 	b	14d0 <_core::result::Result<T,E>::map+0x20>
    14d0:	f9400be8 	ldr	x8, [sp, #16]
    14d4:	f9400500 	ldr	x0, [x8, #8]
    14d8:	f81f03a0 	stur	x0, [x29, #-16]
    14dc:	94000000 	bl	c478 <_<rand::distr::uniform::int::UniformUsize as rand::distr::uniform::UniformSampler>::sample_single::{{closure}}>
    14e0:	f94007e8 	ldr	x8, [sp, #8]
    14e4:	f9000500 	str	x0, [x8, #8]
    14e8:	3900011f 	strb	wzr, [x8]
    14ec:	1400000c 	b	151c <_core::result::Result<T,E>::map+0x6c>
    14f0:	f94007e9 	ldr	x9, [sp, #8]
    14f4:	f9400be8 	ldr	x8, [sp, #16]
    14f8:	3940050a 	ldrb	w10, [x8, #1]
    14fc:	52800028 	mov	w8, #0x1                   	// #1
    1500:	5280002b 	mov	w11, #0x1                   	// #1
    1504:	0a0b014b 	and	w11, w10, w11
    1508:	381ff3ab 	sturb	w11, [x29, #-1]
    150c:	1200014a 	and	w10, w10, #0x1
    1510:	3900052a 	strb	w10, [x9, #1]
    1514:	39000128 	strb	w8, [x9]
    1518:	14000001 	b	151c <_core::result::Result<T,E>::map+0x6c>
    151c:	a9437bfd 	ldp	x29, x30, [sp, #48]
    1520:	910103ff 	add	sp, sp, #0x40
    1524:	d65f03c0 	ret

0000000000001528 <_core::result::Result<T,E>::map>:
    1528:	d10103ff 	sub	sp, sp, #0x40
    152c:	a9037bfd 	stp	x29, x30, [sp, #48]
    1530:	9100c3fd 	add	x29, sp, #0x30
    1534:	f90007e8 	str	x8, [sp, #8]
    1538:	f9000fe0 	str	x0, [sp, #24]
    153c:	f9400fe8 	ldr	x8, [sp, #24]
    1540:	f9000be8 	str	x8, [sp, #16]
    1544:	394043e8 	ldrb	w8, [sp, #16]
    1548:	37000128 	tbnz	w8, #0, 156c <_core::result::Result<T,E>::map+0x44>
    154c:	14000001 	b	1550 <_core::result::Result<T,E>::map+0x28>
    1550:	b94017e0 	ldr	w0, [sp, #20]
    1554:	b81f83a0 	stur	w0, [x29, #-8]
    1558:	94000000 	bl	c488 <_<rand::distr::uniform::int::UniformUsize as rand::distr::uniform::UniformSampler>::sample_single::{{closure}}>
    155c:	f94007e8 	ldr	x8, [sp, #8]
    1560:	f9000500 	str	x0, [x8, #8]
    1564:	3900011f 	strb	wzr, [x8]
    1568:	1400000b 	b	1594 <_core::result::Result<T,E>::map+0x6c>
    156c:	f94007e9 	ldr	x9, [sp, #8]
    1570:	394047ea 	ldrb	w10, [sp, #17]
    1574:	52800028 	mov	w8, #0x1                   	// #1
    1578:	5280002b 	mov	w11, #0x1                   	// #1
    157c:	0a0b014b 	and	w11, w10, w11
    1580:	381ff3ab 	sturb	w11, [x29, #-1]
    1584:	1200014a 	and	w10, w10, #0x1
    1588:	3900052a 	strb	w10, [x9, #1]
    158c:	39000128 	strb	w8, [x9]
    1590:	14000001 	b	1594 <_core::result::Result<T,E>::map+0x6c>
    1594:	a9437bfd 	ldp	x29, x30, [sp, #48]
    1598:	910103ff 	add	sp, sp, #0x40
    159c:	d65f03c0 	ret

00000000000015a0 <_rand::rng::Rng::random_range>:
    15a0:	d10343ff 	sub	sp, sp, #0xd0
    15a4:	a90c7bfd 	stp	x29, x30, [sp, #192]
    15a8:	910303fd 	add	x29, sp, #0xc0
    15ac:	aa0003e8 	mov	x8, x0
    15b0:	f90013e8 	str	x8, [sp, #32]
    15b4:	f90017e2 	str	x2, [sp, #40]
    15b8:	9100e3e0 	add	x0, sp, #0x38
    15bc:	f9001fe1 	str	x1, [sp, #56]
    15c0:	f81c83a8 	stur	x8, [x29, #-56]
    15c4:	381c73bf 	sturb	wzr, [x29, #-57]
    15c8:	52800028 	mov	w8, #0x1                   	// #1
    15cc:	381c73a8 	sturb	w8, [x29, #-57]
    15d0:	94000000 	bl	d0 <_<core::ops::range::RangeTo<usize> as rand::distr::uniform::SampleRange<usize>>::is_empty>
    15d4:	b90037e0 	str	w0, [sp, #52]
    15d8:	1400000d 	b	160c <_rand::rng::Rng::random_range+0x6c>
    15dc:	385c73a8 	ldurb	w8, [x29, #-57]
    15e0:	37000828 	tbnz	w8, #0, 16e4 <_rand::rng::Rng::random_range+0x144>
    15e4:	1400003e 	b	16dc <_rand::rng::Rng::random_range+0x13c>
    15e8:	aa0103e8 	mov	x8, x1
    15ec:	f9000be0 	str	x0, [sp, #16]
    15f0:	b9001fe8 	str	w8, [sp, #28]
    15f4:	14000001 	b	15f8 <_rand::rng::Rng::random_range+0x58>
    15f8:	f9400be9 	ldr	x9, [sp, #16]
    15fc:	b9401fe8 	ldr	w8, [sp, #28]
    1600:	f81d03a9 	stur	x9, [x29, #-48]
    1604:	b81d83a8 	stur	w8, [x29, #-40]
    1608:	17fffff5 	b	15dc <_rand::rng::Rng::random_range+0x3c>
    160c:	b94037e8 	ldr	w8, [sp, #52]
    1610:	37000108 	tbnz	w8, #0, 1630 <_rand::rng::Rng::random_range+0x90>
    1614:	14000001 	b	1618 <_rand::rng::Rng::random_range+0x78>
    1618:	f94013e1 	ldr	x1, [sp, #32]
    161c:	381c73bf 	sturb	wzr, [x29, #-57]
    1620:	f9401fe0 	ldr	x0, [sp, #56]
    1624:	d10143a8 	sub	x8, x29, #0x50
    1628:	94000000 	bl	98 <_<core::ops::range::RangeTo<usize> as rand::distr::uniform::SampleRange<usize>>::sample_single>
    162c:	14000006 	b	1644 <_rand::rng::Rng::random_range+0xa4>
    1630:	910103e8 	add	x8, sp, #0x40
    1634:	90000000 	adrp	x0, d628 <l_alloc_e3be51554e15d7681718bfd79e1370cf>
    1638:	91000000 	add	x0, x0, #0x0
    163c:	94000000 	bl	0 <_core::fmt::Arguments::new_const>
    1640:	14000022 	b	16c8 <_rand::rng::Rng::random_range+0x128>
    1644:	385b03a8 	ldurb	w8, [x29, #-80]
    1648:	36000308 	tbz	w8, #0, 16a8 <_rand::rng::Rng::random_range+0x108>
    164c:	14000001 	b	1650 <_rand::rng::Rng::random_range+0xb0>
    1650:	f94017e4 	ldr	x4, [sp, #40]
    1654:	385b13a8 	ldurb	w8, [x29, #-79]
    1658:	12000108 	and	w8, w8, #0x1
    165c:	d10067a2 	sub	x2, x29, #0x19
    1660:	381e73a8 	sturb	w8, [x29, #-25]
    1664:	90000000 	adrp	x0, d1a8 <l_alloc_00ae4b301f7fab8ac9617c03fcbd7274>
    1668:	91000000 	add	x0, x0, #0x0
    166c:	52800568 	mov	w8, #0x2b                  	// #43
    1670:	aa0803e1 	mov	x1, x8
    1674:	90000003 	adrp	x3, d608 <l_vtable.0>
    1678:	91000063 	add	x3, x3, #0x0
    167c:	94000000 	bl	0 <_core::result::unwrap_failed>
    1680:	14000009 	b	16a4 <_rand::rng::Rng::random_range+0x104>
    1684:	f81f03a0 	stur	x0, [x29, #-16]
    1688:	aa0103e8 	mov	x8, x1
    168c:	b81f83a8 	stur	w8, [x29, #-8]
    1690:	f85f03a9 	ldur	x9, [x29, #-16]
    1694:	b85f83a8 	ldur	w8, [x29, #-8]
    1698:	f9000be9 	str	x9, [sp, #16]
    169c:	b9001fe8 	str	w8, [sp, #28]
    16a0:	17ffffd6 	b	15f8 <_rand::rng::Rng::random_range+0x58>
    16a4:	d4200020 	brk	#0x1
    16a8:	f85b83a8 	ldur	x8, [x29, #-72]
    16ac:	f90007e8 	str	x8, [sp, #8]
    16b0:	f81e83a8 	stur	x8, [x29, #-24]
    16b4:	14000001 	b	16b8 <_rand::rng::Rng::random_range+0x118>
    16b8:	f94007e0 	ldr	x0, [sp, #8]
    16bc:	a94c7bfd 	ldp	x29, x30, [sp, #192]
    16c0:	910343ff 	add	sp, sp, #0xd0
    16c4:	d65f03c0 	ret
    16c8:	f94017e1 	ldr	x1, [sp, #40]
    16cc:	910103e0 	add	x0, sp, #0x40
    16d0:	94000000 	bl	0 <_core::panicking::panic_fmt>
    16d4:	14000001 	b	16d8 <_rand::rng::Rng::random_range+0x138>
    16d8:	d4200020 	brk	#0x1
    16dc:	f85d03a0 	ldur	x0, [x29, #-48]
    16e0:	94000000 	bl	0 <__Unwind_Resume>
    16e4:	17fffffe 	b	16dc <_rand::rng::Rng::random_range+0x13c>

00000000000016e8 <_rand::rng::Rng::random>:
    16e8:	d10083ff 	sub	sp, sp, #0x20
    16ec:	a9017bfd 	stp	x29, x30, [sp, #16]
    16f0:	910043fd 	add	x29, sp, #0x10
    16f4:	aa0003e1 	mov	x1, x0
    16f8:	aa0103e0 	mov	x0, x1
    16fc:	f90007e0 	str	x0, [sp, #8]
    1700:	52800028 	mov	w8, #0x1                   	// #1
    1704:	aa0803e0 	mov	x0, x8
    1708:	94000000 	bl	1954 <_rand::distr::integer::<impl rand::distr::distribution::Distribution<u64> for rand::distr::StandardUniform>::sample>
    170c:	a9417bfd 	ldp	x29, x30, [sp, #16]
    1710:	910083ff 	add	sp, sp, #0x20
    1714:	d65f03c0 	ret

0000000000001718 <_rand::rng::Rng::random>:
    1718:	d10083ff 	sub	sp, sp, #0x20
    171c:	a9017bfd 	stp	x29, x30, [sp, #16]
    1720:	910043fd 	add	x29, sp, #0x10
    1724:	aa0003e1 	mov	x1, x0
    1728:	aa0103e0 	mov	x0, x1
    172c:	f90007e0 	str	x0, [sp, #8]
    1730:	52800028 	mov	w8, #0x1                   	// #1
    1734:	aa0803e0 	mov	x0, x8
    1738:	94000000 	bl	18fc <_rand::distr::integer::<impl rand::distr::distribution::Distribution<u32> for rand::distr::StandardUniform>::sample>
    173c:	a9417bfd 	ldp	x29, x30, [sp, #16]
    1740:	910083ff 	add	sp, sp, #0x20
    1744:	d65f03c0 	ret

0000000000001748 <_rand::seq::slice::IndexedRandom::choose>:
    1748:	d10183ff 	sub	sp, sp, #0x60
    174c:	a9057bfd 	stp	x29, x30, [sp, #80]
    1750:	910143fd 	add	x29, sp, #0x50
    1754:	f90003e0 	str	x0, [sp]
    1758:	f90007e1 	str	x1, [sp, #8]
    175c:	f9000be2 	str	x2, [sp, #16]
    1760:	aa0003e8 	mov	x8, x0
    1764:	f90013e8 	str	x8, [sp, #32]
    1768:	f90017e1 	str	x1, [sp, #40]
    176c:	f81e03a2 	stur	x2, [x29, #-32]
    1770:	94000000 	bl	17e0 <_rand::seq::slice::IndexedRandom::is_empty>
    1774:	370002a0 	tbnz	w0, #0, 17c8 <_rand::seq::slice::IndexedRandom::choose+0x80>
    1778:	14000001 	b	177c <_rand::seq::slice::IndexedRandom::choose+0x34>
    177c:	f94007e1 	ldr	x1, [sp, #8]
    1780:	f94003e0 	ldr	x0, [sp]
    1784:	94000000 	bl	1d94 <_<[T] as rand::seq::slice::IndexedRandom>::len>
    1788:	aa0003e1 	mov	x1, x0
    178c:	f9400be0 	ldr	x0, [sp, #16]
    1790:	90000002 	adrp	x2, d638 <l_alloc_30fa4ccda1523126b1deefe5cab5ef25>
    1794:	91000042 	add	x2, x2, #0x0
    1798:	94000000 	bl	15a0 <_rand::rng::Rng::random_range>
    179c:	f94003e1 	ldr	x1, [sp]
    17a0:	f94007e2 	ldr	x2, [sp, #8]
    17a4:	aa0103e8 	mov	x8, x1
    17a8:	f81e83a8 	stur	x8, [x29, #-24]
    17ac:	f81f03a2 	stur	x2, [x29, #-16]
    17b0:	f81f83a0 	stur	x0, [x29, #-8]
    17b4:	90000003 	adrp	x3, d650 <l_alloc_2f5e0075a9762e333e897b7b14942db9>
    17b8:	91000063 	add	x3, x3, #0x0
    17bc:	94000000 	bl	2294 <_<usize as core::slice::index::SliceIndex<[T]>>::index>
    17c0:	f9000fe0 	str	x0, [sp, #24]
    17c4:	14000003 	b	17d0 <_rand::seq::slice::IndexedRandom::choose+0x88>
    17c8:	f9000fff 	str	xzr, [sp, #24]
    17cc:	14000001 	b	17d0 <_rand::seq::slice::IndexedRandom::choose+0x88>
    17d0:	f9400fe0 	ldr	x0, [sp, #24]
    17d4:	a9457bfd 	ldp	x29, x30, [sp, #80]
    17d8:	910183ff 	add	sp, sp, #0x60
    17dc:	d65f03c0 	ret

00000000000017e0 <_rand::seq::slice::IndexedRandom::is_empty>:
    17e0:	d10083ff 	sub	sp, sp, #0x20
    17e4:	a9017bfd 	stp	x29, x30, [sp, #16]
    17e8:	910043fd 	add	x29, sp, #0x10
    17ec:	aa0003e8 	mov	x8, x0
    17f0:	f90003e8 	str	x8, [sp]
    17f4:	f90007e1 	str	x1, [sp, #8]
    17f8:	94000000 	bl	1d94 <_<[T] as rand::seq::slice::IndexedRandom>::len>
    17fc:	f1000008 	subs	x8, x0, #0x0
    1800:	1a9f17e0 	cset	w0, eq	// eq = none
    1804:	a9417bfd 	ldp	x29, x30, [sp, #16]
    1808:	910083ff 	add	sp, sp, #0x20
    180c:	d65f03c0 	ret

0000000000001810 <_rand::rngs::reseeding::ReseedingCore<R,Rsdr>::reseed_and_generate>:
    1810:	d10143ff 	sub	sp, sp, #0x50
    1814:	a9047bfd 	stp	x29, x30, [sp, #64]
    1818:	910103fd 	add	x29, sp, #0x40
    181c:	aa0003e8 	mov	x8, x0
    1820:	f90007e8 	str	x8, [sp, #8]
    1824:	910063e0 	add	x0, sp, #0x18
    1828:	f9000fe1 	str	x1, [sp, #24]
    182c:	f81e83a8 	stur	x8, [x29, #-24]
    1830:	381e73bf 	sturb	wzr, [x29, #-25]
    1834:	94000000 	bl	1d6c <_<&mut T as core::convert::AsRef<U>>::as_ref>
    1838:	94000000 	bl	db0 <_core::mem::size_of_val>
    183c:	aa0003e8 	mov	x8, x0
    1840:	f94007e0 	ldr	x0, [sp, #8]
    1844:	f9000be8 	str	x8, [sp, #16]
    1848:	f81f03a8 	stur	x8, [x29, #-16]
    184c:	52800028 	mov	w8, #0x1                   	// #1
    1850:	381e73a8 	sturb	w8, [x29, #-25]
    1854:	94000000 	bl	0 <_rand::rngs::reseeding::ReseedingCore<R,Rsdr>::reseed>
    1858:	b90023e0 	str	w0, [sp, #32]
    185c:	b94023e8 	ldr	w8, [sp, #32]
    1860:	71000108 	subs	w8, w8, #0x0
    1864:	9a9f07e8 	cset	x8, ne	// ne = any
    1868:	f1000508 	subs	x8, x8, #0x1
    186c:	540000c1 	b.ne	1884 <_rand::rngs::reseeding::ReseedingCore<R,Rsdr>::reseed_and_generate+0x74>  // b.any
    1870:	14000001 	b	1874 <_rand::rngs::reseeding::ReseedingCore<R,Rsdr>::reseed_and_generate+0x64>
    1874:	381e73bf 	sturb	wzr, [x29, #-25]
    1878:	b94023e8 	ldr	w8, [sp, #32]
    187c:	b81fc3a8 	stur	w8, [x29, #-4]
    1880:	14000001 	b	1884 <_rand::rngs::reseeding::ReseedingCore<R,Rsdr>::reseed_and_generate+0x74>
    1884:	b94023e8 	ldr	w8, [sp, #32]
    1888:	71000108 	subs	w8, w8, #0x0
    188c:	9a9f07e8 	cset	x8, ne	// ne = any
    1890:	f1000508 	subs	x8, x8, #0x1
    1894:	540000a1 	b.ne	18a8 <_rand::rngs::reseeding::ReseedingCore<R,Rsdr>::reseed_and_generate+0x98>  // b.any
    1898:	14000001 	b	189c <_rand::rngs::reseeding::ReseedingCore<R,Rsdr>::reseed_and_generate+0x8c>
    189c:	385e73a8 	ldurb	w8, [x29, #-25]
    18a0:	37000168 	tbnz	w8, #0, 18cc <_rand::rngs::reseeding::ReseedingCore<R,Rsdr>::reseed_and_generate+0xbc>
    18a4:	14000001 	b	18a8 <_rand::rngs::reseeding::ReseedingCore<R,Rsdr>::reseed_and_generate+0x98>
    18a8:	f9400be9 	ldr	x9, [sp, #16]
    18ac:	f94007e8 	ldr	x8, [sp, #8]
    18b0:	381e73bf 	sturb	wzr, [x29, #-25]
    18b4:	f9401908 	ldr	x8, [x8, #48]
    18b8:	eb090108 	subs	x8, x8, x9
    18bc:	f90003e8 	str	x8, [sp]
    18c0:	1a9f77e8 	cset	w8, vs
    18c4:	37000168 	tbnz	w8, #0, 18f0 <_rand::rngs::reseeding::ReseedingCore<R,Rsdr>::reseed_and_generate+0xe0>
    18c8:	14000002 	b	18d0 <_rand::rngs::reseeding::ReseedingCore<R,Rsdr>::reseed_and_generate+0xc0>
    18cc:	17fffff7 	b	18a8 <_rand::rngs::reseeding::ReseedingCore<R,Rsdr>::reseed_and_generate+0x98>
    18d0:	f94007e0 	ldr	x0, [sp, #8]
    18d4:	f94003e8 	ldr	x8, [sp]
    18d8:	f9001c08 	str	x8, [x0, #56]
    18dc:	f9400fe1 	ldr	x1, [sp, #24]
    18e0:	94000000 	bl	2340 <_<rand_chacha::chacha::ChaCha12Core as rand_core::block::BlockRngCore>::generate>
    18e4:	a9447bfd 	ldp	x29, x30, [sp, #64]
    18e8:	910143ff 	add	sp, sp, #0x50
    18ec:	d65f03c0 	ret
    18f0:	90000000 	adrp	x0, d668 <l_alloc_9cba3d2079b3eca5db2535852ec0ea6f>
    18f4:	91000000 	add	x0, x0, #0x0
    18f8:	94000000 	bl	0 <_core::panicking::panic_const::panic_const_sub_overflow>

00000000000018fc <_rand::distr::integer::<impl rand::distr::distribution::Distribution<u32> for rand::distr::StandardUniform>::sample>:
    18fc:	d10143ff 	sub	sp, sp, #0x50
    1900:	a9047bfd 	stp	x29, x30, [sp, #64]
    1904:	910103fd 	add	x29, sp, #0x40
    1908:	f90007e0 	str	x0, [sp, #8]
    190c:	aa0103e8 	mov	x8, x1
    1910:	f9000be8 	str	x8, [sp, #16]
    1914:	aa0103e8 	mov	x8, x1
    1918:	f9000fe8 	str	x8, [sp, #24]
    191c:	aa0103e8 	mov	x8, x1
    1920:	f81f03a8 	stur	x8, [x29, #-16]
    1924:	f9400028 	ldr	x8, [x1]
    1928:	91004100 	add	x0, x8, #0x10
    192c:	aa0003e8 	mov	x8, x0
    1930:	f81e83a8 	stur	x8, [x29, #-24]
    1934:	aa0003e8 	mov	x8, x0
    1938:	f90013e8 	str	x8, [sp, #32]
    193c:	aa0003e8 	mov	x8, x0
    1940:	f81f83a8 	stur	x8, [x29, #-8]
    1944:	94000000 	bl	1e98 <_<rand_core::block::BlockRng<R> as rand_core::RngCore>::next_u32>
    1948:	a9447bfd 	ldp	x29, x30, [sp, #64]
    194c:	910143ff 	add	sp, sp, #0x50
    1950:	d65f03c0 	ret

0000000000001954 <_rand::distr::integer::<impl rand::distr::distribution::Distribution<u64> for rand::distr::StandardUniform>::sample>:
    1954:	d10143ff 	sub	sp, sp, #0x50
    1958:	a9047bfd 	stp	x29, x30, [sp, #64]
    195c:	910103fd 	add	x29, sp, #0x40
    1960:	f90007e0 	str	x0, [sp, #8]
    1964:	aa0103e8 	mov	x8, x1
    1968:	f9000be8 	str	x8, [sp, #16]
    196c:	aa0103e8 	mov	x8, x1
    1970:	f9000fe8 	str	x8, [sp, #24]
    1974:	aa0103e8 	mov	x8, x1
    1978:	f81f03a8 	stur	x8, [x29, #-16]
    197c:	f9400028 	ldr	x8, [x1]
    1980:	91004100 	add	x0, x8, #0x10
    1984:	aa0003e8 	mov	x8, x0
    1988:	f81e83a8 	stur	x8, [x29, #-24]
    198c:	aa0003e8 	mov	x8, x0
    1990:	f90013e8 	str	x8, [sp, #32]
    1994:	aa0003e8 	mov	x8, x0
    1998:	f81f83a8 	stur	x8, [x29, #-8]
    199c:	94000000 	bl	1f70 <_<rand_core::block::BlockRng<R> as rand_core::RngCore>::next_u64>
    19a0:	a9447bfd 	ldp	x29, x30, [sp, #64]
    19a4:	910143ff 	add	sp, sp, #0x50
    19a8:	d65f03c0 	ret

00000000000019ac <_alloc::vec::Vec<T,A>::extend_trusted>:
    19ac:	d10443ff 	sub	sp, sp, #0x110
    19b0:	a90f6ffc 	stp	x28, x27, [sp, #240]
    19b4:	a9107bfd 	stp	x29, x30, [sp, #256]
    19b8:	910403fd 	add	x29, sp, #0x100
    19bc:	aa0003e8 	mov	x8, x0
    19c0:	f90003e8 	str	x8, [sp]
    19c4:	f90007e3 	str	x3, [sp, #8]
    19c8:	910043e0 	add	x0, sp, #0x10
    19cc:	b90013e1 	str	w1, [sp, #16]
    19d0:	b90017e2 	str	w2, [sp, #20]
    19d4:	f81903a8 	stur	x8, [x29, #-112]
    19d8:	3819f3bf 	sturb	wzr, [x29, #-97]
    19dc:	90000008 	adrp	x8, d680 <l_alloc_f0c0bcdc51174ae2a47538e8553750ac>
    19e0:	91000108 	add	x8, x8, #0x0
    19e4:	f81a03a8 	stur	x8, [x29, #-96]
    19e8:	90000008 	adrp	x8, d480 <l_alloc_11d257f5ed6cc7fc38feaa801053bac6>
    19ec:	91000108 	add	x8, x8, #0x0
    19f0:	f81a83a8 	stur	x8, [x29, #-88]
    19f4:	52800028 	mov	w8, #0x1                   	// #1
    19f8:	3818f3a8 	sturb	w8, [x29, #-113]
    19fc:	9100a3e8 	add	x8, sp, #0x28
    1a00:	94000000 	bl	1070 <_core::iter::range::<impl core::iter::traits::iterator::Iterator for core::ops::range::Range<A>>::size_hint>
    1a04:	14000008 	b	1a24 <_alloc::vec::Vec<T,A>::extend_trusted+0x78>
    1a08:	3858f3a8 	ldurb	w8, [x29, #-113]
    1a0c:	37000868 	tbnz	w8, #0, 1b18 <_alloc::vec::Vec<T,A>::extend_trusted+0x16c>
    1a10:	14000040 	b	1b10 <_alloc::vec::Vec<T,A>::extend_trusted+0x164>
    1a14:	f81b03a0 	stur	x0, [x29, #-80]
    1a18:	aa0103e8 	mov	x8, x1
    1a1c:	b81b83a8 	stur	w8, [x29, #-72]
    1a20:	17fffffa 	b	1a08 <_alloc::vec::Vec<T,A>::extend_trusted+0x5c>
    1a24:	f94017e8 	ldr	x8, [sp, #40]
    1a28:	f81c03a8 	stur	x8, [x29, #-64]
    1a2c:	f9401be9 	ldr	x9, [sp, #48]
    1a30:	f9401fe8 	ldr	x8, [sp, #56]
    1a34:	f9000fe9 	str	x9, [sp, #24]
    1a38:	f90013e8 	str	x8, [sp, #32]
    1a3c:	f9400fe8 	ldr	x8, [sp, #24]
    1a40:	f1000508 	subs	x8, x8, #0x1
    1a44:	54000101 	b.ne	1a64 <_alloc::vec::Vec<T,A>::extend_trusted+0xb8>  // b.any
    1a48:	14000001 	b	1a4c <_alloc::vec::Vec<T,A>::extend_trusted+0xa0>
    1a4c:	f94007e2 	ldr	x2, [sp, #8]
    1a50:	f94003e0 	ldr	x0, [sp]
    1a54:	f94013e1 	ldr	x1, [sp, #32]
    1a58:	f81c83a1 	stur	x1, [x29, #-56]
    1a5c:	94000000 	bl	1b4c <_alloc::vec::Vec<T,A>::reserve>
    1a60:	14000014 	b	1ab0 <_alloc::vec::Vec<T,A>::extend_trusted+0x104>
    1a64:	f94007e1 	ldr	x1, [sp, #8]
    1a68:	910163e0 	add	x0, sp, #0x58
    1a6c:	90000008 	adrp	x8, d480 <l_alloc_11d257f5ed6cc7fc38feaa801053bac6>
    1a70:	91000108 	add	x8, x8, #0x0
    1a74:	f9002fe8 	str	x8, [sp, #88]
    1a78:	52800028 	mov	w8, #0x1                   	// #1
    1a7c:	f90033e8 	str	x8, [sp, #96]
    1a80:	90000008 	adrp	x8, d838 <l___unnamed_1>
    1a84:	90000009 	adrp	x9, d838 <l___unnamed_1>
    1a88:	91000129 	add	x9, x9, #0x0
    1a8c:	f940010a 	ldr	x10, [x8]
    1a90:	52800108 	mov	w8, #0x8                   	// #8
    1a94:	f9400529 	ldr	x9, [x9, #8]
    1a98:	f9003fea 	str	x10, [sp, #120]
    1a9c:	f90043e9 	str	x9, [sp, #128]
    1aa0:	f90037e8 	str	x8, [sp, #104]
    1aa4:	f9003bff 	str	xzr, [sp, #112]
    1aa8:	94000000 	bl	0 <_core::panicking::panic_fmt>
    1aac:	14000018 	b	1b0c <_alloc::vec::Vec<T,A>::extend_trusted+0x160>
    1ab0:	f94003e8 	ldr	x8, [sp]
    1ab4:	f940050a 	ldr	x10, [x8, #8]
    1ab8:	f81d03aa 	stur	x10, [x29, #-48]
    1abc:	91004109 	add	x9, x8, #0x10
    1ac0:	aa0903eb 	mov	x11, x9
    1ac4:	f81d83ab 	stur	x11, [x29, #-40]
    1ac8:	f9400908 	ldr	x8, [x8, #16]
    1acc:	aa0903eb 	mov	x11, x9
    1ad0:	f81e03ab 	stur	x11, [x29, #-32]
    1ad4:	f81e83a8 	stur	x8, [x29, #-24]
    1ad8:	3818f3bf 	sturb	wzr, [x29, #-113]
    1adc:	b94013e0 	ldr	w0, [sp, #16]
    1ae0:	b94017e1 	ldr	w1, [sp, #20]
    1ae4:	910103e2 	add	x2, sp, #0x40
    1ae8:	f9002bea 	str	x10, [sp, #80]
    1aec:	f90023e9 	str	x9, [sp, #64]
    1af0:	f90027e8 	str	x8, [sp, #72]
    1af4:	94000000 	bl	1204 <_core::iter::traits::iterator::Iterator::for_each>
    1af8:	14000001 	b	1afc <_alloc::vec::Vec<T,A>::extend_trusted+0x150>
    1afc:	a9507bfd 	ldp	x29, x30, [sp, #256]
    1b00:	a94f6ffc 	ldp	x28, x27, [sp, #240]
    1b04:	910443ff 	add	sp, sp, #0x110
    1b08:	d65f03c0 	ret
    1b0c:	d4200020 	brk	#0x1
    1b10:	f85b03a0 	ldur	x0, [x29, #-80]
    1b14:	94000000 	bl	0 <__Unwind_Resume>
    1b18:	17fffffe 	b	1b10 <_alloc::vec::Vec<T,A>::extend_trusted+0x164>

0000000000001b1c <_alloc::vec::Vec<T,A>::extend_trusted::{{closure}}>:
    1b1c:	d10043ff 	sub	sp, sp, #0x10
    1b20:	aa0003e8 	mov	x8, x0
    1b24:	f90003e8 	str	x8, [sp]
    1b28:	b9000fe1 	str	w1, [sp, #12]
    1b2c:	f9400808 	ldr	x8, [x0, #16]
    1b30:	f9400409 	ldr	x9, [x0, #8]
    1b34:	b8297901 	str	w1, [x8, x9, lsl #2]
    1b38:	f9400408 	ldr	x8, [x0, #8]
    1b3c:	91000508 	add	x8, x8, #0x1
    1b40:	f9000408 	str	x8, [x0, #8]
    1b44:	910043ff 	add	sp, sp, #0x10
    1b48:	d65f03c0 	ret

0000000000001b4c <_alloc::vec::Vec<T,A>::reserve>:
    1b4c:	d10243ff 	sub	sp, sp, #0x90
    1b50:	a9087bfd 	stp	x29, x30, [sp, #128]
    1b54:	910203fd 	add	x29, sp, #0x80
    1b58:	f90007e0 	str	x0, [sp, #8]
    1b5c:	f9000be1 	str	x1, [sp, #16]
    1b60:	aa0003e8 	mov	x8, x0
    1b64:	f9001fe8 	str	x8, [sp, #56]
    1b68:	f90023e1 	str	x1, [sp, #64]
    1b6c:	aa0003e8 	mov	x8, x0
    1b70:	f81c83a8 	stur	x8, [x29, #-56]
    1b74:	f9400808 	ldr	x8, [x0, #16]
    1b78:	f9000fe8 	str	x8, [sp, #24]
    1b7c:	f81d03a8 	stur	x8, [x29, #-48]
    1b80:	f81d83a0 	stur	x0, [x29, #-40]
    1b84:	52800088 	mov	w8, #0x4                   	// #4
    1b88:	f81e03a8 	stur	x8, [x29, #-32]
    1b8c:	f81e83a8 	stur	x8, [x29, #-24]
    1b90:	910083e9 	add	x9, sp, #0x20
    1b94:	f90013e8 	str	x8, [sp, #32]
    1b98:	f90017e8 	str	x8, [sp, #40]
    1b9c:	f81f03a9 	stur	x9, [x29, #-16]
    1ba0:	f81f83a8 	stur	x8, [x29, #-8]
    1ba4:	14000001 	b	1ba8 <_alloc::vec::Vec<T,A>::reserve+0x5c>
    1ba8:	f94007e8 	ldr	x8, [sp, #8]
    1bac:	f9400108 	ldr	x8, [x8]
    1bb0:	f9001be8 	str	x8, [sp, #48]
    1bb4:	14000001 	b	1bb8 <_alloc::vec::Vec<T,A>::reserve+0x6c>
    1bb8:	f9400be8 	ldr	x8, [sp, #16]
    1bbc:	f9400fea 	ldr	x10, [sp, #24]
    1bc0:	f9401be9 	ldr	x9, [sp, #48]
    1bc4:	eb0a0129 	subs	x9, x9, x10
    1bc8:	eb090108 	subs	x8, x8, x9
    1bcc:	54000068 	b.hi	1bd8 <_alloc::vec::Vec<T,A>::reserve+0x8c>  // b.pmore
    1bd0:	14000001 	b	1bd4 <_alloc::vec::Vec<T,A>::reserve+0x88>
    1bd4:	14000009 	b	1bf8 <_alloc::vec::Vec<T,A>::reserve+0xac>
    1bd8:	f9400be2 	ldr	x2, [sp, #16]
    1bdc:	f9400fe1 	ldr	x1, [sp, #24]
    1be0:	f94007e0 	ldr	x0, [sp, #8]
    1be4:	52800088 	mov	w8, #0x4                   	// #4
    1be8:	aa0803e4 	mov	x4, x8
    1bec:	aa0403e3 	mov	x3, x4
    1bf0:	94000000 	bl	0 <_alloc::raw_vec::RawVecInner<A>::reserve::do_reserve_and_handle>
    1bf4:	14000001 	b	1bf8 <_alloc::vec::Vec<T,A>::reserve+0xac>
    1bf8:	a9487bfd 	ldp	x29, x30, [sp, #128]
    1bfc:	910243ff 	add	sp, sp, #0x90
    1c00:	d65f03c0 	ret

0000000000001c04 <_alloc::vec::Vec<T,A>::as_slice>:
    1c04:	d10103ff 	sub	sp, sp, #0x40
    1c08:	a9037bfd 	stp	x29, x30, [sp, #48]
    1c0c:	9100c3fd 	add	x29, sp, #0x30
    1c10:	aa0003e8 	mov	x8, x0
    1c14:	f9000fe8 	str	x8, [sp, #24]
    1c18:	f9400408 	ldr	x8, [x0, #8]
    1c1c:	f90007e8 	str	x8, [sp, #8]
    1c20:	f81f03a8 	stur	x8, [x29, #-16]
    1c24:	f9400808 	ldr	x8, [x0, #16]
    1c28:	f9000be8 	str	x8, [sp, #16]
    1c2c:	f81f83a8 	stur	x8, [x29, #-8]
    1c30:	14000001 	b	1c34 <_alloc::vec::Vec<T,A>::as_slice+0x30>
    1c34:	f9400be3 	ldr	x3, [sp, #16]
    1c38:	f94007e0 	ldr	x0, [sp, #8]
    1c3c:	52800088 	mov	w8, #0x4                   	// #4
    1c40:	aa0803e2 	mov	x2, x8
    1c44:	aa0203e1 	mov	x1, x2
    1c48:	94000000 	bl	12b8 <_core::slice::raw::from_raw_parts::precondition_check>
    1c4c:	14000001 	b	1c50 <_alloc::vec::Vec<T,A>::as_slice+0x4c>
    1c50:	f9400be1 	ldr	x1, [sp, #16]
    1c54:	f94007e0 	ldr	x0, [sp, #8]
    1c58:	a9437bfd 	ldp	x29, x30, [sp, #48]
    1c5c:	910103ff 	add	sp, sp, #0x40
    1c60:	d65f03c0 	ret

0000000000001c64 <_alloc::raw_vec::RawVecInner<A>::with_capacity_in>:
    1c64:	d10383ff 	sub	sp, sp, #0xe0
    1c68:	a90d7bfd 	stp	x29, x30, [sp, #208]
    1c6c:	910343fd 	add	x29, sp, #0xd0
    1c70:	f9000be0 	str	x0, [sp, #16]
    1c74:	f9000fe1 	str	x1, [sp, #24]
    1c78:	aa0203e8 	mov	x8, x2
    1c7c:	f9400fe2 	ldr	x2, [sp, #24]
    1c80:	f90013e8 	str	x8, [sp, #32]
    1c84:	aa0303e1 	mov	x1, x3
    1c88:	f94013e3 	ldr	x3, [sp, #32]
    1c8c:	f90017e1 	str	x1, [sp, #40]
    1c90:	f81a03a0 	stur	x0, [x29, #-96]
    1c94:	f81b03a2 	stur	x2, [x29, #-80]
    1c98:	f81b83a3 	stur	x3, [x29, #-72]
    1c9c:	f81c03bf 	stur	xzr, [x29, #-64]
    1ca0:	f81c83bf 	stur	xzr, [x29, #-56]
    1ca4:	9100c3e8 	add	x8, sp, #0x30
    1ca8:	52800009 	mov	w9, #0x0                   	// #0
    1cac:	12000121 	and	w1, w9, #0x1
    1cb0:	94000000 	bl	0 <_alloc::raw_vec::RawVecInner<A>::try_allocate_in>
    1cb4:	f9401be8 	ldr	x8, [sp, #48]
    1cb8:	b5000228 	cbnz	x8, 1cfc <_alloc::raw_vec::RawVecInner<A>::with_capacity_in+0x98>
    1cbc:	14000001 	b	1cc0 <_alloc::raw_vec::RawVecInner<A>::with_capacity_in+0x5c>
    1cc0:	f94013e8 	ldr	x8, [sp, #32]
    1cc4:	f9400fea 	ldr	x10, [sp, #24]
    1cc8:	f9401fec 	ldr	x12, [sp, #56]
    1ccc:	f94023eb 	ldr	x11, [sp, #64]
    1cd0:	910123e9 	add	x9, sp, #0x48
    1cd4:	f90027ec 	str	x12, [sp, #72]
    1cd8:	f9002beb 	str	x11, [sp, #80]
    1cdc:	f81d03a9 	stur	x9, [x29, #-48]
    1ce0:	910163e9 	add	x9, sp, #0x58
    1ce4:	f9002fea 	str	x10, [sp, #88]
    1ce8:	f90033e8 	str	x8, [sp, #96]
    1cec:	f81d83a9 	stur	x9, [x29, #-40]
    1cf0:	f81e03a8 	stur	x8, [x29, #-32]
    1cf4:	b4000108 	cbz	x8, 1d14 <_alloc::raw_vec::RawVecInner<A>::with_capacity_in+0xb0>
    1cf8:	1400000a 	b	1d20 <_alloc::raw_vec::RawVecInner<A>::with_capacity_in+0xbc>
    1cfc:	f94017e2 	ldr	x2, [sp, #40]
    1d00:	f9401fe0 	ldr	x0, [sp, #56]
    1d04:	f94023e1 	ldr	x1, [sp, #64]
    1d08:	f81f03a0 	stur	x0, [x29, #-16]
    1d0c:	f81f83a1 	stur	x1, [x29, #-8]
    1d10:	94000000 	bl	0 <_alloc::raw_vec::handle_error>
    1d14:	92800008 	mov	x8, #0xffffffffffffffff    	// #-1
    1d18:	f90037e8 	str	x8, [sp, #104]
    1d1c:	14000004 	b	1d2c <_alloc::raw_vec::RawVecInner<A>::with_capacity_in+0xc8>
    1d20:	f94027e8 	ldr	x8, [sp, #72]
    1d24:	f90037e8 	str	x8, [sp, #104]
    1d28:	14000001 	b	1d2c <_alloc::raw_vec::RawVecInner<A>::with_capacity_in+0xc8>
    1d2c:	f9400be8 	ldr	x8, [sp, #16]
    1d30:	f94037e9 	ldr	x9, [sp, #104]
    1d34:	f1000129 	subs	x9, x9, #0x0
    1d38:	eb090108 	subs	x8, x8, x9
    1d3c:	1a9f87e8 	cset	w8, ls	// ls = plast
    1d40:	b9000fe8 	str	w8, [sp, #12]
    1d44:	381ef3a8 	sturb	w8, [x29, #-17]
    1d48:	14000001 	b	1d4c <_alloc::raw_vec::RawVecInner<A>::with_capacity_in+0xe8>
    1d4c:	b9400fe0 	ldr	w0, [sp, #12]
    1d50:	94000000 	bl	ff8 <_core::hint::assert_unchecked::precondition_check>
    1d54:	14000001 	b	1d58 <_alloc::raw_vec::RawVecInner<A>::with_capacity_in+0xf4>
    1d58:	f94027e0 	ldr	x0, [sp, #72]
    1d5c:	f9402be1 	ldr	x1, [sp, #80]
    1d60:	a94d7bfd 	ldp	x29, x30, [sp, #208]
    1d64:	910383ff 	add	sp, sp, #0xe0
    1d68:	d65f03c0 	ret

0000000000001d6c <_<&mut T as core::convert::AsRef<U>>::as_ref>:
    1d6c:	d10083ff 	sub	sp, sp, #0x20
    1d70:	a9017bfd 	stp	x29, x30, [sp, #16]
    1d74:	910043fd 	add	x29, sp, #0x10
    1d78:	aa0003e8 	mov	x8, x0
    1d7c:	f90007e8 	str	x8, [sp, #8]
    1d80:	f9400000 	ldr	x0, [x0]
    1d84:	94000000 	bl	0 <_<rand_chacha::chacha::Array64<T> as core::convert::AsRef<[T]>>::as_ref>
    1d88:	a9417bfd 	ldp	x29, x30, [sp, #16]
    1d8c:	910083ff 	add	sp, sp, #0x20
    1d90:	d65f03c0 	ret

0000000000001d94 <_<[T] as rand::seq::slice::IndexedRandom>::len>:
    1d94:	d10043ff 	sub	sp, sp, #0x10
    1d98:	aa0003e8 	mov	x8, x0
    1d9c:	aa0103e0 	mov	x0, x1
    1da0:	f90003e8 	str	x8, [sp]
    1da4:	f90007e0 	str	x0, [sp, #8]
    1da8:	910043ff 	add	sp, sp, #0x10
    1dac:	d65f03c0 	ret

0000000000001db0 <_<I as core::iter::traits::collect::IntoIterator>::into_iter>:
    1db0:	aa0803e9 	mov	x9, x8
    1db4:	3dc00000 	ldr	q0, [x0]
    1db8:	3d800120 	str	q0, [x9]
    1dbc:	f9400808 	ldr	x8, [x0, #16]
    1dc0:	f9000928 	str	x8, [x9, #16]
    1dc4:	d65f03c0 	ret

0000000000001dc8 <_<I as core::iter::traits::collect::IntoIterator>::into_iter>:
    1dc8:	d10043ff 	sub	sp, sp, #0x10
    1dcc:	b9000be0 	str	w0, [sp, #8]
    1dd0:	b9000fe1 	str	w1, [sp, #12]
    1dd4:	910043ff 	add	sp, sp, #0x10
    1dd8:	d65f03c0 	ret

0000000000001ddc <_<rand::distr::uniform::Error as core::fmt::Debug>::fmt>:
    1ddc:	d10103ff 	sub	sp, sp, #0x40
    1de0:	a9037bfd 	stp	x29, x30, [sp, #48]
    1de4:	9100c3fd 	add	x29, sp, #0x30
    1de8:	f90007e1 	str	x1, [sp, #8]
    1dec:	aa0003e8 	mov	x8, x0
    1df0:	f81f03a8 	stur	x8, [x29, #-16]
    1df4:	f81f83a1 	stur	x1, [x29, #-8]
    1df8:	39400008 	ldrb	w8, [x0]
    1dfc:	37000108 	tbnz	w8, #0, 1e1c <_<rand::distr::uniform::Error as core::fmt::Debug>::fmt+0x40>
    1e00:	14000001 	b	1e04 <_<rand::distr::uniform::Error as core::fmt::Debug>::fmt+0x28>
    1e04:	90000008 	adrp	x8, d2d0 <l_alloc_469dc6e050263e96b5bbf6041562962d>
    1e08:	91000108 	add	x8, x8, #0x0
    1e0c:	f9000be8 	str	x8, [sp, #16]
    1e10:	52800148 	mov	w8, #0xa                   	// #10
    1e14:	f9000fe8 	str	x8, [sp, #24]
    1e18:	14000007 	b	1e34 <_<rand::distr::uniform::Error as core::fmt::Debug>::fmt+0x58>
    1e1c:	90000008 	adrp	x8, d2da <l_alloc_e12739f6e50f2bfa7992d9688152e366>
    1e20:	91000108 	add	x8, x8, #0x0
    1e24:	f9000be8 	str	x8, [sp, #16]
    1e28:	52800128 	mov	w8, #0x9                   	// #9
    1e2c:	f9000fe8 	str	x8, [sp, #24]
    1e30:	14000001 	b	1e34 <_<rand::distr::uniform::Error as core::fmt::Debug>::fmt+0x58>
    1e34:	f94007e0 	ldr	x0, [sp, #8]
    1e38:	f9400be1 	ldr	x1, [sp, #16]
    1e3c:	f9400fe2 	ldr	x2, [sp, #24]
    1e40:	94000000 	bl	0 <_core::fmt::Formatter::write_str>
    1e44:	a9437bfd 	ldp	x29, x30, [sp, #48]
    1e48:	910103ff 	add	sp, sp, #0x40
    1e4c:	d65f03c0 	ret

0000000000001e50 <_<alloc::vec::Vec<T,A> as core::ops::drop::Drop>::drop>:
    1e50:	d10083ff 	sub	sp, sp, #0x20
    1e54:	aa0003e8 	mov	x8, x0
    1e58:	f90007e8 	str	x8, [sp, #8]
    1e5c:	f9400408 	ldr	x8, [x0, #8]
    1e60:	f9000be8 	str	x8, [sp, #16]
    1e64:	f9400808 	ldr	x8, [x0, #16]
    1e68:	f9000fe8 	str	x8, [sp, #24]
    1e6c:	910083ff 	add	sp, sp, #0x20
    1e70:	d65f03c0 	ret

0000000000001e74 <_<alloc::vec::Vec<T,A> as core::ops::deref::Deref>::deref>:
    1e74:	d10083ff 	sub	sp, sp, #0x20
    1e78:	a9017bfd 	stp	x29, x30, [sp, #16]
    1e7c:	910043fd 	add	x29, sp, #0x10
    1e80:	aa0003e8 	mov	x8, x0
    1e84:	f90007e8 	str	x8, [sp, #8]
    1e88:	94000000 	bl	1c04 <_alloc::vec::Vec<T,A>::as_slice>
    1e8c:	a9417bfd 	ldp	x29, x30, [sp, #16]
    1e90:	910083ff 	add	sp, sp, #0x20
    1e94:	d65f03c0 	ret

0000000000001e98 <_<rand_core::block::BlockRng<R> as rand_core::RngCore>::next_u32>:
    1e98:	d10183ff 	sub	sp, sp, #0x60
    1e9c:	a9057bfd 	stp	x29, x30, [sp, #80]
    1ea0:	910143fd 	add	x29, sp, #0x50
    1ea4:	f81e03a0 	stur	x0, [x29, #-32]
    1ea8:	aa0003e8 	mov	x8, x0
    1eac:	f81f03a8 	stur	x8, [x29, #-16]
    1eb0:	f940a008 	ldr	x8, [x0, #320]
    1eb4:	f81e83a8 	stur	x8, [x29, #-24]
    1eb8:	94000000 	bl	0 <_<rand_chacha::chacha::Array64<T> as core::convert::AsRef<[T]>>::as_ref>
    1ebc:	f85e83a8 	ldur	x8, [x29, #-24]
    1ec0:	eb010108 	subs	x8, x8, x1
    1ec4:	54000182 	b.cs	1ef4 <_<rand_core::block::BlockRng<R> as rand_core::RngCore>::next_u32+0x5c>  // b.hs, b.nlast
    1ec8:	14000001 	b	1ecc <_<rand_core::block::BlockRng<R> as rand_core::RngCore>::next_u32+0x34>
    1ecc:	f85e03a0 	ldur	x0, [x29, #-32]
    1ed0:	94000000 	bl	0 <_<rand_chacha::chacha::Array64<T> as core::convert::AsRef<[T]>>::as_ref>
    1ed4:	f85e03a8 	ldur	x8, [x29, #-32]
    1ed8:	f9000fe0 	str	x0, [sp, #24]
    1edc:	f90013e1 	str	x1, [sp, #32]
    1ee0:	f940a108 	ldr	x8, [x8, #320]
    1ee4:	f90017e8 	str	x8, [sp, #40]
    1ee8:	eb010108 	subs	x8, x8, x1
    1eec:	540000c3 	b.cc	1f04 <_<rand_core::block::BlockRng<R> as rand_core::RngCore>::next_u32+0x6c>  // b.lo, b.ul, b.last
    1ef0:	14000011 	b	1f34 <_<rand_core::block::BlockRng<R> as rand_core::RngCore>::next_u32+0x9c>
    1ef4:	f85e03a0 	ldur	x0, [x29, #-32]
    1ef8:	d2800001 	mov	x1, #0x0                   	// #0
    1efc:	94000000 	bl	c4f0 <_rand_core::block::BlockRng<R>::generate_and_set>
    1f00:	17fffff3 	b	1ecc <_<rand_core::block::BlockRng<R> as rand_core::RngCore>::next_u32+0x34>
    1f04:	f85e03a8 	ldur	x8, [x29, #-32]
    1f08:	f9400fe9 	ldr	x9, [sp, #24]
    1f0c:	f94017ea 	ldr	x10, [sp, #40]
    1f10:	b86a7929 	ldr	w9, [x9, x10, lsl #2]
    1f14:	b9000fe9 	str	w9, [sp, #12]
    1f18:	b81fc3a9 	stur	w9, [x29, #-4]
    1f1c:	f940a108 	ldr	x8, [x8, #320]
    1f20:	b1000508 	adds	x8, x8, #0x1
    1f24:	f9000be8 	str	x8, [sp, #16]
    1f28:	1a9f37e8 	cset	w8, cs	// cs = hs, nlast
    1f2c:	370001c8 	tbnz	w8, #0, 1f64 <_<rand_core::block::BlockRng<R> as rand_core::RngCore>::next_u32+0xcc>
    1f30:	14000006 	b	1f48 <_<rand_core::block::BlockRng<R> as rand_core::RngCore>::next_u32+0xb0>
    1f34:	f94013e1 	ldr	x1, [sp, #32]
    1f38:	f94017e0 	ldr	x0, [sp, #40]
    1f3c:	90000002 	adrp	x2, d6c0 <l_alloc_d58627c8b7d22ff445dfd075c0e26e70>
    1f40:	91000042 	add	x2, x2, #0x0
    1f44:	94000000 	bl	0 <_core::panicking::panic_bounds_check>
    1f48:	b9400fe0 	ldr	w0, [sp, #12]
    1f4c:	f9400be8 	ldr	x8, [sp, #16]
    1f50:	f85e03a9 	ldur	x9, [x29, #-32]
    1f54:	f900a128 	str	x8, [x9, #320]
    1f58:	a9457bfd 	ldp	x29, x30, [sp, #80]
    1f5c:	910183ff 	add	sp, sp, #0x60
    1f60:	d65f03c0 	ret
    1f64:	90000000 	adrp	x0, d6d8 <l_alloc_235f0e991384b252c512ec3728f3019f>
    1f68:	91000000 	add	x0, x0, #0x0
    1f6c:	94000000 	bl	0 <_core::panicking::panic_const::panic_const_add_overflow>

0000000000001f70 <_<rand_core::block::BlockRng<R> as rand_core::RngCore>::next_u64>:
    1f70:	d10383ff 	sub	sp, sp, #0xe0
    1f74:	a90d7bfd 	stp	x29, x30, [sp, #208]
    1f78:	910343fd 	add	x29, sp, #0xd0
    1f7c:	f9001fe0 	str	x0, [sp, #56]
    1f80:	aa0003e8 	mov	x8, x0
    1f84:	f81c83a8 	stur	x8, [x29, #-56]
    1f88:	94000000 	bl	0 <_<rand_chacha::chacha::Array64<T> as core::convert::AsRef<[T]>>::as_ref>
    1f8c:	f9401fe0 	ldr	x0, [sp, #56]
    1f90:	f90023e1 	str	x1, [sp, #64]
    1f94:	f81d83a1 	stur	x1, [x29, #-40]
    1f98:	f940a008 	ldr	x8, [x0, #320]
    1f9c:	f90027e8 	str	x8, [sp, #72]
    1fa0:	f81e03a8 	stur	x8, [x29, #-32]
    1fa4:	f1000428 	subs	x8, x1, #0x1
    1fa8:	f9002be8 	str	x8, [sp, #80]
    1fac:	f1000428 	subs	x8, x1, #0x1
    1fb0:	540000e3 	b.cc	1fcc <_<rand_core::block::BlockRng<R> as rand_core::RngCore>::next_u64+0x5c>  // b.lo, b.ul, b.last
    1fb4:	14000001 	b	1fb8 <_<rand_core::block::BlockRng<R> as rand_core::RngCore>::next_u64+0x48>
    1fb8:	f94027e8 	ldr	x8, [sp, #72]
    1fbc:	f9402be9 	ldr	x9, [sp, #80]
    1fc0:	eb090108 	subs	x8, x8, x9
    1fc4:	54000143 	b.cc	1fec <_<rand_core::block::BlockRng<R> as rand_core::RngCore>::next_u64+0x7c>  // b.lo, b.ul, b.last
    1fc8:	14000004 	b	1fd8 <_<rand_core::block::BlockRng<R> as rand_core::RngCore>::next_u64+0x68>
    1fcc:	90000000 	adrp	x0, d6f0 <l_alloc_713d52eb880bae319ff4cbd7740a3e64>
    1fd0:	91000000 	add	x0, x0, #0x0
    1fd4:	94000000 	bl	0 <_core::panicking::panic_const::panic_const_sub_overflow>
    1fd8:	f94027e8 	ldr	x8, [sp, #72]
    1fdc:	f94023e9 	ldr	x9, [sp, #64]
    1fe0:	eb090108 	subs	x8, x8, x9
    1fe4:	54000262 	b.cs	2030 <_<rand_core::block::BlockRng<R> as rand_core::RngCore>::next_u64+0xc0>  // b.hs, b.nlast
    1fe8:	14000008 	b	2008 <_<rand_core::block::BlockRng<R> as rand_core::RngCore>::next_u64+0x98>
    1fec:	f9401fe8 	ldr	x8, [sp, #56]
    1ff0:	f940a108 	ldr	x8, [x8, #320]
    1ff4:	b1000908 	adds	x8, x8, #0x2
    1ff8:	f9001be8 	str	x8, [sp, #48]
    1ffc:	1a9f37e8 	cset	w8, cs	// cs = hs, nlast
    2000:	37000ba8 	tbnz	w8, #0, 2174 <_<rand_core::block::BlockRng<R> as rand_core::RngCore>::next_u64+0x204>
    2004:	1400004d 	b	2138 <_<rand_core::block::BlockRng<R> as rand_core::RngCore>::next_u64+0x1c8>
    2008:	f9401fe0 	ldr	x0, [sp, #56]
    200c:	94000000 	bl	0 <_<rand_chacha::chacha::Array64<T> as core::convert::AsRef<[T]>>::as_ref>
    2010:	f94023e8 	ldr	x8, [sp, #64]
    2014:	f9000fe0 	str	x0, [sp, #24]
    2018:	f90013e1 	str	x1, [sp, #32]
    201c:	f1000509 	subs	x9, x8, #0x1
    2020:	f90017e9 	str	x9, [sp, #40]
    2024:	f1000508 	subs	x8, x8, #0x1
    2028:	540002e3 	b.cc	2084 <_<rand_core::block::BlockRng<R> as rand_core::RngCore>::next_u64+0x114>  // b.lo, b.ul, b.last
    202c:	14000011 	b	2070 <_<rand_core::block::BlockRng<R> as rand_core::RngCore>::next_u64+0x100>
    2030:	f9401fe0 	ldr	x0, [sp, #56]
    2034:	52800048 	mov	w8, #0x2                   	// #2
    2038:	aa0803e1 	mov	x1, x8
    203c:	94000000 	bl	c4f0 <_rand_core::block::BlockRng<R>::generate_and_set>
    2040:	f9401fe0 	ldr	x0, [sp, #56]
    2044:	94000000 	bl	0 <_<rand_chacha::chacha::Array64<T> as core::convert::AsRef<[T]>>::as_ref>
    2048:	f81b03a0 	stur	x0, [x29, #-80]
    204c:	f81b83a1 	stur	x1, [x29, #-72]
    2050:	f81c03bf 	stur	xzr, [x29, #-64]
    2054:	f85b03a1 	ldur	x1, [x29, #-80]
    2058:	f85b83a2 	ldur	x2, [x29, #-72]
    205c:	f85c03a3 	ldur	x3, [x29, #-64]
    2060:	91019fe0 	add	x0, sp, #0x67
    2064:	94000000 	bl	2180 <_<rand_core::block::BlockRng<R> as rand_core::RngCore>::next_u64::{{closure}}>
    2068:	f9002fe0 	str	x0, [sp, #88]
    206c:	1400002f 	b	2128 <_<rand_core::block::BlockRng<R> as rand_core::RngCore>::next_u64+0x1b8>
    2070:	f94017e8 	ldr	x8, [sp, #40]
    2074:	f94013e9 	ldr	x9, [sp, #32]
    2078:	eb090108 	subs	x8, x8, x9
    207c:	540000a3 	b.cc	2090 <_<rand_core::block::BlockRng<R> as rand_core::RngCore>::next_u64+0x120>  // b.lo, b.ul, b.last
    2080:	14000017 	b	20dc <_<rand_core::block::BlockRng<R> as rand_core::RngCore>::next_u64+0x16c>
    2084:	90000000 	adrp	x0, d708 <l_alloc_455f58f4ff2dab1ddfa3112333b8a638>
    2088:	91000000 	add	x0, x0, #0x0
    208c:	94000000 	bl	0 <_core::panicking::panic_const::panic_const_sub_overflow>
    2090:	f9401fe0 	ldr	x0, [sp, #56]
    2094:	f9400fe8 	ldr	x8, [sp, #24]
    2098:	f94017e9 	ldr	x9, [sp, #40]
    209c:	b8697908 	ldr	w8, [x8, x9, lsl #2]
    20a0:	f90003e8 	str	x8, [sp]
    20a4:	aa0803e9 	mov	x9, x8
    20a8:	b81fc3a9 	stur	w9, [x29, #-4]
    20ac:	f81e83a8 	stur	x8, [x29, #-24]
    20b0:	52800028 	mov	w8, #0x1                   	// #1
    20b4:	aa0803e1 	mov	x1, x8
    20b8:	94000000 	bl	c4f0 <_rand_core::block::BlockRng<R>::generate_and_set>
    20bc:	f9401fe0 	ldr	x0, [sp, #56]
    20c0:	94000000 	bl	0 <_<rand_chacha::chacha::Array64<T> as core::convert::AsRef<[T]>>::as_ref>
    20c4:	f90007e0 	str	x0, [sp, #8]
    20c8:	f9000be1 	str	x1, [sp, #16]
    20cc:	d2800008 	mov	x8, #0x0                   	// #0
    20d0:	eb010108 	subs	x8, x8, x1
    20d4:	540000e3 	b.cc	20f0 <_<rand_core::block::BlockRng<R> as rand_core::RngCore>::next_u64+0x180>  // b.lo, b.ul, b.last
    20d8:	1400000f 	b	2114 <_<rand_core::block::BlockRng<R> as rand_core::RngCore>::next_u64+0x1a4>
    20dc:	f94013e1 	ldr	x1, [sp, #32]
    20e0:	f94017e0 	ldr	x0, [sp, #40]
    20e4:	90000002 	adrp	x2, d720 <l_alloc_3cc342ee88a539c975b102e7fa201c3d>
    20e8:	91000042 	add	x2, x2, #0x0
    20ec:	94000000 	bl	0 <_core::panicking::panic_bounds_check>
    20f0:	f94003e8 	ldr	x8, [sp]
    20f4:	f94007e9 	ldr	x9, [sp, #8]
    20f8:	b9400129 	ldr	w9, [x9]
    20fc:	aa0903ea 	mov	x10, x9
    2100:	b81f83aa 	stur	w10, [x29, #-8]
    2104:	f81f03a9 	stur	x9, [x29, #-16]
    2108:	aa098108 	orr	x8, x8, x9, lsl #32
    210c:	f9002fe8 	str	x8, [sp, #88]
    2110:	14000006 	b	2128 <_<rand_core::block::BlockRng<R> as rand_core::RngCore>::next_u64+0x1b8>
    2114:	f9400be1 	ldr	x1, [sp, #16]
    2118:	d2800000 	mov	x0, #0x0                   	// #0
    211c:	90000002 	adrp	x2, d738 <l_alloc_4c3189bd1f5fdb237107f268c9262483>
    2120:	91000042 	add	x2, x2, #0x0
    2124:	94000000 	bl	0 <_core::panicking::panic_bounds_check>
    2128:	f9402fe0 	ldr	x0, [sp, #88]
    212c:	a94d7bfd 	ldp	x29, x30, [sp, #208]
    2130:	910383ff 	add	sp, sp, #0xe0
    2134:	d65f03c0 	ret
    2138:	f9401fe0 	ldr	x0, [sp, #56]
    213c:	f9401be8 	ldr	x8, [sp, #48]
    2140:	f900a008 	str	x8, [x0, #320]
    2144:	94000000 	bl	0 <_<rand_chacha::chacha::Array64<T> as core::convert::AsRef<[T]>>::as_ref>
    2148:	f94027e8 	ldr	x8, [sp, #72]
    214c:	f90037e0 	str	x0, [sp, #104]
    2150:	f9003be1 	str	x1, [sp, #112]
    2154:	f9003fe8 	str	x8, [sp, #120]
    2158:	f94037e1 	ldr	x1, [sp, #104]
    215c:	f9403be2 	ldr	x2, [sp, #112]
    2160:	f9403fe3 	ldr	x3, [sp, #120]
    2164:	91019fe0 	add	x0, sp, #0x67
    2168:	94000000 	bl	2180 <_<rand_core::block::BlockRng<R> as rand_core::RngCore>::next_u64::{{closure}}>
    216c:	f9002fe0 	str	x0, [sp, #88]
    2170:	17ffffee 	b	2128 <_<rand_core::block::BlockRng<R> as rand_core::RngCore>::next_u64+0x1b8>
    2174:	90000000 	adrp	x0, d750 <l_alloc_8211d49787e16b67f616bb6cd05c132c>
    2178:	91000000 	add	x0, x0, #0x0
    217c:	94000000 	bl	0 <_core::panicking::panic_const::panic_const_add_overflow>

0000000000002180 <_<rand_core::block::BlockRng<R> as rand_core::RngCore>::next_u64::{{closure}}>:
    2180:	d102c3ff 	sub	sp, sp, #0xb0
    2184:	a90a7bfd 	stp	x29, x30, [sp, #160]
    2188:	910283fd 	add	x29, sp, #0xa0
    218c:	f90013e1 	str	x1, [sp, #32]
    2190:	f90017e2 	str	x2, [sp, #40]
    2194:	f9001be3 	str	x3, [sp, #48]
    2198:	f81b83a0 	stur	x0, [x29, #-72]
    219c:	f81c03a1 	stur	x1, [x29, #-64]
    21a0:	f81c83a2 	stur	x2, [x29, #-56]
    21a4:	f81d03a3 	stur	x3, [x29, #-48]
    21a8:	b1000468 	adds	x8, x3, #0x1
    21ac:	f9001fe8 	str	x8, [sp, #56]
    21b0:	1a9f37e8 	cset	w8, cs	// cs = hs, nlast
    21b4:	37000308 	tbnz	w8, #0, 2214 <_<rand_core::block::BlockRng<R> as rand_core::RngCore>::next_u64::{{closure}}+0x94>
    21b8:	14000001 	b	21bc <_<rand_core::block::BlockRng<R> as rand_core::RngCore>::next_u64::{{closure}}+0x3c>
    21bc:	f9401fe1 	ldr	x1, [sp, #56]
    21c0:	f9401be0 	ldr	x0, [sp, #48]
    21c4:	910103e8 	add	x8, sp, #0x40
    21c8:	f90007e8 	str	x8, [sp, #8]
    21cc:	94000000 	bl	eb8 <_core::ops::range::RangeInclusive<Idx>::new>
    21d0:	f94007e0 	ldr	x0, [sp, #8]
    21d4:	f94013e1 	ldr	x1, [sp, #32]
    21d8:	f94017e2 	ldr	x2, [sp, #40]
    21dc:	aa0103e8 	mov	x8, x1
    21e0:	f81e83a8 	stur	x8, [x29, #-24]
    21e4:	f81f03a2 	stur	x2, [x29, #-16]
    21e8:	90000003 	adrp	x3, d780 <l_alloc_8df363046774bb3c05580f35679f3587>
    21ec:	91000063 	add	x3, x3, #0x0
    21f0:	94000000 	bl	b28 <_<core::ops::range::RangeInclusive<usize> as core::slice::index::SliceIndex<[T]>>::index>
    21f4:	f9000be0 	str	x0, [sp, #16]
    21f8:	f9000fe1 	str	x1, [sp, #24]
    21fc:	f81d83a0 	stur	x0, [x29, #-40]
    2200:	f81e03a1 	stur	x1, [x29, #-32]
    2204:	52800028 	mov	w8, #0x1                   	// #1
    2208:	eb010108 	subs	x8, x8, x1
    220c:	540000a3 	b.cc	2220 <_<rand_core::block::BlockRng<R> as rand_core::RngCore>::next_u64::{{closure}}+0xa0>  // b.lo, b.ul, b.last
    2210:	1400000d 	b	2244 <_<rand_core::block::BlockRng<R> as rand_core::RngCore>::next_u64::{{closure}}+0xc4>
    2214:	90000000 	adrp	x0, d768 <l_alloc_e6df7d8c54fa679e06696170aa0f7f59>
    2218:	91000000 	add	x0, x0, #0x0
    221c:	94000000 	bl	0 <_core::panicking::panic_const::panic_const_add_overflow>
    2220:	f9400fe9 	ldr	x9, [sp, #24]
    2224:	f9400be8 	ldr	x8, [sp, #16]
    2228:	b9400508 	ldr	w8, [x8, #4]
    222c:	f90003e8 	str	x8, [sp]
    2230:	b81fc3a8 	stur	w8, [x29, #-4]
    2234:	d2800008 	mov	x8, #0x0                   	// #0
    2238:	eb090108 	subs	x8, x8, x9
    223c:	54000103 	b.cc	225c <_<rand_core::block::BlockRng<R> as rand_core::RngCore>::next_u64::{{closure}}+0xdc>  // b.lo, b.ul, b.last
    2240:	14000010 	b	2280 <_<rand_core::block::BlockRng<R> as rand_core::RngCore>::next_u64::{{closure}}+0x100>
    2244:	f9400fe1 	ldr	x1, [sp, #24]
    2248:	52800028 	mov	w8, #0x1                   	// #1
    224c:	aa0803e0 	mov	x0, x8
    2250:	90000002 	adrp	x2, d798 <l_alloc_e5c5095d6ea4aded3dba75a8b19a51fe>
    2254:	91000042 	add	x2, x2, #0x0
    2258:	94000000 	bl	0 <_core::panicking::panic_bounds_check>
    225c:	f94003e9 	ldr	x9, [sp]
    2260:	f9400be8 	ldr	x8, [sp, #16]
    2264:	b9400108 	ldr	w8, [x8]
    2268:	aa0803ea 	mov	x10, x8
    226c:	b81f83aa 	stur	w10, [x29, #-8]
    2270:	aa098100 	orr	x0, x8, x9, lsl #32
    2274:	a94a7bfd 	ldp	x29, x30, [sp, #160]
    2278:	9102c3ff 	add	sp, sp, #0xb0
    227c:	d65f03c0 	ret
    2280:	f9400fe1 	ldr	x1, [sp, #24]
    2284:	d2800000 	mov	x0, #0x0                   	// #0
    2288:	90000002 	adrp	x2, d7b0 <l_alloc_1e801a89cb7cbe249384aab6cc3da5a5>
    228c:	91000042 	add	x2, x2, #0x0
    2290:	94000000 	bl	0 <_core::panicking::panic_bounds_check>

0000000000002294 <_<usize as core::slice::index::SliceIndex<[T]>>::index>:
    2294:	d10143ff 	sub	sp, sp, #0x50
    2298:	a9047bfd 	stp	x29, x30, [sp, #64]
    229c:	910103fd 	add	x29, sp, #0x40
    22a0:	f90007e0 	str	x0, [sp, #8]
    22a4:	f9000be1 	str	x1, [sp, #16]
    22a8:	f9000fe2 	str	x2, [sp, #24]
    22ac:	f90013e3 	str	x3, [sp, #32]
    22b0:	f81e83a0 	stur	x0, [x29, #-24]
    22b4:	f81f03a1 	stur	x1, [x29, #-16]
    22b8:	f81f83a2 	stur	x2, [x29, #-8]
    22bc:	eb020008 	subs	x8, x0, x2
    22c0:	54000102 	b.cs	22e0 <_<usize as core::slice::index::SliceIndex<[T]>>::index+0x4c>  // b.hs, b.nlast
    22c4:	14000001 	b	22c8 <_<usize as core::slice::index::SliceIndex<[T]>>::index+0x34>
    22c8:	f9400be8 	ldr	x8, [sp, #16]
    22cc:	f94007e9 	ldr	x9, [sp, #8]
    22d0:	8b090900 	add	x0, x8, x9, lsl #2
    22d4:	a9447bfd 	ldp	x29, x30, [sp, #64]
    22d8:	910143ff 	add	sp, sp, #0x50
    22dc:	d65f03c0 	ret
    22e0:	f94013e2 	ldr	x2, [sp, #32]
    22e4:	f9400fe1 	ldr	x1, [sp, #24]
    22e8:	f94007e0 	ldr	x0, [sp, #8]
    22ec:	94000000 	bl	0 <_core::panicking::panic_bounds_check>

00000000000022f0 <_<alloc::raw_vec::RawVec<T,A> as core::ops::drop::Drop>::drop>:
    22f0:	d10083ff 	sub	sp, sp, #0x20
    22f4:	a9017bfd 	stp	x29, x30, [sp, #16]
    22f8:	910043fd 	add	x29, sp, #0x10
    22fc:	aa0003e8 	mov	x8, x0
    2300:	f90007e8 	str	x8, [sp, #8]
    2304:	52800088 	mov	w8, #0x4                   	// #4
    2308:	aa0803e2 	mov	x2, x8
    230c:	aa0203e1 	mov	x1, x2
    2310:	94000000 	bl	0 <_alloc::raw_vec::RawVecInner<A>::deallocate>
    2314:	a9417bfd 	ldp	x29, x30, [sp, #16]
    2318:	910083ff 	add	sp, sp, #0x20
    231c:	d65f03c0 	ret

0000000000002320 <_<alloc::vec::set_len_on_drop::SetLenOnDrop as core::ops::drop::Drop>::drop>:
    2320:	d10043ff 	sub	sp, sp, #0x10
    2324:	aa0003e8 	mov	x8, x0
    2328:	f90007e8 	str	x8, [sp, #8]
    232c:	f9400408 	ldr	x8, [x0, #8]
    2330:	f9400009 	ldr	x9, [x0]
    2334:	f9000128 	str	x8, [x9]
    2338:	910043ff 	add	sp, sp, #0x10
    233c:	d65f03c0 	ret

0000000000002340 <_<rand_chacha::chacha::ChaCha12Core as rand_core::block::BlockRngCore>::generate>:
    2340:	a9be6ffc 	stp	x28, x27, [sp, #-32]!
    2344:	a9017bfd 	stp	x29, x30, [sp, #16]
    2348:	910043fd 	add	x29, sp, #0x10
    234c:	d1402be9 	sub	x9, sp, #0xa, lsl #12
    2350:	d14007ff 	sub	sp, sp, #0x1, lsl #12
    2354:	f90003ff 	str	xzr, [sp]
    2358:	eb2963ff 	cmp	sp, x9
    235c:	54ffffa1 	b.ne	2350 <_<rand_chacha::chacha::ChaCha12Core as rand_core::block::BlockRngCore>::generate+0x10>  // b.any
    2360:	d13303ff 	sub	sp, sp, #0xcc0
    2364:	f90003ff 	str	xzr, [sp]
    2368:	91402be8 	add	x8, sp, #0xa, lsl #12
    236c:	911b8108 	add	x8, x8, #0x6e0
    2370:	f90683e8 	str	x8, [sp, #3328]
    2374:	91401be8 	add	x8, sp, #0x6, lsl #12
    2378:	911b4108 	add	x8, x8, #0x6d0
    237c:	f90687e8 	str	x8, [sp, #3336]
    2380:	91401be8 	add	x8, sp, #0x6, lsl #12
    2384:	91173d08 	add	x8, x8, #0x5cf
    2388:	f9068be8 	str	x8, [sp, #3344]
    238c:	914017e8 	add	x8, sp, #0x5, lsl #12
    2390:	91170108 	add	x8, x8, #0x5c0
    2394:	f9068fe8 	str	x8, [sp, #3352]
    2398:	914017e8 	add	x8, sp, #0x5, lsl #12
    239c:	9112fd08 	add	x8, x8, #0x4bf
    23a0:	f90693e8 	str	x8, [sp, #3360]
    23a4:	914013e8 	add	x8, sp, #0x4, lsl #12
    23a8:	910e8108 	add	x8, x8, #0x3a0
    23ac:	f906bbe8 	str	x8, [sp, #3440]
    23b0:	914013e8 	add	x8, sp, #0x4, lsl #12
    23b4:	910a3d08 	add	x8, x8, #0x28f
    23b8:	f90697e8 	str	x8, [sp, #3368]
    23bc:	91400be9 	add	x9, sp, #0x2, lsl #12
    23c0:	910c8129 	add	x9, x9, #0x320
    23c4:	f906b7e9 	str	x9, [sp, #3432]
    23c8:	91400be8 	add	x8, sp, #0x2, lsl #12
    23cc:	91073108 	add	x8, x8, #0x1cc
    23d0:	f9069be8 	str	x8, [sp, #3376]
    23d4:	914007e8 	add	x8, sp, #0x1, lsl #12
    23d8:	913ad108 	add	x8, x8, #0xeb4
    23dc:	f9069fe8 	str	x8, [sp, #3384]
    23e0:	913803e8 	add	x8, sp, #0xe00
    23e4:	f906abe8 	str	x8, [sp, #3408]
    23e8:	f906a7e0 	str	x0, [sp, #3400]
    23ec:	f906a3e1 	str	x1, [sp, #3392]
    23f0:	aa0003ea 	mov	x10, x0
    23f4:	f906bfea 	str	x10, [sp, #3448]
    23f8:	aa0103ea 	mov	x10, x1
    23fc:	f906c3ea 	str	x10, [sp, #3456]
    2400:	aa0003ea 	mov	x10, x0
    2404:	f906c7ea 	str	x10, [sp, #3464]
    2408:	528000ca 	mov	w10, #0x6                   	// #6
    240c:	b90d97ea 	str	w10, [sp, #3476]
    2410:	aa0103eb 	mov	x11, x1
    2414:	f906cfeb 	str	x11, [sp, #3480]
    2418:	aa0003eb 	mov	x11, x0
    241c:	f906d3eb 	str	x11, [sp, #3488]
    2420:	b90dafea 	str	w10, [sp, #3500]
    2424:	aa0103eb 	mov	x11, x1
    2428:	f906dbeb 	str	x11, [sp, #3504]
    242c:	aa0003eb 	mov	x11, x0
    2430:	f906dfeb 	str	x11, [sp, #3512]
    2434:	b90dc7ea 	str	w10, [sp, #3524]
    2438:	aa0103eb 	mov	x11, x1
    243c:	f906e7eb 	str	x11, [sp, #3528]
    2440:	aa0003eb 	mov	x11, x0
    2444:	f90f4feb 	str	x11, [sp, #7832]
    2448:	b91ea7ea 	str	w10, [sp, #7844]
    244c:	f90f57e1 	str	x1, [sp, #7848]
    2450:	528f0caa 	mov	w10, #0x7865                	// #30821
    2454:	72ac2e0a 	movk	w10, #0x6170, lsl #16
    2458:	b90de3ea 	str	w10, [sp, #3552]
    245c:	528c8dca 	mov	w10, #0x646e                	// #25710
    2460:	72a6640a 	movk	w10, #0x3320, lsl #16
    2464:	b90de7ea 	str	w10, [sp, #3556]
    2468:	5285a64a 	mov	w10, #0x2d32                	// #11570
    246c:	72af2c4a 	movk	w10, #0x7962, lsl #16
    2470:	b90debea 	str	w10, [sp, #3560]
    2474:	528cae8a 	mov	w10, #0x6574                	// #25972
    2478:	72ad640a 	movk	w10, #0x6b20, lsl #16
    247c:	b90defea 	str	w10, [sp, #3564]
    2480:	3dc37be0 	ldr	q0, [sp, #3552]
    2484:	3d8377e0 	str	q0, [sp, #3536]
    2488:	3dc00000 	ldr	q0, [x0]
    248c:	3d800100 	str	q0, [x8]
    2490:	3dc00100 	ldr	q0, [x8]
    2494:	3d84a120 	str	q0, [x9, #4736]
    2498:	3dc4a120 	ldr	q0, [x9, #4736]
    249c:	3d837fe0 	str	q0, [sp, #3568]
    24a0:	3dc00400 	ldr	q0, [x0, #16]
    24a4:	3d800900 	str	q0, [x8, #32]
    24a8:	3dc00900 	ldr	q0, [x8, #32]
    24ac:	3d849d20 	str	q0, [x9, #4720]
    24b0:	3dc49d20 	ldr	q0, [x9, #4720]
    24b4:	3d800500 	str	q0, [x8, #16]
    24b8:	3dc377e0 	ldr	q0, [sp, #3536]
    24bc:	913dc3e1 	add	x1, sp, #0xf70
    24c0:	3d805d00 	str	q0, [x8, #368]
    24c4:	3dc377e0 	ldr	q0, [sp, #3536]
    24c8:	3d806100 	str	q0, [x8, #384]
    24cc:	3dc377e0 	ldr	q0, [sp, #3536]
    24d0:	3d806500 	str	q0, [x8, #400]
    24d4:	3dc377e0 	ldr	q0, [sp, #3536]
    24d8:	3d806900 	str	q0, [x8, #416]
    24dc:	913cc3e0 	add	x0, sp, #0xf30
    24e0:	52800808 	mov	w8, #0x40                  	// #64
    24e4:	aa0803e2 	mov	x2, x8
    24e8:	f906b3e2 	str	x2, [sp, #3424]
    24ec:	94000000 	bl	0 <_memcpy>
    24f0:	f946abe8 	ldr	x8, [sp, #3408]
    24f4:	f946b3e2 	ldr	x2, [sp, #3424]
    24f8:	3dc37fe0 	ldr	q0, [sp, #3568]
    24fc:	913fc3e1 	add	x1, sp, #0xff0
    2500:	3d807d00 	str	q0, [x8, #496]
    2504:	3dc37fe0 	ldr	q0, [sp, #3568]
    2508:	3d808100 	str	q0, [x8, #512]
    250c:	3dc37fe0 	ldr	q0, [sp, #3568]
    2510:	3d808500 	str	q0, [x8, #528]
    2514:	3dc37fe0 	ldr	q0, [sp, #3568]
    2518:	3d808900 	str	q0, [x8, #544]
    251c:	913ec3e0 	add	x0, sp, #0xfb0
    2520:	94000000 	bl	0 <_memcpy>
    2524:	f946abe8 	ldr	x8, [sp, #3408]
    2528:	f946b3e2 	ldr	x2, [sp, #3424]
    252c:	3dc00500 	ldr	q0, [x8, #16]
    2530:	914007e1 	add	x1, sp, #0x1, lsl #12
    2534:	9101c021 	add	x1, x1, #0x70
    2538:	3d809d00 	str	q0, [x8, #624]
    253c:	3dc00500 	ldr	q0, [x8, #16]
    2540:	3d80a100 	str	q0, [x8, #640]
    2544:	3dc00500 	ldr	q0, [x8, #16]
    2548:	3d80a500 	str	q0, [x8, #656]
    254c:	3dc00500 	ldr	q0, [x8, #16]
    2550:	3d80a900 	str	q0, [x8, #672]
    2554:	914007e0 	add	x0, sp, #0x1, lsl #12
    2558:	9100c000 	add	x0, x0, #0x30
    255c:	94000000 	bl	0 <_memcpy>
    2560:	f946a7e0 	ldr	x0, [sp, #3400]
    2564:	f946abe9 	ldr	x9, [sp, #3408]
    2568:	f946b3e2 	ldr	x2, [sp, #3424]
    256c:	f946b7e8 	ldr	x8, [sp, #3432]
    2570:	3dc00800 	ldr	q0, [x0, #32]
    2574:	3d80bd20 	str	q0, [x9, #752]
    2578:	3dc0bd20 	ldr	q0, [x9, #752]
    257c:	3d816d00 	str	q0, [x8, #1456]
    2580:	3dc16d00 	ldr	q0, [x8, #1456]
    2584:	3d84ad00 	str	q0, [x8, #4784]
    2588:	3dc4ad00 	ldr	q0, [x8, #4784]
    258c:	3d80e900 	str	q0, [x8, #928]
    2590:	f913b3ff 	str	xzr, [sp, #10080]
    2594:	f913b7ff 	str	xzr, [sp, #10088]
    2598:	3dc11100 	ldr	q0, [x8, #1088]
    259c:	3d810d00 	str	q0, [x8, #1072]
    25a0:	52800029 	mov	w9, #0x1                   	// #1
    25a4:	f913c3e9 	str	x9, [sp, #10112]
    25a8:	f913c7ff 	str	xzr, [sp, #10120]
    25ac:	3dc11900 	ldr	q0, [x8, #1120]
    25b0:	3d811500 	str	q0, [x8, #1104]
    25b4:	52800049 	mov	w9, #0x2                   	// #2
    25b8:	f913d3e9 	str	x9, [sp, #10144]
    25bc:	f913d7ff 	str	xzr, [sp, #10152]
    25c0:	3dc12100 	ldr	q0, [x8, #1152]
    25c4:	3d811d00 	str	q0, [x8, #1136]
    25c8:	52800069 	mov	w9, #0x3                   	// #3
    25cc:	f913e3e9 	str	x9, [sp, #10176]
    25d0:	f913e7ff 	str	xzr, [sp, #10184]
    25d4:	3dc12900 	ldr	q0, [x8, #1184]
    25d8:	3d812500 	str	q0, [x8, #1168]
    25dc:	3dc10d00 	ldr	q0, [x8, #1072]
    25e0:	91400be1 	add	x1, sp, #0x2, lsl #12
    25e4:	911c4021 	add	x1, x1, #0x710
    25e8:	3d80fd00 	str	q0, [x8, #1008]
    25ec:	3dc11500 	ldr	q0, [x8, #1104]
    25f0:	3d810100 	str	q0, [x8, #1024]
    25f4:	3dc11d00 	ldr	q0, [x8, #1136]
    25f8:	3d810500 	str	q0, [x8, #1040]
    25fc:	3dc12500 	ldr	q0, [x8, #1168]
    2600:	3d810900 	str	q0, [x8, #1056]
    2604:	91400be0 	add	x0, sp, #0x2, lsl #12
    2608:	911b4000 	add	x0, x0, #0x6d0
    260c:	f906afe0 	str	x0, [sp, #3416]
    2610:	94000000 	bl	0 <_memcpy>
    2614:	f946b3e2 	ldr	x2, [sp, #3424]
    2618:	f946b7e8 	ldr	x8, [sp, #3432]
    261c:	3dc0e900 	ldr	q0, [x8, #928]
    2620:	91400be1 	add	x1, sp, #0x2, lsl #12
    2624:	91224021 	add	x1, x1, #0x890
    2628:	3d815d00 	str	q0, [x8, #1392]
    262c:	3dc0e900 	ldr	q0, [x8, #928]
    2630:	3d816100 	str	q0, [x8, #1408]
    2634:	3dc0e900 	ldr	q0, [x8, #928]
    2638:	3d816500 	str	q0, [x8, #1424]
    263c:	3dc0e900 	ldr	q0, [x8, #928]
    2640:	3d816900 	str	q0, [x8, #1440]
    2644:	91400be0 	add	x0, sp, #0x2, lsl #12
    2648:	91214000 	add	x0, x0, #0x850
    264c:	94000000 	bl	0 <_memcpy>
    2650:	f946afe1 	ldr	x1, [sp, #3416]
    2654:	f946b3e2 	ldr	x2, [sp, #3424]
    2658:	91400be0 	add	x0, sp, #0x2, lsl #12
    265c:	91238000 	add	x0, x0, #0x8e0
    2660:	94000000 	bl	0 <_memcpy>
    2664:	f946b7e8 	ldr	x8, [sp, #3432]
    2668:	f946bbe9 	ldr	x9, [sp, #3440]
    266c:	3dc14d00 	ldr	q0, [x8, #1328]
    2670:	3d805120 	str	q0, [x9, #320]
    2674:	3dc17100 	ldr	q0, [x8, #1472]
    2678:	3d804d20 	str	q0, [x9, #304]
    267c:	3dc05120 	ldr	q0, [x9, #320]
    2680:	914013e0 	add	x0, sp, #0x4, lsl #12
    2684:	91130000 	add	x0, x0, #0x4c0
    2688:	3d804920 	str	q0, [x9, #288]
    268c:	3dc04d20 	ldr	q0, [x9, #304]
    2690:	3d805520 	str	q0, [x9, #336]
    2694:	3907bd3f 	strb	wzr, [x9, #495]
    2698:	52800028 	mov	w8, #0x1                   	// #1
    269c:	3907bd28 	strb	w8, [x9, #495]
    26a0:	914013e8 	add	x8, sp, #0x4, lsl #12
    26a4:	91144108 	add	x8, x8, #0x510
    26a8:	90000001 	adrp	x1, d438 <l_alloc_8993d95a2b5eb1e10afdc3dee81c8c60>
    26ac:	91000021 	add	x1, x1, #0x0
    26b0:	94000000 	bl	0 <_<T as core::convert::Into<U>>::into>
    26b4:	14000009 	b	26d8 <_<rand_chacha::chacha::ChaCha12Core as rand_core::block::BlockRngCore>::generate+0x398>
    26b8:	f946bbe8 	ldr	x8, [sp, #3440]
    26bc:	f922cbe0 	str	x0, [sp, #17808]
    26c0:	aa0103e9 	mov	x9, x1
    26c4:	911673ea 	add	x10, sp, #0x59c
    26c8:	b93ffd49 	str	w9, [x10, #16380]
    26cc:	3947bd08 	ldrb	w8, [x8, #495]
    26d0:	37000488 	tbnz	w8, #0, 2760 <_<rand_chacha::chacha::ChaCha12Core as rand_core::block::BlockRngCore>::generate+0x420>
    26d4:	14000020 	b	2754 <_<rand_chacha::chacha::ChaCha12Core as rand_core::block::BlockRngCore>::generate+0x414>
    26d8:	f946bbe8 	ldr	x8, [sp, #3440]
    26dc:	3907bd1f 	strb	wzr, [x8, #495]
    26e0:	3dc05500 	ldr	q0, [x8, #336]
    26e4:	914013e0 	add	x0, sp, #0x4, lsl #12
    26e8:	9114c000 	add	x0, x0, #0x530
    26ec:	3d806500 	str	q0, [x8, #400]
    26f0:	914013e8 	add	x8, sp, #0x4, lsl #12
    26f4:	91148108 	add	x8, x8, #0x520
    26f8:	90000001 	adrp	x1, d450 <l_alloc_77ee8835248a1929d048736225bc495f>
    26fc:	91000021 	add	x1, x1, #0x0
    2700:	94000000 	bl	0 <_<T as core::convert::Into<U>>::into>
    2704:	14000001 	b	2708 <_<rand_chacha::chacha::ChaCha12Core as rand_core::block::BlockRngCore>::generate+0x3c8>
    2708:	f946bbe8 	ldr	x8, [sp, #3440]
    270c:	3dc05d00 	ldr	q0, [x8, #368]
    2710:	3d806900 	str	q0, [x8, #416]
    2714:	3dc06100 	ldr	q0, [x8, #384]
    2718:	3d806d00 	str	q0, [x8, #432]
    271c:	f962a3e1 	ldr	x1, [sp, #17728]
    2720:	f962abe2 	ldr	x2, [sp, #17744]
    2724:	914013e0 	add	x0, sp, #0x4, lsl #12
    2728:	91143c00 	add	x0, x0, #0x50f
    272c:	94000000 	bl	0 <_<ppv_lite86::generic::u64x2_generic as core::ops::arith::Add>::add::{{closure}}>
    2730:	f9067fe0 	str	x0, [sp, #3320]
    2734:	14000001 	b	2738 <_<rand_chacha::chacha::ChaCha12Core as rand_core::block::BlockRngCore>::generate+0x3f8>
    2738:	f962a7e1 	ldr	x1, [sp, #17736]
    273c:	f962afe2 	ldr	x2, [sp, #17752]
    2740:	914013e0 	add	x0, sp, #0x4, lsl #12
    2744:	91143c00 	add	x0, x0, #0x50f
    2748:	94000000 	bl	0 <_<ppv_lite86::generic::u64x2_generic as core::ops::arith::Add>::add::{{closure}}>
    274c:	f9067be0 	str	x0, [sp, #3312]
    2750:	14000005 	b	2764 <_<rand_chacha::chacha::ChaCha12Core as rand_core::block::BlockRngCore>::generate+0x424>
    2754:	f962cbe8 	ldr	x8, [sp, #17808]
    2758:	f90677e8 	str	x8, [sp, #3304]
    275c:	14002692 	b	c1a4 <_<rand_chacha::chacha::ChaCha12Core as rand_core::block::BlockRngCore>::generate+0x9e64>
    2760:	17fffffd 	b	2754 <_<rand_chacha::chacha::ChaCha12Core as rand_core::block::BlockRngCore>::generate+0x414>
    2764:	f946bbe9 	ldr	x9, [sp, #3440]
    2768:	f946b7e8 	ldr	x8, [sp, #3432]
    276c:	f9467bea 	ldr	x10, [sp, #3312]
    2770:	f9467feb 	ldr	x11, [sp, #3320]
    2774:	f922bfeb 	str	x11, [sp, #17784]
    2778:	f922c3ea 	str	x10, [sp, #17792]
    277c:	914013ea 	add	x10, sp, #0x4, lsl #12
    2780:	9111e54a 	add	x10, x10, #0x479
    2784:	3ccff140 	ldur	q0, [x10, #255]
    2788:	3d807120 	str	q0, [x9, #448]
    278c:	3dc07120 	ldr	q0, [x9, #448]
    2790:	3d808120 	str	q0, [x9, #512]
    2794:	3dc08120 	ldr	q0, [x9, #512]
    2798:	3d808520 	str	q0, [x9, #528]
    279c:	3dc08520 	ldr	q0, [x9, #528]
    27a0:	3d857500 	str	q0, [x8, #5584]
    27a4:	3dc15100 	ldr	q0, [x8, #1344]
    27a8:	3d801120 	str	q0, [x9, #64]
    27ac:	3dc17500 	ldr	q0, [x8, #1488]
    27b0:	3d800d20 	str	q0, [x9, #48]
    27b4:	3dc01120 	ldr	q0, [x9, #64]
    27b8:	914013e0 	add	x0, sp, #0x4, lsl #12
    27bc:	910f0000 	add	x0, x0, #0x3c0
    27c0:	3d800920 	str	q0, [x9, #32]
    27c4:	3dc00d20 	ldr	q0, [x9, #48]
    27c8:	3d801520 	str	q0, [x9, #80]
    27cc:	3903bd3f 	strb	wzr, [x9, #239]
    27d0:	52800028 	mov	w8, #0x1                   	// #1
    27d4:	3903bd28 	strb	w8, [x9, #239]
    27d8:	914013e8 	add	x8, sp, #0x4, lsl #12
    27dc:	91104108 	add	x8, x8, #0x410
    27e0:	90000001 	adrp	x1, d438 <l_alloc_8993d95a2b5eb1e10afdc3dee81c8c60>
    27e4:	91000021 	add	x1, x1, #0x0
    27e8:	94000000 	bl	0 <_<T as core::convert::Into<U>>::into>
    27ec:	14000009 	b	2810 <_<rand_chacha::chacha::ChaCha12Core as rand_core::block::BlockRngCore>::generate+0x4d0>
    27f0:	f946bbe8 	ldr	x8, [sp, #3440]
    27f4:	f9224be0 	str	x0, [sp, #17552]
    27f8:	aa0103e9 	mov	x9, x1
    27fc:	911273ea 	add	x10, sp, #0x49c
    2800:	b93ffd49 	str	w9, [x10, #16380]
    2804:	3943bd08 	ldrb	w8, [x8, #239]
    2808:	370004e8 	tbnz	w8, #0, 28a4 <_<rand_chacha::chacha::ChaCha12Core as rand_core::block::BlockRngCore>::generate+0x564>
    280c:	14000020 	b	288c <_<rand_chacha::chacha::ChaCha12Core as rand_core::block::BlockRngCore>::generate+0x54c>
    2810:	f946bbe8 	ldr	x8, [sp, #3440]
    2814:	3903bd1f 	strb	wzr, [x8, #239]
    2818:	3dc01500 	ldr	q0, [x8, #80]
    281c:	914013e0 	add	x0, sp, #0x4, lsl #12
    2820:	9110c000 	add	x0, x0, #0x430
    2824:	3d802500 	str	q0, [x8, #144]
    2828:	914013e8 	add	x8, sp, #0x4, lsl #12
    282c:	91108108 	add	x8, x8, #0x420
    2830:	90000001 	adrp	x1, d450 <l_alloc_77ee8835248a1929d048736225bc495f>
    2834:	91000021 	add	x1, x1, #0x0
    2838:	94000000 	bl	0 <_<T as core::convert::Into<U>>::into>
    283c:	14000001 	b	2840 <_<rand_chacha::chacha::ChaCha12Core as rand_core::block::BlockRngCore>::generate+0x500>
    2840:	f946bbe8 	ldr	x8, [sp, #3440]
    2844:	3dc01d00 	ldr	q0, [x8, #112]
    2848:	3d802900 	str	q0, [x8, #160]
    284c:	3dc02100 	ldr	q0, [x8, #128]
    2850:	3d802d00 	str	q0, [x8, #176]
    2854:	f96223e1 	ldr	x1, [sp, #17472]
    2858:	f9622be2 	ldr	x2, [sp, #17488]
    285c:	914013e0 	add	x0, sp, #0x4, lsl #12
    2860:	91103c00 	add	x0, x0, #0x40f
    2864:	94000000 	bl	0 <_<ppv_lite86::generic::u64x2_generic as core::ops::arith::Add>::add::{{closure}}>
    2868:	f90673e0 	str	x0, [sp, #3296]
    286c:	14000001 	b	2870 <_<rand_chacha::chacha::ChaCha12Core as rand_core::block::BlockRngCore>::generate+0x530>
    2870:	f96227e1 	ldr	x1, [sp, #17480]
    2874:	f9622fe2 	ldr	x2, [sp, #17496]
    2878:	914013e0 	add	x0, sp, #0x4, lsl #12
    287c:	91103c00 	add	x0, x0, #0x40f
    2880:	94000000 	bl	0 <_<ppv_lite86::generic::u64x2_generic as core::ops::arith::Add>::add::{{closure}}>
    2884:	f9066fe0 	str	x0, [sp, #3288]
    2888:	14000008 	b	28a8 <_<rand_chacha::chacha::ChaCha12Core as rand_core::block::BlockRngCore>::generate+0x568>
    288c:	f9624be8 	ldr	x8, [sp, #17552]
    2890:	f90667e8 	str	x8, [sp, #3272]
    2894:	911273e8 	add	x8, sp, #0x49c
    2898:	b97ffd08 	ldr	w8, [x8, #16380]
    289c:	b90cd7e8 	str	w8, [sp, #3284]
    28a0:	14000016 	b	28f8 <_<rand_chacha::chacha::ChaCha12Core as rand_core::block::BlockRngCore>::generate+0x5b8>
    28a4:	17fffffa 	b	288c <_<rand_chacha::chacha::ChaCha12Core as rand_core::block::BlockRngCore>::generate+0x54c>
    28a8:	f946b7e8 	ldr	x8, [sp, #3432]
    28ac:	f946bbe9 	ldr	x9, [sp, #3440]
    28b0:	f9466fea 	ldr	x10, [sp, #3288]
    28b4:	f94673eb 	ldr	x11, [sp, #3296]
    28b8:	f9223feb 	str	x11, [sp, #17528]
    28bc:	f92243ea 	str	x10, [sp, #17536]
    28c0:	914013ea 	add	x10, sp, #0x4, lsl #12
    28c4:	910de54a 	add	x10, x10, #0x379
    28c8:	3ccff140 	ldur	q0, [x10, #255]
    28cc:	3d803120 	str	q0, [x9, #192]
    28d0:	3dc03120 	ldr	q0, [x9, #192]
    28d4:	3d804120 	str	q0, [x9, #256]
    28d8:	3dc04120 	ldr	q0, [x9, #256]
    28dc:	3d804520 	str	q0, [x9, #272]
    28e0:	3dc04520 	ldr	q0, [x9, #272]
    28e4:	3d857900 	str	q0, [x8, #5600]
    28e8:	14000009 	b	290c <_<rand_chacha::chacha::ChaCha12Core as rand_core::block::BlockRngCore>::generate+0x5cc>
    28ec:	f95c9be8 	ldr	x8, [sp, #14640]
    28f0:	f90677e8 	str	x8, [sp, #3304]
    28f4:	1400262c 	b	c1a4 <_<rand_chacha::chacha::ChaCha12Core as rand_core::block::BlockRngCore>::generate+0x9e64>
    28f8:	b94cd7e8 	ldr	w8, [sp, #3284]
    28fc:	f94667e9 	ldr	x9, [sp, #3272]
    2900:	f91c9be9 	str	x9, [sp, #14640]
    2904:	b9393be8 	str	w8, [sp, #14648]
    2908:	17fffff9 	b	28ec <_<rand_chacha::chacha::ChaCha12Core as rand_core::block::BlockRngCore>::generate+0x5ac>
    290c:	f94697e9 	ldr	x9, [sp, #3368]
    2910:	f946b7e8 	ldr	x8, [sp, #3432]
    2914:	3dc15500 	ldr	q0, [x8, #1360]
    2918:	3c851120 	stur	q0, [x9, #81]
    291c:	3dc17900 	ldr	q0, [x8, #1504]
    2920:	3c841120 	stur	q0, [x9, #65]
    2924:	3cc51120 	ldur	q0, [x9, #81]
    2928:	914013e0 	add	x0, sp, #0x4, lsl #12
    292c:	910b0000 	add	x0, x0, #0x2c0
    2930:	3c831120 	stur	q0, [x9, #49]
    2934:	3cc41120 	ldur	q0, [x9, #65]
    2938:	3c861120 	stur	q0, [x9, #97]
    293c:	3904013f 	strb	wzr, [x9, #256]
    2940:	52800028 	mov	w8, #0x1                   	// #1
    2944:	39040128 	strb	w8, [x9, #256]
    2948:	914013e8 	add	x8, sp, #0x4, lsl #12
    294c:	910c4108 	add	x8, x8, #0x310
    2950:	90000001 	adrp	x1, d438 <l_alloc_8993d95a2b5eb1e10afdc3dee81c8c60>
    2954:	91000021 	add	x1, x1, #0x0
    2958:	94000000 	bl	0 <_<T as core::convert::Into<U>>::into>
    295c:	14000009 	b	2980 <_<rand_chacha::chacha::ChaCha12Core as rand_core::block::BlockRngCore>::generate+0x640>
    2960:	f94697e8 	ldr	x8, [sp, #3368]
    2964:	f921cbe0 	str	x0, [sp, #17296]
    2968:	aa0103e9 	mov	x9, x1
    296c:	910e73ea 	add	x10, sp, #0x39c
    2970:	b93ffd49 	str	w9, [x10, #16380]
    2974:	39440108 	ldrb	w8, [x8, #256]
    2978:	370004e8 	tbnz	w8, #0, 2a14 <_<rand_chacha::chacha::ChaCha12Core as rand_core::block::BlockRngCore>::generate+0x6d4>
    297c:	14000020 	b	29fc <_<rand_chacha::chacha::ChaCha12Core as rand_core::block::BlockRngCore>::generate+0x6bc>
    2980:	f94697e8 	ldr	x8, [sp, #3368]
    2984:	3904011f 	strb	wzr, [x8, #256]
    2988:	3cc61100 	ldur	q0, [x8, #97]
    298c:	914013e0 	add	x0, sp, #0x4, lsl #12
    2990:	910cc000 	add	x0, x0, #0x330
    2994:	3c8a1100 	stur	q0, [x8, #161]
    2998:	914013e8 	add	x8, sp, #0x4, lsl #12
    299c:	910c8108 	add	x8, x8, #0x320
    29a0:	90000001 	adrp	x1, d450 <l_alloc_77ee8835248a1929d048736225bc495f>
    29a4:	91000021 	add	x1, x1, #0x0
    29a8:	94000000 	bl	0 <_<T as core::convert::Into<U>>::into>
    29ac:	14000001 	b	29b0 <_<rand_chacha::chacha::ChaCha12Core as rand_core::block::BlockRngCore>::generate+0x670>
    29b0:	f94697e8 	ldr	x8, [sp, #3368]
    29b4:	3cc81100 	ldur	q0, [x8, #129]
    29b8:	3c8b1100 	stur	q0, [x8, #177]
    29bc:	3cc91100 	ldur	q0, [x8, #145]
    29c0:	3c8c1100 	stur	q0, [x8, #193]
    29c4:	f961a3e1 	ldr	x1, [sp, #17216]
    29c8:	f961abe2 	ldr	x2, [sp, #17232]
    29cc:	914013e0 	add	x0, sp, #0x4, lsl #12
    29d0:	910c3c00 	add	x0, x0, #0x30f
    29d4:	94000000 	bl	0 <_<ppv_lite86::generic::u64x2_generic as core::ops::arith::Add>::add::{{closure}}>
    29d8:	f90663e0 	str	x0, [sp, #3264]
    29dc:	14000001 	b	29e0 <_<rand_chacha::chacha::ChaCha12Core as rand_core::block::BlockRngCore>::generate+0x6a0>
    29e0:	f961a7e1 	ldr	x1, [sp, #17224]
    29e4:	f961afe2 	ldr	x2, [sp, #17240]
    29e8:	914013e0 	add	x0, sp, #0x4, lsl #12
    29ec:	910c3c00 	add	x0, x0, #0x30f
    29f0:	94000000 	bl	0 <_<ppv_lite86::generic::u64x2_generic as core::ops::arith::Add>::add::{{closure}}>
    29f4:	f9065fe0 	str	x0, [sp, #3256]
    29f8:	14000008 	b	2a18 <_<rand_chacha::chacha::ChaCha12Core as rand_core::block::BlockRngCore>::generate+0x6d8>
    29fc:	f961cbe8 	ldr	x8, [sp, #17296]
    2a00:	f90657e8 	str	x8, [sp, #3240]
    2a04:	910e73e8 	add	x8, sp, #0x39c
    2a08:	b97ffd08 	ldr	w8, [x8, #16380]
    2a0c:	b90cb7e8 	str	w8, [sp, #3252]
    2a10:	14000015 	b	2a64 <_<rand_chacha::chacha::ChaCha12Core as rand_core::block::BlockRngCore>::generate+0x724>
    2a14:	17fffffa 	b	29fc <_<rand_chacha::chacha::ChaCha12Core as rand_core::block::BlockRngCore>::generate+0x6bc>
    2a18:	f946b7e8 	ldr	x8, [sp, #3432]
    2a1c:	f946bbe9 	ldr	x9, [sp, #3440]
    2a20:	f94697ea 	ldr	x10, [sp, #3368]
    2a24:	f9465feb 	ldr	x11, [sp, #3256]
    2a28:	f94663ec 	ldr	x12, [sp, #3264]
    2a2c:	f921bfec 	str	x12, [sp, #17272]
    2a30:	f921c3eb 	str	x11, [sp, #17280]
    2a34:	914013eb 	add	x11, sp, #0x4, lsl #12
    2a38:	9109e56b 	add	x11, x11, #0x279
    2a3c:	3ccff160 	ldur	q0, [x11, #255]
    2a40:	3c8d1140 	stur	q0, [x10, #209]
    2a44:	3ccd1140 	ldur	q0, [x10, #209]
    2a48:	3d800120 	str	q0, [x9]
    2a4c:	3dc00120 	ldr	q0, [x9]
    2a50:	3d800520 	str	q0, [x9, #16]
    2a54:	3dc00520 	ldr	q0, [x9, #16]
    2a58:	3d857d00 	str	q0, [x8, #5616]
    2a5c:	14000007 	b	2a78 <_<rand_chacha::chacha::ChaCha12Core as rand_core::block::BlockRngCore>::generate+0x738>
    2a60:	17ffffa3 	b	28ec <_<rand_chacha::chacha::ChaCha12Core as rand_core::block::BlockRngCore>::generate+0x5ac>
    2a64:	b94cb7e8 	ldr	w8, [sp, #3252]
    2a68:	f94657e9 	ldr	x9, [sp, #3240]
    2a6c:	f91c9be9 	str	x9, [sp, #14640]
    2a70:	b9393be8 	str	w8, [sp, #14648]
    2a74:	17fffffb 	b	2a60 <_<rand_chacha::chacha::ChaCha12Core as rand_core::block::BlockRngCore>::generate+0x720>
    2a78:	f94697e9 	ldr	x9, [sp, #3368]
    2a7c:	f946b7e8 	ldr	x8, [sp, #3432]
    2a80:	3dc15900 	ldr	q0, [x8, #1376]
    2a84:	3d87b100 	str	q0, [x8, #7872]
    2a88:	3dc17d00 	ldr	q0, [x8, #1520]
    2a8c:	3d87ad00 	str	q0, [x8, #7856]
    2a90:	3dc7b100 	ldr	q0, [x8, #7872]
    2a94:	914013e0 	add	x0, sp, #0x4, lsl #12
    2a98:	91070000 	add	x0, x0, #0x1c0
    2a9c:	3d87a900 	str	q0, [x8, #7840]
    2aa0:	3dc7ad00 	ldr	q0, [x8, #7856]
    2aa4:	3d87b500 	str	q0, [x8, #7888]
    2aa8:	3900013f 	strb	wzr, [x9]
    2aac:	52800028 	mov	w8, #0x1                   	// #1
    2ab0:	39000128 	strb	w8, [x9]
    2ab4:	914013e8 	add	x8, sp, #0x4, lsl #12
    2ab8:	91084108 	add	x8, x8, #0x210
    2abc:	90000001 	adrp	x1, d438 <l_alloc_8993d95a2b5eb1e10afdc3dee81c8c60>
    2ac0:	91000021 	add	x1, x1, #0x0
    2ac4:	94000000 	bl	0 <_<T as core::convert::Into<U>>::into>
    2ac8:	14000009 	b	2aec <_<rand_chacha::chacha::ChaCha12Core as rand_core::block::BlockRngCore>::generate+0x7ac>
    2acc:	f94697e8 	ldr	x8, [sp, #3368]
    2ad0:	f9214be0 	str	x0, [sp, #17040]
    2ad4:	aa0103e9 	mov	x9, x1
    2ad8:	910a73ea 	add	x10, sp, #0x29c
    2adc:	b93ffd49 	str	w9, [x10, #16380]
    2ae0:	39400108 	ldrb	w8, [x8]
    2ae4:	37000508 	tbnz	w8, #0, 2b84 <_<rand_chacha::chacha::ChaCha12Core as rand_core::block::BlockRngCore>::generate+0x844>
    2ae8:	14000021 	b	2b6c <_<rand_chacha::chacha::ChaCha12Core as rand_core::block::BlockRngCore>::generate+0x82c>
    2aec:	f946b7e8 	ldr	x8, [sp, #3432]
    2af0:	f94697e9 	ldr	x9, [sp, #3368]
    2af4:	3900013f 	strb	wzr, [x9]
    2af8:	3dc7b500 	ldr	q0, [x8, #7888]
    2afc:	914013e0 	add	x0, sp, #0x4, lsl #12
    2b00:	9108c000 	add	x0, x0, #0x230
    2b04:	3d87c500 	str	q0, [x8, #7952]
    2b08:	914013e8 	add	x8, sp, #0x4, lsl #12
    2b0c:	91088108 	add	x8, x8, #0x220
    2b10:	90000001 	adrp	x1, d450 <l_alloc_77ee8835248a1929d048736225bc495f>
    2b14:	91000021 	add	x1, x1, #0x0
    2b18:	94000000 	bl	0 <_<T as core::convert::Into<U>>::into>
    2b1c:	14000001 	b	2b20 <_<rand_chacha::chacha::ChaCha12Core as rand_core::block::BlockRngCore>::generate+0x7e0>
    2b20:	f946b7e8 	ldr	x8, [sp, #3432]
    2b24:	3dc7bd00 	ldr	q0, [x8, #7920]
    2b28:	3d87c900 	str	q0, [x8, #7968]
    2b2c:	3dc7c100 	ldr	q0, [x8, #7936]
    2b30:	3d87cd00 	str	q0, [x8, #7984]
    2b34:	f96123e1 	ldr	x1, [sp, #16960]
    2b38:	f9612be2 	ldr	x2, [sp, #16976]
    2b3c:	914013e0 	add	x0, sp, #0x4, lsl #12
    2b40:	91083c00 	add	x0, x0, #0x20f
    2b44:	94000000 	bl	0 <_<ppv_lite86::generic::u64x2_generic as core::ops::arith::Add>::add::{{closure}}>
    2b48:	f90653e0 	str	x0, [sp, #3232]
    2b4c:	14000001 	b	2b50 <_<rand_chacha::chacha::ChaCha12Core as rand_core::block::BlockRngCore>::generate+0x810>
    2b50:	f96127e1 	ldr	x1, [sp, #16968]
    2b54:	f9612fe2 	ldr	x2, [sp, #16984]
    2b58:	914013e0 	add	x0, sp, #0x4, lsl #12
    2b5c:	91083c00 	add	x0, x0, #0x20f
    2b60:	94000000 	bl	0 <_<ppv_lite86::generic::u64x2_generic as core::ops::arith::Add>::add::{{closure}}>
    2b64:	f9064fe0 	str	x0, [sp, #3224]
    2b68:	14000008 	b	2b88 <_<rand_chacha::chacha::ChaCha12Core as rand_core::block::BlockRngCore>::generate+0x848>
    2b6c:	f9614be8 	ldr	x8, [sp, #17040]
    2b70:	f90647e8 	str	x8, [sp, #3208]
    2b74:	910a73e8 	add	x8, sp, #0x29c
    2b78:	b97ffd08 	ldr	w8, [x8, #16380]
    2b7c:	b90c97e8 	str	w8, [sp, #3220]
    2b80:	14000013 	b	2bcc <_<rand_chacha::chacha::ChaCha12Core as rand_core::block::BlockRngCore>::generate+0x88c>
    2b84:	17fffffa 	b	2b6c <_<rand_chacha::chacha::ChaCha12Core as rand_core::block::BlockRngCore>::generate+0x82c>
    2b88:	f946b7e8 	ldr	x8, [sp, #3432]
    2b8c:	f94697e9 	ldr	x9, [sp, #3368]
    2b90:	f9464fea 	ldr	x10, [sp, #3224]
    2b94:	f94653eb 	ldr	x11, [sp, #3232]
    2b98:	f9213feb 	str	x11, [sp, #17016]
    2b9c:	f92143ea 	str	x10, [sp, #17024]
    2ba0:	914013ea 	add	x10, sp, #0x4, lsl #12
    2ba4:	9105e54a 	add	x10, x10, #0x179
    2ba8:	3ccff140 	ldur	q0, [x10, #255]
    2bac:	3d87d100 	str	q0, [x8, #8000]
    2bb0:	3dc7d100 	ldr	q0, [x8, #8000]
    2bb4:	3c811120 	stur	q0, [x9, #17]
    2bb8:	3cc11120 	ldur	q0, [x9, #17]
    2bbc:	3c821120 	stur	q0, [x9, #33]
    2bc0:	3cc21120 	ldur	q0, [x9, #33]
    2bc4:	3d858100 	str	q0, [x8, #5632]
    2bc8:	14000006 	b	2be0 <_<rand_chacha::chacha::ChaCha12Core as rand_core::block::BlockRngCore>::generate+0x8a0>
    2bcc:	b94c97e8 	ldr	w8, [sp, #3220]
    2bd0:	f94647e9 	ldr	x9, [sp, #3208]
    2bd4:	f91c9be9 	str	x9, [sp, #14640]
    2bd8:	b9393be8 	str	w8, [sp, #14648]
    2bdc:	17ffffa1 	b	2a60 <_<rand_chacha::chacha::ChaCha12Core as rand_core::block::BlockRngCore>::generate+0x720>
    2be0:	f946b7e8 	ldr	x8, [sp, #3432]
    2be4:	3dc57500 	ldr	q0, [x8, #5584]
    2be8:	91400fe1 	add	x1, sp, #0x3, lsl #12
    2bec:	9122c021 	add	x1, x1, #0x8b0
    2bf0:	3d856500 	str	q0, [x8, #5520]
    2bf4:	3dc57900 	ldr	q0, [x8, #5600]
    2bf8:	3d856900 	str	q0, [x8, #5536]
    2bfc:	3dc57d00 	ldr	q0, [x8, #5616]
    2c00:	3d856d00 	str	q0, [x8, #5552]
    2c04:	3dc58100 	ldr	q0, [x8, #5632]
    2c08:	3d857100 	str	q0, [x8, #5568]
    2c0c:	91400be0 	add	x0, sp, #0x2, lsl #12
    2c10:	91204000 	add	x0, x0, #0x810
    2c14:	f9062fe0 	str	x0, [sp, #3160]
    2c18:	52800808 	mov	w8, #0x40                  	// #64
    2c1c:	aa0803e2 	mov	x2, x8
    2c20:	f90643e2 	str	x2, [sp, #3200]
    2c24:	94000000 	bl	0 <_memcpy>
    2c28:	f9462fe0 	ldr	x0, [sp, #3160]
    2c2c:	91400be8 	add	x8, sp, #0x2, lsl #12
    2c30:	911f4108 	add	x8, x8, #0x7d0
    2c34:	f90633e8 	str	x8, [sp, #3168]
    2c38:	90000001 	adrp	x1, d568 <l_alloc_e32af199185f4c8353045deb01caf697>
    2c3c:	91000021 	add	x1, x1, #0x0
    2c40:	94000000 	bl	0 <_<T as core::convert::Into<U>>::into>
    2c44:	f94633e1 	ldr	x1, [sp, #3168]
    2c48:	f94643e2 	ldr	x2, [sp, #3200]
    2c4c:	91400be0 	add	x0, sp, #0x2, lsl #12
    2c50:	91288000 	add	x0, x0, #0xa20
    2c54:	f90637e0 	str	x0, [sp, #3176]
    2c58:	94000000 	bl	0 <_memcpy>
    2c5c:	f94637e1 	ldr	x1, [sp, #3176]
    2c60:	f94643e2 	ldr	x2, [sp, #3200]
    2c64:	91400be0 	add	x0, sp, #0x2, lsl #12
    2c68:	91248000 	add	x0, x0, #0x920
    2c6c:	94000000 	bl	0 <_memcpy>
    2c70:	f946b7e8 	ldr	x8, [sp, #3432]
    2c74:	f94643e2 	ldr	x2, [sp, #3200]
    2c78:	3dc18100 	ldr	q0, [x8, #1536]
    2c7c:	3d81a500 	str	q0, [x8, #1680]
    2c80:	3dc1a500 	ldr	q0, [x8, #1680]
    2c84:	3d849900 	str	q0, [x8, #4704]
    2c88:	3dc49900 	ldr	q0, [x8, #4704]
    2c8c:	3d81a100 	str	q0, [x8, #1664]
    2c90:	3dc18500 	ldr	q0, [x8, #1552]
    2c94:	3d81ad00 	str	q0, [x8, #1712]
    2c98:	3dc1ad00 	ldr	q0, [x8, #1712]
    2c9c:	3d849500 	str	q0, [x8, #4688]
    2ca0:	3dc49500 	ldr	q0, [x8, #4688]
    2ca4:	3d81a900 	str	q0, [x8, #1696]
    2ca8:	3dc18900 	ldr	q0, [x8, #1568]
    2cac:	3d81b500 	str	q0, [x8, #1744]
    2cb0:	3dc1b500 	ldr	q0, [x8, #1744]
    2cb4:	3d849100 	str	q0, [x8, #4672]
    2cb8:	3dc49100 	ldr	q0, [x8, #4672]
    2cbc:	3d81b100 	str	q0, [x8, #1728]
    2cc0:	3dc18d00 	ldr	q0, [x8, #1584]
    2cc4:	3d81bd00 	str	q0, [x8, #1776]
    2cc8:	3dc1bd00 	ldr	q0, [x8, #1776]
    2ccc:	3d848d00 	str	q0, [x8, #4656]
    2cd0:	3dc48d00 	ldr	q0, [x8, #4656]
    2cd4:	3d81b900 	str	q0, [x8, #1760]
    2cd8:	3dc1a100 	ldr	q0, [x8, #1664]
    2cdc:	91400be1 	add	x1, sp, #0x2, lsl #12
    2ce0:	91258021 	add	x1, x1, #0x960
    2ce4:	3d819100 	str	q0, [x8, #1600]
    2ce8:	3dc1a900 	ldr	q0, [x8, #1696]
    2cec:	3d819500 	str	q0, [x8, #1616]
    2cf0:	3dc1b100 	ldr	q0, [x8, #1728]
    2cf4:	3d819900 	str	q0, [x8, #1632]
    2cf8:	3dc1b900 	ldr	q0, [x8, #1760]
    2cfc:	3d819d00 	str	q0, [x8, #1648]
    2d00:	914007e0 	add	x0, sp, #0x1, lsl #12
    2d04:	9102c000 	add	x0, x0, #0xb0
    2d08:	f9063fe0 	str	x0, [sp, #3192]
    2d0c:	94000000 	bl	0 <_memcpy>
    2d10:	f94643e2 	ldr	x2, [sp, #3200]
    2d14:	9138c3e0 	add	x0, sp, #0xe30
    2d18:	f9063be0 	str	x0, [sp, #3184]
    2d1c:	913cc3e1 	add	x1, sp, #0xf30
    2d20:	94000000 	bl	0 <_memcpy>
    2d24:	f9463be8 	ldr	x8, [sp, #3184]
    2d28:	f94643e2 	ldr	x2, [sp, #3200]
    2d2c:	91010100 	add	x0, x8, #0x40
    2d30:	913ec3e1 	add	x1, sp, #0xfb0
    2d34:	94000000 	bl	0 <_memcpy>
    2d38:	f9463be8 	ldr	x8, [sp, #3184]
    2d3c:	f94643e2 	ldr	x2, [sp, #3200]
    2d40:	91020100 	add	x0, x8, #0x80
    2d44:	914007e1 	add	x1, sp, #0x1, lsl #12
    2d48:	9100c021 	add	x1, x1, #0x30
    2d4c:	94000000 	bl	0 <_memcpy>
    2d50:	f9463be8 	ldr	x8, [sp, #3184]
    2d54:	f9463fe1 	ldr	x1, [sp, #3192]
    2d58:	f94643e2 	ldr	x2, [sp, #3200]
    2d5c:	91030100 	add	x0, x8, #0xc0
    2d60:	94000000 	bl	0 <_memcpy>
    2d64:	52800000 	mov	w0, #0x0                   	// #0
    2d68:	528000c1 	mov	w1, #0x6                   	// #6
    2d6c:	94000000 	bl	0 <_<I as core::iter::traits::collect::IntoIterator>::into_iter>
    2d70:	b91103e0 	str	w0, [sp, #4352]
    2d74:	b91107e1 	str	w1, [sp, #4356]
    2d78:	14000001 	b	2d7c <_<rand_chacha::chacha::ChaCha12Core as rand_core::block::BlockRngCore>::generate+0xa3c>
    2d7c:	914007e0 	add	x0, sp, #0x1, lsl #12
    2d80:	91040000 	add	x0, x0, #0x100
    2d84:	94000000 	bl	0 <_core::iter::range::<impl core::iter::traits::iterator::Iterator for core::ops::range::Range<A>>::next>
    2d88:	b9110be0 	str	w0, [sp, #4360]
    2d8c:	b9110fe1 	str	w1, [sp, #4364]
    2d90:	b9510be8 	ldr	w8, [sp, #4360]
    2d94:	b403ee68 	cbz	x8, ab60 <_<rand_chacha::chacha::ChaCha12Core as rand_core::block::BlockRngCore>::generate+0x8820>
    2d98:	14000001 	b	2d9c <_<rand_chacha::chacha::ChaCha12Core as rand_core::block::BlockRngCore>::generate+0xa5c>
    2d9c:	9138c3e1 	add	x1, sp, #0xe30
    2da0:	914007e0 	add	x0, sp, #0x1, lsl #12
    2da4:	91084000 	add	x0, x0, #0x210
    2da8:	f90627e0 	str	x0, [sp, #3144]
    2dac:	52802008 	mov	w8, #0x100                 	// #256
    2db0:	aa0803e2 	mov	x2, x8
    2db4:	94000000 	bl	0 <_memcpy>
    2db8:	f94627e8 	ldr	x8, [sp, #3144]
    2dbc:	91010101 	add	x1, x8, #0x40
    2dc0:	91400be0 	add	x0, sp, #0x2, lsl #12
    2dc4:	913d8000 	add	x0, x0, #0xf60
    2dc8:	52800808 	mov	w8, #0x40                  	// #64
    2dcc:	aa0803e2 	mov	x2, x8
    2dd0:	f9062be2 	str	x2, [sp, #3152]
    2dd4:	94000000 	bl	0 <_memcpy>
    2dd8:	f94687e8 	ldr	x8, [sp, #3336]
    2ddc:	f946abe9 	ldr	x9, [sp, #3408]
    2de0:	f94627ea 	ldr	x10, [sp, #3144]
    2de4:	f946b7eb 	ldr	x11, [sp, #3432]
    2de8:	aa0a03ec 	mov	x12, x10
    2dec:	f93b9fec 	str	x12, [sp, #30520]
    2df0:	3dc31160 	ldr	q0, [x11, #3136]
    2df4:	3d840900 	str	q0, [x8, #4128]
    2df8:	f93dbfea 	str	x10, [sp, #31608]
    2dfc:	3dc10520 	ldr	q0, [x9, #1040]
    2e00:	3d853500 	str	q0, [x8, #5328]
    2e04:	3dc40900 	ldr	q0, [x8, #4128]
    2e08:	3d853100 	str	q0, [x8, #5312]
    2e0c:	3dc53500 	ldr	q0, [x8, #5328]
    2e10:	91401fe0 	add	x0, sp, #0x7, lsl #12
    2e14:	912e0000 	add	x0, x0, #0xb80
    2e18:	3d852d00 	str	q0, [x8, #5296]
    2e1c:	3dc53100 	ldr	q0, [x8, #5312]
    2e20:	91401fe1 	add	x1, sp, #0x7, lsl #12
    2e24:	912ec021 	add	x1, x1, #0xbb0
    2e28:	3d853900 	str	q0, [x8, #5344]
    2e2c:	91401fe8 	add	x8, sp, #0x7, lsl #12
    2e30:	912da108 	add	x8, x8, #0xb68
    2e34:	94000000 	bl	0 <_ppv_lite86::generic::dmap2>
    2e38:	f94687e8 	ldr	x8, [sp, #3336]
    2e3c:	f946abe9 	ldr	x9, [sp, #3408]
    2e40:	f94627ea 	ldr	x10, [sp, #3144]
    2e44:	f946b7eb 	ldr	x11, [sp, #3432]
    2e48:	91401fec 	add	x12, sp, #0x7, lsl #12
    2e4c:	9129a58c 	add	x12, x12, #0xa69
    2e50:	3ccff180 	ldur	q0, [x12, #255]
    2e54:	3d810520 	str	q0, [x9, #1040]
    2e58:	9100414a 	add	x10, x10, #0x10
    2e5c:	3dc31560 	ldr	q0, [x11, #3152]
    2e60:	3d840d00 	str	q0, [x8, #4144]
    2e64:	f93d8fea 	str	x10, [sp, #31512]
    2e68:	3dc10920 	ldr	q0, [x9, #1056]
    2e6c:	3d851d00 	str	q0, [x8, #5232]
    2e70:	3dc40d00 	ldr	q0, [x8, #4144]
    2e74:	3d851900 	str	q0, [x8, #5216]
    2e78:	3dc51d00 	ldr	q0, [x8, #5232]
    2e7c:	91401fe0 	add	x0, sp, #0x7, lsl #12
    2e80:	912c8000 	add	x0, x0, #0xb20
    2e84:	3d851500 	str	q0, [x8, #5200]
    2e88:	3dc51900 	ldr	q0, [x8, #5216]
    2e8c:	91401fe1 	add	x1, sp, #0x7, lsl #12
    2e90:	912d4021 	add	x1, x1, #0xb50
    2e94:	3d852100 	str	q0, [x8, #5248]
    2e98:	91401fe8 	add	x8, sp, #0x7, lsl #12
    2e9c:	912c2108 	add	x8, x8, #0xb08
    2ea0:	94000000 	bl	0 <_ppv_lite86::generic::dmap2>
    2ea4:	f94687e8 	ldr	x8, [sp, #3336]
    2ea8:	f946abe9 	ldr	x9, [sp, #3408]
    2eac:	f94627ea 	ldr	x10, [sp, #3144]
    2eb0:	f946b7eb 	ldr	x11, [sp, #3432]
    2eb4:	91401fec 	add	x12, sp, #0x7, lsl #12
    2eb8:	9128258c 	add	x12, x12, #0xa09
    2ebc:	3ccff180 	ldur	q0, [x12, #255]
    2ec0:	3d810920 	str	q0, [x9, #1056]
    2ec4:	9100814a 	add	x10, x10, #0x20
    2ec8:	3dc31960 	ldr	q0, [x11, #3168]
    2ecc:	3d841100 	str	q0, [x8, #4160]
    2ed0:	f93d5fea 	str	x10, [sp, #31416]
    2ed4:	3dc10d20 	ldr	q0, [x9, #1072]
    2ed8:	3d850500 	str	q0, [x8, #5136]
    2edc:	3dc41100 	ldr	q0, [x8, #4160]
    2ee0:	3d850100 	str	q0, [x8, #5120]
    2ee4:	3dc50500 	ldr	q0, [x8, #5136]
    2ee8:	91401fe0 	add	x0, sp, #0x7, lsl #12
    2eec:	912b0000 	add	x0, x0, #0xac0
    2ef0:	3d84fd00 	str	q0, [x8, #5104]
    2ef4:	3dc50100 	ldr	q0, [x8, #5120]
    2ef8:	91401fe1 	add	x1, sp, #0x7, lsl #12
    2efc:	912bc021 	add	x1, x1, #0xaf0
    2f00:	3d850900 	str	q0, [x8, #5152]
    2f04:	91401fe8 	add	x8, sp, #0x7, lsl #12
    2f08:	912aa108 	add	x8, x8, #0xaa8
    2f0c:	94000000 	bl	0 <_ppv_lite86::generic::dmap2>
    2f10:	f94687e8 	ldr	x8, [sp, #3336]
    2f14:	f946abe9 	ldr	x9, [sp, #3408]
    2f18:	f94627ea 	ldr	x10, [sp, #3144]
    2f1c:	f946b7eb 	ldr	x11, [sp, #3432]
    2f20:	91401fec 	add	x12, sp, #0x7, lsl #12
    2f24:	9126a58c 	add	x12, x12, #0x9a9
    2f28:	3ccff180 	ldur	q0, [x12, #255]
    2f2c:	3d810d20 	str	q0, [x9, #1072]
    2f30:	9100c14a 	add	x10, x10, #0x30
    2f34:	3dc31d60 	ldr	q0, [x11, #3184]
    2f38:	3d841500 	str	q0, [x8, #4176]
    2f3c:	f93d2fea 	str	x10, [sp, #31320]
    2f40:	3dc11120 	ldr	q0, [x9, #1088]
    2f44:	3d84ed00 	str	q0, [x8, #5040]
    2f48:	3dc41500 	ldr	q0, [x8, #4176]
    2f4c:	3d84e900 	str	q0, [x8, #5024]
    2f50:	3dc4ed00 	ldr	q0, [x8, #5040]
    2f54:	91401fe0 	add	x0, sp, #0x7, lsl #12
    2f58:	91298000 	add	x0, x0, #0xa60
    2f5c:	3d84e500 	str	q0, [x8, #5008]
    2f60:	3dc4e900 	ldr	q0, [x8, #5024]
    2f64:	91401fe1 	add	x1, sp, #0x7, lsl #12
    2f68:	912a4021 	add	x1, x1, #0xa90
    2f6c:	3d84f100 	str	q0, [x8, #5056]
    2f70:	91401fe8 	add	x8, sp, #0x7, lsl #12
    2f74:	91292108 	add	x8, x8, #0xa48
    2f78:	94000000 	bl	0 <_ppv_lite86::generic::dmap2>
    2f7c:	f946abe9 	ldr	x9, [sp, #3408]
    2f80:	f94627e8 	ldr	x8, [sp, #3144]
    2f84:	f9462be2 	ldr	x2, [sp, #3152]
    2f88:	91401fea 	add	x10, sp, #0x7, lsl #12
    2f8c:	9125254a 	add	x10, x10, #0x949
    2f90:	3ccff140 	ldur	q0, [x10, #255]
    2f94:	3d811120 	str	q0, [x9, #1088]
    2f98:	91030101 	add	x1, x8, #0xc0
    2f9c:	91400fe0 	add	x0, sp, #0x3, lsl #12
    2fa0:	91008000 	add	x0, x0, #0x20
    2fa4:	94000000 	bl	0 <_memcpy>
    2fa8:	f94627e1 	ldr	x1, [sp, #3144]
    2fac:	f9462be2 	ldr	x2, [sp, #3152]
    2fb0:	91400fe0 	add	x0, sp, #0x3, lsl #12
    2fb4:	91018000 	add	x0, x0, #0x60
    2fb8:	94000000 	bl	0 <_memcpy>
    2fbc:	f946b7e8 	ldr	x8, [sp, #3432]
    2fc0:	f946bbe9 	ldr	x9, [sp, #3440]
    2fc4:	3dc34100 	ldr	q0, [x8, #3328]
    2fc8:	3d82cd20 	str	q0, [x9, #2864]
    2fcc:	3dc35100 	ldr	q0, [x8, #3392]
    2fd0:	3d82c920 	str	q0, [x9, #2848]
    2fd4:	3dc2cd20 	ldr	q0, [x9, #2864]
    2fd8:	914013e0 	add	x0, sp, #0x4, lsl #12
    2fdc:	913ac000 	add	x0, x0, #0xeb0
    2fe0:	3d82c520 	str	q0, [x9, #2832]
    2fe4:	3dc2c920 	ldr	q0, [x9, #2848]
    2fe8:	3d82d120 	str	q0, [x9, #2880]
    2fec:	392f7d3f 	strb	wzr, [x9, #3039]
    2ff0:	52800028 	mov	w8, #0x1                   	// #1
    2ff4:	392f7d28 	strb	w8, [x9, #3039]
    2ff8:	914013e8 	add	x8, sp, #0x4, lsl #12
    2ffc:	913c0108 	add	x8, x8, #0xf00
    3000:	90000001 	adrp	x1, d408 <l_alloc_d6cd646a032ab5661bff8aa78f551e65>
    3004:	91000021 	add	x1, x1, #0x0
    3008:	94000000 	bl	0 <_<T as core::convert::Into<U>>::into>
    300c:	14000008 	b	302c <_<rand_chacha::chacha::ChaCha12Core as rand_core::block::BlockRngCore>::generate+0xcec>
    3010:	f946bbe8 	ldr	x8, [sp, #3440]
    3014:	f927c3e0 	str	x0, [sp, #20352]
    3018:	aa0103e9 	mov	x9, x1
    301c:	b90be909 	str	w9, [x8, #3048]
    3020:	396f7d08 	ldrb	w8, [x8, #3039]
    3024:	37000648 	tbnz	w8, #0, 30ec <_<rand_chacha::chacha::ChaCha12Core as rand_core::block::BlockRngCore>::generate+0xdac>
    3028:	1400002e 	b	30e0 <_<rand_chacha::chacha::ChaCha12Core as rand_core::block::BlockRngCore>::generate+0xda0>
    302c:	f946bbe8 	ldr	x8, [sp, #3440]
    3030:	392f7d1f 	strb	wzr, [x8, #3039]
    3034:	3dc2d100 	ldr	q0, [x8, #2880]
    3038:	914013e0 	add	x0, sp, #0x4, lsl #12
    303c:	913c8000 	add	x0, x0, #0xf20
    3040:	3d82e100 	str	q0, [x8, #2944]
    3044:	914013e8 	add	x8, sp, #0x4, lsl #12
    3048:	913c4108 	add	x8, x8, #0xf10
    304c:	90000001 	adrp	x1, d420 <l_alloc_eb8937521ab56b1815db886b021bd11a>
    3050:	91000021 	add	x1, x1, #0x0
    3054:	94000000 	bl	0 <_<T as core::convert::Into<U>>::into>
    3058:	14000001 	b	305c <_<rand_chacha::chacha::ChaCha12Core as rand_core::block::BlockRngCore>::generate+0xd1c>
    305c:	f946bbe8 	ldr	x8, [sp, #3440]
    3060:	3dc2d900 	ldr	q0, [x8, #2912]
    3064:	3d82e500 	str	q0, [x8, #2960]
    3068:	f9679beb 	ldr	x11, [sp, #20272]
    306c:	d2800009 	mov	x9, #0x0                   	// #0
    3070:	f927f7eb 	str	x11, [sp, #20456]
    3074:	f9679fea 	ldr	x10, [sp, #20280]
    3078:	f927f3ea 	str	x10, [sp, #20448]
    307c:	aa090161 	orr	x1, x11, x9
    3080:	aa0a0122 	orr	x2, x9, x10
    3084:	4e081c20 	mov	v0.d[0], x1
    3088:	4e181c40 	mov	v0.d[1], x2
    308c:	3d82fd00 	str	q0, [x8, #3056]
    3090:	3dc2dd00 	ldr	q0, [x8, #2928]
    3094:	3d82e900 	str	q0, [x8, #2976]
    3098:	f967a3eb 	ldr	x11, [sp, #20288]
    309c:	f927ffeb 	str	x11, [sp, #20472]
    30a0:	f967a7ea 	ldr	x10, [sp, #20296]
    30a4:	f927fbea 	str	x10, [sp, #20464]
    30a8:	aa090163 	orr	x3, x11, x9
    30ac:	aa0a0124 	orr	x4, x9, x10
    30b0:	4e081c60 	mov	v0.d[0], x3
    30b4:	4e181c80 	mov	v0.d[1], x4
    30b8:	3d830100 	str	q0, [x8, #3072]
    30bc:	914013e0 	add	x0, sp, #0x4, lsl #12
    30c0:	913bfc00 	add	x0, x0, #0xeff
    30c4:	94000000 	bl	0 <_<ppv_lite86::generic::u32x4_generic as core::ops::bit::BitXor>::bitxor::{{closure}}>
    30c8:	f90613e0 	str	x0, [sp, #3104]
    30cc:	f90617e1 	str	x1, [sp, #3112]
    30d0:	4e081c00 	mov	v0.d[0], x0
    30d4:	4e181c20 	mov	v0.d[1], x1
    30d8:	3d830fe0 	str	q0, [sp, #3120]
    30dc:	14000005 	b	30f0 <_<rand_chacha::chacha::ChaCha12Core as rand_core::block::BlockRngCore>::generate+0xdb0>
    30e0:	f967c3e8 	ldr	x8, [sp, #20352]
    30e4:	f90677e8 	str	x8, [sp, #3304]
    30e8:	1400242f 	b	c1a4 <_<rand_chacha::chacha::ChaCha12Core as rand_core::block::BlockRngCore>::generate+0x9e64>
    30ec:	17fffffd 	b	30e0 <_<rand_chacha::chacha::ChaCha12Core as rand_core::block::BlockRngCore>::generate+0xda0>
    30f0:	f946bbe9 	ldr	x9, [sp, #3440]
    30f4:	f946b7e8 	ldr	x8, [sp, #3432]
    30f8:	f94617ea 	ldr	x10, [sp, #3112]
    30fc:	f94613eb 	ldr	x11, [sp, #3104]
    3100:	3dc30fe0 	ldr	q0, [sp, #3120]
    3104:	3d830920 	str	q0, [x9, #3104]
    3108:	f927b7eb 	str	x11, [sp, #20328]
    310c:	f927bbea 	str	x10, [sp, #20336]
    3110:	914013ea 	add	x10, sp, #0x4, lsl #12
    3114:	9139a54a 	add	x10, x10, #0xe69
    3118:	3ccff140 	ldur	q0, [x10, #255]
    311c:	3d82ed20 	str	q0, [x9, #2992]
    3120:	3dc2ed20 	ldr	q0, [x9, #2992]
    3124:	3d830520 	str	q0, [x9, #3088]
    3128:	3dc30520 	ldr	q0, [x9, #3088]
    312c:	3d830d20 	str	q0, [x9, #3120]
    3130:	3dc30d20 	ldr	q0, [x9, #3120]
    3134:	3d869500 	str	q0, [x8, #6736]
    3138:	3dc34500 	ldr	q0, [x8, #3344]
    313c:	3d827920 	str	q0, [x9, #2528]
    3140:	3dc35500 	ldr	q0, [x8, #3408]
    3144:	3d827520 	str	q0, [x9, #2512]
    3148:	3dc27920 	ldr	q0, [x9, #2528]
    314c:	914013e0 	add	x0, sp, #0x4, lsl #12
    3150:	91358000 	add	x0, x0, #0xd60
    3154:	3d827120 	str	q0, [x9, #2496]
    3158:	3dc27520 	ldr	q0, [x9, #2512]
    315c:	3d827d20 	str	q0, [x9, #2544]
    3160:	392a3d3f 	strb	wzr, [x9, #2703]
    3164:	52800028 	mov	w8, #0x1                   	// #1
    3168:	392a3d28 	strb	w8, [x9, #2703]
    316c:	914013e8 	add	x8, sp, #0x4, lsl #12
    3170:	9136c108 	add	x8, x8, #0xdb0
    3174:	90000001 	adrp	x1, d408 <l_alloc_d6cd646a032ab5661bff8aa78f551e65>
    3178:	91000021 	add	x1, x1, #0x0
    317c:	94000000 	bl	0 <_<T as core::convert::Into<U>>::into>
    3180:	14000008 	b	31a0 <_<rand_chacha::chacha::ChaCha12Core as rand_core::block::BlockRngCore>::generate+0xe60>
    3184:	f946bbe8 	ldr	x8, [sp, #3440]
    3188:	f9271be0 	str	x0, [sp, #20016]
    318c:	aa0103e9 	mov	x9, x1
    3190:	b90a9909 	str	w9, [x8, #2712]
    3194:	396a3d08 	ldrb	w8, [x8, #2703]
    3198:	370006a8 	tbnz	w8, #0, 326c <_<rand_chacha::chacha::ChaCha12Core as rand_core::block::BlockRngCore>::generate+0xf2c>
    319c:	1400002e 	b	3254 <_<rand_chacha::chacha::ChaCha12Core as rand_core::block::BlockRngCore>::generate+0xf14>
    31a0:	f946bbe8 	ldr	x8, [sp, #3440]
    31a4:	392a3d1f 	strb	wzr, [x8, #2703]
    31a8:	3dc27d00 	ldr	q0, [x8, #2544]
    31ac:	914013e0 	add	x0, sp, #0x4, lsl #12
    31b0:	91374000 	add	x0, x0, #0xdd0
    31b4:	3d828d00 	str	q0, [x8, #2608]
    31b8:	914013e8 	add	x8, sp, #0x4, lsl #12
    31bc:	91370108 	add	x8, x8, #0xdc0
    31c0:	90000001 	adrp	x1, d420 <l_alloc_eb8937521ab56b1815db886b021bd11a>
    31c4:	91000021 	add	x1, x1, #0x0
    31c8:	94000000 	bl	0 <_<T as core::convert::Into<U>>::into>
    31cc:	14000001 	b	31d0 <_<rand_chacha::chacha::ChaCha12Core as rand_core::block::BlockRngCore>::generate+0xe90>
    31d0:	f946bbe8 	ldr	x8, [sp, #3440]
    31d4:	3dc28500 	ldr	q0, [x8, #2576]
    31d8:	3d829100 	str	q0, [x8, #2624]
    31dc:	f966f3eb 	ldr	x11, [sp, #19936]
    31e0:	d2800009 	mov	x9, #0x0                   	// #0
    31e4:	f9274feb 	str	x11, [sp, #20120]
    31e8:	f966f7ea 	ldr	x10, [sp, #19944]
    31ec:	f9274bea 	str	x10, [sp, #20112]
    31f0:	aa090161 	orr	x1, x11, x9
    31f4:	aa0a0122 	orr	x2, x9, x10
    31f8:	4e081c20 	mov	v0.d[0], x1
    31fc:	4e181c40 	mov	v0.d[1], x2
    3200:	3d82a900 	str	q0, [x8, #2720]
    3204:	3dc28900 	ldr	q0, [x8, #2592]
    3208:	3d829500 	str	q0, [x8, #2640]
    320c:	f966fbeb 	ldr	x11, [sp, #19952]
    3210:	f92757eb 	str	x11, [sp, #20136]
    3214:	f966ffea 	ldr	x10, [sp, #19960]
    3218:	f92753ea 	str	x10, [sp, #20128]
    321c:	aa090163 	orr	x3, x11, x9
    3220:	aa0a0124 	orr	x4, x9, x10
    3224:	4e081c60 	mov	v0.d[0], x3
    3228:	4e181c80 	mov	v0.d[1], x4
    322c:	3d82ad00 	str	q0, [x8, #2736]
    3230:	914013e0 	add	x0, sp, #0x4, lsl #12
    3234:	9136bc00 	add	x0, x0, #0xdaf
    3238:	94000000 	bl	0 <_<ppv_lite86::generic::u32x4_generic as core::ops::bit::BitXor>::bitxor::{{closure}}>
    323c:	f90603e0 	str	x0, [sp, #3072]
    3240:	f90607e1 	str	x1, [sp, #3080]
    3244:	4e081c00 	mov	v0.d[0], x0
    3248:	4e181c20 	mov	v0.d[1], x1
    324c:	3d8307e0 	str	q0, [sp, #3088]
    3250:	14000008 	b	3270 <_<rand_chacha::chacha::ChaCha12Core as rand_core::block::BlockRngCore>::generate+0xf30>
    3254:	f946bbe8 	ldr	x8, [sp, #3440]
    3258:	f9671be9 	ldr	x9, [sp, #20016]
    325c:	f905fbe9 	str	x9, [sp, #3056]
    3260:	b94a9908 	ldr	w8, [x8, #2712]
    3264:	b90bffe8 	str	w8, [sp, #3068]
    3268:	14000018 	b	32c8 <_<rand_chacha::chacha::ChaCha12Core as rand_core::block::BlockRngCore>::generate+0xf88>
    326c:	17fffffa 	b	3254 <_<rand_chacha::chacha::ChaCha12Core as rand_core::block::BlockRngCore>::generate+0xf14>
    3270:	f946b7e8 	ldr	x8, [sp, #3432]
    3274:	f946bbe9 	ldr	x9, [sp, #3440]
    3278:	f94607ea 	ldr	x10, [sp, #3080]
    327c:	f94603eb 	ldr	x11, [sp, #3072]
    3280:	3dc307e0 	ldr	q0, [sp, #3088]
    3284:	3d82b520 	str	q0, [x9, #2768]
    3288:	f9270feb 	str	x11, [sp, #19992]
    328c:	f92713ea 	str	x10, [sp, #20000]
    3290:	914013ea 	add	x10, sp, #0x4, lsl #12
    3294:	9134654a 	add	x10, x10, #0xd19
    3298:	3ccff140 	ldur	q0, [x10, #255]
    329c:	3d829920 	str	q0, [x9, #2656]
    32a0:	3dc29920 	ldr	q0, [x9, #2656]
    32a4:	3d82b120 	str	q0, [x9, #2752]
    32a8:	3dc2b120 	ldr	q0, [x9, #2752]
    32ac:	3d82b920 	str	q0, [x9, #2784]
    32b0:	3dc2b920 	ldr	q0, [x9, #2784]
    32b4:	3d869900 	str	q0, [x8, #6752]
    32b8:	14000009 	b	32dc <_<rand_chacha::chacha::ChaCha12Core as rand_core::block::BlockRngCore>::generate+0xf9c>
    32bc:	f95edbe8 	ldr	x8, [sp, #15792]
    32c0:	f90677e8 	str	x8, [sp, #3304]
    32c4:	140023b8 	b	c1a4 <_<rand_chacha::chacha::ChaCha12Core as rand_core::block::BlockRngCore>::generate+0x9e64>
    32c8:	b94bffe8 	ldr	w8, [sp, #3068]
    32cc:	f945fbe9 	ldr	x9, [sp, #3056]
    32d0:	f91edbe9 	str	x9, [sp, #15792]
    32d4:	b93dbbe8 	str	w8, [sp, #15800]
    32d8:	17fffff9 	b	32bc <_<rand_chacha::chacha::ChaCha12Core as rand_core::block::BlockRngCore>::generate+0xf7c>
    32dc:	f946bbe9 	ldr	x9, [sp, #3440]
    32e0:	f946b7e8 	ldr	x8, [sp, #3432]
    32e4:	3dc34900 	ldr	q0, [x8, #3360]
    32e8:	3d822520 	str	q0, [x9, #2192]
    32ec:	3dc35900 	ldr	q0, [x8, #3424]
    32f0:	3d822120 	str	q0, [x9, #2176]
    32f4:	3dc22520 	ldr	q0, [x9, #2192]
    32f8:	914013e0 	add	x0, sp, #0x4, lsl #12
    32fc:	91304000 	add	x0, x0, #0xc10
    3300:	3d821d20 	str	q0, [x9, #2160]
    3304:	3dc22120 	ldr	q0, [x9, #2176]
    3308:	3d822920 	str	q0, [x9, #2208]
    330c:	3924fd3f 	strb	wzr, [x9, #2367]
    3310:	52800028 	mov	w8, #0x1                   	// #1
    3314:	3924fd28 	strb	w8, [x9, #2367]
    3318:	914013e8 	add	x8, sp, #0x4, lsl #12
    331c:	91318108 	add	x8, x8, #0xc60
    3320:	90000001 	adrp	x1, d408 <l_alloc_d6cd646a032ab5661bff8aa78f551e65>
    3324:	91000021 	add	x1, x1, #0x0
    3328:	94000000 	bl	0 <_<T as core::convert::Into<U>>::into>
    332c:	14000009 	b	3350 <_<rand_chacha::chacha::ChaCha12Core as rand_core::block::BlockRngCore>::generate+0x1010>
    3330:	f946bbe8 	ldr	x8, [sp, #3440]
    3334:	f92673e0 	str	x0, [sp, #19680]
    3338:	aa0103e9 	mov	x9, x1
    333c:	9133b3ea 	add	x10, sp, #0xcec
    3340:	b93ffd49 	str	w9, [x10, #16380]
    3344:	3964fd08 	ldrb	w8, [x8, #2367]
    3348:	370006a8 	tbnz	w8, #0, 341c <_<rand_chacha::chacha::ChaCha12Core as rand_core::block::BlockRngCore>::generate+0x10dc>
    334c:	1400002e 	b	3404 <_<rand_chacha::chacha::ChaCha12Core as rand_core::block::BlockRngCore>::generate+0x10c4>
    3350:	f946bbe8 	ldr	x8, [sp, #3440]
    3354:	3924fd1f 	strb	wzr, [x8, #2367]
    3358:	3dc22900 	ldr	q0, [x8, #2208]
    335c:	914013e0 	add	x0, sp, #0x4, lsl #12
    3360:	91320000 	add	x0, x0, #0xc80
    3364:	3d823900 	str	q0, [x8, #2272]
    3368:	914013e8 	add	x8, sp, #0x4, lsl #12
    336c:	9131c108 	add	x8, x8, #0xc70
    3370:	90000001 	adrp	x1, d420 <l_alloc_eb8937521ab56b1815db886b021bd11a>
    3374:	91000021 	add	x1, x1, #0x0
    3378:	94000000 	bl	0 <_<T as core::convert::Into<U>>::into>
    337c:	14000001 	b	3380 <_<rand_chacha::chacha::ChaCha12Core as rand_core::block::BlockRngCore>::generate+0x1040>
    3380:	f946bbe8 	ldr	x8, [sp, #3440]
    3384:	3dc23100 	ldr	q0, [x8, #2240]
    3388:	3d823d00 	str	q0, [x8, #2288]
    338c:	f9664beb 	ldr	x11, [sp, #19600]
    3390:	d2800009 	mov	x9, #0x0                   	// #0
    3394:	f926a7eb 	str	x11, [sp, #19784]
    3398:	f9664fea 	ldr	x10, [sp, #19608]
    339c:	f926a3ea 	str	x10, [sp, #19776]
    33a0:	aa090161 	orr	x1, x11, x9
    33a4:	aa0a0122 	orr	x2, x9, x10
    33a8:	4e081c20 	mov	v0.d[0], x1
    33ac:	4e181c40 	mov	v0.d[1], x2
    33b0:	3d825500 	str	q0, [x8, #2384]
    33b4:	3dc23500 	ldr	q0, [x8, #2256]
    33b8:	3d824100 	str	q0, [x8, #2304]
    33bc:	f96653eb 	ldr	x11, [sp, #19616]
    33c0:	f926afeb 	str	x11, [sp, #19800]
    33c4:	f96657ea 	ldr	x10, [sp, #19624]
    33c8:	f926abea 	str	x10, [sp, #19792]
    33cc:	aa090163 	orr	x3, x11, x9
    33d0:	aa0a0124 	orr	x4, x9, x10
    33d4:	4e081c60 	mov	v0.d[0], x3
    33d8:	4e181c80 	mov	v0.d[1], x4
    33dc:	3d825900 	str	q0, [x8, #2400]
    33e0:	914013e0 	add	x0, sp, #0x4, lsl #12
    33e4:	91317c00 	add	x0, x0, #0xc5f
    33e8:	94000000 	bl	0 <_<ppv_lite86::generic::u32x4_generic as core::ops::bit::BitXor>::bitxor::{{closure}}>
    33ec:	f905ebe0 	str	x0, [sp, #3024]
    33f0:	f905efe1 	str	x1, [sp, #3032]
    33f4:	4e081c00 	mov	v0.d[0], x0
    33f8:	4e181c20 	mov	v0.d[1], x1
    33fc:	3d82fbe0 	str	q0, [sp, #3040]
    3400:	14000008 	b	3420 <_<rand_chacha::chacha::ChaCha12Core as rand_core::block::BlockRngCore>::generate+0x10e0>
    3404:	f96673e8 	ldr	x8, [sp, #19680]
    3408:	f905e3e8 	str	x8, [sp, #3008]
    340c:	9133b3e8 	add	x8, sp, #0xcec
    3410:	b97ffd08 	ldr	w8, [x8, #16380]
    3414:	b90bcfe8 	str	w8, [sp, #3020]
    3418:	14000016 	b	3470 <_<rand_chacha::chacha::ChaCha12Core as rand_core::block::BlockRngCore>::generate+0x1130>
    341c:	17fffffa 	b	3404 <_<rand_chacha::chacha::ChaCha12Core as rand_core::block::BlockRngCore>::generate+0x10c4>
    3420:	f946b7e8 	ldr	x8, [sp, #3432]
    3424:	f946bbe9 	ldr	x9, [sp, #3440]
    3428:	f945efea 	ldr	x10, [sp, #3032]
    342c:	f945ebeb 	ldr	x11, [sp, #3024]
    3430:	3dc2fbe0 	ldr	q0, [sp, #3040]
    3434:	3d826120 	str	q0, [x9, #2432]
    3438:	f92667eb 	str	x11, [sp, #19656]
    343c:	f9266bea 	str	x10, [sp, #19664]
    3440:	914013ea 	add	x10, sp, #0x4, lsl #12
    3444:	912f254a 	add	x10, x10, #0xbc9
    3448:	3ccff140 	ldur	q0, [x10, #255]
    344c:	3d824520 	str	q0, [x9, #2320]
    3450:	3dc24520 	ldr	q0, [x9, #2320]
    3454:	3d825d20 	str	q0, [x9, #2416]
    3458:	3dc25d20 	ldr	q0, [x9, #2416]
    345c:	3d826520 	str	q0, [x9, #2448]
    3460:	3dc26520 	ldr	q0, [x9, #2448]
    3464:	3d869d00 	str	q0, [x8, #6768]
    3468:	14000007 	b	3484 <_<rand_chacha::chacha::ChaCha12Core as rand_core::block::BlockRngCore>::generate+0x1144>
    346c:	17ffff94 	b	32bc <_<rand_chacha::chacha::ChaCha12Core as rand_core::block::BlockRngCore>::generate+0xf7c>
    3470:	b94bcfe8 	ldr	w8, [sp, #3020]
    3474:	f945e3e9 	ldr	x9, [sp, #3008]
    3478:	f91edbe9 	str	x9, [sp, #15792]
    347c:	b93dbbe8 	str	w8, [sp, #15800]
    3480:	17fffffb 	b	346c <_<rand_chacha::chacha::ChaCha12Core as rand_core::block::BlockRngCore>::generate+0x112c>
    3484:	f946bbe9 	ldr	x9, [sp, #3440]
    3488:	f946b7e8 	ldr	x8, [sp, #3432]
    348c:	3dc34d00 	ldr	q0, [x8, #3376]
    3490:	3d81d120 	str	q0, [x9, #1856]
    3494:	3dc35d00 	ldr	q0, [x8, #3440]
    3498:	3d81cd20 	str	q0, [x9, #1840]
    349c:	3dc1d120 	ldr	q0, [x9, #1856]
    34a0:	914013e0 	add	x0, sp, #0x4, lsl #12
    34a4:	912b0000 	add	x0, x0, #0xac0
    34a8:	3d81c920 	str	q0, [x9, #1824]
    34ac:	3dc1cd20 	ldr	q0, [x9, #1840]
    34b0:	3d81d520 	str	q0, [x9, #1872]
    34b4:	391fbd3f 	strb	wzr, [x9, #2031]
    34b8:	52800028 	mov	w8, #0x1                   	// #1
    34bc:	391fbd28 	strb	w8, [x9, #2031]
    34c0:	914013e8 	add	x8, sp, #0x4, lsl #12
    34c4:	912c4108 	add	x8, x8, #0xb10
    34c8:	90000001 	adrp	x1, d408 <l_alloc_d6cd646a032ab5661bff8aa78f551e65>
    34cc:	91000021 	add	x1, x1, #0x0
    34d0:	94000000 	bl	0 <_<T as core::convert::Into<U>>::into>
    34d4:	14000009 	b	34f8 <_<rand_chacha::chacha::ChaCha12Core as rand_core::block::BlockRngCore>::generate+0x11b8>
    34d8:	f946bbe8 	ldr	x8, [sp, #3440]
    34dc:	f925cbe0 	str	x0, [sp, #19344]
    34e0:	aa0103e9 	mov	x9, x1
    34e4:	912e73ea 	add	x10, sp, #0xb9c
    34e8:	b93ffd49 	str	w9, [x10, #16380]
    34ec:	395fbd08 	ldrb	w8, [x8, #2031]
    34f0:	370006a8 	tbnz	w8, #0, 35c4 <_<rand_chacha::chacha::ChaCha12Core as rand_core::block::BlockRngCore>::generate+0x1284>
    34f4:	1400002e 	b	35ac <_<rand_chacha::chacha::ChaCha12Core as rand_core::block::BlockRngCore>::generate+0x126c>
    34f8:	f946bbe8 	ldr	x8, [sp, #3440]
    34fc:	391fbd1f 	strb	wzr, [x8, #2031]
    3500:	3dc1d500 	ldr	q0, [x8, #1872]
    3504:	914013e0 	add	x0, sp, #0x4, lsl #12
    3508:	912cc000 	add	x0, x0, #0xb30
    350c:	3d81e500 	str	q0, [x8, #1936]
    3510:	914013e8 	add	x8, sp, #0x4, lsl #12
    3514:	912c8108 	add	x8, x8, #0xb20
    3518:	90000001 	adrp	x1, d420 <l_alloc_eb8937521ab56b1815db886b021bd11a>
    351c:	91000021 	add	x1, x1, #0x0
    3520:	94000000 	bl	0 <_<T as core::convert::Into<U>>::into>
    3524:	14000001 	b	3528 <_<rand_chacha::chacha::ChaCha12Core as rand_core::block::BlockRngCore>::generate+0x11e8>
    3528:	f946bbe8 	ldr	x8, [sp, #3440]
    352c:	3dc1dd00 	ldr	q0, [x8, #1904]
    3530:	3d81e900 	str	q0, [x8, #1952]
    3534:	f965a3eb 	ldr	x11, [sp, #19264]
    3538:	d2800009 	mov	x9, #0x0                   	// #0
    353c:	f925ffeb 	str	x11, [sp, #19448]
    3540:	f965a7ea 	ldr	x10, [sp, #19272]
    3544:	f925fbea 	str	x10, [sp, #19440]
    3548:	aa090161 	orr	x1, x11, x9
    354c:	aa0a0122 	orr	x2, x9, x10
    3550:	4e081c20 	mov	v0.d[0], x1
    3554:	4e181c40 	mov	v0.d[1], x2
    3558:	3d820100 	str	q0, [x8, #2048]
    355c:	3dc1e100 	ldr	q0, [x8, #1920]
    3560:	3d81ed00 	str	q0, [x8, #1968]
    3564:	f965abeb 	ldr	x11, [sp, #19280]
    3568:	f92607eb 	str	x11, [sp, #19464]
    356c:	f965afea 	ldr	x10, [sp, #19288]
    3570:	f92603ea 	str	x10, [sp, #19456]
    3574:	aa090163 	orr	x3, x11, x9
    3578:	aa0a0124 	orr	x4, x9, x10
    357c:	4e081c60 	mov	v0.d[0], x3
    3580:	4e181c80 	mov	v0.d[1], x4
    3584:	3d820500 	str	q0, [x8, #2064]
    3588:	914013e0 	add	x0, sp, #0x4, lsl #12
    358c:	912c3c00 	add	x0, x0, #0xb0f
    3590:	94000000 	bl	0 <_<ppv_lite86::generic::u32x4_generic as core::ops::bit::BitXor>::bitxor::{{closure}}>
    3594:	f905d3e0 	str	x0, [sp, #2976]
    3598:	f905d7e1 	str	x1, [sp, #2984]
    359c:	4e081c00 	mov	v0.d[0], x0
    35a0:	4e181c20 	mov	v0.d[1], x1
    35a4:	3d82efe0 	str	q0, [sp, #2992]
    35a8:	14000008 	b	35c8 <_<rand_chacha::chacha::ChaCha12Core as rand_core::block::BlockRngCore>::generate+0x1288>
    35ac:	f965cbe8 	ldr	x8, [sp, #19344]
    35b0:	f905cbe8 	str	x8, [sp, #2960]
    35b4:	912e73e8 	add	x8, sp, #0xb9c
    35b8:	b97ffd08 	ldr	w8, [x8, #16380]
    35bc:	b90b9fe8 	str	w8, [sp, #2972]
    35c0:	14000015 	b	3614 <_<rand_chacha::chacha::ChaCha12Core as rand_core::block::BlockRngCore>::generate+0x12d4>
    35c4:	17fffffa 	b	35ac <_<rand_chacha::chacha::ChaCha12Core as rand_core::block::BlockRngCore>::generate+0x126c>
    35c8:	f946b7e8 	ldr	x8, [sp, #3432]
    35cc:	f946bbe9 	ldr	x9, [sp, #3440]
    35d0:	f945d7ea 	ldr	x10, [sp, #2984]
    35d4:	f945d3eb 	ldr	x11, [sp, #2976]
    35d8:	3dc2efe0 	ldr	q0, [sp, #2992]
    35dc:	3d820d20 	str	q0, [x9, #2096]
    35e0:	f925bfeb 	str	x11, [sp, #19320]
    35e4:	f925c3ea 	str	x10, [sp, #19328]
    35e8:	914013ea 	add	x10, sp, #0x4, lsl #12
    35ec:	9129e54a 	add	x10, x10, #0xa79
    35f0:	3ccff140 	ldur	q0, [x10, #255]
    35f4:	3d81f120 	str	q0, [x9, #1984]
    35f8:	3dc1f120 	ldr	q0, [x9, #1984]
    35fc:	3d820920 	str	q0, [x9, #2080]
    3600:	3dc20920 	ldr	q0, [x9, #2080]
    3604:	3d821120 	str	q0, [x9, #2112]
    3608:	3dc21120 	ldr	q0, [x9, #2112]
    360c:	3d86a100 	str	q0, [x8, #6784]
    3610:	14000006 	b	3628 <_<rand_chacha::chacha::ChaCha12Core as rand_core::block::BlockRngCore>::generate+0x12e8>
    3614:	b94b9fe8 	ldr	w8, [sp, #2972]
    3618:	f945cbe9 	ldr	x9, [sp, #2960]
    361c:	f91edbe9 	str	x9, [sp, #15792]
    3620:	b93dbbe8 	str	w8, [sp, #15800]
    3624:	17ffff92 	b	346c <_<rand_chacha::chacha::ChaCha12Core as rand_core::block::BlockRngCore>::generate+0x112c>
    3628:	f946b7e8 	ldr	x8, [sp, #3432]
    362c:	3dc69500 	ldr	q0, [x8, #6736]
    3630:	91400fe1 	add	x1, sp, #0x3, lsl #12
    3634:	9134c021 	add	x1, x1, #0xd30
    3638:	3d868500 	str	q0, [x8, #6672]
    363c:	3dc69900 	ldr	q0, [x8, #6752]
    3640:	3d868900 	str	q0, [x8, #6688]
    3644:	3dc69d00 	ldr	q0, [x8, #6768]
    3648:	3d868d00 	str	q0, [x8, #6704]
    364c:	3dc6a100 	ldr	q0, [x8, #6784]
    3650:	3d869100 	str	q0, [x8, #6720]
    3654:	91400be0 	add	x0, sp, #0x2, lsl #12
    3658:	913f8000 	add	x0, x0, #0xfe0
    365c:	52800808 	mov	w8, #0x40                  	// #64
    3660:	aa0803e2 	mov	x2, x8
    3664:	94000000 	bl	0 <_memcpy>
    3668:	f946b7e9 	ldr	x9, [sp, #3432]
    366c:	f94687e8 	ldr	x8, [sp, #3336]
    3670:	3dc33120 	ldr	q0, [x9, #3264]
    3674:	3d8cf900 	str	q0, [x8, #13280]
    3678:	3dccf900 	ldr	q0, [x8, #13280]
    367c:	914027e0 	add	x0, sp, #0x9, lsl #12
    3680:	912a8000 	add	x0, x0, #0xaa0
    3684:	3d8cf500 	str	q0, [x8, #13264]
    3688:	914027e8 	add	x8, sp, #0x9, lsl #12
    368c:	912b4108 	add	x8, x8, #0xad0
    3690:	90000001 	adrp	x1, d3d8 <l_alloc_345ce69d67e2022250dbe2d202815e5b>
    3694:	91000021 	add	x1, x1, #0x0
    3698:	94000000 	bl	0 <_<T as core::convert::Into<U>>::into>
    369c:	14000008 	b	36bc <_<rand_chacha::chacha::ChaCha12Core as rand_core::block::BlockRngCore>::generate+0x137c>
    36a0:	f94687e8 	ldr	x8, [sp, #3336]
    36a4:	f91a2100 	str	x0, [x8, #13376]
    36a8:	aa0103e9 	mov	x9, x1
    36ac:	b9344909 	str	w9, [x8, #13384]
    36b0:	f95a2108 	ldr	x8, [x8, #13376]
    36b4:	f90677e8 	str	x8, [sp, #3304]
    36b8:	140022bb 	b	c1a4 <_<rand_chacha::chacha::ChaCha12Core as rand_core::block::BlockRngCore>::generate+0x9e64>
    36bc:	f94687e8 	ldr	x8, [sp, #3336]
    36c0:	3dcd0100 	ldr	q0, [x8, #13312]
    36c4:	3d8d0500 	str	q0, [x8, #13328]
    36c8:	b9741101 	ldr	w1, [x8, #13328]
    36cc:	914027e0 	add	x0, sp, #0x9, lsl #12
    36d0:	912b3c00 	add	x0, x0, #0xacf
    36d4:	94000000 	bl	0 <_<ppv_lite86::generic::u32x4_generic as ppv_lite86::types::RotateEachWord32>::rotate_each_word_right16::{{closure}}>
    36d8:	b90b8fe0 	str	w0, [sp, #2956]
    36dc:	14000001 	b	36e0 <_<rand_chacha::chacha::ChaCha12Core as rand_core::block::BlockRngCore>::generate+0x13a0>
    36e0:	f94687e8 	ldr	x8, [sp, #3336]
    36e4:	b9741501 	ldr	w1, [x8, #13332]
    36e8:	914027e0 	add	x0, sp, #0x9, lsl #12
    36ec:	912b3c00 	add	x0, x0, #0xacf
    36f0:	94000000 	bl	0 <_<ppv_lite86::generic::u32x4_generic as ppv_lite86::types::RotateEachWord32>::rotate_each_word_right16::{{closure}}>
    36f4:	b90b8be0 	str	w0, [sp, #2952]
    36f8:	14000001 	b	36fc <_<rand_chacha::chacha::ChaCha12Core as rand_core::block::BlockRngCore>::generate+0x13bc>
    36fc:	f94687e8 	ldr	x8, [sp, #3336]
    3700:	b9741901 	ldr	w1, [x8, #13336]
    3704:	914027e0 	add	x0, sp, #0x9, lsl #12
    3708:	912b3c00 	add	x0, x0, #0xacf
    370c:	94000000 	bl	0 <_<ppv_lite86::generic::u32x4_generic as ppv_lite86::types::RotateEachWord32>::rotate_each_word_right16::{{closure}}>
    3710:	b90b87e0 	str	w0, [sp, #2948]
    3714:	14000001 	b	3718 <_<rand_chacha::chacha::ChaCha12Core as rand_core::block::BlockRngCore>::generate+0x13d8>
    3718:	f94687e8 	ldr	x8, [sp, #3336]
    371c:	b9741d01 	ldr	w1, [x8, #13340]
    3720:	914027e0 	add	x0, sp, #0x9, lsl #12
    3724:	912b3c00 	add	x0, x0, #0xacf
    3728:	94000000 	bl	0 <_<ppv_lite86::generic::u32x4_generic as ppv_lite86::types::RotateEachWord32>::rotate_each_word_right16::{{closure}}>
    372c:	b90b83e0 	str	w0, [sp, #2944]
    3730:	14000001 	b	3734 <_<rand_chacha::chacha::ChaCha12Core as rand_core::block::BlockRngCore>::generate+0x13f4>
    3734:	f94687e8 	ldr	x8, [sp, #3336]
    3738:	f946b7e9 	ldr	x9, [sp, #3432]
    373c:	b94b83ea 	ldr	w10, [sp, #2944]
    3740:	b94b87eb 	ldr	w11, [sp, #2948]
    3744:	b94b8bec 	ldr	w12, [sp, #2952]
    3748:	b94b8fed 	ldr	w13, [sp, #2956]
    374c:	b934310d 	str	w13, [x8, #13360]
    3750:	b934350c 	str	w12, [x8, #13364]
    3754:	b934390b 	str	w11, [x8, #13368]
    3758:	b9343d0a 	str	w10, [x8, #13372]
    375c:	3dcd0d00 	ldr	q0, [x8, #13360]
    3760:	3d8d0900 	str	q0, [x8, #13344]
    3764:	3dcd0900 	ldr	q0, [x8, #13344]
    3768:	3d8d1500 	str	q0, [x8, #13392]
    376c:	3dcd1500 	ldr	q0, [x8, #13392]
    3770:	3d8d1900 	str	q0, [x8, #13408]
    3774:	3dcd1900 	ldr	q0, [x8, #13408]
    3778:	3d8aed00 	str	q0, [x8, #11184]
    377c:	3dc33520 	ldr	q0, [x9, #3280]
    3780:	3d8cd100 	str	q0, [x8, #13120]
    3784:	3dccd100 	ldr	q0, [x8, #13120]
    3788:	914027e0 	add	x0, sp, #0x9, lsl #12
    378c:	91280000 	add	x0, x0, #0xa00
    3790:	3d8ccd00 	str	q0, [x8, #13104]
    3794:	914027e8 	add	x8, sp, #0x9, lsl #12
    3798:	9128c108 	add	x8, x8, #0xa30
    379c:	90000001 	adrp	x1, d3d8 <l_alloc_345ce69d67e2022250dbe2d202815e5b>
    37a0:	91000021 	add	x1, x1, #0x0
    37a4:	94000000 	bl	0 <_<T as core::convert::Into<U>>::into>
    37a8:	14000008 	b	37c8 <_<rand_chacha::chacha::ChaCha12Core as rand_core::block::BlockRngCore>::generate+0x1488>
    37ac:	f94687e8 	ldr	x8, [sp, #3336]
    37b0:	f919d100 	str	x0, [x8, #13216]
    37b4:	aa0103e9 	mov	x9, x1
    37b8:	b933a909 	str	w9, [x8, #13224]
    37bc:	f959d108 	ldr	x8, [x8, #13216]
    37c0:	f90677e8 	str	x8, [sp, #3304]
    37c4:	14002278 	b	c1a4 <_<rand_chacha::chacha::ChaCha12Core as rand_core::block::BlockRngCore>::generate+0x9e64>
    37c8:	f94687e8 	ldr	x8, [sp, #3336]
    37cc:	3dccd900 	ldr	q0, [x8, #13152]
    37d0:	3d8cdd00 	str	q0, [x8, #13168]
    37d4:	b9737101 	ldr	w1, [x8, #13168]
    37d8:	914027e0 	add	x0, sp, #0x9, lsl #12
    37dc:	9128bc00 	add	x0, x0, #0xa2f
    37e0:	94000000 	bl	0 <_<ppv_lite86::generic::u32x4_generic as ppv_lite86::types::RotateEachWord32>::rotate_each_word_right16::{{closure}}>
    37e4:	b90b7fe0 	str	w0, [sp, #2940]
    37e8:	14000001 	b	37ec <_<rand_chacha::chacha::ChaCha12Core as rand_core::block::BlockRngCore>::generate+0x14ac>
    37ec:	f94687e8 	ldr	x8, [sp, #3336]
    37f0:	b9737501 	ldr	w1, [x8, #13172]
    37f4:	914027e0 	add	x0, sp, #0x9, lsl #12
    37f8:	9128bc00 	add	x0, x0, #0xa2f
    37fc:	94000000 	bl	0 <_<ppv_lite86::generic::u32x4_generic as ppv_lite86::types::RotateEachWord32>::rotate_each_word_right16::{{closure}}>
    3800:	b90b7be0 	str	w0, [sp, #2936]
    3804:	14000001 	b	3808 <_<rand_chacha::chacha::ChaCha12Core as rand_core::block::BlockRngCore>::generate+0x14c8>
    3808:	f94687e8 	ldr	x8, [sp, #3336]
    380c:	b9737901 	ldr	w1, [x8, #13176]
    3810:	914027e0 	add	x0, sp, #0x9, lsl #12
    3814:	9128bc00 	add	x0, x0, #0xa2f
    3818:	94000000 	bl	0 <_<ppv_lite86::generic::u32x4_generic as ppv_lite86::types::RotateEachWord32>::rotate_each_word_right16::{{closure}}>
    381c:	b90b77e0 	str	w0, [sp, #2932]
    3820:	14000001 	b	3824 <_<rand_chacha::chacha::ChaCha12Core as rand_core::block::BlockRngCore>::generate+0x14e4>
    3824:	f94687e8 	ldr	x8, [sp, #3336]
    3828:	b9737d01 	ldr	w1, [x8, #13180]
    382c:	914027e0 	add	x0, sp, #0x9, lsl #12
    3830:	9128bc00 	add	x0, x0, #0xa2f
    3834:	94000000 	bl	0 <_<ppv_lite86::generic::u32x4_generic as ppv_lite86::types::RotateEachWord32>::rotate_each_word_right16::{{closure}}>
    3838:	b90b73e0 	str	w0, [sp, #2928]
    383c:	14000001 	b	3840 <_<rand_chacha::chacha::ChaCha12Core as rand_core::block::BlockRngCore>::generate+0x1500>
    3840:	f94687e8 	ldr	x8, [sp, #3336]
    3844:	f946b7e9 	ldr	x9, [sp, #3432]
    3848:	b94b73ea 	ldr	w10, [sp, #2928]
    384c:	b94b77eb 	ldr	w11, [sp, #2932]
    3850:	b94b7bec 	ldr	w12, [sp, #2936]
    3854:	b94b7fed 	ldr	w13, [sp, #2940]
    3858:	b933910d 	str	w13, [x8, #13200]
    385c:	b933950c 	str	w12, [x8, #13204]
    3860:	b933990b 	str	w11, [x8, #13208]
    3864:	b9339d0a 	str	w10, [x8, #13212]
    3868:	3dcce500 	ldr	q0, [x8, #13200]
    386c:	3d8ce100 	str	q0, [x8, #13184]
    3870:	3dcce100 	ldr	q0, [x8, #13184]
    3874:	3d8ced00 	str	q0, [x8, #13232]
    3878:	3dcced00 	ldr	q0, [x8, #13232]
    387c:	3d8cf100 	str	q0, [x8, #13248]
    3880:	3dccf100 	ldr	q0, [x8, #13248]
    3884:	3d8af100 	str	q0, [x8, #11200]
    3888:	3dc33920 	ldr	q0, [x9, #3296]
    388c:	3d8ca900 	str	q0, [x8, #12960]
    3890:	3dcca900 	ldr	q0, [x8, #12960]
    3894:	914027e0 	add	x0, sp, #0x9, lsl #12
    3898:	91258000 	add	x0, x0, #0x960
    389c:	3d8ca500 	str	q0, [x8, #12944]
    38a0:	914027e8 	add	x8, sp, #0x9, lsl #12
    38a4:	91264108 	add	x8, x8, #0x990
    38a8:	90000001 	adrp	x1, d3d8 <l_alloc_345ce69d67e2022250dbe2d202815e5b>
    38ac:	91000021 	add	x1, x1, #0x0
    38b0:	94000000 	bl	0 <_<T as core::convert::Into<U>>::into>
    38b4:	14000008 	b	38d4 <_<rand_chacha::chacha::ChaCha12Core as rand_core::block::BlockRngCore>::generate+0x1594>
    38b8:	f94687e8 	ldr	x8, [sp, #3336]
    38bc:	f9198100 	str	x0, [x8, #13056]
    38c0:	aa0103e9 	mov	x9, x1
    38c4:	b9330909 	str	w9, [x8, #13064]
    38c8:	f9598108 	ldr	x8, [x8, #13056]
    38cc:	f90677e8 	str	x8, [sp, #3304]
    38d0:	14002235 	b	c1a4 <_<rand_chacha::chacha::ChaCha12Core as rand_core::block::BlockRngCore>::generate+0x9e64>
    38d4:	f94687e8 	ldr	x8, [sp, #3336]
    38d8:	3dccb100 	ldr	q0, [x8, #12992]
    38dc:	3d8cb500 	str	q0, [x8, #13008]
    38e0:	b972d101 	ldr	w1, [x8, #13008]
    38e4:	914027e0 	add	x0, sp, #0x9, lsl #12
    38e8:	91263c00 	add	x0, x0, #0x98f
    38ec:	94000000 	bl	0 <_<ppv_lite86::generic::u32x4_generic as ppv_lite86::types::RotateEachWord32>::rotate_each_word_right16::{{closure}}>
    38f0:	b90b6fe0 	str	w0, [sp, #2924]
    38f4:	14000001 	b	38f8 <_<rand_chacha::chacha::ChaCha12Core as rand_core::block::BlockRngCore>::generate+0x15b8>
    38f8:	f94687e8 	ldr	x8, [sp, #3336]
    38fc:	b972d501 	ldr	w1, [x8, #13012]
    3900:	914027e0 	add	x0, sp, #0x9, lsl #12
    3904:	91263c00 	add	x0, x0, #0x98f
    3908:	94000000 	bl	0 <_<ppv_lite86::generic::u32x4_generic as ppv_lite86::types::RotateEachWord32>::rotate_each_word_right16::{{closure}}>
    390c:	b90b6be0 	str	w0, [sp, #2920]
    3910:	14000001 	b	3914 <_<rand_chacha::chacha::ChaCha12Core as rand_core::block::BlockRngCore>::generate+0x15d4>
    3914:	f94687e8 	ldr	x8, [sp, #3336]
    3918:	b972d901 	ldr	w1, [x8, #13016]
    391c:	914027e0 	add	x0, sp, #0x9, lsl #12
    3920:	91263c00 	add	x0, x0, #0x98f
    3924:	94000000 	bl	0 <_<ppv_lite86::generic::u32x4_generic as ppv_lite86::types::RotateEachWord32>::rotate_each_word_right16::{{closure}}>
    3928:	b90b67e0 	str	w0, [sp, #2916]
    392c:	14000001 	b	3930 <_<rand_chacha::chacha::ChaCha12Core as rand_core::block::BlockRngCore>::generate+0x15f0>
    3930:	f94687e8 	ldr	x8, [sp, #3336]
    3934:	b972dd01 	ldr	w1, [x8, #13020]
    3938:	914027e0 	add	x0, sp, #0x9, lsl #12
    393c:	91263c00 	add	x0, x0, #0x98f
    3940:	94000000 	bl	0 <_<ppv_lite86::generic::u32x4_generic as ppv_lite86::types::RotateEachWord32>::rotate_each_word_right16::{{closure}}>
    3944:	b90b63e0 	str	w0, [sp, #2912]
    3948:	14000001 	b	394c <_<rand_chacha::chacha::ChaCha12Core as rand_core::block::BlockRngCore>::generate+0x160c>
    394c:	f94687e8 	ldr	x8, [sp, #3336]
    3950:	f946b7e9 	ldr	x9, [sp, #3432]
    3954:	b94b63ea 	ldr	w10, [sp, #2912]
    3958:	b94b67eb 	ldr	w11, [sp, #2916]
    395c:	b94b6bec 	ldr	w12, [sp, #2920]
    3960:	b94b6fed 	ldr	w13, [sp, #2924]
    3964:	b932f10d 	str	w13, [x8, #13040]
    3968:	b932f50c 	str	w12, [x8, #13044]
    396c:	b932f90b 	str	w11, [x8, #13048]
    3970:	b932fd0a 	str	w10, [x8, #13052]
    3974:	3dccbd00 	ldr	q0, [x8, #13040]
    3978:	3d8cb900 	str	q0, [x8, #13024]
    397c:	3dccb900 	ldr	q0, [x8, #13024]
    3980:	3d8cc500 	str	q0, [x8, #13072]
    3984:	3dccc500 	ldr	q0, [x8, #13072]
    3988:	3d8cc900 	str	q0, [x8, #13088]
    398c:	3dccc900 	ldr	q0, [x8, #13088]
    3990:	3d8af500 	str	q0, [x8, #11216]
    3994:	3dc33d20 	ldr	q0, [x9, #3312]
    3998:	3d8c8100 	str	q0, [x8, #12800]
    399c:	3dcc8100 	ldr	q0, [x8, #12800]
    39a0:	914027e0 	add	x0, sp, #0x9, lsl #12
    39a4:	91230000 	add	x0, x0, #0x8c0
    39a8:	3d8c7d00 	str	q0, [x8, #12784]
    39ac:	914027e8 	add	x8, sp, #0x9, lsl #12
    39b0:	9123c108 	add	x8, x8, #0x8f0
    39b4:	90000001 	adrp	x1, d3d8 <l_alloc_345ce69d67e2022250dbe2d202815e5b>
    39b8:	91000021 	add	x1, x1, #0x0
    39bc:	94000000 	bl	0 <_<T as core::convert::Into<U>>::into>
    39c0:	14000008 	b	39e0 <_<rand_chacha::chacha::ChaCha12Core as rand_core::block::BlockRngCore>::generate+0x16a0>
    39c4:	f94687e8 	ldr	x8, [sp, #3336]
    39c8:	f9193100 	str	x0, [x8, #12896]
    39cc:	aa0103e9 	mov	x9, x1
    39d0:	b9326909 	str	w9, [x8, #12904]
    39d4:	f9593108 	ldr	x8, [x8, #12896]
    39d8:	f90677e8 	str	x8, [sp, #3304]
    39dc:	140021f2 	b	c1a4 <_<rand_chacha::chacha::ChaCha12Core as rand_core::block::BlockRngCore>::generate+0x9e64>
    39e0:	f94687e8 	ldr	x8, [sp, #3336]
    39e4:	3dcc8900 	ldr	q0, [x8, #12832]
    39e8:	3d8c8d00 	str	q0, [x8, #12848]
    39ec:	b9723101 	ldr	w1, [x8, #12848]
    39f0:	914027e0 	add	x0, sp, #0x9, lsl #12
    39f4:	9123bc00 	add	x0, x0, #0x8ef
    39f8:	94000000 	bl	0 <_<ppv_lite86::generic::u32x4_generic as ppv_lite86::types::RotateEachWord32>::rotate_each_word_right16::{{closure}}>
    39fc:	b90b5fe0 	str	w0, [sp, #2908]
    3a00:	14000001 	b	3a04 <_<rand_chacha::chacha::ChaCha12Core as rand_core::block::BlockRngCore>::generate+0x16c4>
    3a04:	f94687e8 	ldr	x8, [sp, #3336]
    3a08:	b9723501 	ldr	w1, [x8, #12852]
    3a0c:	914027e0 	add	x0, sp, #0x9, lsl #12
    3a10:	9123bc00 	add	x0, x0, #0x8ef
    3a14:	94000000 	bl	0 <_<ppv_lite86::generic::u32x4_generic as ppv_lite86::types::RotateEachWord32>::rotate_each_word_right16::{{closure}}>
    3a18:	b90b5be0 	str	w0, [sp, #2904]
    3a1c:	14000001 	b	3a20 <_<rand_chacha::chacha::ChaCha12Core as rand_core::block::BlockRngCore>::generate+0x16e0>
    3a20:	f94687e8 	ldr	x8, [sp, #3336]
    3a24:	b9723901 	ldr	w1, [x8, #12856]
    3a28:	914027e0 	add	x0, sp, #0x9, lsl #12
    3a2c:	9123bc00 	add	x0, x0, #0x8ef
    3a30:	94000000 	bl	0 <_<ppv_lite86::generic::u32x4_generic as ppv_lite86::types::RotateEachWord32>::rotate_each_word_right16::{{closure}}>
    3a34:	b90b57e0 	str	w0, [sp, #2900]
    3a38:	14000001 	b	3a3c <_<rand_chacha::chacha::ChaCha12Core as rand_core::block::BlockRngCore>::generate+0x16fc>
    3a3c:	f94687e8 	ldr	x8, [sp, #3336]
    3a40:	b9723d01 	ldr	w1, [x8, #12860]
    3a44:	914027e0 	add	x0, sp, #0x9, lsl #12
    3a48:	9123bc00 	add	x0, x0, #0x8ef
    3a4c:	94000000 	bl	0 <_<ppv_lite86::generic::u32x4_generic as ppv_lite86::types::RotateEachWord32>::rotate_each_word_right16::{{closure}}>
    3a50:	b90b53e0 	str	w0, [sp, #2896]
    3a54:	14000001 	b	3a58 <_<rand_chacha::chacha::ChaCha12Core as rand_core::block::BlockRngCore>::generate+0x1718>
    3a58:	f94687e8 	ldr	x8, [sp, #3336]
    3a5c:	b94b53e9 	ldr	w9, [sp, #2896]
    3a60:	b94b57ea 	ldr	w10, [sp, #2900]
    3a64:	b94b5beb 	ldr	w11, [sp, #2904]
    3a68:	b94b5fec 	ldr	w12, [sp, #2908]
    3a6c:	b932510c 	str	w12, [x8, #12880]
    3a70:	b932550b 	str	w11, [x8, #12884]
    3a74:	b932590a 	str	w10, [x8, #12888]
    3a78:	b9325d09 	str	w9, [x8, #12892]
    3a7c:	3dcc9500 	ldr	q0, [x8, #12880]
    3a80:	3d8c9100 	str	q0, [x8, #12864]
    3a84:	3dcc9100 	ldr	q0, [x8, #12864]
    3a88:	3d8c9d00 	str	q0, [x8, #12912]
    3a8c:	3dcc9d00 	ldr	q0, [x8, #12912]
    3a90:	3d8ca100 	str	q0, [x8, #12928]
    3a94:	3dcca100 	ldr	q0, [x8, #12928]
    3a98:	3d8af900 	str	q0, [x8, #11232]
    3a9c:	3dcaed00 	ldr	q0, [x8, #11184]
    3aa0:	914027e1 	add	x1, sp, #0x9, lsl #12
    3aa4:	91090021 	add	x1, x1, #0x240
    3aa8:	3d8add00 	str	q0, [x8, #11120]
    3aac:	3dcaf100 	ldr	q0, [x8, #11200]
    3ab0:	3d8ae100 	str	q0, [x8, #11136]
    3ab4:	3dcaf500 	ldr	q0, [x8, #11216]
    3ab8:	3d8ae500 	str	q0, [x8, #11152]
    3abc:	3dcaf900 	ldr	q0, [x8, #11232]
    3ac0:	3d8ae900 	str	q0, [x8, #11168]
    3ac4:	91400be0 	add	x0, sp, #0x2, lsl #12
    3ac8:	913e8000 	add	x0, x0, #0xfa0
    3acc:	f9059be0 	str	x0, [sp, #2864]
    3ad0:	52800808 	mov	w8, #0x40                  	// #64
    3ad4:	aa0803e2 	mov	x2, x8
    3ad8:	f905a7e2 	str	x2, [sp, #2888]
    3adc:	94000000 	bl	0 <_memcpy>
    3ae0:	f9459be1 	ldr	x1, [sp, #2864]
    3ae4:	f945a7e2 	ldr	x2, [sp, #2888]
    3ae8:	914007e8 	add	x8, sp, #0x1, lsl #12
    3aec:	91084108 	add	x8, x8, #0x210
    3af0:	f905a3e8 	str	x8, [sp, #2880]
    3af4:	91030100 	add	x0, x8, #0xc0
    3af8:	94000000 	bl	0 <_memcpy>
    3afc:	f945a3e8 	ldr	x8, [sp, #2880]
    3b00:	f945a7e2 	ldr	x2, [sp, #2888]
    3b04:	91020109 	add	x9, x8, #0x80
    3b08:	f9059fe9 	str	x9, [sp, #2872]
    3b0c:	91030101 	add	x1, x8, #0xc0
    3b10:	91400fe0 	add	x0, sp, #0x3, lsl #12
    3b14:	91028000 	add	x0, x0, #0xa0
    3b18:	94000000 	bl	0 <_memcpy>
    3b1c:	f9459fea 	ldr	x10, [sp, #2872]
    3b20:	f94687e8 	ldr	x8, [sp, #3336]
    3b24:	f946abe9 	ldr	x9, [sp, #3408]
    3b28:	f946b7eb 	ldr	x11, [sp, #3432]
    3b2c:	aa0a03ec 	mov	x12, x10
    3b30:	f93b77ec 	str	x12, [sp, #30440]
    3b34:	3dc36160 	ldr	q0, [x11, #3456]
    3b38:	3d83f500 	str	q0, [x8, #4048]
    3b3c:	f93e7fea 	str	x10, [sp, #31992]
    3b40:	3dc12520 	ldr	q0, [x9, #1168]
    3b44:	3d859500 	str	q0, [x8, #5712]
    3b48:	3dc3f500 	ldr	q0, [x8, #4048]
    3b4c:	3d859100 	str	q0, [x8, #5696]
    3b50:	3dc59500 	ldr	q0, [x8, #5712]
    3b54:	91401fe0 	add	x0, sp, #0x7, lsl #12
    3b58:	91340000 	add	x0, x0, #0xd00
    3b5c:	3d858d00 	str	q0, [x8, #5680]
    3b60:	3dc59100 	ldr	q0, [x8, #5696]
    3b64:	91401fe1 	add	x1, sp, #0x7, lsl #12
    3b68:	9134c021 	add	x1, x1, #0xd30
    3b6c:	3d859900 	str	q0, [x8, #5728]
    3b70:	91401fe8 	add	x8, sp, #0x7, lsl #12
    3b74:	9133a108 	add	x8, x8, #0xce8
    3b78:	94000000 	bl	0 <_ppv_lite86::generic::dmap2>
    3b7c:	f94687e8 	ldr	x8, [sp, #3336]
    3b80:	f946abe9 	ldr	x9, [sp, #3408]
    3b84:	f945a3ea 	ldr	x10, [sp, #2880]
    3b88:	f946b7eb 	ldr	x11, [sp, #3432]
    3b8c:	91401fec 	add	x12, sp, #0x7, lsl #12
    3b90:	912fa58c 	add	x12, x12, #0xbe9
    3b94:	3ccff180 	ldur	q0, [x12, #255]
    3b98:	3d812520 	str	q0, [x9, #1168]
    3b9c:	9102414a 	add	x10, x10, #0x90
    3ba0:	3dc36560 	ldr	q0, [x11, #3472]
    3ba4:	3d83f900 	str	q0, [x8, #4064]
    3ba8:	f93e4fea 	str	x10, [sp, #31896]
    3bac:	3dc12920 	ldr	q0, [x9, #1184]
    3bb0:	3d857d00 	str	q0, [x8, #5616]
    3bb4:	3dc3f900 	ldr	q0, [x8, #4064]
    3bb8:	3d857900 	str	q0, [x8, #5600]
    3bbc:	3dc57d00 	ldr	q0, [x8, #5616]
    3bc0:	91401fe0 	add	x0, sp, #0x7, lsl #12
    3bc4:	91328000 	add	x0, x0, #0xca0
    3bc8:	3d857500 	str	q0, [x8, #5584]
    3bcc:	3dc57900 	ldr	q0, [x8, #5600]
    3bd0:	91401fe1 	add	x1, sp, #0x7, lsl #12
    3bd4:	91334021 	add	x1, x1, #0xcd0
    3bd8:	3d858100 	str	q0, [x8, #5632]
    3bdc:	91401fe8 	add	x8, sp, #0x7, lsl #12
    3be0:	91322108 	add	x8, x8, #0xc88
    3be4:	94000000 	bl	0 <_ppv_lite86::generic::dmap2>
    3be8:	f94687e8 	ldr	x8, [sp, #3336]
    3bec:	f946abe9 	ldr	x9, [sp, #3408]
    3bf0:	f945a3ea 	ldr	x10, [sp, #2880]
    3bf4:	f946b7eb 	ldr	x11, [sp, #3432]
    3bf8:	91401fec 	add	x12, sp, #0x7, lsl #12
    3bfc:	912e258c 	add	x12, x12, #0xb89
    3c00:	3ccff180 	ldur	q0, [x12, #255]
    3c04:	3d812920 	str	q0, [x9, #1184]
    3c08:	9102814a 	add	x10, x10, #0xa0
    3c0c:	3dc36960 	ldr	q0, [x11, #3488]
    3c10:	3d83fd00 	str	q0, [x8, #4080]
    3c14:	f93e1fea 	str	x10, [sp, #31800]
    3c18:	3dc12d20 	ldr	q0, [x9, #1200]
    3c1c:	3d856500 	str	q0, [x8, #5520]
    3c20:	3dc3fd00 	ldr	q0, [x8, #4080]
    3c24:	3d856100 	str	q0, [x8, #5504]
    3c28:	3dc56500 	ldr	q0, [x8, #5520]
    3c2c:	91401fe0 	add	x0, sp, #0x7, lsl #12
    3c30:	91310000 	add	x0, x0, #0xc40
    3c34:	3d855d00 	str	q0, [x8, #5488]
    3c38:	3dc56100 	ldr	q0, [x8, #5504]
    3c3c:	91401fe1 	add	x1, sp, #0x7, lsl #12
    3c40:	9131c021 	add	x1, x1, #0xc70
    3c44:	3d856900 	str	q0, [x8, #5536]
    3c48:	91401fe8 	add	x8, sp, #0x7, lsl #12
    3c4c:	9130a108 	add	x8, x8, #0xc28
    3c50:	94000000 	bl	0 <_ppv_lite86::generic::dmap2>
    3c54:	f94687e8 	ldr	x8, [sp, #3336]
    3c58:	f946abe9 	ldr	x9, [sp, #3408]
    3c5c:	f945a3ea 	ldr	x10, [sp, #2880]
    3c60:	f946b7eb 	ldr	x11, [sp, #3432]
    3c64:	91401fec 	add	x12, sp, #0x7, lsl #12
    3c68:	912ca58c 	add	x12, x12, #0xb29
    3c6c:	3ccff180 	ldur	q0, [x12, #255]
    3c70:	3d812d20 	str	q0, [x9, #1200]
    3c74:	9102c14a 	add	x10, x10, #0xb0
    3c78:	3dc36d60 	ldr	q0, [x11, #3504]
    3c7c:	3d840100 	str	q0, [x8, #4096]
    3c80:	f93defea 	str	x10, [sp, #31704]
    3c84:	3dc13120 	ldr	q0, [x9, #1216]
    3c88:	3d854d00 	str	q0, [x8, #5424]
    3c8c:	3dc40100 	ldr	q0, [x8, #4096]
    3c90:	3d854900 	str	q0, [x8, #5408]
    3c94:	3dc54d00 	ldr	q0, [x8, #5424]
    3c98:	91401fe0 	add	x0, sp, #0x7, lsl #12
    3c9c:	912f8000 	add	x0, x0, #0xbe0
    3ca0:	3d854500 	str	q0, [x8, #5392]
    3ca4:	3dc54900 	ldr	q0, [x8, #5408]
    3ca8:	91401fe1 	add	x1, sp, #0x7, lsl #12
    3cac:	91304021 	add	x1, x1, #0xc10
    3cb0:	3d855100 	str	q0, [x8, #5440]
    3cb4:	91401fe8 	add	x8, sp, #0x7, lsl #12
    3cb8:	912f2108 	add	x8, x8, #0xbc8
    3cbc:	94000000 	bl	0 <_ppv_lite86::generic::dmap2>
    3cc0:	f946abe9 	ldr	x9, [sp, #3408]
    3cc4:	f945a3e8 	ldr	x8, [sp, #2880]
    3cc8:	f945a7e2 	ldr	x2, [sp, #2888]
    3ccc:	91401fea 	add	x10, sp, #0x7, lsl #12
    3cd0:	912b254a 	add	x10, x10, #0xac9
    3cd4:	3ccff140 	ldur	q0, [x10, #255]
    3cd8:	3d813120 	str	q0, [x9, #1216]
    3cdc:	91010101 	add	x1, x8, #0x40
    3ce0:	91400fe0 	add	x0, sp, #0x3, lsl #12
    3ce4:	91058000 	add	x0, x0, #0x160
    3ce8:	94000000 	bl	0 <_memcpy>
    3cec:	f945a3e8 	ldr	x8, [sp, #2880]
    3cf0:	f945a7e2 	ldr	x2, [sp, #2888]
    3cf4:	91020101 	add	x1, x8, #0x80
    3cf8:	91400fe0 	add	x0, sp, #0x3, lsl #12
    3cfc:	91068000 	add	x0, x0, #0x1a0
    3d00:	94000000 	bl	0 <_memcpy>
    3d04:	f946b7ea 	ldr	x10, [sp, #3432]
    3d08:	f946bbe8 	ldr	x8, [sp, #3440]
    3d0c:	f94693e9 	ldr	x9, [sp, #3360]
    3d10:	3dc39140 	ldr	q0, [x10, #3648]
    3d14:	3d841d00 	str	q0, [x8, #4208]
    3d18:	3dc3a140 	ldr	q0, [x10, #3712]
    3d1c:	3d841900 	str	q0, [x8, #4192]
    3d20:	3dc41d00 	ldr	q0, [x8, #4208]
    3d24:	914017e0 	add	x0, sp, #0x5, lsl #12
    3d28:	910fc000 	add	x0, x0, #0x3f0
    3d2c:	3d841500 	str	q0, [x8, #4176]
    3d30:	3dc41900 	ldr	q0, [x8, #4192]
    3d34:	3d842100 	str	q0, [x8, #4224]
    3d38:	3900013f 	strb	wzr, [x9]
    3d3c:	52800028 	mov	w8, #0x1                   	// #1
    3d40:	39000128 	strb	w8, [x9]
    3d44:	914017e8 	add	x8, sp, #0x5, lsl #12
    3d48:	91110108 	add	x8, x8, #0x440
    3d4c:	90000001 	adrp	x1, d408 <l_alloc_d6cd646a032ab5661bff8aa78f551e65>
    3d50:	91000021 	add	x1, x1, #0x0
    3d54:	94000000 	bl	0 <_<T as core::convert::Into<U>>::into>
    3d58:	14000008 	b	3d78 <_<rand_chacha::chacha::ChaCha12Core as rand_core::block::BlockRngCore>::generate+0x1a38>
    3d5c:	f94693e8 	ldr	x8, [sp, #3360]
    3d60:	f92a63e0 	str	x0, [sp, #21696]
    3d64:	aa0103e9 	mov	x9, x1
    3d68:	b8009109 	stur	w9, [x8, #9]
    3d6c:	39400108 	ldrb	w8, [x8]
    3d70:	37000688 	tbnz	w8, #0, 3e40 <_<rand_chacha::chacha::ChaCha12Core as rand_core::block::BlockRngCore>::generate+0x1b00>
    3d74:	14000030 	b	3e34 <_<rand_chacha::chacha::ChaCha12Core as rand_core::block::BlockRngCore>::generate+0x1af4>
    3d78:	f946bbe8 	ldr	x8, [sp, #3440]
    3d7c:	f94693e9 	ldr	x9, [sp, #3360]
    3d80:	3900013f 	strb	wzr, [x9]
    3d84:	3dc42100 	ldr	q0, [x8, #4224]
    3d88:	914017e0 	add	x0, sp, #0x5, lsl #12
    3d8c:	91118000 	add	x0, x0, #0x460
    3d90:	3d843100 	str	q0, [x8, #4288]
    3d94:	914017e8 	add	x8, sp, #0x5, lsl #12
    3d98:	91114108 	add	x8, x8, #0x450
    3d9c:	90000001 	adrp	x1, d420 <l_alloc_eb8937521ab56b1815db886b021bd11a>
    3da0:	91000021 	add	x1, x1, #0x0
    3da4:	94000000 	bl	0 <_<T as core::convert::Into<U>>::into>
    3da8:	14000001 	b	3dac <_<rand_chacha::chacha::ChaCha12Core as rand_core::block::BlockRngCore>::generate+0x1a6c>
    3dac:	f94693e8 	ldr	x8, [sp, #3360]
    3db0:	f946bbea 	ldr	x10, [sp, #3440]
    3db4:	3dc42940 	ldr	q0, [x10, #4256]
    3db8:	3d843540 	str	q0, [x10, #4304]
    3dbc:	f96a3bec 	ldr	x12, [sp, #21616]
    3dc0:	d2800009 	mov	x9, #0x0                   	// #0
    3dc4:	f92a97ec 	str	x12, [sp, #21800]
    3dc8:	f96a3feb 	ldr	x11, [sp, #21624]
    3dcc:	f92a93eb 	str	x11, [sp, #21792]
    3dd0:	aa090181 	orr	x1, x12, x9
    3dd4:	aa0b0122 	orr	x2, x9, x11
    3dd8:	4e081c20 	mov	v0.d[0], x1
    3ddc:	4e181c40 	mov	v0.d[1], x2
    3de0:	3c811100 	stur	q0, [x8, #17]
    3de4:	3dc42d40 	ldr	q0, [x10, #4272]
    3de8:	3d843940 	str	q0, [x10, #4320]
    3dec:	f96a43eb 	ldr	x11, [sp, #21632]
    3df0:	f92a9feb 	str	x11, [sp, #21816]
    3df4:	f96a47ea 	ldr	x10, [sp, #21640]
    3df8:	f92a9bea 	str	x10, [sp, #21808]
    3dfc:	aa090163 	orr	x3, x11, x9
    3e00:	aa0a0124 	orr	x4, x9, x10
    3e04:	4e081c60 	mov	v0.d[0], x3
    3e08:	4e181c80 	mov	v0.d[1], x4
    3e0c:	3c821100 	stur	q0, [x8, #33]
    3e10:	914017e0 	add	x0, sp, #0x5, lsl #12
    3e14:	9110fc00 	add	x0, x0, #0x43f
    3e18:	94000000 	bl	0 <_<ppv_lite86::generic::u32x4_generic as core::ops::bit::BitXor>::bitxor::{{closure}}>
    3e1c:	f9058be0 	str	x0, [sp, #2832]
    3e20:	f9058fe1 	str	x1, [sp, #2840]
    3e24:	4e081c00 	mov	v0.d[0], x0
    3e28:	4e181c20 	mov	v0.d[1], x1
    3e2c:	3d82cbe0 	str	q0, [sp, #2848]
    3e30:	14000005 	b	3e44 <_<rand_chacha::chacha::ChaCha12Core as rand_core::block::BlockRngCore>::generate+0x1b04>
    3e34:	f96a63e8 	ldr	x8, [sp, #21696]
    3e38:	f90677e8 	str	x8, [sp, #3304]
    3e3c:	140020da 	b	c1a4 <_<rand_chacha::chacha::ChaCha12Core as rand_core::block::BlockRngCore>::generate+0x9e64>
    3e40:	17fffffd 	b	3e34 <_<rand_chacha::chacha::ChaCha12Core as rand_core::block::BlockRngCore>::generate+0x1af4>
    3e44:	f946bbe9 	ldr	x9, [sp, #3440]
    3e48:	f946b7e8 	ldr	x8, [sp, #3432]
    3e4c:	f94693ea 	ldr	x10, [sp, #3360]
    3e50:	f9458feb 	ldr	x11, [sp, #2840]
    3e54:	f9458bec 	ldr	x12, [sp, #2832]
    3e58:	3dc2cbe0 	ldr	q0, [sp, #2848]
    3e5c:	3c841140 	stur	q0, [x10, #65]
    3e60:	f92a57ec 	str	x12, [sp, #21672]
    3e64:	f92a5beb 	str	x11, [sp, #21680]
    3e68:	914017eb 	add	x11, sp, #0x5, lsl #12
    3e6c:	910ea56b 	add	x11, x11, #0x3a9
    3e70:	3ccff160 	ldur	q0, [x11, #255]
    3e74:	3d843d20 	str	q0, [x9, #4336]
    3e78:	3dc43d20 	ldr	q0, [x9, #4336]
    3e7c:	3c831140 	stur	q0, [x10, #49]
    3e80:	3cc31140 	ldur	q0, [x10, #49]
    3e84:	3c851140 	stur	q0, [x10, #81]
    3e88:	3cc51140 	ldur	q0, [x10, #81]
    3e8c:	3d867100 	str	q0, [x8, #6592]
    3e90:	3dc39500 	ldr	q0, [x8, #3664]
    3e94:	3d83c920 	str	q0, [x9, #3872]
    3e98:	3dc3a500 	ldr	q0, [x8, #3728]
    3e9c:	3d83c520 	str	q0, [x9, #3856]
    3ea0:	3dc3c920 	ldr	q0, [x9, #3872]
    3ea4:	914017e0 	add	x0, sp, #0x5, lsl #12
    3ea8:	910a8000 	add	x0, x0, #0x2a0
    3eac:	3d83c120 	str	q0, [x9, #3840]
    3eb0:	3dc3c520 	ldr	q0, [x9, #3856]
    3eb4:	3d83cd20 	str	q0, [x9, #3888]
    3eb8:	393f3d3f 	strb	wzr, [x9, #4047]
    3ebc:	52800028 	mov	w8, #0x1                   	// #1
    3ec0:	393f3d28 	strb	w8, [x9, #4047]
    3ec4:	914017e8 	add	x8, sp, #0x5, lsl #12
    3ec8:	910bc108 	add	x8, x8, #0x2f0
    3ecc:	90000001 	adrp	x1, d408 <l_alloc_d6cd646a032ab5661bff8aa78f551e65>
    3ed0:	91000021 	add	x1, x1, #0x0
    3ed4:	94000000 	bl	0 <_<T as core::convert::Into<U>>::into>
    3ed8:	14000008 	b	3ef8 <_<rand_chacha::chacha::ChaCha12Core as rand_core::block::BlockRngCore>::generate+0x1bb8>
    3edc:	f946bbe8 	ldr	x8, [sp, #3440]
    3ee0:	f929bbe0 	str	x0, [sp, #21360]
    3ee4:	aa0103e9 	mov	x9, x1
    3ee8:	b90fd909 	str	w9, [x8, #4056]
    3eec:	397f3d08 	ldrb	w8, [x8, #4047]
    3ef0:	370006a8 	tbnz	w8, #0, 3fc4 <_<rand_chacha::chacha::ChaCha12Core as rand_core::block::BlockRngCore>::generate+0x1c84>
    3ef4:	1400002e 	b	3fac <_<rand_chacha::chacha::ChaCha12Core as rand_core::block::BlockRngCore>::generate+0x1c6c>
    3ef8:	f946bbe8 	ldr	x8, [sp, #3440]
    3efc:	393f3d1f 	strb	wzr, [x8, #4047]
    3f00:	3dc3cd00 	ldr	q0, [x8, #3888]
    3f04:	914017e0 	add	x0, sp, #0x5, lsl #12
    3f08:	910c4000 	add	x0, x0, #0x310
    3f0c:	3d83dd00 	str	q0, [x8, #3952]
    3f10:	914017e8 	add	x8, sp, #0x5, lsl #12
    3f14:	910c0108 	add	x8, x8, #0x300
    3f18:	90000001 	adrp	x1, d420 <l_alloc_eb8937521ab56b1815db886b021bd11a>
    3f1c:	91000021 	add	x1, x1, #0x0
    3f20:	94000000 	bl	0 <_<T as core::convert::Into<U>>::into>
    3f24:	14000001 	b	3f28 <_<rand_chacha::chacha::ChaCha12Core as rand_core::block::BlockRngCore>::generate+0x1be8>
    3f28:	f946bbe8 	ldr	x8, [sp, #3440]
    3f2c:	3dc3d500 	ldr	q0, [x8, #3920]
    3f30:	3d83e100 	str	q0, [x8, #3968]
    3f34:	f96993eb 	ldr	x11, [sp, #21280]
    3f38:	d2800009 	mov	x9, #0x0                   	// #0
    3f3c:	f929efeb 	str	x11, [sp, #21464]
    3f40:	f96997ea 	ldr	x10, [sp, #21288]
    3f44:	f929ebea 	str	x10, [sp, #21456]
    3f48:	aa090161 	orr	x1, x11, x9
    3f4c:	aa0a0122 	orr	x2, x9, x10
    3f50:	4e081c20 	mov	v0.d[0], x1
    3f54:	4e181c40 	mov	v0.d[1], x2
    3f58:	3d83f900 	str	q0, [x8, #4064]
    3f5c:	3dc3d900 	ldr	q0, [x8, #3936]
    3f60:	3d83e500 	str	q0, [x8, #3984]
    3f64:	f9699beb 	ldr	x11, [sp, #21296]
    3f68:	f929f7eb 	str	x11, [sp, #21480]
    3f6c:	f9699fea 	ldr	x10, [sp, #21304]
    3f70:	f929f3ea 	str	x10, [sp, #21472]
    3f74:	aa090163 	orr	x3, x11, x9
    3f78:	aa0a0124 	orr	x4, x9, x10
    3f7c:	4e081c60 	mov	v0.d[0], x3
    3f80:	4e181c80 	mov	v0.d[1], x4
    3f84:	3d83fd00 	str	q0, [x8, #4080]
    3f88:	914017e0 	add	x0, sp, #0x5, lsl #12
    3f8c:	910bbc00 	add	x0, x0, #0x2ef
    3f90:	94000000 	bl	0 <_<ppv_lite86::generic::u32x4_generic as core::ops::bit::BitXor>::bitxor::{{closure}}>
    3f94:	f9057be0 	str	x0, [sp, #2800]
    3f98:	f9057fe1 	str	x1, [sp, #2808]
    3f9c:	4e081c00 	mov	v0.d[0], x0
    3fa0:	4e181c20 	mov	v0.d[1], x1
    3fa4:	3d82c3e0 	str	q0, [sp, #2816]
    3fa8:	14000008 	b	3fc8 <_<rand_chacha::chacha::ChaCha12Core as rand_core::block::BlockRngCore>::generate+0x1c88>
    3fac:	f946bbe8 	ldr	x8, [sp, #3440]
    3fb0:	f969bbe9 	ldr	x9, [sp, #21360]
    3fb4:	f90573e9 	str	x9, [sp, #2784]
    3fb8:	b94fd908 	ldr	w8, [x8, #4056]
    3fbc:	b90aefe8 	str	w8, [sp, #2796]
    3fc0:	14000018 	b	4020 <_<rand_chacha::chacha::ChaCha12Core as rand_core::block::BlockRngCore>::generate+0x1ce0>
    3fc4:	17fffffa 	b	3fac <_<rand_chacha::chacha::ChaCha12Core as rand_core::block::BlockRngCore>::generate+0x1c6c>
    3fc8:	f946b7e8 	ldr	x8, [sp, #3432]
    3fcc:	f946bbe9 	ldr	x9, [sp, #3440]
    3fd0:	f9457fea 	ldr	x10, [sp, #2808]
    3fd4:	f9457beb 	ldr	x11, [sp, #2800]
    3fd8:	3dc2c3e0 	ldr	q0, [sp, #2816]
    3fdc:	3d840520 	str	q0, [x9, #4112]
    3fe0:	f929afeb 	str	x11, [sp, #21336]
    3fe4:	f929b3ea 	str	x10, [sp, #21344]
    3fe8:	914017ea 	add	x10, sp, #0x5, lsl #12
    3fec:	9109654a 	add	x10, x10, #0x259
    3ff0:	3ccff140 	ldur	q0, [x10, #255]
    3ff4:	3d83e920 	str	q0, [x9, #4000]
    3ff8:	3dc3e920 	ldr	q0, [x9, #4000]
    3ffc:	3d840120 	str	q0, [x9, #4096]
    4000:	3dc40120 	ldr	q0, [x9, #4096]
    4004:	3d840920 	str	q0, [x9, #4128]
    4008:	3dc40920 	ldr	q0, [x9, #4128]
    400c:	3d867500 	str	q0, [x8, #6608]
    4010:	14000009 	b	4034 <_<rand_chacha::chacha::ChaCha12Core as rand_core::block::BlockRngCore>::generate+0x1cf4>
    4014:	f95e93e8 	ldr	x8, [sp, #15648]
    4018:	f90677e8 	str	x8, [sp, #3304]
    401c:	14002062 	b	c1a4 <_<rand_chacha::chacha::ChaCha12Core as rand_core::block::BlockRngCore>::generate+0x9e64>
    4020:	b94aefe8 	ldr	w8, [sp, #2796]
    4024:	f94573e9 	ldr	x9, [sp, #2784]
    4028:	f91e93e9 	str	x9, [sp, #15648]
    402c:	b93d2be8 	str	w8, [sp, #15656]
    4030:	17fffff9 	b	4014 <_<rand_chacha::chacha::ChaCha12Core as rand_core::block::BlockRngCore>::generate+0x1cd4>
    4034:	f946bbe9 	ldr	x9, [sp, #3440]
    4038:	f946b7e8 	ldr	x8, [sp, #3432]
    403c:	3dc39900 	ldr	q0, [x8, #3680]
    4040:	3d837520 	str	q0, [x9, #3536]
    4044:	3dc3a900 	ldr	q0, [x8, #3744]
    4048:	3d837120 	str	q0, [x9, #3520]
    404c:	3dc37520 	ldr	q0, [x9, #3536]
    4050:	914017e0 	add	x0, sp, #0x5, lsl #12
    4054:	91054000 	add	x0, x0, #0x150
    4058:	3d836d20 	str	q0, [x9, #3504]
    405c:	3dc37120 	ldr	q0, [x9, #3520]
    4060:	3d837920 	str	q0, [x9, #3552]
    4064:	3939fd3f 	strb	wzr, [x9, #3711]
    4068:	52800028 	mov	w8, #0x1                   	// #1
    406c:	3939fd28 	strb	w8, [x9, #3711]
    4070:	914017e8 	add	x8, sp, #0x5, lsl #12
    4074:	91068108 	add	x8, x8, #0x1a0
    4078:	90000001 	adrp	x1, d408 <l_alloc_d6cd646a032ab5661bff8aa78f551e65>
    407c:	91000021 	add	x1, x1, #0x0
    4080:	94000000 	bl	0 <_<T as core::convert::Into<U>>::into>
    4084:	14000008 	b	40a4 <_<rand_chacha::chacha::ChaCha12Core as rand_core::block::BlockRngCore>::generate+0x1d64>
    4088:	f946bbe8 	ldr	x8, [sp, #3440]
    408c:	f92913e0 	str	x0, [sp, #21024]
    4090:	aa0103e9 	mov	x9, x1
    4094:	b90e8909 	str	w9, [x8, #3720]
    4098:	3979fd08 	ldrb	w8, [x8, #3711]
    409c:	370006a8 	tbnz	w8, #0, 4170 <_<rand_chacha::chacha::ChaCha12Core as rand_core::block::BlockRngCore>::generate+0x1e30>
    40a0:	1400002e 	b	4158 <_<rand_chacha::chacha::ChaCha12Core as rand_core::block::BlockRngCore>::generate+0x1e18>
    40a4:	f946bbe8 	ldr	x8, [sp, #3440]
    40a8:	3939fd1f 	strb	wzr, [x8, #3711]
    40ac:	3dc37900 	ldr	q0, [x8, #3552]
    40b0:	914017e0 	add	x0, sp, #0x5, lsl #12
    40b4:	91070000 	add	x0, x0, #0x1c0
    40b8:	3d838900 	str	q0, [x8, #3616]
    40bc:	914017e8 	add	x8, sp, #0x5, lsl #12
    40c0:	9106c108 	add	x8, x8, #0x1b0
    40c4:	90000001 	adrp	x1, d420 <l_alloc_eb8937521ab56b1815db886b021bd11a>
    40c8:	91000021 	add	x1, x1, #0x0
    40cc:	94000000 	bl	0 <_<T as core::convert::Into<U>>::into>
    40d0:	14000001 	b	40d4 <_<rand_chacha::chacha::ChaCha12Core as rand_core::block::BlockRngCore>::generate+0x1d94>
    40d4:	f946bbe8 	ldr	x8, [sp, #3440]
    40d8:	3dc38100 	ldr	q0, [x8, #3584]
    40dc:	3d838d00 	str	q0, [x8, #3632]
    40e0:	f968ebeb 	ldr	x11, [sp, #20944]
    40e4:	d2800009 	mov	x9, #0x0                   	// #0
    40e8:	f92947eb 	str	x11, [sp, #21128]
    40ec:	f968efea 	ldr	x10, [sp, #20952]
    40f0:	f92943ea 	str	x10, [sp, #21120]
    40f4:	aa090161 	orr	x1, x11, x9
    40f8:	aa0a0122 	orr	x2, x9, x10
    40fc:	4e081c20 	mov	v0.d[0], x1
    4100:	4e181c40 	mov	v0.d[1], x2
    4104:	3d83a500 	str	q0, [x8, #3728]
    4108:	3dc38500 	ldr	q0, [x8, #3600]
    410c:	3d839100 	str	q0, [x8, #3648]
    4110:	f968f3eb 	ldr	x11, [sp, #20960]
    4114:	f9294feb 	str	x11, [sp, #21144]
    4118:	f968f7ea 	ldr	x10, [sp, #20968]
    411c:	f9294bea 	str	x10, [sp, #21136]
    4120:	aa090163 	orr	x3, x11, x9
    4124:	aa0a0124 	orr	x4, x9, x10
    4128:	4e081c60 	mov	v0.d[0], x3
    412c:	4e181c80 	mov	v0.d[1], x4
    4130:	3d83a900 	str	q0, [x8, #3744]
    4134:	914017e0 	add	x0, sp, #0x5, lsl #12
    4138:	91067c00 	add	x0, x0, #0x19f
    413c:	94000000 	bl	0 <_<ppv_lite86::generic::u32x4_generic as core::ops::bit::BitXor>::bitxor::{{closure}}>
    4140:	f90563e0 	str	x0, [sp, #2752]
    4144:	f90567e1 	str	x1, [sp, #2760]
    4148:	4e081c00 	mov	v0.d[0], x0
    414c:	4e181c20 	mov	v0.d[1], x1
    4150:	3d82b7e0 	str	q0, [sp, #2768]
    4154:	14000008 	b	4174 <_<rand_chacha::chacha::ChaCha12Core as rand_core::block::BlockRngCore>::generate+0x1e34>
    4158:	f946bbe8 	ldr	x8, [sp, #3440]
    415c:	f96913e9 	ldr	x9, [sp, #21024]
    4160:	f9055be9 	str	x9, [sp, #2736]
    4164:	b94e8908 	ldr	w8, [x8, #3720]
    4168:	b90abfe8 	str	w8, [sp, #2748]
    416c:	14000016 	b	41c4 <_<rand_chacha::chacha::ChaCha12Core as rand_core::block::BlockRngCore>::generate+0x1e84>
    4170:	17fffffa 	b	4158 <_<rand_chacha::chacha::ChaCha12Core as rand_core::block::BlockRngCore>::generate+0x1e18>
    4174:	f946b7e8 	ldr	x8, [sp, #3432]
    4178:	f946bbe9 	ldr	x9, [sp, #3440]
    417c:	f94567ea 	ldr	x10, [sp, #2760]
    4180:	f94563eb 	ldr	x11, [sp, #2752]
    4184:	3dc2b7e0 	ldr	q0, [sp, #2768]
    4188:	3d83b120 	str	q0, [x9, #3776]
    418c:	f92907eb 	str	x11, [sp, #21000]
    4190:	f9290bea 	str	x10, [sp, #21008]
    4194:	914017ea 	add	x10, sp, #0x5, lsl #12
    4198:	9104254a 	add	x10, x10, #0x109
    419c:	3ccff140 	ldur	q0, [x10, #255]
    41a0:	3d839520 	str	q0, [x9, #3664]
    41a4:	3dc39520 	ldr	q0, [x9, #3664]
    41a8:	3d83ad20 	str	q0, [x9, #3760]
    41ac:	3dc3ad20 	ldr	q0, [x9, #3760]
    41b0:	3d83b520 	str	q0, [x9, #3792]
    41b4:	3dc3b520 	ldr	q0, [x9, #3792]
    41b8:	3d867900 	str	q0, [x8, #6624]
    41bc:	14000007 	b	41d8 <_<rand_chacha::chacha::ChaCha12Core as rand_core::block::BlockRngCore>::generate+0x1e98>
    41c0:	17ffff95 	b	4014 <_<rand_chacha::chacha::ChaCha12Core as rand_core::block::BlockRngCore>::generate+0x1cd4>
    41c4:	b94abfe8 	ldr	w8, [sp, #2748]
    41c8:	f9455be9 	ldr	x9, [sp, #2736]
    41cc:	f91e93e9 	str	x9, [sp, #15648]
    41d0:	b93d2be8 	str	w8, [sp, #15656]
    41d4:	17fffffb 	b	41c0 <_<rand_chacha::chacha::ChaCha12Core as rand_core::block::BlockRngCore>::generate+0x1e80>
    41d8:	f946bbe9 	ldr	x9, [sp, #3440]
    41dc:	f946b7e8 	ldr	x8, [sp, #3432]
    41e0:	3dc39d00 	ldr	q0, [x8, #3696]
    41e4:	3d832120 	str	q0, [x9, #3200]
    41e8:	3dc3ad00 	ldr	q0, [x8, #3760]
    41ec:	3d831d20 	str	q0, [x9, #3184]
    41f0:	3dc32120 	ldr	q0, [x9, #3200]
    41f4:	914017e0 	add	x0, sp, #0x5, lsl #12
    41f8:	3d831920 	str	q0, [x9, #3168]
    41fc:	3dc31d20 	ldr	q0, [x9, #3184]
    4200:	3d832520 	str	q0, [x9, #3216]
    4204:	3934bd3f 	strb	wzr, [x9, #3375]
    4208:	52800028 	mov	w8, #0x1                   	// #1
    420c:	3934bd28 	strb	w8, [x9, #3375]
    4210:	914017e8 	add	x8, sp, #0x5, lsl #12
    4214:	91014108 	add	x8, x8, #0x50
    4218:	90000001 	adrp	x1, d408 <l_alloc_d6cd646a032ab5661bff8aa78f551e65>
    421c:	91000021 	add	x1, x1, #0x0
    4220:	94000000 	bl	0 <_<T as core::convert::Into<U>>::into>
    4224:	14000008 	b	4244 <_<rand_chacha::chacha::ChaCha12Core as rand_core::block::BlockRngCore>::generate+0x1f04>
    4228:	f946bbe8 	ldr	x8, [sp, #3440]
    422c:	f9286be0 	str	x0, [sp, #20688]
    4230:	aa0103e9 	mov	x9, x1
    4234:	b90d3909 	str	w9, [x8, #3384]
    4238:	3974bd08 	ldrb	w8, [x8, #3375]
    423c:	370006a8 	tbnz	w8, #0, 4310 <_<rand_chacha::chacha::ChaCha12Core as rand_core::block::BlockRngCore>::generate+0x1fd0>
    4240:	1400002e 	b	42f8 <_<rand_chacha::chacha::ChaCha12Core as rand_core::block::BlockRngCore>::generate+0x1fb8>
    4244:	f946bbe8 	ldr	x8, [sp, #3440]
    4248:	3934bd1f 	strb	wzr, [x8, #3375]
    424c:	3dc32500 	ldr	q0, [x8, #3216]
    4250:	914017e0 	add	x0, sp, #0x5, lsl #12
    4254:	9101c000 	add	x0, x0, #0x70
    4258:	3d833500 	str	q0, [x8, #3280]
    425c:	914017e8 	add	x8, sp, #0x5, lsl #12
    4260:	91018108 	add	x8, x8, #0x60
    4264:	90000001 	adrp	x1, d420 <l_alloc_eb8937521ab56b1815db886b021bd11a>
    4268:	91000021 	add	x1, x1, #0x0
    426c:	94000000 	bl	0 <_<T as core::convert::Into<U>>::into>
    4270:	14000001 	b	4274 <_<rand_chacha::chacha::ChaCha12Core as rand_core::block::BlockRngCore>::generate+0x1f34>
    4274:	f946bbe8 	ldr	x8, [sp, #3440]
    4278:	3dc32d00 	ldr	q0, [x8, #3248]
    427c:	3d833900 	str	q0, [x8, #3296]
    4280:	f96843eb 	ldr	x11, [sp, #20608]
    4284:	d2800009 	mov	x9, #0x0                   	// #0
    4288:	f9289feb 	str	x11, [sp, #20792]
    428c:	f96847ea 	ldr	x10, [sp, #20616]
    4290:	f9289bea 	str	x10, [sp, #20784]
    4294:	aa090161 	orr	x1, x11, x9
    4298:	aa0a0122 	orr	x2, x9, x10
    429c:	4e081c20 	mov	v0.d[0], x1
    42a0:	4e181c40 	mov	v0.d[1], x2
    42a4:	3d835100 	str	q0, [x8, #3392]
    42a8:	3dc33100 	ldr	q0, [x8, #3264]
    42ac:	3d833d00 	str	q0, [x8, #3312]
    42b0:	f9684beb 	ldr	x11, [sp, #20624]
    42b4:	f928a7eb 	str	x11, [sp, #20808]
    42b8:	f9684fea 	ldr	x10, [sp, #20632]
    42bc:	f928a3ea 	str	x10, [sp, #20800]
    42c0:	aa090163 	orr	x3, x11, x9
    42c4:	aa0a0124 	orr	x4, x9, x10
    42c8:	4e081c60 	mov	v0.d[0], x3
    42cc:	4e181c80 	mov	v0.d[1], x4
    42d0:	3d835500 	str	q0, [x8, #3408]
    42d4:	914017e0 	add	x0, sp, #0x5, lsl #12
    42d8:	91013c00 	add	x0, x0, #0x4f
    42dc:	94000000 	bl	0 <_<ppv_lite86::generic::u32x4_generic as core::ops::bit::BitXor>::bitxor::{{closure}}>
    42e0:	f9054be0 	str	x0, [sp, #2704]
    42e4:	f9054fe1 	str	x1, [sp, #2712]
    42e8:	4e081c00 	mov	v0.d[0], x0
    42ec:	4e181c20 	mov	v0.d[1], x1
    42f0:	3d82abe0 	str	q0, [sp, #2720]
    42f4:	14000008 	b	4314 <_<rand_chacha::chacha::ChaCha12Core as rand_core::block::BlockRngCore>::generate+0x1fd4>
    42f8:	f946bbe8 	ldr	x8, [sp, #3440]
    42fc:	f9686be9 	ldr	x9, [sp, #20688]
    4300:	f90543e9 	str	x9, [sp, #2688]
    4304:	b94d3908 	ldr	w8, [x8, #3384]
    4308:	b90a8fe8 	str	w8, [sp, #2700]
    430c:	14000015 	b	4360 <_<rand_chacha::chacha::ChaCha12Core as rand_core::block::BlockRngCore>::generate+0x2020>
    4310:	17fffffa 	b	42f8 <_<rand_chacha::chacha::ChaCha12Core as rand_core::block::BlockRngCore>::generate+0x1fb8>
    4314:	f946b7e8 	ldr	x8, [sp, #3432]
    4318:	f946bbe9 	ldr	x9, [sp, #3440]
    431c:	f9454fea 	ldr	x10, [sp, #2712]
    4320:	f9454beb 	ldr	x11, [sp, #2704]
    4324:	3dc2abe0 	ldr	q0, [sp, #2720]
    4328:	3d835d20 	str	q0, [x9, #3440]
    432c:	f9285feb 	str	x11, [sp, #20664]
    4330:	f92863ea 	str	x10, [sp, #20672]
    4334:	914013ea 	add	x10, sp, #0x4, lsl #12
    4338:	913ee54a 	add	x10, x10, #0xfb9
    433c:	3ccff140 	ldur	q0, [x10, #255]
    4340:	3d834120 	str	q0, [x9, #3328]
    4344:	3dc34120 	ldr	q0, [x9, #3328]
    4348:	3d835920 	str	q0, [x9, #3424]
    434c:	3dc35920 	ldr	q0, [x9, #3424]
    4350:	3d836120 	str	q0, [x9, #3456]
    4354:	3dc36120 	ldr	q0, [x9, #3456]
    4358:	3d867d00 	str	q0, [x8, #6640]
    435c:	14000006 	b	4374 <_<rand_chacha::chacha::ChaCha12Core as rand_core::block::BlockRngCore>::generate+0x2034>
    4360:	b94a8fe8 	ldr	w8, [sp, #2700]
    4364:	f94543e9 	ldr	x9, [sp, #2688]
    4368:	f91e93e9 	str	x9, [sp, #15648]
    436c:	b93d2be8 	str	w8, [sp, #15656]
    4370:	17ffff94 	b	41c0 <_<rand_chacha::chacha::ChaCha12Core as rand_core::block::BlockRngCore>::generate+0x1e80>
    4374:	f946b7e8 	ldr	x8, [sp, #3432]
    4378:	3dc67100 	ldr	q0, [x8, #6592]
    437c:	91400fe1 	add	x1, sp, #0x3, lsl #12
    4380:	91328021 	add	x1, x1, #0xca0
    4384:	3d866100 	str	q0, [x8, #6528]
    4388:	3dc67500 	ldr	q0, [x8, #6608]
    438c:	3d866500 	str	q0, [x8, #6544]
    4390:	3dc67900 	ldr	q0, [x8, #6624]
    4394:	3d866900 	str	q0, [x8, #6560]
    4398:	3dc67d00 	ldr	q0, [x8, #6640]
    439c:	3d866d00 	str	q0, [x8, #6576]
    43a0:	91400fe0 	add	x0, sp, #0x3, lsl #12
    43a4:	91048000 	add	x0, x0, #0x120
    43a8:	52800808 	mov	w8, #0x40                  	// #64
    43ac:	aa0803e2 	mov	x2, x8
    43b0:	94000000 	bl	0 <_memcpy>
    43b4:	f946b7e9 	ldr	x9, [sp, #3432]
    43b8:	f94687e8 	ldr	x8, [sp, #3336]
    43bc:	3dc38120 	ldr	q0, [x9, #3584]
    43c0:	3d8e3900 	str	q0, [x8, #14560]
    43c4:	3dce3900 	ldr	q0, [x8, #14560]
    43c8:	914027e0 	add	x0, sp, #0x9, lsl #12
    43cc:	913e8000 	add	x0, x0, #0xfa0
    43d0:	3d8e3500 	str	q0, [x8, #14544]
    43d4:	914027e8 	add	x8, sp, #0x9, lsl #12
    43d8:	913f4108 	add	x8, x8, #0xfd0
    43dc:	90000001 	adrp	x1, d3d8 <l_alloc_345ce69d67e2022250dbe2d202815e5b>
    43e0:	91000021 	add	x1, x1, #0x0
    43e4:	94000000 	bl	0 <_<T as core::convert::Into<U>>::into>
    43e8:	14000008 	b	4408 <_<rand_chacha::chacha::ChaCha12Core as rand_core::block::BlockRngCore>::generate+0x20c8>
    43ec:	f94687e8 	ldr	x8, [sp, #3336]
    43f0:	f91ca100 	str	x0, [x8, #14656]
    43f4:	aa0103e9 	mov	x9, x1
    43f8:	b9394909 	str	w9, [x8, #14664]
    43fc:	f95ca108 	ldr	x8, [x8, #14656]
    4400:	f90677e8 	str	x8, [sp, #3304]
    4404:	14001f68 	b	c1a4 <_<rand_chacha::chacha::ChaCha12Core as rand_core::block::BlockRngCore>::generate+0x9e64>
    4408:	f94687e8 	ldr	x8, [sp, #3336]
    440c:	3dce4100 	ldr	q0, [x8, #14592]
    4410:	3d8e4500 	str	q0, [x8, #14608]
    4414:	b9791101 	ldr	w1, [x8, #14608]
    4418:	914027e0 	add	x0, sp, #0x9, lsl #12
    441c:	913f3c00 	add	x0, x0, #0xfcf
    4420:	94000000 	bl	0 <_<ppv_lite86::generic::u32x4_generic as ppv_lite86::types::RotateEachWord32>::rotate_each_word_right20::{{closure}}>
    4424:	b90a7fe0 	str	w0, [sp, #2684]
    4428:	14000001 	b	442c <_<rand_chacha::chacha::ChaCha12Core as rand_core::block::BlockRngCore>::generate+0x20ec>
    442c:	f94687e8 	ldr	x8, [sp, #3336]
    4430:	b9791501 	ldr	w1, [x8, #14612]
    4434:	914027e0 	add	x0, sp, #0x9, lsl #12
    4438:	913f3c00 	add	x0, x0, #0xfcf
    443c:	94000000 	bl	0 <_<ppv_lite86::generic::u32x4_generic as ppv_lite86::types::RotateEachWord32>::rotate_each_word_right20::{{closure}}>
    4440:	b90a7be0 	str	w0, [sp, #2680]
    4444:	14000001 	b	4448 <_<rand_chacha::chacha::ChaCha12Core as rand_core::block::BlockRngCore>::generate+0x2108>
    4448:	f94687e8 	ldr	x8, [sp, #3336]
    444c:	b9791901 	ldr	w1, [x8, #14616]
    4450:	914027e0 	add	x0, sp, #0x9, lsl #12
    4454:	913f3c00 	add	x0, x0, #0xfcf
    4458:	94000000 	bl	0 <_<ppv_lite86::generic::u32x4_generic as ppv_lite86::types::RotateEachWord32>::rotate_each_word_right20::{{closure}}>
    445c:	b90a77e0 	str	w0, [sp, #2676]
    4460:	14000001 	b	4464 <_<rand_chacha::chacha::ChaCha12Core as rand_core::block::BlockRngCore>::generate+0x2124>
    4464:	f94687e8 	ldr	x8, [sp, #3336]
    4468:	b9791d01 	ldr	w1, [x8, #14620]
    446c:	914027e0 	add	x0, sp, #0x9, lsl #12
    4470:	913f3c00 	add	x0, x0, #0xfcf
    4474:	94000000 	bl	0 <_<ppv_lite86::generic::u32x4_generic as ppv_lite86::types::RotateEachWord32>::rotate_each_word_right20::{{closure}}>
    4478:	b90a73e0 	str	w0, [sp, #2672]
    447c:	14000001 	b	4480 <_<rand_chacha::chacha::ChaCha12Core as rand_core::block::BlockRngCore>::generate+0x2140>
    4480:	f94687e8 	ldr	x8, [sp, #3336]
    4484:	f946b7e9 	ldr	x9, [sp, #3432]
    4488:	b94a73ea 	ldr	w10, [sp, #2672]
    448c:	b94a77eb 	ldr	w11, [sp, #2676]
    4490:	b94a7bec 	ldr	w12, [sp, #2680]
    4494:	b94a7fed 	ldr	w13, [sp, #2684]
    4498:	b939310d 	str	w13, [x8, #14640]
    449c:	b939350c 	str	w12, [x8, #14644]
    44a0:	b939390b 	str	w11, [x8, #14648]
    44a4:	b9393d0a 	str	w10, [x8, #14652]
    44a8:	3dce4d00 	ldr	q0, [x8, #14640]
    44ac:	3d8e4900 	str	q0, [x8, #14624]
    44b0:	3dce4900 	ldr	q0, [x8, #14624]
    44b4:	3d8e5500 	str	q0, [x8, #14672]
    44b8:	3dce5500 	ldr	q0, [x8, #14672]
    44bc:	3d8e5900 	str	q0, [x8, #14688]
    44c0:	3dce5900 	ldr	q0, [x8, #14688]
    44c4:	3d8b2d00 	str	q0, [x8, #11440]
    44c8:	3dc38520 	ldr	q0, [x9, #3600]
    44cc:	3d8e1100 	str	q0, [x8, #14400]
    44d0:	3dce1100 	ldr	q0, [x8, #14400]
    44d4:	914027e0 	add	x0, sp, #0x9, lsl #12
    44d8:	913c0000 	add	x0, x0, #0xf00
    44dc:	3d8e0d00 	str	q0, [x8, #14384]
    44e0:	914027e8 	add	x8, sp, #0x9, lsl #12
    44e4:	913cc108 	add	x8, x8, #0xf30
    44e8:	90000001 	adrp	x1, d3d8 <l_alloc_345ce69d67e2022250dbe2d202815e5b>
    44ec:	91000021 	add	x1, x1, #0x0
    44f0:	94000000 	bl	0 <_<T as core::convert::Into<U>>::into>
    44f4:	14000008 	b	4514 <_<rand_chacha::chacha::ChaCha12Core as rand_core::block::BlockRngCore>::generate+0x21d4>
    44f8:	f94687e8 	ldr	x8, [sp, #3336]
    44fc:	f91c5100 	str	x0, [x8, #14496]
    4500:	aa0103e9 	mov	x9, x1
    4504:	b938a909 	str	w9, [x8, #14504]
    4508:	f95c5108 	ldr	x8, [x8, #14496]
    450c:	f90677e8 	str	x8, [sp, #3304]
    4510:	14001f25 	b	c1a4 <_<rand_chacha::chacha::ChaCha12Core as rand_core::block::BlockRngCore>::generate+0x9e64>
    4514:	f94687e8 	ldr	x8, [sp, #3336]
    4518:	3dce1900 	ldr	q0, [x8, #14432]
    451c:	3d8e1d00 	str	q0, [x8, #14448]
    4520:	b9787101 	ldr	w1, [x8, #14448]
    4524:	914027e0 	add	x0, sp, #0x9, lsl #12
    4528:	913cbc00 	add	x0, x0, #0xf2f
    452c:	94000000 	bl	0 <_<ppv_lite86::generic::u32x4_generic as ppv_lite86::types::RotateEachWord32>::rotate_each_word_right20::{{closure}}>
    4530:	b90a6fe0 	str	w0, [sp, #2668]
    4534:	14000001 	b	4538 <_<rand_chacha::chacha::ChaCha12Core as rand_core::block::BlockRngCore>::generate+0x21f8>
    4538:	f94687e8 	ldr	x8, [sp, #3336]
    453c:	b9787501 	ldr	w1, [x8, #14452]
    4540:	914027e0 	add	x0, sp, #0x9, lsl #12
    4544:	913cbc00 	add	x0, x0, #0xf2f
    4548:	94000000 	bl	0 <_<ppv_lite86::generic::u32x4_generic as ppv_lite86::types::RotateEachWord32>::rotate_each_word_right20::{{closure}}>
    454c:	b90a6be0 	str	w0, [sp, #2664]
    4550:	14000001 	b	4554 <_<rand_chacha::chacha::ChaCha12Core as rand_core::block::BlockRngCore>::generate+0x2214>
    4554:	f94687e8 	ldr	x8, [sp, #3336]
    4558:	b9787901 	ldr	w1, [x8, #14456]
    455c:	914027e0 	add	x0, sp, #0x9, lsl #12
    4560:	913cbc00 	add	x0, x0, #0xf2f
    4564:	94000000 	bl	0 <_<ppv_lite86::generic::u32x4_generic as ppv_lite86::types::RotateEachWord32>::rotate_each_word_right20::{{closure}}>
    4568:	b90a67e0 	str	w0, [sp, #2660]
    456c:	14000001 	b	4570 <_<rand_chacha::chacha::ChaCha12Core as rand_core::block::BlockRngCore>::generate+0x2230>
    4570:	f94687e8 	ldr	x8, [sp, #3336]
    4574:	b9787d01 	ldr	w1, [x8, #14460]
    4578:	914027e0 	add	x0, sp, #0x9, lsl #12
    457c:	913cbc00 	add	x0, x0, #0xf2f
    4580:	94000000 	bl	0 <_<ppv_lite86::generic::u32x4_generic as ppv_lite86::types::RotateEachWord32>::rotate_each_word_right20::{{closure}}>
    4584:	b90a63e0 	str	w0, [sp, #2656]
    4588:	14000001 	b	458c <_<rand_chacha::chacha::ChaCha12Core as rand_core::block::BlockRngCore>::generate+0x224c>
    458c:	f94687e8 	ldr	x8, [sp, #3336]
    4590:	f946b7e9 	ldr	x9, [sp, #3432]
    4594:	b94a63ea 	ldr	w10, [sp, #2656]
    4598:	b94a67eb 	ldr	w11, [sp, #2660]
    459c:	b94a6bec 	ldr	w12, [sp, #2664]
    45a0:	b94a6fed 	ldr	w13, [sp, #2668]
    45a4:	b938910d 	str	w13, [x8, #14480]
    45a8:	b938950c 	str	w12, [x8, #14484]
    45ac:	b938990b 	str	w11, [x8, #14488]
    45b0:	b9389d0a 	str	w10, [x8, #14492]
    45b4:	3dce2500 	ldr	q0, [x8, #14480]
    45b8:	3d8e2100 	str	q0, [x8, #14464]
    45bc:	3dce2100 	ldr	q0, [x8, #14464]
    45c0:	3d8e2d00 	str	q0, [x8, #14512]
    45c4:	3dce2d00 	ldr	q0, [x8, #14512]
    45c8:	3d8e3100 	str	q0, [x8, #14528]
    45cc:	3dce3100 	ldr	q0, [x8, #14528]
    45d0:	3d8b3100 	str	q0, [x8, #11456]
    45d4:	3dc38920 	ldr	q0, [x9, #3616]
    45d8:	3d8de900 	str	q0, [x8, #14240]
    45dc:	3dcde900 	ldr	q0, [x8, #14240]
    45e0:	914027e0 	add	x0, sp, #0x9, lsl #12
    45e4:	91398000 	add	x0, x0, #0xe60
    45e8:	3d8de500 	str	q0, [x8, #14224]
    45ec:	914027e8 	add	x8, sp, #0x9, lsl #12
    45f0:	913a4108 	add	x8, x8, #0xe90
    45f4:	90000001 	adrp	x1, d3d8 <l_alloc_345ce69d67e2022250dbe2d202815e5b>
    45f8:	91000021 	add	x1, x1, #0x0
    45fc:	94000000 	bl	0 <_<T as core::convert::Into<U>>::into>
    4600:	14000008 	b	4620 <_<rand_chacha::chacha::ChaCha12Core as rand_core::block::BlockRngCore>::generate+0x22e0>
    4604:	f94687e8 	ldr	x8, [sp, #3336]
    4608:	f91c0100 	str	x0, [x8, #14336]
    460c:	aa0103e9 	mov	x9, x1
    4610:	b9380909 	str	w9, [x8, #14344]
    4614:	f95c0108 	ldr	x8, [x8, #14336]
    4618:	f90677e8 	str	x8, [sp, #3304]
    461c:	14001ee2 	b	c1a4 <_<rand_chacha::chacha::ChaCha12Core as rand_core::block::BlockRngCore>::generate+0x9e64>
    4620:	f94687e8 	ldr	x8, [sp, #3336]
    4624:	3dcdf100 	ldr	q0, [x8, #14272]
    4628:	3d8df500 	str	q0, [x8, #14288]
    462c:	b977d101 	ldr	w1, [x8, #14288]
    4630:	914027e0 	add	x0, sp, #0x9, lsl #12
    4634:	913a3c00 	add	x0, x0, #0xe8f
    4638:	94000000 	bl	0 <_<ppv_lite86::generic::u32x4_generic as ppv_lite86::types::RotateEachWord32>::rotate_each_word_right20::{{closure}}>
    463c:	b90a5fe0 	str	w0, [sp, #2652]
    4640:	14000001 	b	4644 <_<rand_chacha::chacha::ChaCha12Core as rand_core::block::BlockRngCore>::generate+0x2304>
    4644:	f94687e8 	ldr	x8, [sp, #3336]
    4648:	b977d501 	ldr	w1, [x8, #14292]
    464c:	914027e0 	add	x0, sp, #0x9, lsl #12
    4650:	913a3c00 	add	x0, x0, #0xe8f
    4654:	94000000 	bl	0 <_<ppv_lite86::generic::u32x4_generic as ppv_lite86::types::RotateEachWord32>::rotate_each_word_right20::{{closure}}>
    4658:	b90a5be0 	str	w0, [sp, #2648]
    465c:	14000001 	b	4660 <_<rand_chacha::chacha::ChaCha12Core as rand_core::block::BlockRngCore>::generate+0x2320>
    4660:	f94687e8 	ldr	x8, [sp, #3336]
    4664:	b977d901 	ldr	w1, [x8, #14296]
    4668:	914027e0 	add	x0, sp, #0x9, lsl #12
    466c:	913a3c00 	add	x0, x0, #0xe8f
    4670:	94000000 	bl	0 <_<ppv_lite86::generic::u32x4_generic as ppv_lite86::types::RotateEachWord32>::rotate_each_word_right20::{{closure}}>
    4674:	b90a57e0 	str	w0, [sp, #2644]
    4678:	14000001 	b	467c <_<rand_chacha::chacha::ChaCha12Core as rand_core::block::BlockRngCore>::generate+0x233c>
    467c:	f94687e8 	ldr	x8, [sp, #3336]
    4680:	b977dd01 	ldr	w1, [x8, #14300]
    4684:	914027e0 	add	x0, sp, #0x9, lsl #12
    4688:	913a3c00 	add	x0, x0, #0xe8f
    468c:	94000000 	bl	0 <_<ppv_lite86::generic::u32x4_generic as ppv_lite86::types::RotateEachWord32>::rotate_each_word_right20::{{closure}}>
    4690:	b90a53e0 	str	w0, [sp, #2640]
    4694:	14000001 	b	4698 <_<rand_chacha::chacha::ChaCha12Core as rand_core::block::BlockRngCore>::generate+0x2358>
    4698:	f94687e8 	ldr	x8, [sp, #3336]
    469c:	f946b7e9 	ldr	x9, [sp, #3432]
    46a0:	b94a53ea 	ldr	w10, [sp, #2640]
    46a4:	b94a57eb 	ldr	w11, [sp, #2644]
    46a8:	b94a5bec 	ldr	w12, [sp, #2648]
    46ac:	b94a5fed 	ldr	w13, [sp, #2652]
    46b0:	b937f10d 	str	w13, [x8, #14320]
    46b4:	b937f50c 	str	w12, [x8, #14324]
    46b8:	b937f90b 	str	w11, [x8, #14328]
    46bc:	b937fd0a 	str	w10, [x8, #14332]
    46c0:	3dcdfd00 	ldr	q0, [x8, #14320]
    46c4:	3d8df900 	str	q0, [x8, #14304]
    46c8:	3dcdf900 	ldr	q0, [x8, #14304]
    46cc:	3d8e0500 	str	q0, [x8, #14352]
    46d0:	3dce0500 	ldr	q0, [x8, #14352]
    46d4:	3d8e0900 	str	q0, [x8, #14368]
    46d8:	3dce0900 	ldr	q0, [x8, #14368]
    46dc:	3d8b3500 	str	q0, [x8, #11472]
    46e0:	3dc38d20 	ldr	q0, [x9, #3632]
    46e4:	3d8dc100 	str	q0, [x8, #14080]
    46e8:	3dcdc100 	ldr	q0, [x8, #14080]
    46ec:	914027e0 	add	x0, sp, #0x9, lsl #12
    46f0:	91370000 	add	x0, x0, #0xdc0
    46f4:	3d8dbd00 	str	q0, [x8, #14064]
    46f8:	914027e8 	add	x8, sp, #0x9, lsl #12
    46fc:	9137c108 	add	x8, x8, #0xdf0
    4700:	90000001 	adrp	x1, d3d8 <l_alloc_345ce69d67e2022250dbe2d202815e5b>
    4704:	91000021 	add	x1, x1, #0x0
    4708:	94000000 	bl	0 <_<T as core::convert::Into<U>>::into>
    470c:	14000008 	b	472c <_<rand_chacha::chacha::ChaCha12Core as rand_core::block::BlockRngCore>::generate+0x23ec>
    4710:	f94687e8 	ldr	x8, [sp, #3336]
    4714:	f91bb100 	str	x0, [x8, #14176]
    4718:	aa0103e9 	mov	x9, x1
    471c:	b9376909 	str	w9, [x8, #14184]
    4720:	f95bb108 	ldr	x8, [x8, #14176]
    4724:	f90677e8 	str	x8, [sp, #3304]
    4728:	14001e9f 	b	c1a4 <_<rand_chacha::chacha::ChaCha12Core as rand_core::block::BlockRngCore>::generate+0x9e64>
    472c:	f94687e8 	ldr	x8, [sp, #3336]
    4730:	3dcdc900 	ldr	q0, [x8, #14112]
    4734:	3d8dcd00 	str	q0, [x8, #14128]
    4738:	b9773101 	ldr	w1, [x8, #14128]
    473c:	914027e0 	add	x0, sp, #0x9, lsl #12
    4740:	9137bc00 	add	x0, x0, #0xdef
    4744:	94000000 	bl	0 <_<ppv_lite86::generic::u32x4_generic as ppv_lite86::types::RotateEachWord32>::rotate_each_word_right20::{{closure}}>
    4748:	b90a4fe0 	str	w0, [sp, #2636]
    474c:	14000001 	b	4750 <_<rand_chacha::chacha::ChaCha12Core as rand_core::block::BlockRngCore>::generate+0x2410>
    4750:	f94687e8 	ldr	x8, [sp, #3336]
    4754:	b9773501 	ldr	w1, [x8, #14132]
    4758:	914027e0 	add	x0, sp, #0x9, lsl #12
    475c:	9137bc00 	add	x0, x0, #0xdef
    4760:	94000000 	bl	0 <_<ppv_lite86::generic::u32x4_generic as ppv_lite86::types::RotateEachWord32>::rotate_each_word_right20::{{closure}}>
    4764:	b90a4be0 	str	w0, [sp, #2632]
    4768:	14000001 	b	476c <_<rand_chacha::chacha::ChaCha12Core as rand_core::block::BlockRngCore>::generate+0x242c>
    476c:	f94687e8 	ldr	x8, [sp, #3336]
    4770:	b9773901 	ldr	w1, [x8, #14136]
    4774:	914027e0 	add	x0, sp, #0x9, lsl #12
    4778:	9137bc00 	add	x0, x0, #0xdef
    477c:	94000000 	bl	0 <_<ppv_lite86::generic::u32x4_generic as ppv_lite86::types::RotateEachWord32>::rotate_each_word_right20::{{closure}}>
    4780:	b90a47e0 	str	w0, [sp, #2628]
    4784:	14000001 	b	4788 <_<rand_chacha::chacha::ChaCha12Core as rand_core::block::BlockRngCore>::generate+0x2448>
    4788:	f94687e8 	ldr	x8, [sp, #3336]
    478c:	b9773d01 	ldr	w1, [x8, #14140]
    4790:	914027e0 	add	x0, sp, #0x9, lsl #12
    4794:	9137bc00 	add	x0, x0, #0xdef
    4798:	94000000 	bl	0 <_<ppv_lite86::generic::u32x4_generic as ppv_lite86::types::RotateEachWord32>::rotate_each_word_right20::{{closure}}>
    479c:	b90a43e0 	str	w0, [sp, #2624]
    47a0:	14000001 	b	47a4 <_<rand_chacha::chacha::ChaCha12Core as rand_core::block::BlockRngCore>::generate+0x2464>
    47a4:	f94687e8 	ldr	x8, [sp, #3336]
    47a8:	b94a43e9 	ldr	w9, [sp, #2624]
    47ac:	b94a47ea 	ldr	w10, [sp, #2628]
    47b0:	b94a4beb 	ldr	w11, [sp, #2632]
    47b4:	b94a4fec 	ldr	w12, [sp, #2636]
    47b8:	b937510c 	str	w12, [x8, #14160]
    47bc:	b937550b 	str	w11, [x8, #14164]
    47c0:	b937590a 	str	w10, [x8, #14168]
    47c4:	b9375d09 	str	w9, [x8, #14172]
    47c8:	3dcdd500 	ldr	q0, [x8, #14160]
    47cc:	3d8dd100 	str	q0, [x8, #14144]
    47d0:	3dcdd100 	ldr	q0, [x8, #14144]
    47d4:	3d8ddd00 	str	q0, [x8, #14192]
    47d8:	3dcddd00 	ldr	q0, [x8, #14192]
    47dc:	3d8de100 	str	q0, [x8, #14208]
    47e0:	3dcde100 	ldr	q0, [x8, #14208]
    47e4:	3d8b3900 	str	q0, [x8, #11488]
    47e8:	3dcb2d00 	ldr	q0, [x8, #11440]
    47ec:	914027e1 	add	x1, sp, #0x9, lsl #12
    47f0:	910d0021 	add	x1, x1, #0x340
    47f4:	3d8b1d00 	str	q0, [x8, #11376]
    47f8:	3dcb3100 	ldr	q0, [x8, #11456]
    47fc:	3d8b2100 	str	q0, [x8, #11392]
    4800:	3dcb3500 	ldr	q0, [x8, #11472]
    4804:	3d8b2500 	str	q0, [x8, #11408]
    4808:	3dcb3900 	ldr	q0, [x8, #11488]
    480c:	3d8b2900 	str	q0, [x8, #11424]
    4810:	91400fe0 	add	x0, sp, #0x3, lsl #12
    4814:	91038000 	add	x0, x0, #0xe0
    4818:	f90517e0 	str	x0, [sp, #2600]
    481c:	52800808 	mov	w8, #0x40                  	// #64
    4820:	aa0803e2 	mov	x2, x8
    4824:	f9051fe2 	str	x2, [sp, #2616]
    4828:	94000000 	bl	0 <_memcpy>
    482c:	f94517e1 	ldr	x1, [sp, #2600]
    4830:	f9451fe2 	ldr	x2, [sp, #2616]
    4834:	914007e8 	add	x8, sp, #0x1, lsl #12
    4838:	91084108 	add	x8, x8, #0x210
    483c:	f9051be8 	str	x8, [sp, #2608]
    4840:	91010100 	add	x0, x8, #0x40
    4844:	94000000 	bl	0 <_memcpy>
    4848:	f9451be8 	ldr	x8, [sp, #2608]
    484c:	f9451fe2 	ldr	x2, [sp, #2616]
    4850:	91010101 	add	x1, x8, #0x40
    4854:	91400fe0 	add	x0, sp, #0x3, lsl #12
    4858:	91078000 	add	x0, x0, #0x1e0
    485c:	94000000 	bl	0 <_memcpy>
    4860:	f94687e8 	ldr	x8, [sp, #3336]
    4864:	f946abe9 	ldr	x9, [sp, #3408]
    4868:	f9451bea 	ldr	x10, [sp, #2608]
    486c:	f946b7eb 	ldr	x11, [sp, #3432]
    4870:	aa0a03ec 	mov	x12, x10
    4874:	f93b4fec 	str	x12, [sp, #30360]
    4878:	3dc3b160 	ldr	q0, [x11, #3776]
    487c:	3d83e100 	str	q0, [x8, #3968]
    4880:	f93f3fea 	str	x10, [sp, #32376]
    4884:	3dc10520 	ldr	q0, [x9, #1040]
    4888:	3d85f500 	str	q0, [x8, #6096]
    488c:	3dc3e100 	ldr	q0, [x8, #3968]
    4890:	3d85f100 	str	q0, [x8, #6080]
    4894:	3dc5f500 	ldr	q0, [x8, #6096]
    4898:	91401fe0 	add	x0, sp, #0x7, lsl #12
    489c:	913a0000 	add	x0, x0, #0xe80
    48a0:	3d85ed00 	str	q0, [x8, #6064]
    48a4:	3dc5f100 	ldr	q0, [x8, #6080]
    48a8:	91401fe1 	add	x1, sp, #0x7, lsl #12
    48ac:	913ac021 	add	x1, x1, #0xeb0
    48b0:	3d85f900 	str	q0, [x8, #6112]
    48b4:	91401fe8 	add	x8, sp, #0x7, lsl #12
    48b8:	9139a108 	add	x8, x8, #0xe68
    48bc:	94000000 	bl	0 <_ppv_lite86::generic::dmap2>
    48c0:	f94687e8 	ldr	x8, [sp, #3336]
    48c4:	f946abe9 	ldr	x9, [sp, #3408]
    48c8:	f9451bea 	ldr	x10, [sp, #2608]
    48cc:	f946b7eb 	ldr	x11, [sp, #3432]
    48d0:	91401fec 	add	x12, sp, #0x7, lsl #12
    48d4:	9135a58c 	add	x12, x12, #0xd69
    48d8:	3ccff180 	ldur	q0, [x12, #255]
    48dc:	3d810520 	str	q0, [x9, #1040]
    48e0:	9100414a 	add	x10, x10, #0x10
    48e4:	3dc3b560 	ldr	q0, [x11, #3792]
    48e8:	3d83e500 	str	q0, [x8, #3984]
    48ec:	f93f0fea 	str	x10, [sp, #32280]
    48f0:	3dc10920 	ldr	q0, [x9, #1056]
    48f4:	3d85dd00 	str	q0, [x8, #6000]
    48f8:	3dc3e500 	ldr	q0, [x8, #3984]
    48fc:	3d85d900 	str	q0, [x8, #5984]
    4900:	3dc5dd00 	ldr	q0, [x8, #6000]
    4904:	91401fe0 	add	x0, sp, #0x7, lsl #12
    4908:	91388000 	add	x0, x0, #0xe20
    490c:	3d85d500 	str	q0, [x8, #5968]
    4910:	3dc5d900 	ldr	q0, [x8, #5984]
    4914:	91401fe1 	add	x1, sp, #0x7, lsl #12
    4918:	91394021 	add	x1, x1, #0xe50
    491c:	3d85e100 	str	q0, [x8, #6016]
    4920:	91401fe8 	add	x8, sp, #0x7, lsl #12
    4924:	91382108 	add	x8, x8, #0xe08
    4928:	94000000 	bl	0 <_ppv_lite86::generic::dmap2>
    492c:	f94687e8 	ldr	x8, [sp, #3336]
    4930:	f946abe9 	ldr	x9, [sp, #3408]
    4934:	f9451bea 	ldr	x10, [sp, #2608]
    4938:	f946b7eb 	ldr	x11, [sp, #3432]
    493c:	91401fec 	add	x12, sp, #0x7, lsl #12
    4940:	9134258c 	add	x12, x12, #0xd09
    4944:	3ccff180 	ldur	q0, [x12, #255]
    4948:	3d810920 	str	q0, [x9, #1056]
    494c:	9100814a 	add	x10, x10, #0x20
    4950:	3dc3b960 	ldr	q0, [x11, #3808]
    4954:	3d83e900 	str	q0, [x8, #4000]
    4958:	f93edfea 	str	x10, [sp, #32184]
    495c:	3dc10d20 	ldr	q0, [x9, #1072]
    4960:	3d85c500 	str	q0, [x8, #5904]
    4964:	3dc3e900 	ldr	q0, [x8, #4000]
    4968:	3d85c100 	str	q0, [x8, #5888]
    496c:	3dc5c500 	ldr	q0, [x8, #5904]
    4970:	91401fe0 	add	x0, sp, #0x7, lsl #12
    4974:	91370000 	add	x0, x0, #0xdc0
    4978:	3d85bd00 	str	q0, [x8, #5872]
    497c:	3dc5c100 	ldr	q0, [x8, #5888]
    4980:	91401fe1 	add	x1, sp, #0x7, lsl #12
    4984:	9137c021 	add	x1, x1, #0xdf0
    4988:	3d85c900 	str	q0, [x8, #5920]
    498c:	91401fe8 	add	x8, sp, #0x7, lsl #12
    4990:	9136a108 	add	x8, x8, #0xda8
    4994:	94000000 	bl	0 <_ppv_lite86::generic::dmap2>
    4998:	f94687e8 	ldr	x8, [sp, #3336]
    499c:	f946abe9 	ldr	x9, [sp, #3408]
    49a0:	f9451bea 	ldr	x10, [sp, #2608]
    49a4:	f946b7eb 	ldr	x11, [sp, #3432]
    49a8:	91401fec 	add	x12, sp, #0x7, lsl #12
    49ac:	9132a58c 	add	x12, x12, #0xca9
    49b0:	3ccff180 	ldur	q0, [x12, #255]
    49b4:	3d810d20 	str	q0, [x9, #1072]
    49b8:	9100c14a 	add	x10, x10, #0x30
    49bc:	3dc3bd60 	ldr	q0, [x11, #3824]
    49c0:	3d83ed00 	str	q0, [x8, #4016]
    49c4:	f93eafea 	str	x10, [sp, #32088]
    49c8:	3dc11120 	ldr	q0, [x9, #1088]
    49cc:	3d85ad00 	str	q0, [x8, #5808]
    49d0:	3dc3ed00 	ldr	q0, [x8, #4016]
    49d4:	3d85a900 	str	q0, [x8, #5792]
    49d8:	3dc5ad00 	ldr	q0, [x8, #5808]
    49dc:	91401fe0 	add	x0, sp, #0x7, lsl #12
    49e0:	91358000 	add	x0, x0, #0xd60
    49e4:	3d85a500 	str	q0, [x8, #5776]
    49e8:	3dc5a900 	ldr	q0, [x8, #5792]
    49ec:	91401fe1 	add	x1, sp, #0x7, lsl #12
    49f0:	91364021 	add	x1, x1, #0xd90
    49f4:	3d85b100 	str	q0, [x8, #5824]
    49f8:	91401fe8 	add	x8, sp, #0x7, lsl #12
    49fc:	91352108 	add	x8, x8, #0xd48
    4a00:	94000000 	bl	0 <_ppv_lite86::generic::dmap2>
    4a04:	f946abe9 	ldr	x9, [sp, #3408]
    4a08:	f9451be8 	ldr	x8, [sp, #2608]
    4a0c:	f9451fe2 	ldr	x2, [sp, #2616]
    4a10:	91401fea 	add	x10, sp, #0x7, lsl #12
    4a14:	9131254a 	add	x10, x10, #0xc49
    4a18:	3ccff140 	ldur	q0, [x10, #255]
    4a1c:	3d811120 	str	q0, [x9, #1088]
    4a20:	91030101 	add	x1, x8, #0xc0
    4a24:	91400fe0 	add	x0, sp, #0x3, lsl #12
    4a28:	910a8000 	add	x0, x0, #0x2a0
    4a2c:	94000000 	bl	0 <_memcpy>
    4a30:	f9451be1 	ldr	x1, [sp, #2608]
    4a34:	f9451fe2 	ldr	x2, [sp, #2616]
    4a38:	91400fe0 	add	x0, sp, #0x3, lsl #12
    4a3c:	910b8000 	add	x0, x0, #0x2e0
    4a40:	94000000 	bl	0 <_memcpy>
    4a44:	f946b7e8 	ldr	x8, [sp, #3432]
    4a48:	f9468fe9 	ldr	x9, [sp, #3352]
    4a4c:	3dc3e100 	ldr	q0, [x8, #3968]
    4a50:	3d80e520 	str	q0, [x9, #912]
    4a54:	3dc3f100 	ldr	q0, [x8, #4032]
    4a58:	3d80e120 	str	q0, [x9, #896]
    4a5c:	3dc0e520 	ldr	q0, [x9, #912]
    4a60:	914017e0 	add	x0, sp, #0x5, lsl #12
    4a64:	9124c000 	add	x0, x0, #0x930
    4a68:	3d80dd20 	str	q0, [x9, #880]
    4a6c:	3dc0e120 	ldr	q0, [x9, #896]
    4a70:	3d80e920 	str	q0, [x9, #928]
    4a74:	3910fd3f 	strb	wzr, [x9, #1087]
    4a78:	52800028 	mov	w8, #0x1                   	// #1
    4a7c:	3910fd28 	strb	w8, [x9, #1087]
    4a80:	914017e8 	add	x8, sp, #0x5, lsl #12
    4a84:	91260108 	add	x8, x8, #0x980
    4a88:	90000001 	adrp	x1, d408 <l_alloc_d6cd646a032ab5661bff8aa78f551e65>
    4a8c:	91000021 	add	x1, x1, #0x0
    4a90:	94000000 	bl	0 <_<T as core::convert::Into<U>>::into>
    4a94:	14000008 	b	4ab4 <_<rand_chacha::chacha::ChaCha12Core as rand_core::block::BlockRngCore>::generate+0x2774>
    4a98:	f9468fe8 	ldr	x8, [sp, #3352]
    4a9c:	f92d03e0 	str	x0, [sp, #23040]
    4aa0:	aa0103e9 	mov	x9, x1
    4aa4:	b9044909 	str	w9, [x8, #1096]
    4aa8:	3950fd08 	ldrb	w8, [x8, #1087]
    4aac:	37000648 	tbnz	w8, #0, 4b74 <_<rand_chacha::chacha::ChaCha12Core as rand_core::block::BlockRngCore>::generate+0x2834>
    4ab0:	1400002e 	b	4b68 <_<rand_chacha::chacha::ChaCha12Core as rand_core::block::BlockRngCore>::generate+0x2828>
    4ab4:	f9468fe8 	ldr	x8, [sp, #3352]
    4ab8:	3910fd1f 	strb	wzr, [x8, #1087]
    4abc:	3dc0e900 	ldr	q0, [x8, #928]
    4ac0:	914017e0 	add	x0, sp, #0x5, lsl #12
    4ac4:	91268000 	add	x0, x0, #0x9a0
    4ac8:	3d80f900 	str	q0, [x8, #992]
    4acc:	914017e8 	add	x8, sp, #0x5, lsl #12
    4ad0:	91264108 	add	x8, x8, #0x990
    4ad4:	90000001 	adrp	x1, d420 <l_alloc_eb8937521ab56b1815db886b021bd11a>
    4ad8:	91000021 	add	x1, x1, #0x0
    4adc:	94000000 	bl	0 <_<T as core::convert::Into<U>>::into>
    4ae0:	14000001 	b	4ae4 <_<rand_chacha::chacha::ChaCha12Core as rand_core::block::BlockRngCore>::generate+0x27a4>
    4ae4:	f9468fe8 	ldr	x8, [sp, #3352]
    4ae8:	3dc0f100 	ldr	q0, [x8, #960]
    4aec:	3d80fd00 	str	q0, [x8, #1008]
    4af0:	f96cdbeb 	ldr	x11, [sp, #22960]
    4af4:	d2800009 	mov	x9, #0x0                   	// #0
    4af8:	f92d37eb 	str	x11, [sp, #23144]
    4afc:	f96cdfea 	ldr	x10, [sp, #22968]
    4b00:	f92d33ea 	str	x10, [sp, #23136]
    4b04:	aa090161 	orr	x1, x11, x9
    4b08:	aa0a0122 	orr	x2, x9, x10
    4b0c:	4e081c20 	mov	v0.d[0], x1
    4b10:	4e181c40 	mov	v0.d[1], x2
    4b14:	3d811500 	str	q0, [x8, #1104]
    4b18:	3dc0f500 	ldr	q0, [x8, #976]
    4b1c:	3d810100 	str	q0, [x8, #1024]
    4b20:	f96ce3eb 	ldr	x11, [sp, #22976]
    4b24:	f92d3feb 	str	x11, [sp, #23160]
    4b28:	f96ce7ea 	ldr	x10, [sp, #22984]
    4b2c:	f92d3bea 	str	x10, [sp, #23152]
    4b30:	aa090163 	orr	x3, x11, x9
    4b34:	aa0a0124 	orr	x4, x9, x10
    4b38:	4e081c60 	mov	v0.d[0], x3
    4b3c:	4e181c80 	mov	v0.d[1], x4
    4b40:	3d811900 	str	q0, [x8, #1120]
    4b44:	914017e0 	add	x0, sp, #0x5, lsl #12
    4b48:	9125fc00 	add	x0, x0, #0x97f
    4b4c:	94000000 	bl	0 <_<ppv_lite86::generic::u32x4_generic as core::ops::bit::BitXor>::bitxor::{{closure}}>
    4b50:	f90503e0 	str	x0, [sp, #2560]
    4b54:	f90507e1 	str	x1, [sp, #2568]
    4b58:	4e081c00 	mov	v0.d[0], x0
    4b5c:	4e181c20 	mov	v0.d[1], x1
    4b60:	3d8287e0 	str	q0, [sp, #2576]
    4b64:	14000005 	b	4b78 <_<rand_chacha::chacha::ChaCha12Core as rand_core::block::BlockRngCore>::generate+0x2838>
    4b68:	f96d03e8 	ldr	x8, [sp, #23040]
    4b6c:	f90677e8 	str	x8, [sp, #3304]
    4b70:	14001d8d 	b	c1a4 <_<rand_chacha::chacha::ChaCha12Core as rand_core::block::BlockRngCore>::generate+0x9e64>
    4b74:	17fffffd 	b	4b68 <_<rand_chacha::chacha::ChaCha12Core as rand_core::block::BlockRngCore>::generate+0x2828>
    4b78:	f9468fe9 	ldr	x9, [sp, #3352]
    4b7c:	f946b7e8 	ldr	x8, [sp, #3432]
    4b80:	f94507ea 	ldr	x10, [sp, #2568]
    4b84:	f94503eb 	ldr	x11, [sp, #2560]
    4b88:	3dc287e0 	ldr	q0, [sp, #2576]
    4b8c:	3d812120 	str	q0, [x9, #1152]
    4b90:	f92cf7eb 	str	x11, [sp, #23016]
    4b94:	f92cfbea 	str	x10, [sp, #23024]
    4b98:	914017ea 	add	x10, sp, #0x5, lsl #12
    4b9c:	9123a54a 	add	x10, x10, #0x8e9
    4ba0:	3ccff140 	ldur	q0, [x10, #255]
    4ba4:	3d810520 	str	q0, [x9, #1040]
    4ba8:	3dc10520 	ldr	q0, [x9, #1040]
    4bac:	3d811d20 	str	q0, [x9, #1136]
    4bb0:	3dc11d20 	ldr	q0, [x9, #1136]
    4bb4:	3d812520 	str	q0, [x9, #1168]
    4bb8:	3dc12520 	ldr	q0, [x9, #1168]
    4bbc:	3d864d00 	str	q0, [x8, #6448]
    4bc0:	3dc3e500 	ldr	q0, [x8, #3984]
    4bc4:	3d809120 	str	q0, [x9, #576]
    4bc8:	3dc3f500 	ldr	q0, [x8, #4048]
    4bcc:	3d808d20 	str	q0, [x9, #560]
    4bd0:	3dc09120 	ldr	q0, [x9, #576]
    4bd4:	914017e0 	add	x0, sp, #0x5, lsl #12
    4bd8:	911f8000 	add	x0, x0, #0x7e0
    4bdc:	3d808920 	str	q0, [x9, #544]
    4be0:	3dc08d20 	ldr	q0, [x9, #560]
    4be4:	3d809520 	str	q0, [x9, #592]
    4be8:	390bbd3f 	strb	wzr, [x9, #751]
    4bec:	52800028 	mov	w8, #0x1                   	// #1
    4bf0:	390bbd28 	strb	w8, [x9, #751]
    4bf4:	914017e8 	add	x8, sp, #0x5, lsl #12
    4bf8:	9120c108 	add	x8, x8, #0x830
    4bfc:	90000001 	adrp	x1, d408 <l_alloc_d6cd646a032ab5661bff8aa78f551e65>
    4c00:	91000021 	add	x1, x1, #0x0
    4c04:	94000000 	bl	0 <_<T as core::convert::Into<U>>::into>
    4c08:	14000008 	b	4c28 <_<rand_chacha::chacha::ChaCha12Core as rand_core::block::BlockRngCore>::generate+0x28e8>
    4c0c:	f9468fe8 	ldr	x8, [sp, #3352]
    4c10:	f92c5be0 	str	x0, [sp, #22704]
    4c14:	aa0103e9 	mov	x9, x1
    4c18:	b902f909 	str	w9, [x8, #760]
    4c1c:	394bbd08 	ldrb	w8, [x8, #751]
    4c20:	370006a8 	tbnz	w8, #0, 4cf4 <_<rand_chacha::chacha::ChaCha12Core as rand_core::block::BlockRngCore>::generate+0x29b4>
    4c24:	1400002e 	b	4cdc <_<rand_chacha::chacha::ChaCha12Core as rand_core::block::BlockRngCore>::generate+0x299c>
    4c28:	f9468fe8 	ldr	x8, [sp, #3352]
    4c2c:	390bbd1f 	strb	wzr, [x8, #751]
    4c30:	3dc09500 	ldr	q0, [x8, #592]
    4c34:	914017e0 	add	x0, sp, #0x5, lsl #12
    4c38:	91214000 	add	x0, x0, #0x850
    4c3c:	3d80a500 	str	q0, [x8, #656]
    4c40:	914017e8 	add	x8, sp, #0x5, lsl #12
    4c44:	91210108 	add	x8, x8, #0x840
    4c48:	90000001 	adrp	x1, d420 <l_alloc_eb8937521ab56b1815db886b021bd11a>
    4c4c:	91000021 	add	x1, x1, #0x0
    4c50:	94000000 	bl	0 <_<T as core::convert::Into<U>>::into>
    4c54:	14000001 	b	4c58 <_<rand_chacha::chacha::ChaCha12Core as rand_core::block::BlockRngCore>::generate+0x2918>
    4c58:	f9468fe8 	ldr	x8, [sp, #3352]
    4c5c:	3dc09d00 	ldr	q0, [x8, #624]
    4c60:	3d80a900 	str	q0, [x8, #672]
    4c64:	f96c33eb 	ldr	x11, [sp, #22624]
    4c68:	d2800009 	mov	x9, #0x0                   	// #0
    4c6c:	f92c8feb 	str	x11, [sp, #22808]
    4c70:	f96c37ea 	ldr	x10, [sp, #22632]
    4c74:	f92c8bea 	str	x10, [sp, #22800]
    4c78:	aa090161 	orr	x1, x11, x9
    4c7c:	aa0a0122 	orr	x2, x9, x10
    4c80:	4e081c20 	mov	v0.d[0], x1
    4c84:	4e181c40 	mov	v0.d[1], x2
    4c88:	3d80c100 	str	q0, [x8, #768]
