
compiled_results/no_assume_used.o:     file format mach-o-arm64


Disassembly of section .text:

0000000000000000 <_<rand::rngs::reseeding::ReseedingCore<R,Rsdr> as rand_core::block::BlockRngCore>::generate>:
       0:	d10103ff 	sub	sp, sp, #0x40
       4:	a9037bfd 	stp	x29, x30, [sp, #48]
       8:	9100c3fd 	add	x29, sp, #0x30
       c:	f9000be0 	str	x0, [sp, #16]
      10:	f9000fe1 	str	x1, [sp, #24]
      14:	aa0003e8 	mov	x8, x0
      18:	f81f03a8 	stur	x8, [x29, #-16]
      1c:	f9401c08 	ldr	x8, [x0, #56]
      20:	f1000108 	subs	x8, x8, #0x0
      24:	540001ad 	b.le	58 <_<rand::rngs::reseeding::ReseedingCore<R,Rsdr> as rand_core::block::BlockRngCore>::generate+0x58>
      28:	14000001 	b	2c <_<rand::rngs::reseeding::ReseedingCore<R,Rsdr> as rand_core::block::BlockRngCore>::generate+0x2c>
      2c:	910063e0 	add	x0, sp, #0x18
      30:	94000000 	bl	1d6c <_<&mut T as core::convert::AsRef<U>>::as_ref>
      34:	94000000 	bl	db0 <_core::mem::size_of_val>
      38:	f9400be8 	ldr	x8, [sp, #16]
      3c:	f81f83a0 	stur	x0, [x29, #-8]
      40:	f9401d08 	ldr	x8, [x8, #56]
      44:	eb000108 	subs	x8, x8, x0
      48:	f90007e8 	str	x8, [sp, #8]
      4c:	1a9f77e8 	cset	w8, vs
      50:	37000188 	tbnz	w8, #0, 80 <_<rand::rngs::reseeding::ReseedingCore<R,Rsdr> as rand_core::block::BlockRngCore>::generate+0x80>
      54:	14000005 	b	68 <_<rand::rngs::reseeding::ReseedingCore<R,Rsdr> as rand_core::block::BlockRngCore>::generate+0x68>
      58:	f9400be0 	ldr	x0, [sp, #16]
      5c:	f9400fe1 	ldr	x1, [sp, #24]
      60:	94000000 	bl	1810 <_rand::rngs::reseeding::ReseedingCore<R,Rsdr>::reseed_and_generate>
      64:	1400000a 	b	8c <_<rand::rngs::reseeding::ReseedingCore<R,Rsdr> as rand_core::block::BlockRngCore>::generate+0x8c>
      68:	f9400be0 	ldr	x0, [sp, #16]
      6c:	f94007e8 	ldr	x8, [sp, #8]
      70:	f9001c08 	str	x8, [x0, #56]
      74:	f9400fe1 	ldr	x1, [sp, #24]
      78:	94000000 	bl	2340 <_<rand_chacha::chacha::ChaCha12Core as rand_core::block::BlockRngCore>::generate>
      7c:	14000004 	b	8c <_<rand::rngs::reseeding::ReseedingCore<R,Rsdr> as rand_core::block::BlockRngCore>::generate+0x8c>
      80:	90000000 	adrp	x0, d390 <l_alloc_8a8305002a5686bad8b99ad20f996174>
      84:	91000000 	add	x0, x0, #0x0
      88:	94000000 	bl	0 <_core::panicking::panic_const::panic_const_sub_overflow>
      8c:	a9437bfd 	ldp	x29, x30, [sp, #48]
      90:	910103ff 	add	sp, sp, #0x40
      94:	d65f03c0 	ret

0000000000000098 <_<core::ops::range::RangeTo<usize> as rand::distr::uniform::SampleRange<usize>>::sample_single>:
      98:	d100c3ff 	sub	sp, sp, #0x30
      9c:	a9027bfd 	stp	x29, x30, [sp, #32]
      a0:	910083fd 	add	x29, sp, #0x20
      a4:	f90007e0 	str	x0, [sp, #8]
      a8:	aa0103e2 	mov	x2, x1
      ac:	f94007e1 	ldr	x1, [sp, #8]
      b0:	f9000be1 	str	x1, [sp, #16]
      b4:	aa0203e9 	mov	x9, x2
      b8:	f81f83a9 	stur	x9, [x29, #-8]
      bc:	d2800000 	mov	x0, #0x0                   	// #0
      c0:	94000000 	bl	c338 <_<rand::distr::uniform::int::UniformUsize as rand::distr::uniform::UniformSampler>::sample_single>
      c4:	a9427bfd 	ldp	x29, x30, [sp, #32]
      c8:	9100c3ff 	add	sp, sp, #0x30
      cc:	d65f03c0 	ret

00000000000000d0 <_<core::ops::range::RangeTo<usize> as rand::distr::uniform::SampleRange<usize>>::is_empty>:
      d0:	d10043ff 	sub	sp, sp, #0x10
      d4:	aa0003e8 	mov	x8, x0
      d8:	f90007e8 	str	x8, [sp, #8]
      dc:	f9400009 	ldr	x9, [x0]
      e0:	d2800008 	mov	x8, #0x0                   	// #0
      e4:	eb090108 	subs	x8, x8, x9
      e8:	1a9f17e0 	cset	w0, eq	// eq = none
      ec:	910043ff 	add	sp, sp, #0x10
      f0:	d65f03c0 	ret

00000000000000f4 <_<rand::distr::uniform::int::UniformInt<u32> as rand::distr::uniform::UniformSampler>::sample_single>:
      f4:	d10203ff 	sub	sp, sp, #0x80
      f8:	a9077bfd 	stp	x29, x30, [sp, #112]
      fc:	9101c3fd 	add	x29, sp, #0x70
     100:	f9000fe2 	str	x2, [sp, #24]
     104:	910083e8 	add	x8, sp, #0x20
     108:	b90023e0 	str	w0, [sp, #32]
     10c:	b90027e1 	str	w1, [sp, #36]
     110:	f9001fe2 	str	x2, [sp, #56]
     114:	f81f83a8 	stur	x8, [x29, #-8]
     118:	14000006 	b	130 <_<rand::distr::uniform::int::UniformInt<u32> as rand::distr::uniform::UniformSampler>::sample_single+0x3c>
     11c:	14000035 	b	1f0 <_<rand::distr::uniform::int::UniformInt<u32> as rand::distr::uniform::UniformSampler>::sample_single+0xfc>
     120:	f81d03a0 	stur	x0, [x29, #-48]
     124:	aa0103e8 	mov	x8, x1
     128:	b81d83a8 	stur	w8, [x29, #-40]
     12c:	17fffffc 	b	11c <_<rand::distr::uniform::int::UniformInt<u32> as rand::distr::uniform::UniformSampler>::sample_single+0x28>
     130:	b94023e8 	ldr	w8, [sp, #32]
     134:	b90017e8 	str	w8, [sp, #20]
     138:	b81e03a8 	stur	w8, [x29, #-32]
     13c:	910093e8 	add	x8, sp, #0x24
     140:	f81f03a8 	stur	x8, [x29, #-16]
     144:	14000001 	b	148 <_<rand::distr::uniform::int::UniformInt<u32> as rand::distr::uniform::UniformSampler>::sample_single+0x54>
     148:	b94017e8 	ldr	w8, [sp, #20]
     14c:	b94027e9 	ldr	w9, [sp, #36]
     150:	b90013e9 	str	w9, [sp, #16]
     154:	b81e43a9 	stur	w9, [x29, #-28]
     158:	6b090108 	subs	w8, w8, w9
     15c:	54000123 	b.cc	180 <_<rand::distr::uniform::int::UniformInt<u32> as rand::distr::uniform::UniformSampler>::sample_single+0x8c>  // b.lo, b.ul, b.last
     160:	14000001 	b	164 <_<rand::distr::uniform::int::UniformInt<u32> as rand::distr::uniform::UniformSampler>::sample_single+0x70>
     164:	3900dfff 	strb	wzr, [sp, #55]
     168:	3940dfe9 	ldrb	w9, [sp, #55]
     16c:	52800028 	mov	w8, #0x1                   	// #1
     170:	12000129 	and	w9, w9, #0x1
     174:	3900a7e9 	strb	w9, [sp, #41]
     178:	3900a3e8 	strb	w8, [sp, #40]
     17c:	14000007 	b	198 <_<rand::distr::uniform::int::UniformInt<u32> as rand::distr::uniform::UniformSampler>::sample_single+0xa4>
     180:	b94013e8 	ldr	w8, [sp, #16]
     184:	71000509 	subs	w9, w8, #0x1
     188:	b9000fe9 	str	w9, [sp, #12]
     18c:	71000508 	subs	w8, w8, #0x1
     190:	540001a3 	b.cc	1c4 <_<rand::distr::uniform::int::UniformInt<u32> as rand::distr::uniform::UniformSampler>::sample_single+0xd0>  // b.lo, b.ul, b.last
     194:	14000006 	b	1ac <_<rand::distr::uniform::int::UniformInt<u32> as rand::distr::uniform::UniformSampler>::sample_single+0xb8>
     198:	14000001 	b	19c <_<rand::distr::uniform::int::UniformInt<u32> as rand::distr::uniform::UniformSampler>::sample_single+0xa8>
     19c:	f94017e0 	ldr	x0, [sp, #40]
     1a0:	a9477bfd 	ldp	x29, x30, [sp, #112]
     1a4:	910203ff 	add	sp, sp, #0x80
     1a8:	d65f03c0 	ret
     1ac:	f9400fe2 	ldr	x2, [sp, #24]
     1b0:	b9400fe1 	ldr	w1, [sp, #12]
     1b4:	b94017e0 	ldr	w0, [sp, #20]
     1b8:	94000000 	bl	1f8 <_<rand::distr::uniform::int::UniformInt<u32> as rand::distr::uniform::UniformSampler>::sample_single_inclusive>
     1bc:	f90003e0 	str	x0, [sp]
     1c0:	14000006 	b	1d8 <_<rand::distr::uniform::int::UniformInt<u32> as rand::distr::uniform::UniformSampler>::sample_single+0xe4>
     1c4:	90000000 	adrp	x0, d3a8 <l_alloc_5fc73023334f87bc750c79ae2dfc5958>
     1c8:	91000000 	add	x0, x0, #0x0
     1cc:	94000000 	bl	0 <_core::panicking::panic_const::panic_const_sub_overflow>
     1d0:	14000001 	b	1d4 <_<rand::distr::uniform::int::UniformInt<u32> as rand::distr::uniform::UniformSampler>::sample_single+0xe0>
     1d4:	d4200020 	brk	#0x1
     1d8:	f94003e8 	ldr	x8, [sp]
     1dc:	f81e83a8 	stur	x8, [x29, #-24]
     1e0:	f85e83a8 	ldur	x8, [x29, #-24]
     1e4:	f90017e8 	str	x8, [sp, #40]
     1e8:	14000001 	b	1ec <_<rand::distr::uniform::int::UniformInt<u32> as rand::distr::uniform::UniformSampler>::sample_single+0xf8>
     1ec:	17ffffec 	b	19c <_<rand::distr::uniform::int::UniformInt<u32> as rand::distr::uniform::UniformSampler>::sample_single+0xa8>
     1f0:	f85d03a0 	ldur	x0, [x29, #-48]
     1f4:	94000000 	bl	0 <__Unwind_Resume>

00000000000001f8 <_<rand::distr::uniform::int::UniformInt<u32> as rand::distr::uniform::UniformSampler>::sample_single_inclusive>:
     1f8:	d104c3ff 	sub	sp, sp, #0x130
     1fc:	a9116ffc 	stp	x28, x27, [sp, #272]
     200:	a9127bfd 	stp	x29, x30, [sp, #288]
     204:	910483fd 	add	x29, sp, #0x120
     208:	f90037e2 	str	x2, [sp, #104]
     20c:	9101c3e8 	add	x8, sp, #0x70
     210:	b90073e0 	str	w0, [sp, #112]
     214:	b90077e1 	str	w1, [sp, #116]
     218:	f9004be2 	str	x2, [sp, #144]
     21c:	f81e83a8 	stur	x8, [x29, #-24]
     220:	14000006 	b	238 <_<rand::distr::uniform::int::UniformInt<u32> as rand::distr::uniform::UniformSampler>::sample_single_inclusive+0x40>
     224:	140000ad 	b	4d8 <_<rand::distr::uniform::int::UniformInt<u32> as rand::distr::uniform::UniformSampler>::sample_single_inclusive+0x2e0>
     228:	f81783a0 	stur	x0, [x29, #-136]
     22c:	aa0103e8 	mov	x8, x1
     230:	b81803a8 	stur	w8, [x29, #-128]
     234:	17fffffc 	b	224 <_<rand::distr::uniform::int::UniformInt<u32> as rand::distr::uniform::UniformSampler>::sample_single_inclusive+0x2c>
     238:	b94073e8 	ldr	w8, [sp, #112]
     23c:	b90067e8 	str	w8, [sp, #100]
     240:	b818c3a8 	stur	w8, [x29, #-116]
     244:	9101d3e8 	add	x8, sp, #0x74
     248:	f81e03a8 	stur	x8, [x29, #-32]
     24c:	14000001 	b	250 <_<rand::distr::uniform::int::UniformInt<u32> as rand::distr::uniform::UniformSampler>::sample_single_inclusive+0x58>
     250:	b94067e8 	ldr	w8, [sp, #100]
     254:	b94077e9 	ldr	w9, [sp, #116]
     258:	b90063e9 	str	w9, [sp, #96]
     25c:	b81903a9 	stur	w9, [x29, #-112]
     260:	6b090108 	subs	w8, w8, w9
     264:	54000129 	b.ls	288 <_<rand::distr::uniform::int::UniformInt<u32> as rand::distr::uniform::UniformSampler>::sample_single_inclusive+0x90>  // b.plast
     268:	14000001 	b	26c <_<rand::distr::uniform::int::UniformInt<u32> as rand::distr::uniform::UniformSampler>::sample_single_inclusive+0x74>
     26c:	39020fff 	strb	wzr, [sp, #131]
     270:	39420fe9 	ldrb	w9, [sp, #131]
     274:	52800028 	mov	w8, #0x1                   	// #1
     278:	12000129 	and	w9, w9, #0x1
     27c:	3901e7e9 	strb	w9, [sp, #121]
     280:	3901e3e8 	strb	w8, [sp, #120]
     284:	14000008 	b	2a4 <_<rand::distr::uniform::int::UniformInt<u32> as rand::distr::uniform::UniformSampler>::sample_single_inclusive+0xac>
     288:	b94063e8 	ldr	w8, [sp, #96]
     28c:	b94067e9 	ldr	w9, [sp, #100]
     290:	b81b83a8 	stur	w8, [x29, #-72]
     294:	b81bc3a9 	stur	w9, [x29, #-68]
     298:	6b090108 	subs	w8, w8, w9
     29c:	b9005fe8 	str	w8, [sp, #92]
     2a0:	14000002 	b	2a8 <_<rand::distr::uniform::int::UniformInt<u32> as rand::distr::uniform::UniformSampler>::sample_single_inclusive+0xb0>
     2a4:	14000018 	b	304 <_<rand::distr::uniform::int::UniformInt<u32> as rand::distr::uniform::UniformSampler>::sample_single_inclusive+0x10c>
     2a8:	b9405fe8 	ldr	w8, [sp, #92]
     2ac:	b81ac3a8 	stur	w8, [x29, #-84]
     2b0:	52800029 	mov	w9, #0x1                   	// #1
     2b4:	b81b03a9 	stur	w9, [x29, #-80]
     2b8:	11000508 	add	w8, w8, #0x1
     2bc:	b9005be8 	str	w8, [sp, #88]
     2c0:	14000001 	b	2c4 <_<rand::distr::uniform::int::UniformInt<u32> as rand::distr::uniform::UniformSampler>::sample_single_inclusive+0xcc>
     2c4:	b9405be8 	ldr	w8, [sp, #88]
     2c8:	b81943a8 	stur	w8, [x29, #-108]
     2cc:	350000c8 	cbnz	w8, 2e4 <_<rand::distr::uniform::int::UniformInt<u32> as rand::distr::uniform::UniformSampler>::sample_single_inclusive+0xec>
     2d0:	14000001 	b	2d4 <_<rand::distr::uniform::int::UniformInt<u32> as rand::distr::uniform::UniformSampler>::sample_single_inclusive+0xdc>
     2d4:	f94037e0 	ldr	x0, [sp, #104]
     2d8:	94000000 	bl	1718 <_rand::rng::Rng::random>
     2dc:	b90057e0 	str	w0, [sp, #84]
     2e0:	14000005 	b	2f4 <_<rand::distr::uniform::int::UniformInt<u32> as rand::distr::uniform::UniformSampler>::sample_single_inclusive+0xfc>
     2e4:	f94037e0 	ldr	x0, [sp, #104]
     2e8:	94000000 	bl	1718 <_rand::rng::Rng::random>
     2ec:	b90053e0 	str	w0, [sp, #80]
     2f0:	1400000b 	b	31c <_<rand::distr::uniform::int::UniformInt<u32> as rand::distr::uniform::UniformSampler>::sample_single_inclusive+0x124>
     2f4:	b94057e8 	ldr	w8, [sp, #84]
     2f8:	b9007fe8 	str	w8, [sp, #124]
     2fc:	3901e3ff 	strb	wzr, [sp, #120]
     300:	17ffffe9 	b	2a4 <_<rand::distr::uniform::int::UniformInt<u32> as rand::distr::uniform::UniformSampler>::sample_single_inclusive+0xac>
     304:	14000001 	b	308 <_<rand::distr::uniform::int::UniformInt<u32> as rand::distr::uniform::UniformSampler>::sample_single_inclusive+0x110>
     308:	f9403fe0 	ldr	x0, [sp, #120]
     30c:	a9527bfd 	ldp	x29, x30, [sp, #288]
     310:	a9516ffc 	ldp	x28, x27, [sp, #272]
     314:	9104c3ff 	add	sp, sp, #0x130
     318:	d65f03c0 	ret
     31c:	b94053e9 	ldr	w9, [sp, #80]
     320:	b9405bea 	ldr	w10, [sp, #88]
     324:	b81d03a9 	stur	w9, [x29, #-48]
     328:	b81d43aa 	stur	w10, [x29, #-44]
     32c:	2a0903e8 	mov	w8, w9
     330:	2a0a03eb 	mov	w11, w10
     334:	9bcb7d08 	umulh	x8, x8, x11
     338:	9baa7d29 	umull	x9, w9, w10
     33c:	f90027e9 	str	x9, [sp, #72]
     340:	f1000108 	subs	x8, x8, #0x0
     344:	1a9f07e8 	cset	w8, ne	// ne = any
     348:	360000e8 	tbz	w8, #0, 364 <_<rand::distr::uniform::int::UniformInt<u32> as rand::distr::uniform::UniformSampler>::sample_single_inclusive+0x16c>
     34c:	14000001 	b	350 <_<rand::distr::uniform::int::UniformInt<u32> as rand::distr::uniform::UniformSampler>::sample_single_inclusive+0x158>
     350:	90000000 	adrp	x0, d690 <l_alloc_0e203e6d2c8e3f24bc8531bafa2f894b>
     354:	91000000 	add	x0, x0, #0x0
     358:	94000000 	bl	0 <_core::panicking::panic_const::panic_const_mul_overflow>
     35c:	14000001 	b	360 <_<rand::distr::uniform::int::UniformInt<u32> as rand::distr::uniform::UniformSampler>::sample_single_inclusive+0x168>
     360:	d4200020 	brk	#0x1
     364:	f94027e8 	ldr	x8, [sp, #72]
     368:	f81d83a8 	stur	x8, [x29, #-40]
     36c:	d360fd09 	lsr	x9, x8, #32
     370:	f9001fe9 	str	x9, [sp, #56]
     374:	b90047e8 	str	w8, [sp, #68]
     378:	14000001 	b	37c <_<rand::distr::uniform::int::UniformInt<u32> as rand::distr::uniform::UniformSampler>::sample_single_inclusive+0x184>
     37c:	b9405be9 	ldr	w9, [sp, #88]
     380:	f94027e8 	ldr	x8, [sp, #72]
     384:	f9401fea 	ldr	x10, [sp, #56]
     388:	b90087ea 	str	w10, [sp, #132]
     38c:	b81983a8 	stur	w8, [x29, #-104]
     390:	b81b43a9 	stur	w9, [x29, #-76]
     394:	52800008 	mov	w8, #0x0                   	// #0
     398:	6b090108 	subs	w8, w8, w9
     39c:	b90037e8 	str	w8, [sp, #52]
     3a0:	14000001 	b	3a4 <_<rand::distr::uniform::int::UniformInt<u32> as rand::distr::uniform::UniformSampler>::sample_single_inclusive+0x1ac>
     3a4:	b94047e8 	ldr	w8, [sp, #68]
     3a8:	b94037e9 	ldr	w9, [sp, #52]
     3ac:	6b090108 	subs	w8, w8, w9
     3b0:	54000128 	b.hi	3d4 <_<rand::distr::uniform::int::UniformInt<u32> as rand::distr::uniform::UniformSampler>::sample_single_inclusive+0x1dc>  // b.pmore
     3b4:	14000001 	b	3b8 <_<rand::distr::uniform::int::UniformInt<u32> as rand::distr::uniform::UniformSampler>::sample_single_inclusive+0x1c0>
     3b8:	b94067e8 	ldr	w8, [sp, #100]
     3bc:	b94087e9 	ldr	w9, [sp, #132]
     3c0:	b81a43a8 	stur	w8, [x29, #-92]
     3c4:	b81a83a9 	stur	w9, [x29, #-88]
     3c8:	0b090108 	add	w8, w8, w9
     3cc:	b90033e8 	str	w8, [sp, #48]
     3d0:	1400003d 	b	4c4 <_<rand::distr::uniform::int::UniformInt<u32> as rand::distr::uniform::UniformSampler>::sample_single_inclusive+0x2cc>
     3d4:	f94037e0 	ldr	x0, [sp, #104]
     3d8:	94000000 	bl	1718 <_rand::rng::Rng::random>
     3dc:	b9002fe0 	str	w0, [sp, #44]
     3e0:	14000001 	b	3e4 <_<rand::distr::uniform::int::UniformInt<u32> as rand::distr::uniform::UniformSampler>::sample_single_inclusive+0x1ec>
     3e4:	b9402fe9 	ldr	w9, [sp, #44]
     3e8:	b9405bea 	ldr	w10, [sp, #88]
     3ec:	b81c03a9 	stur	w9, [x29, #-64]
     3f0:	b81c43aa 	stur	w10, [x29, #-60]
     3f4:	2a0903e8 	mov	w8, w9
     3f8:	2a0a03eb 	mov	w11, w10
     3fc:	9bcb7d08 	umulh	x8, x8, x11
     400:	9baa7d29 	umull	x9, w9, w10
     404:	f90013e9 	str	x9, [sp, #32]
     408:	f1000108 	subs	x8, x8, #0x0
     40c:	1a9f07e8 	cset	w8, ne	// ne = any
     410:	360000e8 	tbz	w8, #0, 42c <_<rand::distr::uniform::int::UniformInt<u32> as rand::distr::uniform::UniformSampler>::sample_single_inclusive+0x234>
     414:	14000001 	b	418 <_<rand::distr::uniform::int::UniformInt<u32> as rand::distr::uniform::UniformSampler>::sample_single_inclusive+0x220>
     418:	90000000 	adrp	x0, d690 <l_alloc_0e203e6d2c8e3f24bc8531bafa2f894b>
     41c:	91000000 	add	x0, x0, #0x0
     420:	94000000 	bl	0 <_core::panicking::panic_const::panic_const_mul_overflow>
     424:	14000001 	b	428 <_<rand::distr::uniform::int::UniformInt<u32> as rand::distr::uniform::UniformSampler>::sample_single_inclusive+0x230>
     428:	d4200020 	brk	#0x1
     42c:	f94013e8 	ldr	x8, [sp, #32]
     430:	f81c83a8 	stur	x8, [x29, #-56]
     434:	d360fd08 	lsr	x8, x8, #32
     438:	f9000be8 	str	x8, [sp, #16]
     43c:	b9001fe8 	str	w8, [sp, #28]
     440:	14000001 	b	444 <_<rand::distr::uniform::int::UniformInt<u32> as rand::distr::uniform::UniformSampler>::sample_single_inclusive+0x24c>
     444:	b9401fe1 	ldr	w1, [sp, #28]
     448:	b94047e0 	ldr	w0, [sp, #68]
     44c:	f9400be8 	ldr	x8, [sp, #16]
     450:	b819c3a8 	stur	w8, [x29, #-100]
     454:	94000000 	bl	dd0 <_core::num::<impl u32>::checked_add>
     458:	b9000be0 	str	w0, [sp, #8]
     45c:	b9000fe1 	str	w1, [sp, #12]
     460:	14000001 	b	464 <_<rand::distr::uniform::int::UniformInt<u32> as rand::distr::uniform::UniformSampler>::sample_single_inclusive+0x26c>
     464:	b9400fe8 	ldr	w8, [sp, #12]
     468:	b9400be9 	ldr	w9, [sp, #8]
     46c:	910223e0 	add	x0, sp, #0x88
     470:	b9008be9 	str	w9, [sp, #136]
     474:	b9008fe8 	str	w8, [sp, #140]
     478:	94000000 	bl	1470 <_core::option::Option<T>::is_none>
     47c:	b90007e0 	str	w0, [sp, #4]
     480:	14000001 	b	484 <_<rand::distr::uniform::int::UniformInt<u32> as rand::distr::uniform::UniformSampler>::sample_single_inclusive+0x28c>
     484:	b94007e9 	ldr	w9, [sp, #4]
     488:	381a33a9 	sturb	w9, [x29, #-93]
     48c:	b94087e8 	ldr	w8, [sp, #132]
     490:	2b090108 	adds	w8, w8, w9
     494:	b90003e8 	str	w8, [sp]
     498:	1a9f37e8 	cset	w8, cs	// cs = hs, nlast
     49c:	370000a8 	tbnz	w8, #0, 4b0 <_<rand::distr::uniform::int::UniformInt<u32> as rand::distr::uniform::UniformSampler>::sample_single_inclusive+0x2b8>
     4a0:	14000001 	b	4a4 <_<rand::distr::uniform::int::UniformInt<u32> as rand::distr::uniform::UniformSampler>::sample_single_inclusive+0x2ac>
     4a4:	b94003e8 	ldr	w8, [sp]
     4a8:	b90087e8 	str	w8, [sp, #132]
     4ac:	17ffffc3 	b	3b8 <_<rand::distr::uniform::int::UniformInt<u32> as rand::distr::uniform::UniformSampler>::sample_single_inclusive+0x1c0>
     4b0:	90000000 	adrp	x0, d3a8 <l_alloc_5fc73023334f87bc750c79ae2dfc5958>
     4b4:	91000000 	add	x0, x0, #0x0
     4b8:	94000000 	bl	0 <_core::panicking::panic_const::panic_const_add_overflow>
     4bc:	14000001 	b	4c0 <_<rand::distr::uniform::int::UniformInt<u32> as rand::distr::uniform::UniformSampler>::sample_single_inclusive+0x2c8>
     4c0:	d4200020 	brk	#0x1
     4c4:	b94033e8 	ldr	w8, [sp, #48]
     4c8:	b9007fe8 	str	w8, [sp, #124]
     4cc:	3901e3ff 	strb	wzr, [sp, #120]
     4d0:	14000001 	b	4d4 <_<rand::distr::uniform::int::UniformInt<u32> as rand::distr::uniform::UniformSampler>::sample_single_inclusive+0x2dc>
     4d4:	17ffff8d 	b	308 <_<rand::distr::uniform::int::UniformInt<u32> as rand::distr::uniform::UniformSampler>::sample_single_inclusive+0x110>
     4d8:	f85783a0 	ldur	x0, [x29, #-136]
     4dc:	94000000 	bl	0 <__Unwind_Resume>

00000000000004e0 <_<rand::distr::uniform::int::UniformInt<u64> as rand::distr::uniform::UniformSampler>::sample_single>:
     4e0:	d10243ff 	sub	sp, sp, #0x90
     4e4:	a9087bfd 	stp	x29, x30, [sp, #128]
     4e8:	910203fd 	add	x29, sp, #0x80
     4ec:	f90013e8 	str	x8, [sp, #32]
     4f0:	f90017e2 	str	x2, [sp, #40]
     4f4:	9100c3e8 	add	x8, sp, #0x30
     4f8:	f9001be0 	str	x0, [sp, #48]
     4fc:	f9001fe1 	str	x1, [sp, #56]
     500:	f81c83a2 	stur	x2, [x29, #-56]
     504:	f81f83a8 	stur	x8, [x29, #-8]
     508:	14000006 	b	520 <_<rand::distr::uniform::int::UniformInt<u64> as rand::distr::uniform::UniformSampler>::sample_single+0x40>
     50c:	14000031 	b	5d0 <_<rand::distr::uniform::int::UniformInt<u64> as rand::distr::uniform::UniformSampler>::sample_single+0xf0>
     510:	f81d03a0 	stur	x0, [x29, #-48]
     514:	aa0103e8 	mov	x8, x1
     518:	b81d83a8 	stur	w8, [x29, #-40]
     51c:	17fffffc 	b	50c <_<rand::distr::uniform::int::UniformInt<u64> as rand::distr::uniform::UniformSampler>::sample_single+0x2c>
     520:	f9401be8 	ldr	x8, [sp, #48]
     524:	f9000fe8 	str	x8, [sp, #24]
     528:	f81e03a8 	stur	x8, [x29, #-32]
     52c:	9100e3e8 	add	x8, sp, #0x38
     530:	f81f03a8 	stur	x8, [x29, #-16]
     534:	14000001 	b	538 <_<rand::distr::uniform::int::UniformInt<u64> as rand::distr::uniform::UniformSampler>::sample_single+0x58>
     538:	f9400fe8 	ldr	x8, [sp, #24]
     53c:	f9401fe9 	ldr	x9, [sp, #56]
     540:	f9000be9 	str	x9, [sp, #16]
     544:	f81e83a9 	stur	x9, [x29, #-24]
     548:	eb090108 	subs	x8, x8, x9
     54c:	54000143 	b.cc	574 <_<rand::distr::uniform::int::UniformInt<u64> as rand::distr::uniform::UniformSampler>::sample_single+0x94>  // b.lo, b.ul, b.last
     550:	14000001 	b	554 <_<rand::distr::uniform::int::UniformInt<u64> as rand::distr::uniform::UniformSampler>::sample_single+0x74>
     554:	f94013e9 	ldr	x9, [sp, #32]
     558:	381c73bf 	sturb	wzr, [x29, #-57]
     55c:	385c73aa 	ldurb	w10, [x29, #-57]
     560:	52800028 	mov	w8, #0x1                   	// #1
     564:	1200014a 	and	w10, w10, #0x1
     568:	3900052a 	strb	w10, [x9, #1]
     56c:	39000128 	strb	w8, [x9]
     570:	14000007 	b	58c <_<rand::distr::uniform::int::UniformInt<u64> as rand::distr::uniform::UniformSampler>::sample_single+0xac>
     574:	f9400be8 	ldr	x8, [sp, #16]
     578:	f1000509 	subs	x9, x8, #0x1
     57c:	f90007e9 	str	x9, [sp, #8]
     580:	f1000508 	subs	x8, x8, #0x1
     584:	54000183 	b.cc	5b4 <_<rand::distr::uniform::int::UniformInt<u64> as rand::distr::uniform::UniformSampler>::sample_single+0xd4>  // b.lo, b.ul, b.last
     588:	14000005 	b	59c <_<rand::distr::uniform::int::UniformInt<u64> as rand::distr::uniform::UniformSampler>::sample_single+0xbc>
     58c:	14000001 	b	590 <_<rand::distr::uniform::int::UniformInt<u64> as rand::distr::uniform::UniformSampler>::sample_single+0xb0>
     590:	a9487bfd 	ldp	x29, x30, [sp, #128]
     594:	910243ff 	add	sp, sp, #0x90
     598:	d65f03c0 	ret
     59c:	f94017e2 	ldr	x2, [sp, #40]
     5a0:	f94007e1 	ldr	x1, [sp, #8]
     5a4:	f9400fe0 	ldr	x0, [sp, #24]
     5a8:	f94013e8 	ldr	x8, [sp, #32]
     5ac:	94000000 	bl	5d8 <_<rand::distr::uniform::int::UniformInt<u64> as rand::distr::uniform::UniformSampler>::sample_single_inclusive>
     5b0:	14000006 	b	5c8 <_<rand::distr::uniform::int::UniformInt<u64> as rand::distr::uniform::UniformSampler>::sample_single+0xe8>
     5b4:	90000000 	adrp	x0, d3c0 <l_alloc_b7bef978aede28df3b19e88fa8cc4254>
     5b8:	91000000 	add	x0, x0, #0x0
     5bc:	94000000 	bl	0 <_core::panicking::panic_const::panic_const_sub_overflow>
     5c0:	14000001 	b	5c4 <_<rand::distr::uniform::int::UniformInt<u64> as rand::distr::uniform::UniformSampler>::sample_single+0xe4>
     5c4:	d4200020 	brk	#0x1
     5c8:	14000001 	b	5cc <_<rand::distr::uniform::int::UniformInt<u64> as rand::distr::uniform::UniformSampler>::sample_single+0xec>
     5cc:	17fffff1 	b	590 <_<rand::distr::uniform::int::UniformInt<u64> as rand::distr::uniform::UniformSampler>::sample_single+0xb0>
     5d0:	f85d03a0 	ldur	x0, [x29, #-48]
     5d4:	94000000 	bl	0 <__Unwind_Resume>

00000000000005d8 <_<rand::distr::uniform::int::UniformInt<u64> as rand::distr::uniform::UniformSampler>::sample_single_inclusive>:
     5d8:	d10783ff 	sub	sp, sp, #0x1e0
     5dc:	a91c6ffc 	stp	x28, x27, [sp, #448]
     5e0:	a91d7bfd 	stp	x29, x30, [sp, #464]
     5e4:	910743fd 	add	x29, sp, #0x1d0
     5e8:	f9005be2 	str	x2, [sp, #176]
     5ec:	f9005fe8 	str	x8, [sp, #184]
     5f0:	f90063e0 	str	x0, [sp, #192]
     5f4:	f90067e1 	str	x1, [sp, #200]
     5f8:	f81203a2 	stur	x2, [x29, #-224]
     5fc:	910303e8 	add	x8, sp, #0xc0
     600:	f81e83a8 	stur	x8, [x29, #-24]
     604:	14000006 	b	61c <_<rand::distr::uniform::int::UniformInt<u64> as rand::distr::uniform::UniformSampler>::sample_single_inclusive+0x44>
     608:	140000b5 	b	8dc <_<rand::distr::uniform::int::UniformInt<u64> as rand::distr::uniform::UniformSampler>::sample_single_inclusive+0x304>
     60c:	f81283a0 	stur	x0, [x29, #-216]
     610:	aa0103e8 	mov	x8, x1
     614:	b81303a8 	stur	w8, [x29, #-208]
     618:	17fffffc 	b	608 <_<rand::distr::uniform::int::UniformInt<u64> as rand::distr::uniform::UniformSampler>::sample_single_inclusive+0x30>
     61c:	f94063e8 	ldr	x8, [sp, #192]
     620:	aa0803e9 	mov	x9, x8
     624:	f90057e9 	str	x9, [sp, #168]
     628:	f81383a8 	stur	x8, [x29, #-200]
     62c:	910323e8 	add	x8, sp, #0xc8
     630:	f81e03a8 	stur	x8, [x29, #-32]
     634:	14000001 	b	638 <_<rand::distr::uniform::int::UniformInt<u64> as rand::distr::uniform::UniformSampler>::sample_single_inclusive+0x60>
     638:	f94057e8 	ldr	x8, [sp, #168]
     63c:	f94067e9 	ldr	x9, [sp, #200]
     640:	aa0903ea 	mov	x10, x9
     644:	f90053ea 	str	x10, [sp, #160]
     648:	f81403a9 	stur	x9, [x29, #-192]
     64c:	eb090108 	subs	x8, x8, x9
     650:	54000169 	b.ls	67c <_<rand::distr::uniform::int::UniformInt<u64> as rand::distr::uniform::UniformSampler>::sample_single_inclusive+0xa4>  // b.plast
     654:	14000001 	b	658 <_<rand::distr::uniform::int::UniformInt<u64> as rand::distr::uniform::UniformSampler>::sample_single_inclusive+0x80>
     658:	f9405fe9 	ldr	x9, [sp, #184]
     65c:	52800008 	mov	w8, #0x0                   	// #0
     660:	39035fe8 	strb	w8, [sp, #215]
     664:	39435fe8 	ldrb	w8, [sp, #215]
     668:	12000108 	and	w8, w8, #0x1
     66c:	39000528 	strb	w8, [x9, #1]
     670:	52800028 	mov	w8, #0x1                   	// #1
     674:	39000128 	strb	w8, [x9]
     678:	14000008 	b	698 <_<rand::distr::uniform::int::UniformInt<u64> as rand::distr::uniform::UniformSampler>::sample_single_inclusive+0xc0>
     67c:	f94053e8 	ldr	x8, [sp, #160]
     680:	f94057e9 	ldr	x9, [sp, #168]
     684:	f81903a8 	stur	x8, [x29, #-112]
     688:	f81983a9 	stur	x9, [x29, #-104]
     68c:	eb090108 	subs	x8, x8, x9
     690:	f9004fe8 	str	x8, [sp, #152]
     694:	14000002 	b	69c <_<rand::distr::uniform::int::UniformInt<u64> as rand::distr::uniform::UniformSampler>::sample_single_inclusive+0xc4>
     698:	1400001a 	b	700 <_<rand::distr::uniform::int::UniformInt<u64> as rand::distr::uniform::UniformSampler>::sample_single_inclusive+0x128>
     69c:	f9404fe8 	ldr	x8, [sp, #152]
     6a0:	f81783a8 	stur	x8, [x29, #-136]
     6a4:	52800029 	mov	w9, #0x1                   	// #1
     6a8:	f81803a9 	stur	x9, [x29, #-128]
     6ac:	91000508 	add	x8, x8, #0x1
     6b0:	f9004be8 	str	x8, [sp, #144]
     6b4:	14000001 	b	6b8 <_<rand::distr::uniform::int::UniformInt<u64> as rand::distr::uniform::UniformSampler>::sample_single_inclusive+0xe0>
     6b8:	f9404be8 	ldr	x8, [sp, #144]
     6bc:	f81483a8 	stur	x8, [x29, #-184]
     6c0:	b50000c8 	cbnz	x8, 6d8 <_<rand::distr::uniform::int::UniformInt<u64> as rand::distr::uniform::UniformSampler>::sample_single_inclusive+0x100>
     6c4:	14000001 	b	6c8 <_<rand::distr::uniform::int::UniformInt<u64> as rand::distr::uniform::UniformSampler>::sample_single_inclusive+0xf0>
     6c8:	f9405be0 	ldr	x0, [sp, #176]
     6cc:	94000000 	bl	16e8 <_rand::rng::Rng::random>
     6d0:	f90047e0 	str	x0, [sp, #136]
     6d4:	14000005 	b	6e8 <_<rand::distr::uniform::int::UniformInt<u64> as rand::distr::uniform::UniformSampler>::sample_single_inclusive+0x110>
     6d8:	f9405be0 	ldr	x0, [sp, #176]
     6dc:	94000000 	bl	16e8 <_rand::rng::Rng::random>
     6e0:	f90043e0 	str	x0, [sp, #128]
     6e4:	1400000c 	b	714 <_<rand::distr::uniform::int::UniformInt<u64> as rand::distr::uniform::UniformSampler>::sample_single_inclusive+0x13c>
     6e8:	f9405fe9 	ldr	x9, [sp, #184]
     6ec:	f94047e8 	ldr	x8, [sp, #136]
     6f0:	f9000528 	str	x8, [x9, #8]
     6f4:	52800008 	mov	w8, #0x0                   	// #0
     6f8:	39000128 	strb	w8, [x9]
     6fc:	17ffffe7 	b	698 <_<rand::distr::uniform::int::UniformInt<u64> as rand::distr::uniform::UniformSampler>::sample_single_inclusive+0xc0>
     700:	14000001 	b	704 <_<rand::distr::uniform::int::UniformInt<u64> as rand::distr::uniform::UniformSampler>::sample_single_inclusive+0x12c>
     704:	a95d7bfd 	ldp	x29, x30, [sp, #464]
     708:	a95c6ffc 	ldp	x28, x27, [sp, #448]
     70c:	910783ff 	add	sp, sp, #0x1e0
     710:	d65f03c0 	ret
     714:	f94043e8 	ldr	x8, [sp, #128]
     718:	f9404bea 	ldr	x10, [sp, #144]
     71c:	f81c03a8 	stur	x8, [x29, #-64]
     720:	f81c83aa 	stur	x10, [x29, #-56]
     724:	9bca7d09 	umulh	x9, x8, x10
     728:	9b0a7d08 	mul	x8, x8, x10
     72c:	f9003be9 	str	x9, [sp, #112]
     730:	f9003fe8 	str	x8, [sp, #120]
     734:	52800028 	mov	w8, #0x1                   	// #1
     738:	350000e8 	cbnz	w8, 754 <_<rand::distr::uniform::int::UniformInt<u64> as rand::distr::uniform::UniformSampler>::sample_single_inclusive+0x17c>
     73c:	14000001 	b	740 <_<rand::distr::uniform::int::UniformInt<u64> as rand::distr::uniform::UniformSampler>::sample_single_inclusive+0x168>
     740:	90000000 	adrp	x0, d6a8 <l_alloc_cbcc5b3e1826322f6bac87ad33b55b85>
     744:	91000000 	add	x0, x0, #0x0
     748:	94000000 	bl	0 <_core::panicking::panic_const::panic_const_mul_overflow>
     74c:	14000001 	b	750 <_<rand::distr::uniform::int::UniformInt<u64> as rand::distr::uniform::UniformSampler>::sample_single_inclusive+0x178>
     750:	d4200020 	brk	#0x1
     754:	f9403be8 	ldr	x8, [sp, #112]
     758:	f9403fe9 	ldr	x9, [sp, #120]
     75c:	f81d03a9 	stur	x9, [x29, #-48]
     760:	f81d83a8 	stur	x8, [x29, #-40]
     764:	f90033e9 	str	x9, [sp, #96]
     768:	f90037e8 	str	x8, [sp, #104]
     76c:	14000001 	b	770 <_<rand::distr::uniform::int::UniformInt<u64> as rand::distr::uniform::UniformSampler>::sample_single_inclusive+0x198>
     770:	f9404be9 	ldr	x9, [sp, #144]
     774:	f94033e8 	ldr	x8, [sp, #96]
     778:	f94037ea 	ldr	x10, [sp, #104]
     77c:	aa0803eb 	mov	x11, x8
     780:	f9002beb 	str	x11, [sp, #80]
     784:	f9006fea 	str	x10, [sp, #216]
     788:	f81503a8 	stur	x8, [x29, #-176]
     78c:	f81883a9 	stur	x9, [x29, #-120]
     790:	d2800008 	mov	x8, #0x0                   	// #0
     794:	eb090108 	subs	x8, x8, x9
     798:	f9002fe8 	str	x8, [sp, #88]
     79c:	14000001 	b	7a0 <_<rand::distr::uniform::int::UniformInt<u64> as rand::distr::uniform::UniformSampler>::sample_single_inclusive+0x1c8>
     7a0:	f9402be8 	ldr	x8, [sp, #80]
     7a4:	f9402fe9 	ldr	x9, [sp, #88]
     7a8:	eb090108 	subs	x8, x8, x9
     7ac:	54000128 	b.hi	7d0 <_<rand::distr::uniform::int::UniformInt<u64> as rand::distr::uniform::UniformSampler>::sample_single_inclusive+0x1f8>  // b.pmore
     7b0:	14000001 	b	7b4 <_<rand::distr::uniform::int::UniformInt<u64> as rand::distr::uniform::UniformSampler>::sample_single_inclusive+0x1dc>
     7b4:	f94057e8 	ldr	x8, [sp, #168]
     7b8:	f9406fe9 	ldr	x9, [sp, #216]
     7bc:	f81683a8 	stur	x8, [x29, #-152]
     7c0:	f81703a9 	stur	x9, [x29, #-144]
     7c4:	8b090108 	add	x8, x8, x9
     7c8:	f90027e8 	str	x8, [sp, #72]
     7cc:	1400003d 	b	8c0 <_<rand::distr::uniform::int::UniformInt<u64> as rand::distr::uniform::UniformSampler>::sample_single_inclusive+0x2e8>
     7d0:	f9405be0 	ldr	x0, [sp, #176]
     7d4:	94000000 	bl	16e8 <_rand::rng::Rng::random>
     7d8:	f90023e0 	str	x0, [sp, #64]
     7dc:	14000001 	b	7e0 <_<rand::distr::uniform::int::UniformInt<u64> as rand::distr::uniform::UniformSampler>::sample_single_inclusive+0x208>
     7e0:	f94023e8 	ldr	x8, [sp, #64]
     7e4:	f9404bea 	ldr	x10, [sp, #144]
     7e8:	f81a03a8 	stur	x8, [x29, #-96]
     7ec:	f81a83aa 	stur	x10, [x29, #-88]
     7f0:	9bca7d09 	umulh	x9, x8, x10
     7f4:	9b0a7d08 	mul	x8, x8, x10
     7f8:	f9001be9 	str	x9, [sp, #48]
     7fc:	f9001fe8 	str	x8, [sp, #56]
     800:	52800028 	mov	w8, #0x1                   	// #1
     804:	350000e8 	cbnz	w8, 820 <_<rand::distr::uniform::int::UniformInt<u64> as rand::distr::uniform::UniformSampler>::sample_single_inclusive+0x248>
     808:	14000001 	b	80c <_<rand::distr::uniform::int::UniformInt<u64> as rand::distr::uniform::UniformSampler>::sample_single_inclusive+0x234>
     80c:	90000000 	adrp	x0, d6a8 <l_alloc_cbcc5b3e1826322f6bac87ad33b55b85>
     810:	91000000 	add	x0, x0, #0x0
     814:	94000000 	bl	0 <_core::panicking::panic_const::panic_const_mul_overflow>
     818:	14000001 	b	81c <_<rand::distr::uniform::int::UniformInt<u64> as rand::distr::uniform::UniformSampler>::sample_single_inclusive+0x244>
     81c:	d4200020 	brk	#0x1
     820:	f9401be8 	ldr	x8, [sp, #48]
     824:	f9401fe0 	ldr	x0, [sp, #56]
     828:	f81b03a0 	stur	x0, [x29, #-80]
     82c:	f81b83a8 	stur	x8, [x29, #-72]
     830:	f90017e8 	str	x8, [sp, #40]
     834:	14000001 	b	838 <_<rand::distr::uniform::int::UniformInt<u64> as rand::distr::uniform::UniformSampler>::sample_single_inclusive+0x260>
     838:	f94017e1 	ldr	x1, [sp, #40]
     83c:	f9402be0 	ldr	x0, [sp, #80]
     840:	f81583a1 	stur	x1, [x29, #-168]
     844:	94000000 	bl	e44 <_core::num::<impl u64>::checked_add>
     848:	f9000fe1 	str	x1, [sp, #24]
     84c:	f90013e0 	str	x0, [sp, #32]
     850:	14000001 	b	854 <_<rand::distr::uniform::int::UniformInt<u64> as rand::distr::uniform::UniformSampler>::sample_single_inclusive+0x27c>
     854:	f9400fe8 	ldr	x8, [sp, #24]
     858:	f94013e9 	ldr	x9, [sp, #32]
     85c:	f90073e9 	str	x9, [sp, #224]
     860:	f90077e8 	str	x8, [sp, #232]
     864:	910383e0 	add	x0, sp, #0xe0
     868:	94000000 	bl	1490 <_core::option::Option<T>::is_none>
     86c:	b90017e0 	str	w0, [sp, #20]
     870:	14000001 	b	874 <_<rand::distr::uniform::int::UniformInt<u64> as rand::distr::uniform::UniformSampler>::sample_single_inclusive+0x29c>
     874:	b94017e9 	ldr	w9, [sp, #20]
     878:	12000128 	and	w8, w9, #0x1
     87c:	381673a8 	sturb	w8, [x29, #-153]
     880:	aa0903e8 	mov	x8, x9
     884:	92400109 	and	x9, x8, #0x1
     888:	f9406fe8 	ldr	x8, [sp, #216]
     88c:	ab090109 	adds	x9, x8, x9
     890:	1a9f37e8 	cset	w8, cs	// cs = hs, nlast
     894:	f90007e9 	str	x9, [sp, #8]
     898:	370000a8 	tbnz	w8, #0, 8ac <_<rand::distr::uniform::int::UniformInt<u64> as rand::distr::uniform::UniformSampler>::sample_single_inclusive+0x2d4>
     89c:	14000001 	b	8a0 <_<rand::distr::uniform::int::UniformInt<u64> as rand::distr::uniform::UniformSampler>::sample_single_inclusive+0x2c8>
     8a0:	f94007e8 	ldr	x8, [sp, #8]
     8a4:	f9006fe8 	str	x8, [sp, #216]
     8a8:	17ffffc3 	b	7b4 <_<rand::distr::uniform::int::UniformInt<u64> as rand::distr::uniform::UniformSampler>::sample_single_inclusive+0x1dc>
     8ac:	90000000 	adrp	x0, d3c0 <l_alloc_b7bef978aede28df3b19e88fa8cc4254>
     8b0:	91000000 	add	x0, x0, #0x0
     8b4:	94000000 	bl	0 <_core::panicking::panic_const::panic_const_add_overflow>
     8b8:	14000001 	b	8bc <_<rand::distr::uniform::int::UniformInt<u64> as rand::distr::uniform::UniformSampler>::sample_single_inclusive+0x2e4>
     8bc:	d4200020 	brk	#0x1
     8c0:	f9405fe9 	ldr	x9, [sp, #184]
     8c4:	f94027e8 	ldr	x8, [sp, #72]
     8c8:	f9000528 	str	x8, [x9, #8]
     8cc:	52800008 	mov	w8, #0x0                   	// #0
     8d0:	39000128 	strb	w8, [x9]
     8d4:	14000001 	b	8d8 <_<rand::distr::uniform::int::UniformInt<u64> as rand::distr::uniform::UniformSampler>::sample_single_inclusive+0x300>
     8d8:	17ffff8b 	b	704 <_<rand::distr::uniform::int::UniformInt<u64> as rand::distr::uniform::UniformSampler>::sample_single_inclusive+0x12c>
     8dc:	f85283a0 	ldur	x0, [x29, #-216]
     8e0:	94000000 	bl	0 <__Unwind_Resume>

00000000000008e4 <_<core::iter::adapters::enumerate::Enumerate<I> as core::iter::traits::iterator::Iterator>::next>:
     8e4:	d10243ff 	sub	sp, sp, #0x90
     8e8:	a9087bfd 	stp	x29, x30, [sp, #128]
     8ec:	910203fd 	add	x29, sp, #0x80
     8f0:	f9000fe0 	str	x0, [sp, #24]
     8f4:	aa0003e8 	mov	x8, x0
     8f8:	f90023e8 	str	x8, [sp, #64]
     8fc:	94000000 	bl	c23c <_<core::slice::iter::Iter<T> as core::iter::traits::iterator::Iterator>::next>
     900:	f9001fe0 	str	x0, [sp, #56]
     904:	f9401fe8 	ldr	x8, [sp, #56]
     908:	f1000108 	subs	x8, x8, #0x0
     90c:	9a9f07e8 	cset	x8, ne	// ne = any
     910:	b5000088 	cbnz	x8, 920 <_<core::iter::adapters::enumerate::Enumerate<I> as core::iter::traits::iterator::Iterator>::next+0x3c>
     914:	14000001 	b	918 <_<core::iter::adapters::enumerate::Enumerate<I> as core::iter::traits::iterator::Iterator>::next+0x34>
     918:	f90017ff 	str	xzr, [sp, #40]
     91c:	14000012 	b	964 <_<core::iter::adapters::enumerate::Enumerate<I> as core::iter::traits::iterator::Iterator>::next+0x80>
     920:	f9400fe8 	ldr	x8, [sp, #24]
     924:	f9401fe9 	ldr	x9, [sp, #56]
     928:	f81d03a9 	stur	x9, [x29, #-48]
     92c:	f9001be9 	str	x9, [sp, #48]
     930:	f9401be9 	ldr	x9, [sp, #48]
     934:	f90003e9 	str	x9, [sp]
     938:	f81d83a9 	stur	x9, [x29, #-40]
     93c:	f81e03a9 	stur	x9, [x29, #-32]
     940:	f9400909 	ldr	x9, [x8, #16]
     944:	f90007e9 	str	x9, [sp, #8]
     948:	f81e83a9 	stur	x9, [x29, #-24]
     94c:	f9400908 	ldr	x8, [x8, #16]
     950:	b1000508 	adds	x8, x8, #0x1
     954:	f9000be8 	str	x8, [sp, #16]
     958:	1a9f37e8 	cset	w8, cs	// cs = hs, nlast
     95c:	370001e8 	tbnz	w8, #0, 998 <_<core::iter::adapters::enumerate::Enumerate<I> as core::iter::traits::iterator::Iterator>::next+0xb4>
     960:	14000006 	b	978 <_<core::iter::adapters::enumerate::Enumerate<I> as core::iter::traits::iterator::Iterator>::next+0x94>
     964:	f94013e0 	ldr	x0, [sp, #32]
     968:	f94017e1 	ldr	x1, [sp, #40]
     96c:	a9487bfd 	ldp	x29, x30, [sp, #128]
     970:	910243ff 	add	sp, sp, #0x90
     974:	d65f03c0 	ret
     978:	f94003e8 	ldr	x8, [sp]
     97c:	f94007e9 	ldr	x9, [sp, #8]
     980:	f9400bea 	ldr	x10, [sp, #16]
     984:	f9400feb 	ldr	x11, [sp, #24]
     988:	f900096a 	str	x10, [x11, #16]
     98c:	f90013e9 	str	x9, [sp, #32]
     990:	f90017e8 	str	x8, [sp, #40]
     994:	17fffff4 	b	964 <_<core::iter::adapters::enumerate::Enumerate<I> as core::iter::traits::iterator::Iterator>::next+0x80>
     998:	90000000 	adrp	x0, d468 <l_alloc_3407c9cb6ff21ee44260c564f9754364>
     99c:	91000000 	add	x0, x0, #0x0
     9a0:	94000000 	bl	0 <_core::panicking::panic_const::panic_const_add_overflow>
     9a4:	14000007 	b	9c0 <_<core::iter::adapters::enumerate::Enumerate<I> as core::iter::traits::iterator::Iterator>::next+0xdc>
     9a8:	f85f03a0 	ldur	x0, [x29, #-16]
     9ac:	94000000 	bl	0 <__Unwind_Resume>
     9b0:	f81f03a0 	stur	x0, [x29, #-16]
     9b4:	aa0103e8 	mov	x8, x1
     9b8:	b81f83a8 	stur	w8, [x29, #-8]
     9bc:	17fffffb 	b	9a8 <_<core::iter::adapters::enumerate::Enumerate<I> as core::iter::traits::iterator::Iterator>::next+0xc4>
     9c0:	d4200020 	brk	#0x1

00000000000009c4 <_<alloc::vec::Vec<T> as alloc::vec::spec_from_iter_nested::SpecFromIterNested<T,I>>::from_iter>:
     9c4:	d10343ff 	sub	sp, sp, #0xd0
     9c8:	a90c7bfd 	stp	x29, x30, [sp, #192]
     9cc:	910303fd 	add	x29, sp, #0xc0
     9d0:	f9000fe8 	str	x8, [sp, #24]
     9d4:	aa0003e8 	mov	x8, x0
     9d8:	f90013e2 	str	x2, [sp, #32]
     9dc:	9100a3e0 	add	x0, sp, #0x28
     9e0:	b9002be8 	str	w8, [sp, #40]
     9e4:	b9002fe1 	str	w1, [sp, #44]
     9e8:	90000008 	adrp	x8, d480 <l_alloc_11d257f5ed6cc7fc38feaa801053bac6>
     9ec:	91000108 	add	x8, x8, #0x0
     9f0:	f81d83a8 	stur	x8, [x29, #-40]
     9f4:	52800028 	mov	w8, #0x1                   	// #1
     9f8:	381d73a8 	sturb	w8, [x29, #-41]
     9fc:	910123e8 	add	x8, sp, #0x48
     a00:	94000000 	bl	1070 <_core::iter::range::<impl core::iter::traits::iterator::Iterator for core::ops::range::Range<A>>::size_hint>
     a04:	14000008 	b	a24 <_<alloc::vec::Vec<T> as alloc::vec::spec_from_iter_nested::SpecFromIterNested<T,I>>::from_iter+0x60>
     a08:	385d73a8 	ldurb	w8, [x29, #-41]
     a0c:	370008c8 	tbnz	w8, #0, b24 <_<alloc::vec::Vec<T> as alloc::vec::spec_from_iter_nested::SpecFromIterNested<T,I>>::from_iter+0x160>
     a10:	14000043 	b	b1c <_<alloc::vec::Vec<T> as alloc::vec::spec_from_iter_nested::SpecFromIterNested<T,I>>::from_iter+0x158>
     a14:	f81e83a0 	stur	x0, [x29, #-24]
     a18:	aa0103e8 	mov	x8, x1
     a1c:	b81f03a8 	stur	w8, [x29, #-16]
     a20:	17fffffa 	b	a08 <_<alloc::vec::Vec<T> as alloc::vec::spec_from_iter_nested::SpecFromIterNested<T,I>>::from_iter+0x44>
     a24:	f9402be8 	ldr	x8, [sp, #80]
     a28:	f1000508 	subs	x8, x8, #0x1
     a2c:	54000181 	b.ne	a5c <_<alloc::vec::Vec<T> as alloc::vec::spec_from_iter_nested::SpecFromIterNested<T,I>>::from_iter+0x98>  // b.any
     a30:	14000001 	b	a34 <_<alloc::vec::Vec<T> as alloc::vec::spec_from_iter_nested::SpecFromIterNested<T,I>>::from_iter+0x70>
     a34:	f94013e3 	ldr	x3, [sp, #32]
     a38:	f9402fe0 	ldr	x0, [sp, #88]
     a3c:	f81f83a0 	stur	x0, [x29, #-8]
     a40:	52800088 	mov	w8, #0x4                   	// #4
     a44:	aa0803e2 	mov	x2, x8
     a48:	aa0203e1 	mov	x1, x2
     a4c:	94000000 	bl	1c64 <_alloc::raw_vec::RawVecInner<A>::with_capacity_in>
     a50:	f90007e0 	str	x0, [sp, #8]
     a54:	f9000be1 	str	x1, [sp, #16]
     a58:	14000014 	b	aa8 <_<alloc::vec::Vec<T> as alloc::vec::spec_from_iter_nested::SpecFromIterNested<T,I>>::from_iter+0xe4>
     a5c:	f94013e1 	ldr	x1, [sp, #32]
     a60:	910183e0 	add	x0, sp, #0x60
     a64:	90000008 	adrp	x8, d480 <l_alloc_11d257f5ed6cc7fc38feaa801053bac6>
     a68:	91000108 	add	x8, x8, #0x0
     a6c:	f90033e8 	str	x8, [sp, #96]
     a70:	52800028 	mov	w8, #0x1                   	// #1
     a74:	f90037e8 	str	x8, [sp, #104]
     a78:	90000008 	adrp	x8, d838 <l___unnamed_1>
     a7c:	90000009 	adrp	x9, d838 <l___unnamed_1>
     a80:	91000129 	add	x9, x9, #0x0
     a84:	f940010a 	ldr	x10, [x8]
     a88:	52800108 	mov	w8, #0x8                   	// #8
     a8c:	f9400529 	ldr	x9, [x9, #8]
     a90:	f90043ea 	str	x10, [sp, #128]
     a94:	f90047e9 	str	x9, [sp, #136]
     a98:	f9003be8 	str	x8, [sp, #112]
     a9c:	f9003fff 	str	xzr, [sp, #120]
     aa0:	94000000 	bl	0 <_core::panicking::panic_fmt>
     aa4:	1400001d 	b	b18 <_<alloc::vec::Vec<T> as alloc::vec::spec_from_iter_nested::SpecFromIterNested<T,I>>::from_iter+0x154>
     aa8:	f94013e3 	ldr	x3, [sp, #32]
     aac:	f9400be8 	ldr	x8, [sp, #16]
     ab0:	f94007e9 	ldr	x9, [sp, #8]
     ab4:	9100c3e0 	add	x0, sp, #0x30
     ab8:	f9001be9 	str	x9, [sp, #48]
     abc:	f9001fe8 	str	x8, [sp, #56]
     ac0:	f90023ff 	str	xzr, [sp, #64]
     ac4:	381d73bf 	sturb	wzr, [x29, #-41]
     ac8:	b9402be1 	ldr	w1, [sp, #40]
     acc:	b9402fe2 	ldr	w2, [sp, #44]
     ad0:	94000000 	bl	c4a0 <_<alloc::vec::Vec<T,A> as alloc::vec::spec_extend::SpecExtend<T,I>>::spec_extend>
     ad4:	14000008 	b	af4 <_<alloc::vec::Vec<T> as alloc::vec::spec_from_iter_nested::SpecFromIterNested<T,I>>::from_iter+0x130>
     ad8:	9100c3e0 	add	x0, sp, #0x30
     adc:	94000000 	bl	f20 <_core::ptr::drop_in_place<alloc::vec::Vec<i32>>>
     ae0:	17ffffca 	b	a08 <_<alloc::vec::Vec<T> as alloc::vec::spec_from_iter_nested::SpecFromIterNested<T,I>>::from_iter+0x44>
     ae4:	f81e83a0 	stur	x0, [x29, #-24]
     ae8:	aa0103e8 	mov	x8, x1
     aec:	b81f03a8 	stur	w8, [x29, #-16]
     af0:	17fffffa 	b	ad8 <_<alloc::vec::Vec<T> as alloc::vec::spec_from_iter_nested::SpecFromIterNested<T,I>>::from_iter+0x114>
     af4:	f9400fe9 	ldr	x9, [sp, #24]
     af8:	3dc00fe0 	ldr	q0, [sp, #48]
     afc:	3d800120 	str	q0, [x9]
     b00:	f94023e8 	ldr	x8, [sp, #64]
     b04:	f9000928 	str	x8, [x9, #16]
     b08:	a94c7bfd 	ldp	x29, x30, [sp, #192]
     b0c:	910343ff 	add	sp, sp, #0xd0
     b10:	d65f03c0 	ret
     b14:	94000000 	bl	0 <_core::panicking::panic_in_cleanup>
     b18:	d4200020 	brk	#0x1
     b1c:	f85e83a0 	ldur	x0, [x29, #-24]
     b20:	94000000 	bl	0 <__Unwind_Resume>
     b24:	17fffffe 	b	b1c <_<alloc::vec::Vec<T> as alloc::vec::spec_from_iter_nested::SpecFromIterNested<T,I>>::from_iter+0x158>

0000000000000b28 <_<core::ops::range::RangeInclusive<usize> as core::slice::index::SliceIndex<[T]>>::index>:
     b28:	d10383ff 	sub	sp, sp, #0xe0
     b2c:	a90d7bfd 	stp	x29, x30, [sp, #208]
     b30:	910343fd 	add	x29, sp, #0xd0
     b34:	f90013e0 	str	x0, [sp, #32]
     b38:	f90017e1 	str	x1, [sp, #40]
     b3c:	f9001be2 	str	x2, [sp, #48]
     b40:	f9001fe3 	str	x3, [sp, #56]
     b44:	f9002be1 	str	x1, [sp, #80]
     b48:	f9002fe2 	str	x2, [sp, #88]
     b4c:	aa0003e8 	mov	x8, x0
     b50:	f90033e8 	str	x8, [sp, #96]
     b54:	f9400408 	ldr	x8, [x0, #8]
     b58:	f90023e8 	str	x8, [sp, #64]
     b5c:	f90037e8 	str	x8, [sp, #104]
     b60:	b1000508 	adds	x8, x8, #0x1
     b64:	54000200 	b.eq	ba4 <_<core::ops::range::RangeInclusive<usize> as core::slice::index::SliceIndex<[T]>>::index+0x7c>  // b.none
     b68:	14000001 	b	b6c <_<core::ops::range::RangeInclusive<usize> as core::slice::index::SliceIndex<[T]>>::index+0x44>
     b6c:	f94023e9 	ldr	x9, [sp, #64]
     b70:	f94013e8 	ldr	x8, [sp, #32]
     b74:	f940010a 	ldr	x10, [x8]
     b78:	f9000bea 	str	x10, [sp, #16]
     b7c:	f81a03aa 	stur	x10, [x29, #-96]
     b80:	39404108 	ldrb	w8, [x8, #16]
     b84:	5280002a 	mov	w10, #0x1                   	// #1
     b88:	0a0a010a 	and	w10, w8, w10
     b8c:	381af3aa 	sturb	w10, [x29, #-81]
     b90:	91000529 	add	x9, x9, #0x1
     b94:	f9000fe9 	str	x9, [sp, #24]
     b98:	f81b03a9 	stur	x9, [x29, #-80]
     b9c:	370000e8 	tbnz	w8, #0, bb8 <_<core::ops::range::RangeInclusive<usize> as core::slice::index::SliceIndex<[T]>>::index+0x90>
     ba0:	14000003 	b	bac <_<core::ops::range::RangeInclusive<usize> as core::slice::index::SliceIndex<[T]>>::index+0x84>
     ba4:	f9401fe0 	ldr	x0, [sp, #56]
     ba8:	94000000 	bl	0 <_core::slice::index::slice_end_index_overflow_fail>
     bac:	f9400be8 	ldr	x8, [sp, #16]
     bb0:	f90027e8 	str	x8, [sp, #72]
     bb4:	14000004 	b	bc4 <_<core::ops::range::RangeInclusive<usize> as core::slice::index::SliceIndex<[T]>>::index+0x9c>
     bb8:	f9400fe8 	ldr	x8, [sp, #24]
     bbc:	f90027e8 	str	x8, [sp, #72]
     bc0:	14000001 	b	bc4 <_<core::ops::range::RangeInclusive<usize> as core::slice::index::SliceIndex<[T]>>::index+0x9c>
     bc4:	f9400fe8 	ldr	x8, [sp, #24]
     bc8:	f9401bea 	ldr	x10, [sp, #48]
     bcc:	f94017eb 	ldr	x11, [sp, #40]
     bd0:	f94027e9 	ldr	x9, [sp, #72]
     bd4:	f90007e9 	str	x9, [sp, #8]
     bd8:	f81c83a9 	stur	x9, [x29, #-56]
     bdc:	f81d03a8 	stur	x8, [x29, #-48]
     be0:	f81d83ab 	stur	x11, [x29, #-40]
     be4:	f81e03aa 	stur	x10, [x29, #-32]
     be8:	f81e83a8 	stur	x8, [x29, #-24]
     bec:	f81f03a9 	stur	x9, [x29, #-16]
     bf0:	eb090108 	subs	x8, x8, x9
     bf4:	540001e3 	b.cc	c30 <_<core::ops::range::RangeInclusive<usize> as core::slice::index::SliceIndex<[T]>>::index+0x108>  // b.lo, b.ul, b.last
     bf8:	14000001 	b	bfc <_<core::ops::range::RangeInclusive<usize> as core::slice::index::SliceIndex<[T]>>::index+0xd4>
     bfc:	f9400fe8 	ldr	x8, [sp, #24]
     c00:	f9401be9 	ldr	x9, [sp, #48]
     c04:	f94007ea 	ldr	x10, [sp, #8]
     c08:	eb0a010a 	subs	x10, x8, x10
     c0c:	f81c03aa 	stur	x10, [x29, #-64]
     c10:	5280002a 	mov	w10, #0x1                   	// #1
     c14:	f81b83aa 	stur	x10, [x29, #-72]
     c18:	f85c03aa 	ldur	x10, [x29, #-64]
     c1c:	f90003ea 	str	x10, [sp]
     c20:	f81f83aa 	stur	x10, [x29, #-8]
     c24:	eb090108 	subs	x8, x8, x9
     c28:	540000c8 	b.hi	c40 <_<core::ops::range::RangeInclusive<usize> as core::slice::index::SliceIndex<[T]>>::index+0x118>  // b.pmore
     c2c:	14000009 	b	c50 <_<core::ops::range::RangeInclusive<usize> as core::slice::index::SliceIndex<[T]>>::index+0x128>
     c30:	f9401fe2 	ldr	x2, [sp, #56]
     c34:	f9400fe1 	ldr	x1, [sp, #24]
     c38:	f94007e0 	ldr	x0, [sp, #8]
     c3c:	94000000 	bl	0 <_core::slice::index::slice_index_order_fail>
     c40:	f9401fe2 	ldr	x2, [sp, #56]
     c44:	f9401be1 	ldr	x1, [sp, #48]
     c48:	f9400fe0 	ldr	x0, [sp, #24]
     c4c:	94000000 	bl	0 <_core::slice::index::slice_end_index_len_fail>
     c50:	f94003e1 	ldr	x1, [sp]
     c54:	f94017e8 	ldr	x8, [sp, #40]
     c58:	f94007e9 	ldr	x9, [sp, #8]
     c5c:	8b090900 	add	x0, x8, x9, lsl #2
     c60:	a94d7bfd 	ldp	x29, x30, [sp, #208]
     c64:	910383ff 	add	sp, sp, #0xe0
     c68:	d65f03c0 	ret

0000000000000c6c <_<i32 as core::iter::range::Step>::steps_between>:
     c6c:	d10143ff 	sub	sp, sp, #0x50
     c70:	f90003e8 	str	x8, [sp]
     c74:	f90007e0 	str	x0, [sp, #8]
     c78:	f9000be1 	str	x1, [sp, #16]
     c7c:	aa0003e8 	mov	x8, x0
     c80:	f90017e8 	str	x8, [sp, #40]
     c84:	aa0103e8 	mov	x8, x1
     c88:	f9001be8 	str	x8, [sp, #48]
     c8c:	b9400008 	ldr	w8, [x0]
     c90:	b9400029 	ldr	w9, [x1]
     c94:	6b090108 	subs	w8, w8, w9
     c98:	5400018d 	b.le	cc8 <_<i32 as core::iter::range::Step>::steps_between+0x5c>
     c9c:	14000001 	b	ca0 <_<i32 as core::iter::range::Step>::steps_between+0x34>
     ca0:	f94003e9 	ldr	x9, [sp]
     ca4:	f900013f 	str	xzr, [x9]
     ca8:	9000000a 	adrp	x10, d838 <l___unnamed_1>
     cac:	90000008 	adrp	x8, d838 <l___unnamed_1>
     cb0:	91000108 	add	x8, x8, #0x0
     cb4:	f940014a 	ldr	x10, [x10]
     cb8:	f9400508 	ldr	x8, [x8, #8]
     cbc:	f900052a 	str	x10, [x9, #8]
     cc0:	f9000928 	str	x8, [x9, #16]
     cc4:	14000013 	b	d10 <_<i32 as core::iter::range::Step>::steps_between+0xa4>
     cc8:	f94003e9 	ldr	x9, [sp]
     ccc:	f94007ea 	ldr	x10, [sp, #8]
     cd0:	f9400be8 	ldr	x8, [sp, #16]
     cd4:	b9800108 	ldrsw	x8, [x8]
     cd8:	f9001fe8 	str	x8, [sp, #56]
     cdc:	b980014a 	ldrsw	x10, [x10]
     ce0:	f90023ea 	str	x10, [sp, #64]
     ce4:	eb0a0108 	subs	x8, x8, x10
     ce8:	f90027e8 	str	x8, [sp, #72]
     cec:	f90013e8 	str	x8, [sp, #32]
     cf0:	5280002a 	mov	w10, #0x1                   	// #1
     cf4:	f9000fea 	str	x10, [sp, #24]
     cf8:	f9000128 	str	x8, [x9]
     cfc:	f9400fea 	ldr	x10, [sp, #24]
     d00:	f94013e8 	ldr	x8, [sp, #32]
     d04:	f900052a 	str	x10, [x9, #8]
     d08:	f9000928 	str	x8, [x9, #16]
     d0c:	14000001 	b	d10 <_<i32 as core::iter::range::Step>::steps_between+0xa4>
     d10:	910143ff 	add	sp, sp, #0x50
     d14:	d65f03c0 	ret

0000000000000d18 <_<i32 as core::iter::range::Step>::forward_unchecked>:
     d18:	d10103ff 	sub	sp, sp, #0x40
     d1c:	a9037bfd 	stp	x29, x30, [sp, #48]
     d20:	9100c3fd 	add	x29, sp, #0x30
     d24:	b90017e0 	str	w0, [sp, #20]
     d28:	f9000fe1 	str	x1, [sp, #24]
     d2c:	aa0103e9 	mov	x9, x1
     d30:	aa0103e8 	mov	x8, x1
     d34:	b81f03a8 	stur	w8, [x29, #-16]
     d38:	2b09000a 	adds	w10, w0, w9
     d3c:	b9000bea 	str	w10, [sp, #8]
     d40:	1a9f77e8 	cset	w8, vs
     d44:	b81f43aa 	stur	w10, [x29, #-12]
     d48:	71000129 	subs	w9, w9, #0x0
     d4c:	1a9fa7e9 	cset	w9, lt	// lt = tstop
     d50:	4a090108 	eor	w8, w8, w9
     d54:	12000109 	and	w9, w8, #0x1
     d58:	381fb3a9 	sturb	w9, [x29, #-5]
     d5c:	37000168 	tbnz	w8, #0, d88 <_<i32 as core::iter::range::Step>::forward_unchecked+0x70>
     d60:	14000001 	b	d64 <_<i32 as core::iter::range::Step>::forward_unchecked+0x4c>
     d64:	b9400be8 	ldr	w8, [sp, #8]
     d68:	b90013e8 	str	w8, [sp, #16]
     d6c:	52800028 	mov	w8, #0x1                   	// #1
     d70:	b9000fe8 	str	w8, [sp, #12]
     d74:	b94013e0 	ldr	w0, [sp, #16]
     d78:	b81fc3a0 	stur	w0, [x29, #-4]
     d7c:	a9437bfd 	ldp	x29, x30, [sp, #48]
     d80:	910103ff 	add	sp, sp, #0x40
     d84:	d65f03c0 	ret
     d88:	90000009 	adrp	x9, d858 <l___unnamed_2>
     d8c:	90000008 	adrp	x8, d858 <l___unnamed_2>
     d90:	91000108 	add	x8, x8, #0x0
     d94:	b9400129 	ldr	w9, [x9]
     d98:	b9400508 	ldr	w8, [x8, #4]
     d9c:	b9000fe9 	str	w9, [sp, #12]
     da0:	b90013e8 	str	w8, [sp, #16]
     da4:	94000000 	bl	1030 <_core::hint::unreachable_unchecked::precondition_check>
     da8:	d4200020 	brk	#0x1

0000000000000dac <_core::intrinsics::cold_path>:
     dac:	d65f03c0 	ret

0000000000000db0 <_core::mem::size_of_val>:
     db0:	d10083ff 	sub	sp, sp, #0x20
     db4:	f90007e0 	str	x0, [sp, #8]
     db8:	f9000be1 	str	x1, [sp, #16]
     dbc:	d37ef428 	lsl	x8, x1, #2
     dc0:	f9000fe8 	str	x8, [sp, #24]
     dc4:	f9400fe0 	ldr	x0, [sp, #24]
     dc8:	910083ff 	add	sp, sp, #0x20
     dcc:	d65f03c0 	ret

0000000000000dd0 <_core::num::<impl u32>::checked_add>:
     dd0:	d10083ff 	sub	sp, sp, #0x20
     dd4:	b90007e0 	str	w0, [sp, #4]
     dd8:	b9000be1 	str	w1, [sp, #8]
     ddc:	b90017e0 	str	w0, [sp, #20]
     de0:	b9001be1 	str	w1, [sp, #24]
     de4:	2b010008 	adds	w8, w0, w1
     de8:	1a9f37e8 	cset	w8, cs	// cs = hs, nlast
     dec:	39007fe8 	strb	w8, [sp, #31]
     df0:	37000128 	tbnz	w8, #0, e14 <_core::num::<impl u32>::checked_add+0x44>
     df4:	14000001 	b	df8 <_core::num::<impl u32>::checked_add+0x28>
     df8:	b94007e8 	ldr	w8, [sp, #4]
     dfc:	b9400be9 	ldr	w9, [sp, #8]
     e00:	0b090108 	add	w8, w8, w9
     e04:	b90013e8 	str	w8, [sp, #16]
     e08:	52800028 	mov	w8, #0x1                   	// #1
     e0c:	b9000fe8 	str	w8, [sp, #12]
     e10:	14000009 	b	e34 <_core::num::<impl u32>::checked_add+0x64>
     e14:	90000009 	adrp	x9, d858 <l___unnamed_2>
     e18:	90000008 	adrp	x8, d858 <l___unnamed_2>
     e1c:	91000108 	add	x8, x8, #0x0
     e20:	b9400129 	ldr	w9, [x9]
     e24:	b9400508 	ldr	w8, [x8, #4]
     e28:	b9000fe9 	str	w9, [sp, #12]
     e2c:	b90013e8 	str	w8, [sp, #16]
     e30:	14000001 	b	e34 <_core::num::<impl u32>::checked_add+0x64>
     e34:	b9400fe0 	ldr	w0, [sp, #12]
     e38:	b94013e1 	ldr	w1, [sp, #16]
     e3c:	910083ff 	add	sp, sp, #0x20
     e40:	d65f03c0 	ret

0000000000000e44 <_core::num::<impl u64>::checked_add>:
     e44:	d10103ff 	sub	sp, sp, #0x40
     e48:	f90007e0 	str	x0, [sp, #8]
     e4c:	f9000be1 	str	x1, [sp, #16]
     e50:	f90017e0 	str	x0, [sp, #40]
     e54:	f9001be1 	str	x1, [sp, #48]
     e58:	ab010008 	adds	x8, x0, x1
     e5c:	1a9f37e8 	cset	w8, cs	// cs = hs, nlast
     e60:	3900ffe8 	strb	w8, [sp, #63]
     e64:	37000128 	tbnz	w8, #0, e88 <_core::num::<impl u64>::checked_add+0x44>
     e68:	14000001 	b	e6c <_core::num::<impl u64>::checked_add+0x28>
     e6c:	f94007e8 	ldr	x8, [sp, #8]
     e70:	f9400be9 	ldr	x9, [sp, #16]
     e74:	8b090108 	add	x8, x8, x9
     e78:	f90013e8 	str	x8, [sp, #32]
     e7c:	52800028 	mov	w8, #0x1                   	// #1
     e80:	f9000fe8 	str	x8, [sp, #24]
     e84:	14000009 	b	ea8 <_core::num::<impl u64>::checked_add+0x64>
     e88:	90000009 	adrp	x9, d838 <l___unnamed_1>
     e8c:	90000008 	adrp	x8, d838 <l___unnamed_1>
     e90:	91000108 	add	x8, x8, #0x0
     e94:	f9400129 	ldr	x9, [x9]
     e98:	f9400508 	ldr	x8, [x8, #8]
     e9c:	f9000fe9 	str	x9, [sp, #24]
     ea0:	f90013e8 	str	x8, [sp, #32]
     ea4:	14000001 	b	ea8 <_core::num::<impl u64>::checked_add+0x64>
     ea8:	f9400fe0 	ldr	x0, [sp, #24]
     eac:	f94013e1 	ldr	x1, [sp, #32]
     eb0:	910103ff 	add	sp, sp, #0x40
     eb4:	d65f03c0 	ret

0000000000000eb8 <_core::ops::range::RangeInclusive<Idx>::new>:
     eb8:	d10043ff 	sub	sp, sp, #0x10
     ebc:	f90003e0 	str	x0, [sp]
     ec0:	f90007e1 	str	x1, [sp, #8]
     ec4:	f9000100 	str	x0, [x8]
     ec8:	f9000501 	str	x1, [x8, #8]
     ecc:	3900411f 	strb	wzr, [x8, #16]
     ed0:	910043ff 	add	sp, sp, #0x10
     ed4:	d65f03c0 	ret

0000000000000ed8 <_core::ptr::drop_in_place<alloc::vec::Vec<i32>::extend_trusted<core::ops::range::Range<i32>>::{{closure}}>>:
     ed8:	d10083ff 	sub	sp, sp, #0x20
     edc:	a9017bfd 	stp	x29, x30, [sp, #16]
     ee0:	910043fd 	add	x29, sp, #0x10
     ee4:	aa0003e8 	mov	x8, x0
     ee8:	f90007e8 	str	x8, [sp, #8]
     eec:	94000000 	bl	fd4 <_core::ptr::drop_in_place<alloc::vec::set_len_on_drop::SetLenOnDrop>>
     ef0:	a9417bfd 	ldp	x29, x30, [sp, #16]
     ef4:	910083ff 	add	sp, sp, #0x20
     ef8:	d65f03c0 	ret

0000000000000efc <_core::ptr::drop_in_place<core::iter::traits::iterator::Iterator::for_each::call<i32,alloc::vec::Vec<i32>::extend_trusted<core::ops::range::Range<i32>>::{{closure}}>::{{closure}}>>:
     efc:	d10083ff 	sub	sp, sp, #0x20
     f00:	a9017bfd 	stp	x29, x30, [sp, #16]
     f04:	910043fd 	add	x29, sp, #0x10
     f08:	aa0003e8 	mov	x8, x0
     f0c:	f90007e8 	str	x8, [sp, #8]
     f10:	94000000 	bl	ed8 <_core::ptr::drop_in_place<alloc::vec::Vec<i32>::extend_trusted<core::ops::range::Range<i32>>::{{closure}}>>
     f14:	a9417bfd 	ldp	x29, x30, [sp, #16]
     f18:	910083ff 	add	sp, sp, #0x20
     f1c:	d65f03c0 	ret

0000000000000f20 <_core::ptr::drop_in_place<alloc::vec::Vec<i32>>>:
     f20:	d100c3ff 	sub	sp, sp, #0x30
     f24:	a9027bfd 	stp	x29, x30, [sp, #32]
     f28:	910083fd 	add	x29, sp, #0x20
     f2c:	f90003e0 	str	x0, [sp]
     f30:	aa0003e8 	mov	x8, x0
     f34:	f90007e8 	str	x8, [sp, #8]
     f38:	94000000 	bl	1e50 <_<alloc::vec::Vec<T,A> as core::ops::drop::Drop>::drop>
     f3c:	14000008 	b	f5c <_core::ptr::drop_in_place<alloc::vec::Vec<i32>>+0x3c>
     f40:	f94003e0 	ldr	x0, [sp]
     f44:	94000000 	bl	fb0 <_core::ptr::drop_in_place<alloc::raw_vec::RawVec<i32>>>
     f48:	1400000b 	b	f74 <_core::ptr::drop_in_place<alloc::vec::Vec<i32>>+0x54>
     f4c:	f9000be0 	str	x0, [sp, #16]
     f50:	aa0103e8 	mov	x8, x1
     f54:	b9001be8 	str	w8, [sp, #24]
     f58:	17fffffa 	b	f40 <_core::ptr::drop_in_place<alloc::vec::Vec<i32>>+0x20>
     f5c:	f94003e0 	ldr	x0, [sp]
     f60:	94000000 	bl	fb0 <_core::ptr::drop_in_place<alloc::raw_vec::RawVec<i32>>>
     f64:	a9427bfd 	ldp	x29, x30, [sp, #32]
     f68:	9100c3ff 	add	sp, sp, #0x30
     f6c:	d65f03c0 	ret
     f70:	94000000 	bl	0 <_core::panicking::panic_in_cleanup>
     f74:	f9400be0 	ldr	x0, [sp, #16]
     f78:	94000000 	bl	0 <__Unwind_Resume>

0000000000000f7c <_core::ptr::drop_in_place<rand::distr::uniform::Error>>:
     f7c:	d10043ff 	sub	sp, sp, #0x10
     f80:	f90007e0 	str	x0, [sp, #8]
     f84:	910043ff 	add	sp, sp, #0x10
     f88:	d65f03c0 	ret

0000000000000f8c <_core::ptr::drop_in_place<rand::rngs::thread::ThreadRng>>:
     f8c:	d10083ff 	sub	sp, sp, #0x20
     f90:	a9017bfd 	stp	x29, x30, [sp, #16]
     f94:	910043fd 	add	x29, sp, #0x10
     f98:	aa0003e8 	mov	x8, x0
     f9c:	f90007e8 	str	x8, [sp, #8]
     fa0:	94000000 	bl	0 <_core::ptr::drop_in_place<alloc::rc::Rc<core::cell::UnsafeCell<rand::rngs::reseeding::ReseedingRng<rand_chacha::chacha::ChaCha12Core,rand_core::os::OsRng>>>>>
     fa4:	a9417bfd 	ldp	x29, x30, [sp, #16]
     fa8:	910083ff 	add	sp, sp, #0x20
     fac:	d65f03c0 	ret

0000000000000fb0 <_core::ptr::drop_in_place<alloc::raw_vec::RawVec<i32>>>:
     fb0:	d10083ff 	sub	sp, sp, #0x20
     fb4:	a9017bfd 	stp	x29, x30, [sp, #16]
     fb8:	910043fd 	add	x29, sp, #0x10
     fbc:	aa0003e8 	mov	x8, x0
     fc0:	f90007e8 	str	x8, [sp, #8]
     fc4:	94000000 	bl	22f0 <_<alloc::raw_vec::RawVec<T,A> as core::ops::drop::Drop>::drop>
     fc8:	a9417bfd 	ldp	x29, x30, [sp, #16]
     fcc:	910083ff 	add	sp, sp, #0x20
     fd0:	d65f03c0 	ret

0000000000000fd4 <_core::ptr::drop_in_place<alloc::vec::set_len_on_drop::SetLenOnDrop>>:
     fd4:	d10083ff 	sub	sp, sp, #0x20
     fd8:	a9017bfd 	stp	x29, x30, [sp, #16]
     fdc:	910043fd 	add	x29, sp, #0x10
     fe0:	aa0003e8 	mov	x8, x0
     fe4:	f90007e8 	str	x8, [sp, #8]
     fe8:	94000000 	bl	2320 <_<alloc::vec::set_len_on_drop::SetLenOnDrop as core::ops::drop::Drop>::drop>
     fec:	a9417bfd 	ldp	x29, x30, [sp, #16]
     ff0:	910083ff 	add	sp, sp, #0x20
     ff4:	d65f03c0 	ret

0000000000000ff8 <_core::hint::assert_unchecked::precondition_check>:
     ff8:	d10083ff 	sub	sp, sp, #0x20
     ffc:	a9017bfd 	stp	x29, x30, [sp, #16]
    1000:	910043fd 	add	x29, sp, #0x10
    1004:	381ff3a0 	sturb	w0, [x29, #-1]
    1008:	370000e0 	tbnz	w0, #0, 1024 <_core::hint::assert_unchecked::precondition_check+0x2c>
    100c:	14000001 	b	1010 <_core::hint::assert_unchecked::precondition_check+0x18>
    1010:	90000000 	adrp	x0, cf2c <l_alloc_ab14703751a9eb3585c49b2e55e9a9e5>
    1014:	91000000 	add	x0, x0, #0x0
    1018:	52800d08 	mov	w8, #0x68                  	// #104
    101c:	aa0803e1 	mov	x1, x8
    1020:	94000000 	bl	0 <_core::panicking::panic_nounwind>
    1024:	a9417bfd 	ldp	x29, x30, [sp, #16]
    1028:	910083ff 	add	sp, sp, #0x20
    102c:	d65f03c0 	ret

0000000000001030 <_core::hint::unreachable_unchecked::precondition_check>:
    1030:	a9bf7bfd 	stp	x29, x30, [sp, #-16]!
    1034:	910003fd 	mov	x29, sp
    1038:	90000000 	adrp	x0, cf94 <l_alloc_1eb6f53a157dccb32488e066ad957e6d>
    103c:	91000000 	add	x0, x0, #0x0
    1040:	52800a48 	mov	w8, #0x52                  	// #82
    1044:	aa0803e1 	mov	x1, x8
    1048:	94000000 	bl	0 <_core::panicking::panic_nounwind>

000000000000104c <_core::iter::range::<impl core::iter::traits::iterator::Iterator for core::ops::range::Range<A>>::next>:
    104c:	d10083ff 	sub	sp, sp, #0x20
    1050:	a9017bfd 	stp	x29, x30, [sp, #16]
    1054:	910043fd 	add	x29, sp, #0x10
    1058:	aa0003e8 	mov	x8, x0
    105c:	f90007e8 	str	x8, [sp, #8]
    1060:	94000000 	bl	c1ac <_<core::ops::range::Range<T> as core::iter::range::RangeIteratorImpl>::spec_next>
    1064:	a9417bfd 	ldp	x29, x30, [sp, #16]
    1068:	910083ff 	add	sp, sp, #0x20
    106c:	d65f03c0 	ret

0000000000001070 <_core::iter::range::<impl core::iter::traits::iterator::Iterator for core::ops::range::Range<A>>::size_hint>:
    1070:	d10103ff 	sub	sp, sp, #0x40
    1074:	a9037bfd 	stp	x29, x30, [sp, #48]
    1078:	9100c3fd 	add	x29, sp, #0x30
    107c:	f90007e8 	str	x8, [sp, #8]
    1080:	f9000be0 	str	x0, [sp, #16]
    1084:	aa0003e8 	mov	x8, x0
    1088:	f9000fe8 	str	x8, [sp, #24]
    108c:	aa0003e8 	mov	x8, x0
    1090:	f81f03a8 	stur	x8, [x29, #-16]
    1094:	91001008 	add	x8, x0, #0x4
    1098:	f81f83a8 	stur	x8, [x29, #-8]
    109c:	b9400008 	ldr	w8, [x0]
    10a0:	b9400409 	ldr	w9, [x0, #4]
    10a4:	6b090108 	subs	w8, w8, w9
    10a8:	5400018b 	b.lt	10d8 <_core::iter::range::<impl core::iter::traits::iterator::Iterator for core::ops::range::Range<A>>::size_hint+0x68>  // b.tstop
    10ac:	14000001 	b	10b0 <_core::iter::range::<impl core::iter::traits::iterator::Iterator for core::ops::range::Range<A>>::size_hint+0x40>
    10b0:	f94007e9 	ldr	x9, [sp, #8]
    10b4:	f900013f 	str	xzr, [x9]
    10b8:	9000000a 	adrp	x10, d848 <l___unnamed_3>
    10bc:	90000008 	adrp	x8, d848 <l___unnamed_3>
    10c0:	91000108 	add	x8, x8, #0x0
    10c4:	f940014a 	ldr	x10, [x10]
    10c8:	f9400508 	ldr	x8, [x8, #8]
    10cc:	f900052a 	str	x10, [x9, #8]
    10d0:	f9000928 	str	x8, [x9, #16]
    10d4:	14000006 	b	10ec <_core::iter::range::<impl core::iter::traits::iterator::Iterator for core::ops::range::Range<A>>::size_hint+0x7c>
    10d8:	f9400be0 	ldr	x0, [sp, #16]
    10dc:	f94007e8 	ldr	x8, [sp, #8]
    10e0:	91001001 	add	x1, x0, #0x4
    10e4:	94000000 	bl	c6c <_<i32 as core::iter::range::Step>::steps_between>
    10e8:	14000001 	b	10ec <_core::iter::range::<impl core::iter::traits::iterator::Iterator for core::ops::range::Range<A>>::size_hint+0x7c>
    10ec:	a9437bfd 	ldp	x29, x30, [sp, #48]
    10f0:	910103ff 	add	sp, sp, #0x40
    10f4:	d65f03c0 	ret

00000000000010f8 <_core::iter::traits::iterator::Iterator::fold>:
    10f8:	d10143ff 	sub	sp, sp, #0x50
    10fc:	a9047bfd 	stp	x29, x30, [sp, #64]
    1100:	910103fd 	add	x29, sp, #0x40
    1104:	f90007e2 	str	x2, [sp, #8]
    1108:	b90017e0 	str	w0, [sp, #20]
    110c:	b9001be1 	str	w1, [sp, #24]
    1110:	52800028 	mov	w8, #0x1                   	// #1
    1114:	381e53a8 	sturb	w8, [x29, #-27]
    1118:	14000001 	b	111c <_core::iter::traits::iterator::Iterator::fold+0x24>
    111c:	910053e0 	add	x0, sp, #0x14
    1120:	94000000 	bl	104c <_core::iter::range::<impl core::iter::traits::iterator::Iterator for core::ops::range::Range<A>>::next>
    1124:	b90003e0 	str	w0, [sp]
    1128:	b90007e1 	str	w1, [sp, #4]
    112c:	14000008 	b	114c <_core::iter::traits::iterator::Iterator::fold+0x54>
    1130:	385e53a8 	ldurb	w8, [x29, #-27]
    1134:	370004e8 	tbnz	w8, #0, 11d0 <_core::iter::traits::iterator::Iterator::fold+0xd8>
    1138:	14000023 	b	11c4 <_core::iter::traits::iterator::Iterator::fold+0xcc>
    113c:	f81e83a0 	stur	x0, [x29, #-24]
    1140:	aa0103e8 	mov	x8, x1
    1144:	b81f03a8 	stur	w8, [x29, #-16]
    1148:	17fffffa 	b	1130 <_core::iter::traits::iterator::Iterator::fold+0x38>
    114c:	b94007e8 	ldr	w8, [sp, #4]
    1150:	b94003e9 	ldr	w9, [sp]
    1154:	b9001fe9 	str	w9, [sp, #28]
    1158:	b90023e8 	str	w8, [sp, #32]
    115c:	b9401fe8 	ldr	w8, [sp, #28]
    1160:	f1000508 	subs	x8, x8, #0x1
    1164:	54000101 	b.ne	1184 <_core::iter::traits::iterator::Iterator::fold+0x8c>  // b.any
    1168:	14000001 	b	116c <_core::iter::traits::iterator::Iterator::fold+0x74>
    116c:	f94007e0 	ldr	x0, [sp, #8]
    1170:	b94023e1 	ldr	w1, [sp, #32]
    1174:	b81fc3a1 	stur	w1, [x29, #-4]
    1178:	381e53bf 	sturb	wzr, [x29, #-27]
    117c:	94000000 	bl	1240 <_core::iter::traits::iterator::Iterator::for_each::call::{{closure}}>
    1180:	14000002 	b	1188 <_core::iter::traits::iterator::Iterator::fold+0x90>
    1184:	14000004 	b	1194 <_core::iter::traits::iterator::Iterator::fold+0x9c>
    1188:	52800028 	mov	w8, #0x1                   	// #1
    118c:	381e53a8 	sturb	w8, [x29, #-27]
    1190:	17ffffe3 	b	111c <_core::iter::traits::iterator::Iterator::fold+0x24>
    1194:	f94007e0 	ldr	x0, [sp, #8]
    1198:	94000000 	bl	efc <_core::ptr::drop_in_place<core::iter::traits::iterator::Iterator::for_each::call<i32,alloc::vec::Vec<i32>::extend_trusted<core::ops::range::Range<i32>>::{{closure}}>::{{closure}}>>
    119c:	14000007 	b	11b8 <_core::iter::traits::iterator::Iterator::fold+0xc0>
    11a0:	f85e83a0 	ldur	x0, [x29, #-24]
    11a4:	94000000 	bl	0 <__Unwind_Resume>
    11a8:	f81e83a0 	stur	x0, [x29, #-24]
    11ac:	aa0103e8 	mov	x8, x1
    11b0:	b81f03a8 	stur	w8, [x29, #-16]
    11b4:	17fffffb 	b	11a0 <_core::iter::traits::iterator::Iterator::fold+0xa8>
    11b8:	a9447bfd 	ldp	x29, x30, [sp, #64]
    11bc:	910143ff 	add	sp, sp, #0x50
    11c0:	d65f03c0 	ret
    11c4:	f94007e0 	ldr	x0, [sp, #8]
    11c8:	94000000 	bl	efc <_core::ptr::drop_in_place<core::iter::traits::iterator::Iterator::for_each::call<i32,alloc::vec::Vec<i32>::extend_trusted<core::ops::range::Range<i32>>::{{closure}}>::{{closure}}>>
    11cc:	17fffff5 	b	11a0 <_core::iter::traits::iterator::Iterator::fold+0xa8>
    11d0:	17fffffd 	b	11c4 <_core::iter::traits::iterator::Iterator::fold+0xcc>
    11d4:	94000000 	bl	0 <_core::panicking::panic_in_cleanup>

00000000000011d8 <_core::iter::traits::iterator::Iterator::collect>:
    11d8:	d10083ff 	sub	sp, sp, #0x20
    11dc:	a9017bfd 	stp	x29, x30, [sp, #16]
    11e0:	910043fd 	add	x29, sp, #0x10
    11e4:	b9000be0 	str	w0, [sp, #8]
    11e8:	b9000fe1 	str	w1, [sp, #12]
    11ec:	90000002 	adrp	x2, d5b0 <l_alloc_ca96f6a372a20ad240fc8048bf4b5e42>
    11f0:	91000042 	add	x2, x2, #0x0
    11f4:	94000000 	bl	c300 <_<alloc::vec::Vec<T> as core::iter::traits::collect::FromIterator<T>>::from_iter>
    11f8:	a9417bfd 	ldp	x29, x30, [sp, #16]
    11fc:	910083ff 	add	sp, sp, #0x20
    1200:	d65f03c0 	ret

0000000000001204 <_core::iter::traits::iterator::Iterator::for_each>:
    1204:	d100c3ff 	sub	sp, sp, #0x30
    1208:	a9027bfd 	stp	x29, x30, [sp, #32]
    120c:	910083fd 	add	x29, sp, #0x20
    1210:	aa0203e8 	mov	x8, x2
    1214:	b81f83a0 	stur	w0, [x29, #-8]
    1218:	b81fc3a1 	stur	w1, [x29, #-4]
    121c:	3dc00100 	ldr	q0, [x8]
    1220:	910003e2 	mov	x2, sp
    1224:	3d8003e0 	str	q0, [sp]
    1228:	f9400908 	ldr	x8, [x8, #16]
    122c:	f9000be8 	str	x8, [sp, #16]
    1230:	94000000 	bl	10f8 <_core::iter::traits::iterator::Iterator::fold>
    1234:	a9427bfd 	ldp	x29, x30, [sp, #32]
    1238:	9100c3ff 	add	sp, sp, #0x30
    123c:	d65f03c0 	ret

0000000000001240 <_core::iter::traits::iterator::Iterator::for_each::call::{{closure}}>:
    1240:	d10083ff 	sub	sp, sp, #0x20
    1244:	a9017bfd 	stp	x29, x30, [sp, #16]
    1248:	910043fd 	add	x29, sp, #0x10
    124c:	aa0003e8 	mov	x8, x0
    1250:	f90003e8 	str	x8, [sp]
    1254:	b81fc3a1 	stur	w1, [x29, #-4]
    1258:	94000000 	bl	1b1c <_alloc::vec::Vec<T,A>::extend_trusted::{{closure}}>
    125c:	a9417bfd 	ldp	x29, x30, [sp, #16]
    1260:	910083ff 	add	sp, sp, #0x20
    1264:	d65f03c0 	ret

0000000000001268 <_core::iter::traits::iterator::Iterator::enumerate>:
    1268:	d10043ff 	sub	sp, sp, #0x10
    126c:	aa0003e9 	mov	x9, x0
    1270:	f90003e9 	str	x9, [sp]
    1274:	aa0103e9 	mov	x9, x1
    1278:	f90007e9 	str	x9, [sp, #8]
    127c:	f9000100 	str	x0, [x8]
    1280:	f9000501 	str	x1, [x8, #8]
    1284:	f900091f 	str	xzr, [x8, #16]
    1288:	910043ff 	add	sp, sp, #0x10
    128c:	d65f03c0 	ret

0000000000001290 <_core::slice::<impl [T]>::iter>:
    1290:	d10083ff 	sub	sp, sp, #0x20
    1294:	a9017bfd 	stp	x29, x30, [sp, #16]
    1298:	910043fd 	add	x29, sp, #0x10
    129c:	aa0003e8 	mov	x8, x0
    12a0:	f90003e8 	str	x8, [sp]
    12a4:	f90007e1 	str	x1, [sp, #8]
    12a8:	94000000 	bl	1420 <_core::slice::iter::Iter<T>::new>
    12ac:	a9417bfd 	ldp	x29, x30, [sp, #16]
    12b0:	910083ff 	add	sp, sp, #0x20
    12b4:	d65f03c0 	ret

00000000000012b8 <_core::slice::raw::from_raw_parts::precondition_check>:
    12b8:	d102c3ff 	sub	sp, sp, #0xb0
    12bc:	a90a7bfd 	stp	x29, x30, [sp, #160]
    12c0:	910283fd 	add	x29, sp, #0xa0
    12c4:	f90007e0 	str	x0, [sp, #8]
    12c8:	f9000be1 	str	x1, [sp, #16]
    12cc:	f9000fe2 	str	x2, [sp, #24]
    12d0:	f90013e3 	str	x3, [sp, #32]
    12d4:	f81c03a0 	stur	x0, [x29, #-64]
    12d8:	f81c83a1 	stur	x1, [x29, #-56]
    12dc:	f81d03a2 	stur	x2, [x29, #-48]
    12e0:	f81d83a3 	stur	x3, [x29, #-40]
    12e4:	381e63bf 	sturb	wzr, [x29, #-26]
    12e8:	381e73bf 	sturb	wzr, [x29, #-25]
    12ec:	90000008 	adrp	x8, d5c8 <l_alloc_e92e94d0ff530782b571cfd99ec66aef>
    12f0:	91000108 	add	x8, x8, #0x0
    12f4:	f81e83a8 	stur	x8, [x29, #-24]
    12f8:	f81f03a0 	stur	x0, [x29, #-16]
    12fc:	9e670040 	fmov	d0, x2
    1300:	0e205800 	cnt	v0.8b, v0.8b
    1304:	2e303800 	uaddlv	h0, v0.8b
    1308:	bc1fc3a0 	stur	s0, [x29, #-4]
    130c:	b85fc3a8 	ldur	w8, [x29, #-4]
    1310:	71000508 	subs	w8, w8, #0x1
    1314:	54000101 	b.ne	1334 <_core::slice::raw::from_raw_parts::precondition_check+0x7c>  // b.any
    1318:	14000001 	b	131c <_core::slice::raw::from_raw_parts::precondition_check+0x64>
    131c:	f94007e8 	ldr	x8, [sp, #8]
    1320:	f9400fe9 	ldr	x9, [sp, #24]
    1324:	f1000529 	subs	x9, x9, #0x1
    1328:	8a090108 	and	x8, x8, x9
    132c:	b40002c8 	cbz	x8, 1384 <_core::slice::raw::from_raw_parts::precondition_check+0xcc>
    1330:	14000018 	b	1390 <_core::slice::raw::from_raw_parts::precondition_check+0xd8>
    1334:	9100a3e0 	add	x0, sp, #0x28
    1338:	90000008 	adrp	x8, d5c8 <l_alloc_e92e94d0ff530782b571cfd99ec66aef>
    133c:	91000108 	add	x8, x8, #0x0
    1340:	f90017e8 	str	x8, [sp, #40]
    1344:	52800028 	mov	w8, #0x1                   	// #1
    1348:	f9001be8 	str	x8, [sp, #48]
    134c:	90000008 	adrp	x8, d838 <l___unnamed_1>
    1350:	90000009 	adrp	x9, d838 <l___unnamed_1>
    1354:	91000129 	add	x9, x9, #0x0
    1358:	f940010a 	ldr	x10, [x8]
    135c:	52800108 	mov	w8, #0x8                   	// #8
    1360:	f9400529 	ldr	x9, [x9, #8]
    1364:	f90027ea 	str	x10, [sp, #72]
    1368:	f9002be9 	str	x9, [sp, #80]
    136c:	f9001fe8 	str	x8, [sp, #56]
    1370:	f90023ff 	str	xzr, [sp, #64]
    1374:	90000001 	adrp	x1, d5f0 <l_alloc_68990143625ec2db4c689f394fa1b298>
    1378:	91000021 	add	x1, x1, #0x0
    137c:	94000000 	bl	0 <_core::panicking::panic_fmt>
    1380:	1400001e 	b	13f8 <_core::slice::raw::from_raw_parts::precondition_check+0x140>
    1384:	f94007e8 	ldr	x8, [sp, #8]
    1388:	b5000088 	cbnz	x8, 1398 <_core::slice::raw::from_raw_parts::precondition_check+0xe0>
    138c:	14000002 	b	1394 <_core::slice::raw::from_raw_parts::precondition_check+0xdc>
    1390:	14000001 	b	1394 <_core::slice::raw::from_raw_parts::precondition_check+0xdc>
    1394:	1400001e 	b	140c <_core::slice::raw::from_raw_parts::precondition_check+0x154>
    1398:	f9400be8 	ldr	x8, [sp, #16]
    139c:	b50000a8 	cbnz	x8, 13b0 <_core::slice::raw::from_raw_parts::precondition_check+0xf8>
    13a0:	14000001 	b	13a4 <_core::slice::raw::from_raw_parts::precondition_check+0xec>
    13a4:	92800008 	mov	x8, #0xffffffffffffffff    	// #-1
    13a8:	f81b83a8 	stur	x8, [x29, #-72]
    13ac:	14000004 	b	13bc <_core::slice::raw::from_raw_parts::precondition_check+0x104>
    13b0:	f9400be8 	ldr	x8, [sp, #16]
    13b4:	b4000188 	cbz	x8, 13e4 <_core::slice::raw::from_raw_parts::precondition_check+0x12c>
    13b8:	14000006 	b	13d0 <_core::slice::raw::from_raw_parts::precondition_check+0x118>
    13bc:	f94013e8 	ldr	x8, [sp, #32]
    13c0:	f85b83a9 	ldur	x9, [x29, #-72]
    13c4:	eb090108 	subs	x8, x8, x9
    13c8:	540001c9 	b.ls	1400 <_core::slice::raw::from_raw_parts::precondition_check+0x148>  // b.plast
    13cc:	1400000c 	b	13fc <_core::slice::raw::from_raw_parts::precondition_check+0x144>
    13d0:	f9400be9 	ldr	x9, [sp, #16]
    13d4:	92f00008 	mov	x8, #0x7fffffffffffffff    	// #9223372036854775807
    13d8:	9ac90908 	udiv	x8, x8, x9
    13dc:	f81b83a8 	stur	x8, [x29, #-72]
    13e0:	17fffff7 	b	13bc <_core::slice::raw::from_raw_parts::precondition_check+0x104>
    13e4:	90000000 	adrp	x0, d5d8 <l_alloc_1b63dcb5834fe0aae9c810c57972c0d7>
    13e8:	91000000 	add	x0, x0, #0x0
    13ec:	94000000 	bl	0 <_core::panicking::panic_const::panic_const_div_by_zero>
    13f0:	14000002 	b	13f8 <_core::slice::raw::from_raw_parts::precondition_check+0x140>
    13f4:	94000000 	bl	0 <_core::panicking::panic_cannot_unwind>
    13f8:	d4200020 	brk	#0x1
    13fc:	14000004 	b	140c <_core::slice::raw::from_raw_parts::precondition_check+0x154>
    1400:	a94a7bfd 	ldp	x29, x30, [sp, #160]
    1404:	9102c3ff 	add	sp, sp, #0xb0
    1408:	d65f03c0 	ret
    140c:	90000000 	adrp	x0, d0b5 <l_alloc_11195730e5236cfdc15ea13be1c301f9>
    1410:	91000000 	add	x0, x0, #0x0
    1414:	52801448 	mov	w8, #0xa2                  	// #162
    1418:	aa0803e1 	mov	x1, x8
    141c:	94000000 	bl	0 <_core::panicking::panic_nounwind>

0000000000001420 <_core::slice::iter::Iter<T>::new>:
    1420:	d10143ff 	sub	sp, sp, #0x50
    1424:	f90003e0 	str	x0, [sp]
    1428:	f90007e1 	str	x1, [sp, #8]
    142c:	f9000fe0 	str	x0, [sp, #24]
    1430:	f90013e1 	str	x1, [sp, #32]
    1434:	f90017e1 	str	x1, [sp, #40]
    1438:	f9001be0 	str	x0, [sp, #48]
    143c:	f9001fe1 	str	x1, [sp, #56]
    1440:	f90023e0 	str	x0, [sp, #64]
    1444:	14000001 	b	1448 <_core::slice::iter::Iter<T>::new+0x28>
    1448:	f94003e8 	ldr	x8, [sp]
    144c:	f94007e9 	ldr	x9, [sp, #8]
    1450:	f90027e8 	str	x8, [sp, #72]
    1454:	8b090d08 	add	x8, x8, x9, lsl #3
    1458:	f9000be8 	str	x8, [sp, #16]
    145c:	14000001 	b	1460 <_core::slice::iter::Iter<T>::new+0x40>
    1460:	f94003e0 	ldr	x0, [sp]
    1464:	f9400be1 	ldr	x1, [sp, #16]
    1468:	910143ff 	add	sp, sp, #0x50
    146c:	d65f03c0 	ret

0000000000001470 <_core::option::Option<T>::is_none>:
    1470:	d10043ff 	sub	sp, sp, #0x10
    1474:	aa0003e8 	mov	x8, x0
    1478:	f90007e8 	str	x8, [sp, #8]
    147c:	b9400008 	ldr	w8, [x0]
    1480:	f1000508 	subs	x8, x8, #0x1
    1484:	1a9f07e0 	cset	w0, ne	// ne = any
    1488:	910043ff 	add	sp, sp, #0x10
    148c:	d65f03c0 	ret

0000000000001490 <_core::option::Option<T>::is_none>:
    1490:	d10043ff 	sub	sp, sp, #0x10
    1494:	aa0003e8 	mov	x8, x0
    1498:	f90007e8 	str	x8, [sp, #8]
    149c:	f9400008 	ldr	x8, [x0]
    14a0:	f1000508 	subs	x8, x8, #0x1
    14a4:	1a9f07e0 	cset	w0, ne	// ne = any
    14a8:	910043ff 	add	sp, sp, #0x10
    14ac:	d65f03c0 	ret

00000000000014b0 <_core::result::Result<T,E>::map>:
    14b0:	d10103ff 	sub	sp, sp, #0x40
    14b4:	a9037bfd 	stp	x29, x30, [sp, #48]
    14b8:	9100c3fd 	add	x29, sp, #0x30
    14bc:	f90007e8 	str	x8, [sp, #8]
    14c0:	f9000be0 	str	x0, [sp, #16]
    14c4:	39400008 	ldrb	w8, [x0]
    14c8:	37000148 	tbnz	w8, #0, 14f0 <_core::result::Result<T,E>::map+0x40>
    14cc:	14000001 	b	14d0 <_core::result::Result<T,E>::map+0x20>
    14d0:	f9400be8 	ldr	x8, [sp, #16]
    14d4:	f9400500 	ldr	x0, [x8, #8]
    14d8:	f81f03a0 	stur	x0, [x29, #-16]
    14dc:	94000000 	bl	c478 <_<rand::distr::uniform::int::UniformUsize as rand::distr::uniform::UniformSampler>::sample_single::{{closure}}>
    14e0:	f94007e8 	ldr	x8, [sp, #8]
    14e4:	f9000500 	str	x0, [x8, #8]
    14e8:	3900011f 	strb	wzr, [x8]
    14ec:	1400000c 	b	151c <_core::result::Result<T,E>::map+0x6c>
    14f0:	f94007e9 	ldr	x9, [sp, #8]
    14f4:	f9400be8 	ldr	x8, [sp, #16]
    14f8:	3940050a 	ldrb	w10, [x8, #1]
    14fc:	52800028 	mov	w8, #0x1                   	// #1
    1500:	5280002b 	mov	w11, #0x1                   	// #1
    1504:	0a0b014b 	and	w11, w10, w11
    1508:	381ff3ab 	sturb	w11, [x29, #-1]
    150c:	1200014a 	and	w10, w10, #0x1
    1510:	3900052a 	strb	w10, [x9, #1]
    1514:	39000128 	strb	w8, [x9]
    1518:	14000001 	b	151c <_core::result::Result<T,E>::map+0x6c>
    151c:	a9437bfd 	ldp	x29, x30, [sp, #48]
    1520:	910103ff 	add	sp, sp, #0x40
    1524:	d65f03c0 	ret

0000000000001528 <_core::result::Result<T,E>::map>:
    1528:	d10103ff 	sub	sp, sp, #0x40
    152c:	a9037bfd 	stp	x29, x30, [sp, #48]
    1530:	9100c3fd 	add	x29, sp, #0x30
    1534:	f90007e8 	str	x8, [sp, #8]
    1538:	f9000fe0 	str	x0, [sp, #24]
    153c:	f9400fe8 	ldr	x8, [sp, #24]
    1540:	f9000be8 	str	x8, [sp, #16]
    1544:	394043e8 	ldrb	w8, [sp, #16]
    1548:	37000128 	tbnz	w8, #0, 156c <_core::result::Result<T,E>::map+0x44>
    154c:	14000001 	b	1550 <_core::result::Result<T,E>::map+0x28>
    1550:	b94017e0 	ldr	w0, [sp, #20]
    1554:	b81f83a0 	stur	w0, [x29, #-8]
    1558:	94000000 	bl	c488 <_<rand::distr::uniform::int::UniformUsize as rand::distr::uniform::UniformSampler>::sample_single::{{closure}}>
    155c:	f94007e8 	ldr	x8, [sp, #8]
    1560:	f9000500 	str	x0, [x8, #8]
    1564:	3900011f 	strb	wzr, [x8]
    1568:	1400000b 	b	1594 <_core::result::Result<T,E>::map+0x6c>
    156c:	f94007e9 	ldr	x9, [sp, #8]
    1570:	394047ea 	ldrb	w10, [sp, #17]
    1574:	52800028 	mov	w8, #0x1                   	// #1
    1578:	5280002b 	mov	w11, #0x1                   	// #1
    157c:	0a0b014b 	and	w11, w10, w11
    1580:	381ff3ab 	sturb	w11, [x29, #-1]
    1584:	1200014a 	and	w10, w10, #0x1
    1588:	3900052a 	strb	w10, [x9, #1]
    158c:	39000128 	strb	w8, [x9]
    1590:	14000001 	b	1594 <_core::result::Result<T,E>::map+0x6c>
    1594:	a9437bfd 	ldp	x29, x30, [sp, #48]
    1598:	910103ff 	add	sp, sp, #0x40
    159c:	d65f03c0 	ret

00000000000015a0 <_rand::rng::Rng::random_range>:
    15a0:	d10343ff 	sub	sp, sp, #0xd0
    15a4:	a90c7bfd 	stp	x29, x30, [sp, #192]
    15a8:	910303fd 	add	x29, sp, #0xc0
    15ac:	aa0003e8 	mov	x8, x0
    15b0:	f90013e8 	str	x8, [sp, #32]
    15b4:	f90017e2 	str	x2, [sp, #40]
    15b8:	9100e3e0 	add	x0, sp, #0x38
    15bc:	f9001fe1 	str	x1, [sp, #56]
    15c0:	f81c83a8 	stur	x8, [x29, #-56]
    15c4:	381c73bf 	sturb	wzr, [x29, #-57]
    15c8:	52800028 	mov	w8, #0x1                   	// #1
    15cc:	381c73a8 	sturb	w8, [x29, #-57]
    15d0:	94000000 	bl	d0 <_<core::ops::range::RangeTo<usize> as rand::distr::uniform::SampleRange<usize>>::is_empty>
    15d4:	b90037e0 	str	w0, [sp, #52]
    15d8:	1400000d 	b	160c <_rand::rng::Rng::random_range+0x6c>
    15dc:	385c73a8 	ldurb	w8, [x29, #-57]
    15e0:	37000828 	tbnz	w8, #0, 16e4 <_rand::rng::Rng::random_range+0x144>
    15e4:	1400003e 	b	16dc <_rand::rng::Rng::random_range+0x13c>
    15e8:	aa0103e8 	mov	x8, x1
    15ec:	f9000be0 	str	x0, [sp, #16]
    15f0:	b9001fe8 	str	w8, [sp, #28]
    15f4:	14000001 	b	15f8 <_rand::rng::Rng::random_range+0x58>
    15f8:	f9400be9 	ldr	x9, [sp, #16]
    15fc:	b9401fe8 	ldr	w8, [sp, #28]
    1600:	f81d03a9 	stur	x9, [x29, #-48]
    1604:	b81d83a8 	stur	w8, [x29, #-40]
    1608:	17fffff5 	b	15dc <_rand::rng::Rng::random_range+0x3c>
    160c:	b94037e8 	ldr	w8, [sp, #52]
    1610:	37000108 	tbnz	w8, #0, 1630 <_rand::rng::Rng::random_range+0x90>
    1614:	14000001 	b	1618 <_rand::rng::Rng::random_range+0x78>
    1618:	f94013e1 	ldr	x1, [sp, #32]
    161c:	381c73bf 	sturb	wzr, [x29, #-57]
    1620:	f9401fe0 	ldr	x0, [sp, #56]
    1624:	d10143a8 	sub	x8, x29, #0x50
    1628:	94000000 	bl	98 <_<core::ops::range::RangeTo<usize> as rand::distr::uniform::SampleRange<usize>>::sample_single>
    162c:	14000006 	b	1644 <_rand::rng::Rng::random_range+0xa4>
    1630:	910103e8 	add	x8, sp, #0x40
    1634:	90000000 	adrp	x0, d628 <l_alloc_e3be51554e15d7681718bfd79e1370cf>
    1638:	91000000 	add	x0, x0, #0x0
    163c:	94000000 	bl	0 <_core::fmt::Arguments::new_const>
    1640:	14000022 	b	16c8 <_rand::rng::Rng::random_range+0x128>
    1644:	385b03a8 	ldurb	w8, [x29, #-80]
    1648:	36000308 	tbz	w8, #0, 16a8 <_rand::rng::Rng::random_range+0x108>
    164c:	14000001 	b	1650 <_rand::rng::Rng::random_range+0xb0>
    1650:	f94017e4 	ldr	x4, [sp, #40]
    1654:	385b13a8 	ldurb	w8, [x29, #-79]
    1658:	12000108 	and	w8, w8, #0x1
    165c:	d10067a2 	sub	x2, x29, #0x19
    1660:	381e73a8 	sturb	w8, [x29, #-25]
    1664:	90000000 	adrp	x0, d1a8 <l_alloc_00ae4b301f7fab8ac9617c03fcbd7274>
    1668:	91000000 	add	x0, x0, #0x0
    166c:	52800568 	mov	w8, #0x2b                  	// #43
    1670:	aa0803e1 	mov	x1, x8
    1674:	90000003 	adrp	x3, d608 <l_vtable.0>
    1678:	91000063 	add	x3, x3, #0x0
    167c:	94000000 	bl	0 <_core::result::unwrap_failed>
    1680:	14000009 	b	16a4 <_rand::rng::Rng::random_range+0x104>
    1684:	f81f03a0 	stur	x0, [x29, #-16]
    1688:	aa0103e8 	mov	x8, x1
    168c:	b81f83a8 	stur	w8, [x29, #-8]
    1690:	f85f03a9 	ldur	x9, [x29, #-16]
    1694:	b85f83a8 	ldur	w8, [x29, #-8]
    1698:	f9000be9 	str	x9, [sp, #16]
    169c:	b9001fe8 	str	w8, [sp, #28]
    16a0:	17ffffd6 	b	15f8 <_rand::rng::Rng::random_range+0x58>
    16a4:	d4200020 	brk	#0x1
    16a8:	f85b83a8 	ldur	x8, [x29, #-72]
    16ac:	f90007e8 	str	x8, [sp, #8]
    16b0:	f81e83a8 	stur	x8, [x29, #-24]
    16b4:	14000001 	b	16b8 <_rand::rng::Rng::random_range+0x118>
    16b8:	f94007e0 	ldr	x0, [sp, #8]
    16bc:	a94c7bfd 	ldp	x29, x30, [sp, #192]
    16c0:	910343ff 	add	sp, sp, #0xd0
    16c4:	d65f03c0 	ret
    16c8:	f94017e1 	ldr	x1, [sp, #40]
    16cc:	910103e0 	add	x0, sp, #0x40
    16d0:	94000000 	bl	0 <_core::panicking::panic_fmt>
    16d4:	14000001 	b	16d8 <_rand::rng::Rng::random_range+0x138>
    16d8:	d4200020 	brk	#0x1
    16dc:	f85d03a0 	ldur	x0, [x29, #-48]
    16e0:	94000000 	bl	0 <__Unwind_Resume>
    16e4:	17fffffe 	b	16dc <_rand::rng::Rng::random_range+0x13c>

00000000000016e8 <_rand::rng::Rng::random>:
    16e8:	d10083ff 	sub	sp, sp, #0x20
    16ec:	a9017bfd 	stp	x29, x30, [sp, #16]
    16f0:	910043fd 	add	x29, sp, #0x10
    16f4:	aa0003e1 	mov	x1, x0
    16f8:	aa0103e0 	mov	x0, x1
    16fc:	f90007e0 	str	x0, [sp, #8]
    1700:	52800028 	mov	w8, #0x1                   	// #1
    1704:	aa0803e0 	mov	x0, x8
    1708:	94000000 	bl	1954 <_rand::distr::integer::<impl rand::distr::distribution::Distribution<u64> for rand::distr::StandardUniform>::sample>
    170c:	a9417bfd 	ldp	x29, x30, [sp, #16]
    1710:	910083ff 	add	sp, sp, #0x20
    1714:	d65f03c0 	ret

0000000000001718 <_rand::rng::Rng::random>:
    1718:	d10083ff 	sub	sp, sp, #0x20
    171c:	a9017bfd 	stp	x29, x30, [sp, #16]
    1720:	910043fd 	add	x29, sp, #0x10
    1724:	aa0003e1 	mov	x1, x0
    1728:	aa0103e0 	mov	x0, x1
    172c:	f90007e0 	str	x0, [sp, #8]
    1730:	52800028 	mov	w8, #0x1                   	// #1
    1734:	aa0803e0 	mov	x0, x8
    1738:	94000000 	bl	18fc <_rand::distr::integer::<impl rand::distr::distribution::Distribution<u32> for rand::distr::StandardUniform>::sample>
    173c:	a9417bfd 	ldp	x29, x30, [sp, #16]
    1740:	910083ff 	add	sp, sp, #0x20
    1744:	d65f03c0 	ret

0000000000001748 <_rand::seq::slice::IndexedRandom::choose>:
    1748:	d10183ff 	sub	sp, sp, #0x60
    174c:	a9057bfd 	stp	x29, x30, [sp, #80]
    1750:	910143fd 	add	x29, sp, #0x50
    1754:	f90003e0 	str	x0, [sp]
    1758:	f90007e1 	str	x1, [sp, #8]
    175c:	f9000be2 	str	x2, [sp, #16]
    1760:	aa0003e8 	mov	x8, x0
    1764:	f90013e8 	str	x8, [sp, #32]
    1768:	f90017e1 	str	x1, [sp, #40]
    176c:	f81e03a2 	stur	x2, [x29, #-32]
    1770:	94000000 	bl	17e0 <_rand::seq::slice::IndexedRandom::is_empty>
    1774:	370002a0 	tbnz	w0, #0, 17c8 <_rand::seq::slice::IndexedRandom::choose+0x80>
    1778:	14000001 	b	177c <_rand::seq::slice::IndexedRandom::choose+0x34>
    177c:	f94007e1 	ldr	x1, [sp, #8]
    1780:	f94003e0 	ldr	x0, [sp]
    1784:	94000000 	bl	1d94 <_<[T] as rand::seq::slice::IndexedRandom>::len>
    1788:	aa0003e1 	mov	x1, x0
    178c:	f9400be0 	ldr	x0, [sp, #16]
    1790:	90000002 	adrp	x2, d638 <l_alloc_30fa4ccda1523126b1deefe5cab5ef25>
    1794:	91000042 	add	x2, x2, #0x0
    1798:	94000000 	bl	15a0 <_rand::rng::Rng::random_range>
    179c:	f94003e1 	ldr	x1, [sp]
    17a0:	f94007e2 	ldr	x2, [sp, #8]
    17a4:	aa0103e8 	mov	x8, x1
    17a8:	f81e83a8 	stur	x8, [x29, #-24]
    17ac:	f81f03a2 	stur	x2, [x29, #-16]
    17b0:	f81f83a0 	stur	x0, [x29, #-8]
    17b4:	90000003 	adrp	x3, d650 <l_alloc_2f5e0075a9762e333e897b7b14942db9>
    17b8:	91000063 	add	x3, x3, #0x0
    17bc:	94000000 	bl	2294 <_<usize as core::slice::index::SliceIndex<[T]>>::index>
    17c0:	f9000fe0 	str	x0, [sp, #24]
    17c4:	14000003 	b	17d0 <_rand::seq::slice::IndexedRandom::choose+0x88>
    17c8:	f9000fff 	str	xzr, [sp, #24]
    17cc:	14000001 	b	17d0 <_rand::seq::slice::IndexedRandom::choose+0x88>
    17d0:	f9400fe0 	ldr	x0, [sp, #24]
    17d4:	a9457bfd 	ldp	x29, x30, [sp, #80]
    17d8:	910183ff 	add	sp, sp, #0x60
    17dc:	d65f03c0 	ret

00000000000017e0 <_rand::seq::slice::IndexedRandom::is_empty>:
    17e0:	d10083ff 	sub	sp, sp, #0x20
    17e4:	a9017bfd 	stp	x29, x30, [sp, #16]
    17e8:	910043fd 	add	x29, sp, #0x10
    17ec:	aa0003e8 	mov	x8, x0
    17f0:	f90003e8 	str	x8, [sp]
    17f4:	f90007e1 	str	x1, [sp, #8]
    17f8:	94000000 	bl	1d94 <_<[T] as rand::seq::slice::IndexedRandom>::len>
    17fc:	f1000008 	subs	x8, x0, #0x0
    1800:	1a9f17e0 	cset	w0, eq	// eq = none
    1804:	a9417bfd 	ldp	x29, x30, [sp, #16]
    1808:	910083ff 	add	sp, sp, #0x20
    180c:	d65f03c0 	ret

0000000000001810 <_rand::rngs::reseeding::ReseedingCore<R,Rsdr>::reseed_and_generate>:
    1810:	d10143ff 	sub	sp, sp, #0x50
    1814:	a9047bfd 	stp	x29, x30, [sp, #64]
    1818:	910103fd 	add	x29, sp, #0x40
    181c:	aa0003e8 	mov	x8, x0
    1820:	f90007e8 	str	x8, [sp, #8]
    1824:	910063e0 	add	x0, sp, #0x18
    1828:	f9000fe1 	str	x1, [sp, #24]
    182c:	f81e83a8 	stur	x8, [x29, #-24]
    1830:	381e73bf 	sturb	wzr, [x29, #-25]
    1834:	94000000 	bl	1d6c <_<&mut T as core::convert::AsRef<U>>::as_ref>
    1838:	94000000 	bl	db0 <_core::mem::size_of_val>
    183c:	aa0003e8 	mov	x8, x0
    1840:	f94007e0 	ldr	x0, [sp, #8]
    1844:	f9000be8 	str	x8, [sp, #16]
    1848:	f81f03a8 	stur	x8, [x29, #-16]
    184c:	52800028 	mov	w8, #0x1                   	// #1
    1850:	381e73a8 	sturb	w8, [x29, #-25]
    1854:	94000000 	bl	0 <_rand::rngs::reseeding::ReseedingCore<R,Rsdr>::reseed>
    1858:	b90023e0 	str	w0, [sp, #32]
    185c:	b94023e8 	ldr	w8, [sp, #32]
    1860:	71000108 	subs	w8, w8, #0x0
    1864:	9a9f07e8 	cset	x8, ne	// ne = any
    1868:	f1000508 	subs	x8, x8, #0x1
    186c:	540000c1 	b.ne	1884 <_rand::rngs::reseeding::ReseedingCore<R,Rsdr>::reseed_and_generate+0x74>  // b.any
    1870:	14000001 	b	1874 <_rand::rngs::reseeding::ReseedingCore<R,Rsdr>::reseed_and_generate+0x64>
    1874:	381e73bf 	sturb	wzr, [x29, #-25]
    1878:	b94023e8 	ldr	w8, [sp, #32]
    187c:	b81fc3a8 	stur	w8, [x29, #-4]
    1880:	14000001 	b	1884 <_rand::rngs::reseeding::ReseedingCore<R,Rsdr>::reseed_and_generate+0x74>
    1884:	b94023e8 	ldr	w8, [sp, #32]
    1888:	71000108 	subs	w8, w8, #0x0
    188c:	9a9f07e8 	cset	x8, ne	// ne = any
    1890:	f1000508 	subs	x8, x8, #0x1
    1894:	540000a1 	b.ne	18a8 <_rand::rngs::reseeding::ReseedingCore<R,Rsdr>::reseed_and_generate+0x98>  // b.any
    1898:	14000001 	b	189c <_rand::rngs::reseeding::ReseedingCore<R,Rsdr>::reseed_and_generate+0x8c>
    189c:	385e73a8 	ldurb	w8, [x29, #-25]
    18a0:	37000168 	tbnz	w8, #0, 18cc <_rand::rngs::reseeding::ReseedingCore<R,Rsdr>::reseed_and_generate+0xbc>
    18a4:	14000001 	b	18a8 <_rand::rngs::reseeding::ReseedingCore<R,Rsdr>::reseed_and_generate+0x98>
    18a8:	f9400be9 	ldr	x9, [sp, #16]
    18ac:	f94007e8 	ldr	x8, [sp, #8]
    18b0:	381e73bf 	sturb	wzr, [x29, #-25]
    18b4:	f9401908 	ldr	x8, [x8, #48]
    18b8:	eb090108 	subs	x8, x8, x9
    18bc:	f90003e8 	str	x8, [sp]
    18c0:	1a9f77e8 	cset	w8, vs
    18c4:	37000168 	tbnz	w8, #0, 18f0 <_rand::rngs::reseeding::ReseedingCore<R,Rsdr>::reseed_and_generate+0xe0>
    18c8:	14000002 	b	18d0 <_rand::rngs::reseeding::ReseedingCore<R,Rsdr>::reseed_and_generate+0xc0>
    18cc:	17fffff7 	b	18a8 <_rand::rngs::reseeding::ReseedingCore<R,Rsdr>::reseed_and_generate+0x98>
    18d0:	f94007e0 	ldr	x0, [sp, #8]
    18d4:	f94003e8 	ldr	x8, [sp]
    18d8:	f9001c08 	str	x8, [x0, #56]
    18dc:	f9400fe1 	ldr	x1, [sp, #24]
    18e0:	94000000 	bl	2340 <_<rand_chacha::chacha::ChaCha12Core as rand_core::block::BlockRngCore>::generate>
    18e4:	a9447bfd 	ldp	x29, x30, [sp, #64]
    18e8:	910143ff 	add	sp, sp, #0x50
    18ec:	d65f03c0 	ret
    18f0:	90000000 	adrp	x0, d668 <l_alloc_9cba3d2079b3eca5db2535852ec0ea6f>
    18f4:	91000000 	add	x0, x0, #0x0
    18f8:	94000000 	bl	0 <_core::panicking::panic_const::panic_const_sub_overflow>

00000000000018fc <_rand::distr::integer::<impl rand::distr::distribution::Distribution<u32> for rand::distr::StandardUniform>::sample>:
    18fc:	d10143ff 	sub	sp, sp, #0x50
    1900:	a9047bfd 	stp	x29, x30, [sp, #64]
    1904:	910103fd 	add	x29, sp, #0x40
    1908:	f90007e0 	str	x0, [sp, #8]
    190c:	aa0103e8 	mov	x8, x1
    1910:	f9000be8 	str	x8, [sp, #16]
    1914:	aa0103e8 	mov	x8, x1
    1918:	f9000fe8 	str	x8, [sp, #24]
    191c:	aa0103e8 	mov	x8, x1
    1920:	f81f03a8 	stur	x8, [x29, #-16]
    1924:	f9400028 	ldr	x8, [x1]
    1928:	91004100 	add	x0, x8, #0x10
    192c:	aa0003e8 	mov	x8, x0
    1930:	f81e83a8 	stur	x8, [x29, #-24]
    1934:	aa0003e8 	mov	x8, x0
    1938:	f90013e8 	str	x8, [sp, #32]
    193c:	aa0003e8 	mov	x8, x0
    1940:	f81f83a8 	stur	x8, [x29, #-8]
    1944:	94000000 	bl	1e98 <_<rand_core::block::BlockRng<R> as rand_core::RngCore>::next_u32>
    1948:	a9447bfd 	ldp	x29, x30, [sp, #64]
    194c:	910143ff 	add	sp, sp, #0x50
    1950:	d65f03c0 	ret

0000000000001954 <_rand::distr::integer::<impl rand::distr::distribution::Distribution<u64> for rand::distr::StandardUniform>::sample>:
    1954:	d10143ff 	sub	sp, sp, #0x50
    1958:	a9047bfd 	stp	x29, x30, [sp, #64]
    195c:	910103fd 	add	x29, sp, #0x40
    1960:	f90007e0 	str	x0, [sp, #8]
    1964:	aa0103e8 	mov	x8, x1
    1968:	f9000be8 	str	x8, [sp, #16]
    196c:	aa0103e8 	mov	x8, x1
    1970:	f9000fe8 	str	x8, [sp, #24]
    1974:	aa0103e8 	mov	x8, x1
    1978:	f81f03a8 	stur	x8, [x29, #-16]
    197c:	f9400028 	ldr	x8, [x1]
    1980:	91004100 	add	x0, x8, #0x10
    1984:	aa0003e8 	mov	x8, x0
    1988:	f81e83a8 	stur	x8, [x29, #-24]
    198c:	aa0003e8 	mov	x8, x0
    1990:	f90013e8 	str	x8, [sp, #32]
    1994:	aa0003e8 	mov	x8, x0
    1998:	f81f83a8 	stur	x8, [x29, #-8]
    199c:	94000000 	bl	1f70 <_<rand_core::block::BlockRng<R> as rand_core::RngCore>::next_u64>
    19a0:	a9447bfd 	ldp	x29, x30, [sp, #64]
    19a4:	910143ff 	add	sp, sp, #0x50
    19a8:	d65f03c0 	ret

00000000000019ac <_alloc::vec::Vec<T,A>::extend_trusted>:
    19ac:	d10443ff 	sub	sp, sp, #0x110
    19b0:	a90f6ffc 	stp	x28, x27, [sp, #240]
    19b4:	a9107bfd 	stp	x29, x30, [sp, #256]
    19b8:	910403fd 	add	x29, sp, #0x100
    19bc:	aa0003e8 	mov	x8, x0
    19c0:	f90003e8 	str	x8, [sp]
    19c4:	f90007e3 	str	x3, [sp, #8]
    19c8:	910043e0 	add	x0, sp, #0x10
    19cc:	b90013e1 	str	w1, [sp, #16]
    19d0:	b90017e2 	str	w2, [sp, #20]
    19d4:	f81903a8 	stur	x8, [x29, #-112]
    19d8:	3819f3bf 	sturb	wzr, [x29, #-97]
    19dc:	90000008 	adrp	x8, d680 <l_alloc_f0c0bcdc51174ae2a47538e8553750ac>
    19e0:	91000108 	add	x8, x8, #0x0
    19e4:	f81a03a8 	stur	x8, [x29, #-96]
    19e8:	90000008 	adrp	x8, d480 <l_alloc_11d257f5ed6cc7fc38feaa801053bac6>
    19ec:	91000108 	add	x8, x8, #0x0
    19f0:	f81a83a8 	stur	x8, [x29, #-88]
    19f4:	52800028 	mov	w8, #0x1                   	// #1
    19f8:	3818f3a8 	sturb	w8, [x29, #-113]
    19fc:	9100a3e8 	add	x8, sp, #0x28
    1a00:	94000000 	bl	1070 <_core::iter::range::<impl core::iter::traits::iterator::Iterator for core::ops::range::Range<A>>::size_hint>
    1a04:	14000008 	b	1a24 <_alloc::vec::Vec<T,A>::extend_trusted+0x78>
    1a08:	3858f3a8 	ldurb	w8, [x29, #-113]
    1a0c:	37000868 	tbnz	w8, #0, 1b18 <_alloc::vec::Vec<T,A>::extend_trusted+0x16c>
    1a10:	14000040 	b	1b10 <_alloc::vec::Vec<T,A>::extend_trusted+0x164>
    1a14:	f81b03a0 	stur	x0, [x29, #-80]
    1a18:	aa0103e8 	mov	x8, x1
    1a1c:	b81b83a8 	stur	w8, [x29, #-72]
    1a20:	17fffffa 	b	1a08 <_alloc::vec::Vec<T,A>::extend_trusted+0x5c>
    1a24:	f94017e8 	ldr	x8, [sp, #40]
    1a28:	f81c03a8 	stur	x8, [x29, #-64]
    1a2c:	f9401be9 	ldr	x9, [sp, #48]
    1a30:	f9401fe8 	ldr	x8, [sp, #56]
    1a34:	f9000fe9 	str	x9, [sp, #24]
    1a38:	f90013e8 	str	x8, [sp, #32]
    1a3c:	f9400fe8 	ldr	x8, [sp, #24]
    1a40:	f1000508 	subs	x8, x8, #0x1
    1a44:	54000101 	b.ne	1a64 <_alloc::vec::Vec<T,A>::extend_trusted+0xb8>  // b.any
    1a48:	14000001 	b	1a4c <_alloc::vec::Vec<T,A>::extend_trusted+0xa0>
    1a4c:	f94007e2 	ldr	x2, [sp, #8]
    1a50:	f94003e0 	ldr	x0, [sp]
    1a54:	f94013e1 	ldr	x1, [sp, #32]
    1a58:	f81c83a1 	stur	x1, [x29, #-56]
    1a5c:	94000000 	bl	1b4c <_alloc::vec::Vec<T,A>::reserve>
    1a60:	14000014 	b	1ab0 <_alloc::vec::Vec<T,A>::extend_trusted+0x104>
    1a64:	f94007e1 	ldr	x1, [sp, #8]
    1a68:	910163e0 	add	x0, sp, #0x58
    1a6c:	90000008 	adrp	x8, d480 <l_alloc_11d257f5ed6cc7fc38feaa801053bac6>
    1a70:	91000108 	add	x8, x8, #0x0
    1a74:	f9002fe8 	str	x8, [sp, #88]
    1a78:	52800028 	mov	w8, #0x1                   	// #1
    1a7c:	f90033e8 	str	x8, [sp, #96]
    1a80:	90000008 	adrp	x8, d838 <l___unnamed_1>
    1a84:	90000009 	adrp	x9, d838 <l___unnamed_1>
    1a88:	91000129 	add	x9, x9, #0x0
    1a8c:	f940010a 	ldr	x10, [x8]
    1a90:	52800108 	mov	w8, #0x8                   	// #8
    1a94:	f9400529 	ldr	x9, [x9, #8]
    1a98:	f9003fea 	str	x10, [sp, #120]
    1a9c:	f90043e9 	str	x9, [sp, #128]
    1aa0:	f90037e8 	str	x8, [sp, #104]
    1aa4:	f9003bff 	str	xzr, [sp, #112]
    1aa8:	94000000 	bl	0 <_core::panicking::panic_fmt>
    1aac:	14000018 	b	1b0c <_alloc::vec::Vec<T,A>::extend_trusted+0x160>
    1ab0:	f94003e8 	ldr	x8, [sp]
    1ab4:	f940050a 	ldr	x10, [x8, #8]
    1ab8:	f81d03aa 	stur	x10, [x29, #-48]
    1abc:	91004109 	add	x9, x8, #0x10
    1ac0:	aa0903eb 	mov	x11, x9
    1ac4:	f81d83ab 	stur	x11, [x29, #-40]
    1ac8:	f9400908 	ldr	x8, [x8, #16]
    1acc:	aa0903eb 	mov	x11, x9
    1ad0:	f81e03ab 	stur	x11, [x29, #-32]
    1ad4:	f81e83a8 	stur	x8, [x29, #-24]
    1ad8:	3818f3bf 	sturb	wzr, [x29, #-113]
    1adc:	b94013e0 	ldr	w0, [sp, #16]
    1ae0:	b94017e1 	ldr	w1, [sp, #20]
    1ae4:	910103e2 	add	x2, sp, #0x40
    1ae8:	f9002bea 	str	x10, [sp, #80]
    1aec:	f90023e9 	str	x9, [sp, #64]
    1af0:	f90027e8 	str	x8, [sp, #72]
    1af4:	94000000 	bl	1204 <_core::iter::traits::iterator::Iterator::for_each>
    1af8:	14000001 	b	1afc <_alloc::vec::Vec<T,A>::extend_trusted+0x150>
    1afc:	a9507bfd 	ldp	x29, x30, [sp, #256]
    1b00:	a94f6ffc 	ldp	x28, x27, [sp, #240]
    1b04:	910443ff 	add	sp, sp, #0x110
    1b08:	d65f03c0 	ret
    1b0c:	d4200020 	brk	#0x1
    1b10:	f85b03a0 	ldur	x0, [x29, #-80]
    1b14:	94000000 	bl	0 <__Unwind_Resume>
    1b18:	17fffffe 	b	1b10 <_alloc::vec::Vec<T,A>::extend_trusted+0x164>

0000000000001b1c <_alloc::vec::Vec<T,A>::extend_trusted::{{closure}}>:
    1b1c:	d10043ff 	sub	sp, sp, #0x10
    1b20:	aa0003e8 	mov	x8, x0
    1b24:	f90003e8 	str	x8, [sp]
    1b28:	b9000fe1 	str	w1, [sp, #12]
    1b2c:	f9400808 	ldr	x8, [x0, #16]
    1b30:	f9400409 	ldr	x9, [x0, #8]
    1b34:	b8297901 	str	w1, [x8, x9, lsl #2]
    1b38:	f9400408 	ldr	x8, [x0, #8]
    1b3c:	91000508 	add	x8, x8, #0x1
    1b40:	f9000408 	str	x8, [x0, #8]
    1b44:	910043ff 	add	sp, sp, #0x10
    1b48:	d65f03c0 	ret

0000000000001b4c <_alloc::vec::Vec<T,A>::reserve>:
    1b4c:	d10243ff 	sub	sp, sp, #0x90
    1b50:	a9087bfd 	stp	x29, x30, [sp, #128]
    1b54:	910203fd 	add	x29, sp, #0x80
    1b58:	f90007e0 	str	x0, [sp, #8]
    1b5c:	f9000be1 	str	x1, [sp, #16]
    1b60:	aa0003e8 	mov	x8, x0
    1b64:	f9001fe8 	str	x8, [sp, #56]
    1b68:	f90023e1 	str	x1, [sp, #64]
    1b6c:	aa0003e8 	mov	x8, x0
    1b70:	f81c83a8 	stur	x8, [x29, #-56]
    1b74:	f9400808 	ldr	x8, [x0, #16]
    1b78:	f9000fe8 	str	x8, [sp, #24]
    1b7c:	f81d03a8 	stur	x8, [x29, #-48]
    1b80:	f81d83a0 	stur	x0, [x29, #-40]
    1b84:	52800088 	mov	w8, #0x4                   	// #4
    1b88:	f81e03a8 	stur	x8, [x29, #-32]
    1b8c:	f81e83a8 	stur	x8, [x29, #-24]
    1b90:	910083e9 	add	x9, sp, #0x20
    1b94:	f90013e8 	str	x8, [sp, #32]
    1b98:	f90017e8 	str	x8, [sp, #40]
    1b9c:	f81f03a9 	stur	x9, [x29, #-16]
    1ba0:	f81f83a8 	stur	x8, [x29, #-8]
    1ba4:	14000001 	b	1ba8 <_alloc::vec::Vec<T,A>::reserve+0x5c>
    1ba8:	f94007e8 	ldr	x8, [sp, #8]
    1bac:	f9400108 	ldr	x8, [x8]
    1bb0:	f9001be8 	str	x8, [sp, #48]
    1bb4:	14000001 	b	1bb8 <_alloc::vec::Vec<T,A>::reserve+0x6c>
    1bb8:	f9400be8 	ldr	x8, [sp, #16]
    1bbc:	f9400fea 	ldr	x10, [sp, #24]
    1bc0:	f9401be9 	ldr	x9, [sp, #48]
    1bc4:	eb0a0129 	subs	x9, x9, x10
    1bc8:	eb090108 	subs	x8, x8, x9
    1bcc:	54000068 	b.hi	1bd8 <_alloc::vec::Vec<T,A>::reserve+0x8c>  // b.pmore
    1bd0:	14000001 	b	1bd4 <_alloc::vec::Vec<T,A>::reserve+0x88>
    1bd4:	14000009 	b	1bf8 <_alloc::vec::Vec<T,A>::reserve+0xac>
    1bd8:	f9400be2 	ldr	x2, [sp, #16]
    1bdc:	f9400fe1 	ldr	x1, [sp, #24]
    1be0:	f94007e0 	ldr	x0, [sp, #8]
    1be4:	52800088 	mov	w8, #0x4                   	// #4
    1be8:	aa0803e4 	mov	x4, x8
    1bec:	aa0403e3 	mov	x3, x4
    1bf0:	94000000 	bl	0 <_alloc::raw_vec::RawVecInner<A>::reserve::do_reserve_and_handle>
    1bf4:	14000001 	b	1bf8 <_alloc::vec::Vec<T,A>::reserve+0xac>
    1bf8:	a9487bfd 	ldp	x29, x30, [sp, #128]
    1bfc:	910243ff 	add	sp, sp, #0x90
    1c00:	d65f03c0 	ret

0000000000001c04 <_alloc::vec::Vec<T,A>::as_slice>:
    1c04:	d10103ff 	sub	sp, sp, #0x40
    1c08:	a9037bfd 	stp	x29, x30, [sp, #48]
    1c0c:	9100c3fd 	add	x29, sp, #0x30
    1c10:	aa0003e8 	mov	x8, x0
    1c14:	f9000fe8 	str	x8, [sp, #24]
    1c18:	f9400408 	ldr	x8, [x0, #8]
    1c1c:	f90007e8 	str	x8, [sp, #8]
    1c20:	f81f03a8 	stur	x8, [x29, #-16]
    1c24:	f9400808 	ldr	x8, [x0, #16]
    1c28:	f9000be8 	str	x8, [sp, #16]
    1c2c:	f81f83a8 	stur	x8, [x29, #-8]
    1c30:	14000001 	b	1c34 <_alloc::vec::Vec<T,A>::as_slice+0x30>
    1c34:	f9400be3 	ldr	x3, [sp, #16]
    1c38:	f94007e0 	ldr	x0, [sp, #8]
    1c3c:	52800088 	mov	w8, #0x4                   	// #4
    1c40:	aa0803e2 	mov	x2, x8
    1c44:	aa0203e1 	mov	x1, x2
    1c48:	94000000 	bl	12b8 <_core::slice::raw::from_raw_parts::precondition_check>
    1c4c:	14000001 	b	1c50 <_alloc::vec::Vec<T,A>::as_slice+0x4c>
    1c50:	f9400be1 	ldr	x1, [sp, #16]
    1c54:	f94007e0 	ldr	x0, [sp, #8]
    1c58:	a9437bfd 	ldp	x29, x30, [sp, #48]
    1c5c:	910103ff 	add	sp, sp, #0x40
    1c60:	d65f03c0 	ret

0000000000001c64 <_alloc::raw_vec::RawVecInner<A>::with_capacity_in>:
    1c64:	d10383ff 	sub	sp, sp, #0xe0
    1c68:	a90d7bfd 	stp	x29, x30, [sp, #208]
    1c6c:	910343fd 	add	x29, sp, #0xd0
    1c70:	f9000be0 	str	x0, [sp, #16]
    1c74:	f9000fe1 	str	x1, [sp, #24]
    1c78:	aa0203e8 	mov	x8, x2
    1c7c:	f9400fe2 	ldr	x2, [sp, #24]
    1c80:	f90013e8 	str	x8, [sp, #32]
    1c84:	aa0303e1 	mov	x1, x3
    1c88:	f94013e3 	ldr	x3, [sp, #32]
    1c8c:	f90017e1 	str	x1, [sp, #40]
    1c90:	f81a03a0 	stur	x0, [x29, #-96]
    1c94:	f81b03a2 	stur	x2, [x29, #-80]
    1c98:	f81b83a3 	stur	x3, [x29, #-72]
    1c9c:	f81c03bf 	stur	xzr, [x29, #-64]
    1ca0:	f81c83bf 	stur	xzr, [x29, #-56]
    1ca4:	9100c3e8 	add	x8, sp, #0x30
    1ca8:	52800009 	mov	w9, #0x0                   	// #0
    1cac:	12000121 	and	w1, w9, #0x1
    1cb0:	94000000 	bl	0 <_alloc::raw_vec::RawVecInner<A>::try_allocate_in>
    1cb4:	f9401be8 	ldr	x8, [sp, #48]
    1cb8:	b5000228 	cbnz	x8, 1cfc <_alloc::raw_vec::RawVecInner<A>::with_capacity_in+0x98>
    1cbc:	14000001 	b	1cc0 <_alloc::raw_vec::RawVecInner<A>::with_capacity_in+0x5c>
    1cc0:	f94013e8 	ldr	x8, [sp, #32]
    1cc4:	f9400fea 	ldr	x10, [sp, #24]
    1cc8:	f9401fec 	ldr	x12, [sp, #56]
    1ccc:	f94023eb 	ldr	x11, [sp, #64]
    1cd0:	910123e9 	add	x9, sp, #0x48
    1cd4:	f90027ec 	str	x12, [sp, #72]
    1cd8:	f9002beb 	str	x11, [sp, #80]
    1cdc:	f81d03a9 	stur	x9, [x29, #-48]
    1ce0:	910163e9 	add	x9, sp, #0x58
    1ce4:	f9002fea 	str	x10, [sp, #88]
    1ce8:	f90033e8 	str	x8, [sp, #96]
    1cec:	f81d83a9 	stur	x9, [x29, #-40]
    1cf0:	f81e03a8 	stur	x8, [x29, #-32]
    1cf4:	b4000108 	cbz	x8, 1d14 <_alloc::raw_vec::RawVecInner<A>::with_capacity_in+0xb0>
    1cf8:	1400000a 	b	1d20 <_alloc::raw_vec::RawVecInner<A>::with_capacity_in+0xbc>
    1cfc:	f94017e2 	ldr	x2, [sp, #40]
    1d00:	f9401fe0 	ldr	x0, [sp, #56]
    1d04:	f94023e1 	ldr	x1, [sp, #64]
    1d08:	f81f03a0 	stur	x0, [x29, #-16]
    1d0c:	f81f83a1 	stur	x1, [x29, #-8]
    1d10:	94000000 	bl	0 <_alloc::raw_vec::handle_error>
    1d14:	92800008 	mov	x8, #0xffffffffffffffff    	// #-1
    1d18:	f90037e8 	str	x8, [sp, #104]
    1d1c:	14000004 	b	1d2c <_alloc::raw_vec::RawVecInner<A>::with_capacity_in+0xc8>
    1d20:	f94027e8 	ldr	x8, [sp, #72]
    1d24:	f90037e8 	str	x8, [sp, #104]
    1d28:	14000001 	b	1d2c <_alloc::raw_vec::RawVecInner<A>::with_capacity_in+0xc8>
    1d2c:	f9400be8 	ldr	x8, [sp, #16]
    1d30:	f94037e9 	ldr	x9, [sp, #104]
    1d34:	f1000129 	subs	x9, x9, #0x0
    1d38:	eb090108 	subs	x8, x8, x9
    1d3c:	1a9f87e8 	cset	w8, ls	// ls = plast
    1d40:	b9000fe8 	str	w8, [sp, #12]
    1d44:	381ef3a8 	sturb	w8, [x29, #-17]
    1d48:	14000001 	b	1d4c <_alloc::raw_vec::RawVecInner<A>::with_capacity_in+0xe8>
    1d4c:	b9400fe0 	ldr	w0, [sp, #12]
    1d50:	94000000 	bl	ff8 <_core::hint::assert_unchecked::precondition_check>
    1d54:	14000001 	b	1d58 <_alloc::raw_vec::RawVecInner<A>::with_capacity_in+0xf4>
    1d58:	f94027e0 	ldr	x0, [sp, #72]
    1d5c:	f9402be1 	ldr	x1, [sp, #80]
    1d60:	a94d7bfd 	ldp	x29, x30, [sp, #208]
    1d64:	910383ff 	add	sp, sp, #0xe0
    1d68:	d65f03c0 	ret

0000000000001d6c <_<&mut T as core::convert::AsRef<U>>::as_ref>:
    1d6c:	d10083ff 	sub	sp, sp, #0x20
    1d70:	a9017bfd 	stp	x29, x30, [sp, #16]
    1d74:	910043fd 	add	x29, sp, #0x10
    1d78:	aa0003e8 	mov	x8, x0
    1d7c:	f90007e8 	str	x8, [sp, #8]
    1d80:	f9400000 	ldr	x0, [x0]
    1d84:	94000000 	bl	0 <_<rand_chacha::chacha::Array64<T> as core::convert::AsRef<[T]>>::as_ref>
    1d88:	a9417bfd 	ldp	x29, x30, [sp, #16]
    1d8c:	910083ff 	add	sp, sp, #0x20
    1d90:	d65f03c0 	ret

0000000000001d94 <_<[T] as rand::seq::slice::IndexedRandom>::len>:
    1d94:	d10043ff 	sub	sp, sp, #0x10
    1d98:	aa0003e8 	mov	x8, x0
    1d9c:	aa0103e0 	mov	x0, x1
    1da0:	f90003e8 	str	x8, [sp]
    1da4:	f90007e0 	str	x0, [sp, #8]
    1da8:	910043ff 	add	sp, sp, #0x10
    1dac:	d65f03c0 	ret

0000000000001db0 <_<I as core::iter::traits::collect::IntoIterator>::into_iter>:
    1db0:	aa0803e9 	mov	x9, x8
    1db4:	3dc00000 	ldr	q0, [x0]
    1db8:	3d800120 	str	q0, [x9]
    1dbc:	f9400808 	ldr	x8, [x0, #16]
    1dc0:	f9000928 	str	x8, [x9, #16]
    1dc4:	d65f03c0 	ret

0000000000001dc8 <_<I as core::iter::traits::collect::IntoIterator>::into_iter>:
    1dc8:	d10043ff 	sub	sp, sp, #0x10
    1dcc:	b9000be0 	str	w0, [sp, #8]
    1dd0:	b9000fe1 	str	w1, [sp, #12]
    1dd4:	910043ff 	add	sp, sp, #0x10
    1dd8:	d65f03c0 	ret

0000000000001ddc <_<rand::distr::uniform::Error as core::fmt::Debug>::fmt>:
    1ddc:	d10103ff 	sub	sp, sp, #0x40
    1de0:	a9037bfd 	stp	x29, x30, [sp, #48]
    1de4:	9100c3fd 	add	x29, sp, #0x30
    1de8:	f90007e1 	str	x1, [sp, #8]
    1dec:	aa0003e8 	mov	x8, x0
    1df0:	f81f03a8 	stur	x8, [x29, #-16]
    1df4:	f81f83a1 	stur	x1, [x29, #-8]
    1df8:	39400008 	ldrb	w8, [x0]
    1dfc:	37000108 	tbnz	w8, #0, 1e1c <_<rand::distr::uniform::Error as core::fmt::Debug>::fmt+0x40>
    1e00:	14000001 	b	1e04 <_<rand::distr::uniform::Error as core::fmt::Debug>::fmt+0x28>
    1e04:	90000008 	adrp	x8, d2d0 <l_alloc_469dc6e050263e96b5bbf6041562962d>
    1e08:	91000108 	add	x8, x8, #0x0
    1e0c:	f9000be8 	str	x8, [sp, #16]
    1e10:	52800148 	mov	w8, #0xa                   	// #10
    1e14:	f9000fe8 	str	x8, [sp, #24]
    1e18:	14000007 	b	1e34 <_<rand::distr::uniform::Error as core::fmt::Debug>::fmt+0x58>
    1e1c:	90000008 	adrp	x8, d2da <l_alloc_e12739f6e50f2bfa7992d9688152e366>
    1e20:	91000108 	add	x8, x8, #0x0
    1e24:	f9000be8 	str	x8, [sp, #16]
    1e28:	52800128 	mov	w8, #0x9                   	// #9
    1e2c:	f9000fe8 	str	x8, [sp, #24]
    1e30:	14000001 	b	1e34 <_<rand::distr::uniform::Error as core::fmt::Debug>::fmt+0x58>
    1e34:	f94007e0 	ldr	x0, [sp, #8]
    1e38:	f9400be1 	ldr	x1, [sp, #16]
    1e3c:	f9400fe2 	ldr	x2, [sp, #24]
    1e40:	94000000 	bl	0 <_core::fmt::Formatter::write_str>
    1e44:	a9437bfd 	ldp	x29, x30, [sp, #48]
    1e48:	910103ff 	add	sp, sp, #0x40
    1e4c:	d65f03c0 	ret

0000000000001e50 <_<alloc::vec::Vec<T,A> as core::ops::drop::Drop>::drop>:
    1e50:	d10083ff 	sub	sp, sp, #0x20
    1e54:	aa0003e8 	mov	x8, x0
    1e58:	f90007e8 	str	x8, [sp, #8]
    1e5c:	f9400408 	ldr	x8, [x0, #8]
    1e60:	f9000be8 	str	x8, [sp, #16]
    1e64:	f9400808 	ldr	x8, [x0, #16]
    1e68:	f9000fe8 	str	x8, [sp, #24]
    1e6c:	910083ff 	add	sp, sp, #0x20
    1e70:	d65f03c0 	ret

0000000000001e74 <_<alloc::vec::Vec<T,A> as core::ops::deref::Deref>::deref>:
    1e74:	d10083ff 	sub	sp, sp, #0x20
    1e78:	a9017bfd 	stp	x29, x30, [sp, #16]
    1e7c:	910043fd 	add	x29, sp, #0x10
    1e80:	aa0003e8 	mov	x8, x0
    1e84:	f90007e8 	str	x8, [sp, #8]
    1e88:	94000000 	bl	1c04 <_alloc::vec::Vec<T,A>::as_slice>
    1e8c:	a9417bfd 	ldp	x29, x30, [sp, #16]
    1e90:	910083ff 	add	sp, sp, #0x20
    1e94:	d65f03c0 	ret

0000000000001e98 <_<rand_core::block::BlockRng<R> as rand_core::RngCore>::next_u32>:
    1e98:	d10183ff 	sub	sp, sp, #0x60
    1e9c:	a9057bfd 	stp	x29, x30, [sp, #80]
    1ea0:	910143fd 	add	x29, sp, #0x50
    1ea4:	f81e03a0 	stur	x0, [x29, #-32]
    1ea8:	aa0003e8 	mov	x8, x0
    1eac:	f81f03a8 	stur	x8, [x29, #-16]
    1eb0:	f940a008 	ldr	x8, [x0, #320]
    1eb4:	f81e83a8 	stur	x8, [x29, #-24]
    1eb8:	94000000 	bl	0 <_<rand_chacha::chacha::Array64<T> as core::convert::AsRef<[T]>>::as_ref>
    1ebc:	f85e83a8 	ldur	x8, [x29, #-24]
    1ec0:	eb010108 	subs	x8, x8, x1
    1ec4:	54000182 	b.cs	1ef4 <_<rand_core::block::BlockRng<R> as rand_core::RngCore>::next_u32+0x5c>  // b.hs, b.nlast
    1ec8:	14000001 	b	1ecc <_<rand_core::block::BlockRng<R> as rand_core::RngCore>::next_u32+0x34>
    1ecc:	f85e03a0 	ldur	x0, [x29, #-32]
    1ed0:	94000000 	bl	0 <_<rand_chacha::chacha::Array64<T> as core::convert::AsRef<[T]>>::as_ref>
    1ed4:	f85e03a8 	ldur	x8, [x29, #-32]
    1ed8:	f9000fe0 	str	x0, [sp, #24]
    1edc:	f90013e1 	str	x1, [sp, #32]
    1ee0:	f940a108 	ldr	x8, [x8, #320]
    1ee4:	f90017e8 	str	x8, [sp, #40]
    1ee8:	eb010108 	subs	x8, x8, x1
    1eec:	540000c3 	b.cc	1f04 <_<rand_core::block::BlockRng<R> as rand_core::RngCore>::next_u32+0x6c>  // b.lo, b.ul, b.last
    1ef0:	14000011 	b	1f34 <_<rand_core::block::BlockRng<R> as rand_core::RngCore>::next_u32+0x9c>
    1ef4:	f85e03a0 	ldur	x0, [x29, #-32]
    1ef8:	d2800001 	mov	x1, #0x0                   	// #0
    1efc:	94000000 	bl	c4f0 <_rand_core::block::BlockRng<R>::generate_and_set>
    1f00:	17fffff3 	b	1ecc <_<rand_core::block::BlockRng<R> as rand_core::RngCore>::next_u32+0x34>
    1f04:	f85e03a8 	ldur	x8, [x29, #-32]
    1f08:	f9400fe9 	ldr	x9, [sp, #24]
    1f0c:	f94017ea 	ldr	x10, [sp, #40]
    1f10:	b86a7929 	ldr	w9, [x9, x10, lsl #2]
    1f14:	b9000fe9 	str	w9, [sp, #12]
    1f18:	b81fc3a9 	stur	w9, [x29, #-4]
    1f1c:	f940a108 	ldr	x8, [x8, #320]
    1f20:	b1000508 	adds	x8, x8, #0x1
    1f24:	f9000be8 	str	x8, [sp, #16]
    1f28:	1a9f37e8 	cset	w8, cs	// cs = hs, nlast
    1f2c:	370001c8 	tbnz	w8, #0, 1f64 <_<rand_core::block::BlockRng<R> as rand_core::RngCore>::next_u32+0xcc>
    1f30:	14000006 	b	1f48 <_<rand_core::block::BlockRng<R> as rand_core::RngCore>::next_u32+0xb0>
    1f34:	f94013e1 	ldr	x1, [sp, #32]
    1f38:	f94017e0 	ldr	x0, [sp, #40]
    1f3c:	90000002 	adrp	x2, d6c0 <l_alloc_d58627c8b7d22ff445dfd075c0e26e70>
    1f40:	91000042 	add	x2, x2, #0x0
    1f44:	94000000 	bl	0 <_core::panicking::panic_bounds_check>
    1f48:	b9400fe0 	ldr	w0, [sp, #12]
    1f4c:	f9400be8 	ldr	x8, [sp, #16]
    1f50:	f85e03a9 	ldur	x9, [x29, #-32]
    1f54:	f900a128 	str	x8, [x9, #320]
    1f58:	a9457bfd 	ldp	x29, x30, [sp, #80]
    1f5c:	910183ff 	add	sp, sp, #0x60
    1f60:	d65f03c0 	ret
    1f64:	90000000 	adrp	x0, d6d8 <l_alloc_235f0e991384b252c512ec3728f3019f>
    1f68:	91000000 	add	x0, x0, #0x0
    1f6c:	94000000 	bl	0 <_core::panicking::panic_const::panic_const_add_overflow>

0000000000001f70 <_<rand_core::block::BlockRng<R> as rand_core::RngCore>::next_u64>:
    1f70:	d10383ff 	sub	sp, sp, #0xe0
    1f74:	a90d7bfd 	stp	x29, x30, [sp, #208]
    1f78:	910343fd 	add	x29, sp, #0xd0
    1f7c:	f9001fe0 	str	x0, [sp, #56]
    1f80:	aa0003e8 	mov	x8, x0
    1f84:	f81c83a8 	stur	x8, [x29, #-56]
    1f88:	94000000 	bl	0 <_<rand_chacha::chacha::Array64<T> as core::convert::AsRef<[T]>>::as_ref>
    1f8c:	f9401fe0 	ldr	x0, [sp, #56]
    1f90:	f90023e1 	str	x1, [sp, #64]
    1f94:	f81d83a1 	stur	x1, [x29, #-40]
    1f98:	f940a008 	ldr	x8, [x0, #320]
    1f9c:	f90027e8 	str	x8, [sp, #72]
    1fa0:	f81e03a8 	stur	x8, [x29, #-32]
    1fa4:	f1000428 	subs	x8, x1, #0x1
    1fa8:	f9002be8 	str	x8, [sp, #80]
    1fac:	f1000428 	subs	x8, x1, #0x1
    1fb0:	540000e3 	b.cc	1fcc <_<rand_core::block::BlockRng<R> as rand_core::RngCore>::next_u64+0x5c>  // b.lo, b.ul, b.last
    1fb4:	14000001 	b	1fb8 <_<rand_core::block::BlockRng<R> as rand_core::RngCore>::next_u64+0x48>
    1fb8:	f94027e8 	ldr	x8, [sp, #72]
    1fbc:	f9402be9 	ldr	x9, [sp, #80]
    1fc0:	eb090108 	subs	x8, x8, x9
    1fc4:	54000143 	b.cc	1fec <_<rand_core::block::BlockRng<R> as rand_core::RngCore>::next_u64+0x7c>  // b.lo, b.ul, b.last
    1fc8:	14000004 	b	1fd8 <_<rand_core::block::BlockRng<R> as rand_core::RngCore>::next_u64+0x68>
    1fcc:	90000000 	adrp	x0, d6f0 <l_alloc_713d52eb880bae319ff4cbd7740a3e64>
    1fd0:	91000000 	add	x0, x0, #0x0
    1fd4:	94000000 	bl	0 <_core::panicking::panic_const::panic_const_sub_overflow>
    1fd8:	f94027e8 	ldr	x8, [sp, #72]
    1fdc:	f94023e9 	ldr	x9, [sp, #64]
    1fe0:	eb090108 	subs	x8, x8, x9
    1fe4:	54000262 	b.cs	2030 <_<rand_core::block::BlockRng<R> as rand_core::RngCore>::next_u64+0xc0>  // b.hs, b.nlast
    1fe8:	14000008 	b	2008 <_<rand_core::block::BlockRng<R> as rand_core::RngCore>::next_u64+0x98>
    1fec:	f9401fe8 	ldr	x8, [sp, #56]
    1ff0:	f940a108 	ldr	x8, [x8, #320]
    1ff4:	b1000908 	adds	x8, x8, #0x2
    1ff8:	f9001be8 	str	x8, [sp, #48]
    1ffc:	1a9f37e8 	cset	w8, cs	// cs = hs, nlast
    2000:	37000ba8 	tbnz	w8, #0, 2174 <_<rand_core::block::BlockRng<R> as rand_core::RngCore>::next_u64+0x204>
    2004:	1400004d 	b	2138 <_<rand_core::block::BlockRng<R> as rand_core::RngCore>::next_u64+0x1c8>
    2008:	f9401fe0 	ldr	x0, [sp, #56]
    200c:	94000000 	bl	0 <_<rand_chacha::chacha::Array64<T> as core::convert::AsRef<[T]>>::as_ref>
    2010:	f94023e8 	ldr	x8, [sp, #64]
    2014:	f9000fe0 	str	x0, [sp, #24]
    2018:	f90013e1 	str	x1, [sp, #32]
    201c:	f1000509 	subs	x9, x8, #0x1
    2020:	f90017e9 	str	x9, [sp, #40]
    2024:	f1000508 	subs	x8, x8, #0x1
    2028:	540002e3 	b.cc	2084 <_<rand_core::block::BlockRng<R> as rand_core::RngCore>::next_u64+0x114>  // b.lo, b.ul, b.last
    202c:	14000011 	b	2070 <_<rand_core::block::BlockRng<R> as rand_core::RngCore>::next_u64+0x100>
    2030:	f9401fe0 	ldr	x0, [sp, #56]
    2034:	52800048 	mov	w8, #0x2                   	// #2
    2038:	aa0803e1 	mov	x1, x8
    203c:	94000000 	bl	c4f0 <_rand_core::block::BlockRng<R>::generate_and_set>
    2040:	f9401fe0 	ldr	x0, [sp, #56]
    2044:	94000000 	bl	0 <_<rand_chacha::chacha::Array64<T> as core::convert::AsRef<[T]>>::as_ref>
    2048:	f81b03a0 	stur	x0, [x29, #-80]
    204c:	f81b83a1 	stur	x1, [x29, #-72]
    2050:	f81c03bf 	stur	xzr, [x29, #-64]
    2054:	f85b03a1 	ldur	x1, [x29, #-80]
    2058:	f85b83a2 	ldur	x2, [x29, #-72]
    205c:	f85c03a3 	ldur	x3, [x29, #-64]
    2060:	91019fe0 	add	x0, sp, #0x67
    2064:	94000000 	bl	2180 <_<rand_core::block::BlockRng<R> as rand_core::RngCore>::next_u64::{{closure}}>
    2068:	f9002fe0 	str	x0, [sp, #88]
    206c:	1400002f 	b	2128 <_<rand_core::block::BlockRng<R> as rand_core::RngCore>::next_u64+0x1b8>
    2070:	f94017e8 	ldr	x8, [sp, #40]
    2074:	f94013e9 	ldr	x9, [sp, #32]
    2078:	eb090108 	subs	x8, x8, x9
    207c:	540000a3 	b.cc	2090 <_<rand_core::block::BlockRng<R> as rand_core::RngCore>::next_u64+0x120>  // b.lo, b.ul, b.last
    2080:	14000017 	b	20dc <_<rand_core::block::BlockRng<R> as rand_core::RngCore>::next_u64+0x16c>
    2084:	90000000 	adrp	x0, d708 <l_alloc_455f58f4ff2dab1ddfa3112333b8a638>
    2088:	91000000 	add	x0, x0, #0x0
    208c:	94000000 	bl	0 <_core::panicking::panic_const::panic_const_sub_overflow>
    2090:	f9401fe0 	ldr	x0, [sp, #56]
    2094:	f9400fe8 	ldr	x8, [sp, #24]
    2098:	f94017e9 	ldr	x9, [sp, #40]
    209c:	b8697908 	ldr	w8, [x8, x9, lsl #2]
    20a0:	f90003e8 	str	x8, [sp]
    20a4:	aa0803e9 	mov	x9, x8
    20a8:	b81fc3a9 	stur	w9, [x29, #-4]
    20ac:	f81e83a8 	stur	x8, [x29, #-24]
    20b0:	52800028 	mov	w8, #0x1                   	// #1
    20b4:	aa0803e1 	mov	x1, x8
    20b8:	94000000 	bl	c4f0 <_rand_core::block::BlockRng<R>::generate_and_set>
    20bc:	f9401fe0 	ldr	x0, [sp, #56]
    20c0:	94000000 	bl	0 <_<rand_chacha::chacha::Array64<T> as core::convert::AsRef<[T]>>::as_ref>
    20c4:	f90007e0 	str	x0, [sp, #8]
    20c8:	f9000be1 	str	x1, [sp, #16]
    20cc:	d2800008 	mov	x8, #0x0                   	// #0
    20d0:	eb010108 	subs	x8, x8, x1
    20d4:	540000e3 	b.cc	20f0 <_<rand_core::block::BlockRng<R> as rand_core::RngCore>::next_u64+0x180>  // b.lo, b.ul, b.last
    20d8:	1400000f 	b	2114 <_<rand_core::block::BlockRng<R> as rand_core::RngCore>::next_u64+0x1a4>
    20dc:	f94013e1 	ldr	x1, [sp, #32]
    20e0:	f94017e0 	ldr	x0, [sp, #40]
    20e4:	90000002 	adrp	x2, d720 <l_alloc_3cc342ee88a539c975b102e7fa201c3d>
    20e8:	91000042 	add	x2, x2, #0x0
    20ec:	94000000 	bl	0 <_core::panicking::panic_bounds_check>
    20f0:	f94003e8 	ldr	x8, [sp]
    20f4:	f94007e9 	ldr	x9, [sp, #8]
    20f8:	b9400129 	ldr	w9, [x9]
    20fc:	aa0903ea 	mov	x10, x9
    2100:	b81f83aa 	stur	w10, [x29, #-8]
    2104:	f81f03a9 	stur	x9, [x29, #-16]
    2108:	aa098108 	orr	x8, x8, x9, lsl #32
    210c:	f9002fe8 	str	x8, [sp, #88]
    2110:	14000006 	b	2128 <_<rand_core::block::BlockRng<R> as rand_core::RngCore>::next_u64+0x1b8>
    2114:	f9400be1 	ldr	x1, [sp, #16]
    2118:	d2800000 	mov	x0, #0x0                   	// #0
    211c:	90000002 	adrp	x2, d738 <l_alloc_4c3189bd1f5fdb237107f268c9262483>
    2120:	91000042 	add	x2, x2, #0x0
    2124:	94000000 	bl	0 <_core::panicking::panic_bounds_check>
    2128:	f9402fe0 	ldr	x0, [sp, #88]
    212c:	a94d7bfd 	ldp	x29, x30, [sp, #208]
    2130:	910383ff 	add	sp, sp, #0xe0
    2134:	d65f03c0 	ret
    2138:	f9401fe0 	ldr	x0, [sp, #56]
    213c:	f9401be8 	ldr	x8, [sp, #48]
    2140:	f900a008 	str	x8, [x0, #320]
    2144:	94000000 	bl	0 <_<rand_chacha::chacha::Array64<T> as core::convert::AsRef<[T]>>::as_ref>
    2148:	f94027e8 	ldr	x8, [sp, #72]
    214c:	f90037e0 	str	x0, [sp, #104]
    2150:	f9003be1 	str	x1, [sp, #112]
    2154:	f9003fe8 	str	x8, [sp, #120]
    2158:	f94037e1 	ldr	x1, [sp, #104]
    215c:	f9403be2 	ldr	x2, [sp, #112]
    2160:	f9403fe3 	ldr	x3, [sp, #120]
    2164:	91019fe0 	add	x0, sp, #0x67
    2168:	94000000 	bl	2180 <_<rand_core::block::BlockRng<R> as rand_core::RngCore>::next_u64::{{closure}}>
    216c:	f9002fe0 	str	x0, [sp, #88]
    2170:	17ffffee 	b	2128 <_<rand_core::block::BlockRng<R> as rand_core::RngCore>::next_u64+0x1b8>
    2174:	90000000 	adrp	x0, d750 <l_alloc_8211d49787e16b67f616bb6cd05c132c>
    2178:	91000000 	add	x0, x0, #0x0
    217c:	94000000 	bl	0 <_core::panicking::panic_const::panic_const_add_overflow>

0000000000002180 <_<rand_core::block::BlockRng<R> as rand_core::RngCore>::next_u64::{{closure}}>:
    2180:	d102c3ff 	sub	sp, sp, #0xb0
    2184:	a90a7bfd 	stp	x29, x30, [sp, #160]
    2188:	910283fd 	add	x29, sp, #0xa0
    218c:	f90013e1 	str	x1, [sp, #32]
    2190:	f90017e2 	str	x2, [sp, #40]
    2194:	f9001be3 	str	x3, [sp, #48]
    2198:	f81b83a0 	stur	x0, [x29, #-72]
    219c:	f81c03a1 	stur	x1, [x29, #-64]
    21a0:	f81c83a2 	stur	x2, [x29, #-56]
    21a4:	f81d03a3 	stur	x3, [x29, #-48]
    21a8:	b1000468 	adds	x8, x3, #0x1
    21ac:	f9001fe8 	str	x8, [sp, #56]
    21b0:	1a9f37e8 	cset	w8, cs	// cs = hs, nlast
    21b4:	37000308 	tbnz	w8, #0, 2214 <_<rand_core::block::BlockRng<R> as rand_core::RngCore>::next_u64::{{closure}}+0x94>
    21b8:	14000001 	b	21bc <_<rand_core::block::BlockRng<R> as rand_core::RngCore>::next_u64::{{closure}}+0x3c>
    21bc:	f9401fe1 	ldr	x1, [sp, #56]
    21c0:	f9401be0 	ldr	x0, [sp, #48]
    21c4:	910103e8 	add	x8, sp, #0x40
    21c8:	f90007e8 	str	x8, [sp, #8]
    21cc:	94000000 	bl	eb8 <_core::ops::range::RangeInclusive<Idx>::new>
    21d0:	f94007e0 	ldr	x0, [sp, #8]
    21d4:	f94013e1 	ldr	x1, [sp, #32]
    21d8:	f94017e2 	ldr	x2, [sp, #40]
    21dc:	aa0103e8 	mov	x8, x1
    21e0:	f81e83a8 	stur	x8, [x29, #-24]
    21e4:	f81f03a2 	stur	x2, [x29, #-16]
    21e8:	90000003 	adrp	x3, d780 <l_alloc_8df363046774bb3c05580f35679f3587>
    21ec:	91000063 	add	x3, x3, #0x0
    21f0:	94000000 	bl	b28 <_<core::ops::range::RangeInclusive<usize> as core::slice::index::SliceIndex<[T]>>::index>
    21f4:	f9000be0 	str	x0, [sp, #16]
    21f8:	f9000fe1 	str	x1, [sp, #24]
    21fc:	f81d83a0 	stur	x0, [x29, #-40]
    2200:	f81e03a1 	stur	x1, [x29, #-32]
    2204:	52800028 	mov	w8, #0x1                   	// #1
    2208:	eb010108 	subs	x8, x8, x1
    220c:	540000a3 	b.cc	2220 <_<rand_core::block::BlockRng<R> as rand_core::RngCore>::next_u64::{{closure}}+0xa0>  // b.lo, b.ul, b.last
    2210:	1400000d 	b	2244 <_<rand_core::block::BlockRng<R> as rand_core::RngCore>::next_u64::{{closure}}+0xc4>
    2214:	90000000 	adrp	x0, d768 <l_alloc_e6df7d8c54fa679e06696170aa0f7f59>
    2218:	91000000 	add	x0, x0, #0x0
    221c:	94000000 	bl	0 <_core::panicking::panic_const::panic_const_add_overflow>
    2220:	f9400fe9 	ldr	x9, [sp, #24]
    2224:	f9400be8 	ldr	x8, [sp, #16]
    2228:	b9400508 	ldr	w8, [x8, #4]
    222c:	f90003e8 	str	x8, [sp]
    2230:	b81fc3a8 	stur	w8, [x29, #-4]
    2234:	d2800008 	mov	x8, #0x0                   	// #0
    2238:	eb090108 	subs	x8, x8, x9
    223c:	54000103 	b.cc	225c <_<rand_core::block::BlockRng<R> as rand_core::RngCore>::next_u64::{{closure}}+0xdc>  // b.lo, b.ul, b.last
    2240:	14000010 	b	2280 <_<rand_core::block::BlockRng<R> as rand_core::RngCore>::next_u64::{{closure}}+0x100>
    2244:	f9400fe1 	ldr	x1, [sp, #24]
    2248:	52800028 	mov	w8, #0x1                   	// #1
    224c:	aa0803e0 	mov	x0, x8
    2250:	90000002 	adrp	x2, d798 <l_alloc_e5c5095d6ea4aded3dba75a8b19a51fe>
    2254:	91000042 	add	x2, x2, #0x0
    2258:	94000000 	bl	0 <_core::panicking::panic_bounds_check>
    225c:	f94003e9 	ldr	x9, [sp]
    2260:	f9400be8 	ldr	x8, [sp, #16]
    2264:	b9400108 	ldr	w8, [x8]
    2268:	aa0803ea 	mov	x10, x8
    226c:	b81f83aa 	stur	w10, [x29, #-8]
    2270:	aa098100 	orr	x0, x8, x9, lsl #32
    2274:	a94a7bfd 	ldp	x29, x30, [sp, #160]
    2278:	9102c3ff 	add	sp, sp, #0xb0
    227c:	d65f03c0 	ret
    2280:	f9400fe1 	ldr	x1, [sp, #24]
    2284:	d2800000 	mov	x0, #0x0                   	// #0
    2288:	90000002 	adrp	x2, d7b0 <l_alloc_1e801a89cb7cbe249384aab6cc3da5a5>
    228c:	91000042 	add	x2, x2, #0x0
    2290:	94000000 	bl	0 <_core::panicking::panic_bounds_check>

0000000000002294 <_<usize as core::slice::index::SliceIndex<[T]>>::index>:
    2294:	d10143ff 	sub	sp, sp, #0x50
    2298:	a9047bfd 	stp	x29, x30, [sp, #64]
    229c:	910103fd 	add	x29, sp, #0x40
    22a0:	f90007e0 	str	x0, [sp, #8]
    22a4:	f9000be1 	str	x1, [sp, #16]
    22a8:	f9000fe2 	str	x2, [sp, #24]
    22ac:	f90013e3 	str	x3, [sp, #32]
    22b0:	f81e83a0 	stur	x0, [x29, #-24]
    22b4:	f81f03a1 	stur	x1, [x29, #-16]
    22b8:	f81f83a2 	stur	x2, [x29, #-8]
    22bc:	eb020008 	subs	x8, x0, x2
    22c0:	54000102 	b.cs	22e0 <_<usize as core::slice::index::SliceIndex<[T]>>::index+0x4c>  // b.hs, b.nlast
    22c4:	14000001 	b	22c8 <_<usize as core::slice::index::SliceIndex<[T]>>::index+0x34>
    22c8:	f9400be8 	ldr	x8, [sp, #16]
    22cc:	f94007e9 	ldr	x9, [sp, #8]
    22d0:	8b090900 	add	x0, x8, x9, lsl #2
    22d4:	a9447bfd 	ldp	x29, x30, [sp, #64]
    22d8:	910143ff 	add	sp, sp, #0x50
    22dc:	d65f03c0 	ret
    22e0:	f94013e2 	ldr	x2, [sp, #32]
    22e4:	f9400fe1 	ldr	x1, [sp, #24]
    22e8:	f94007e0 	ldr	x0, [sp, #8]
    22ec:	94000000 	bl	0 <_core::panicking::panic_bounds_check>

00000000000022f0 <_<alloc::raw_vec::RawVec<T,A> as core::ops::drop::Drop>::drop>:
    22f0:	d10083ff 	sub	sp, sp, #0x20
    22f4:	a9017bfd 	stp	x29, x30, [sp, #16]
    22f8:	910043fd 	add	x29, sp, #0x10
    22fc:	aa0003e8 	mov	x8, x0
    2300:	f90007e8 	str	x8, [sp, #8]
    2304:	52800088 	mov	w8, #0x4                   	// #4
    2308:	aa0803e2 	mov	x2, x8
    230c:	aa0203e1 	mov	x1, x2
    2310:	94000000 	bl	0 <_alloc::raw_vec::RawVecInner<A>::deallocate>
    2314:	a9417bfd 	ldp	x29, x30, [sp, #16]
    2318:	910083ff 	add	sp, sp, #0x20
    231c:	d65f03c0 	ret

0000000000002320 <_<alloc::vec::set_len_on_drop::SetLenOnDrop as core::ops::drop::Drop>::drop>:
    2320:	d10043ff 	sub	sp, sp, #0x10
    2324:	aa0003e8 	mov	x8, x0
    2328:	f90007e8 	str	x8, [sp, #8]
    232c:	f9400408 	ldr	x8, [x0, #8]
    2330:	f9400009 	ldr	x9, [x0]
    2334:	f9000128 	str	x8, [x9]
    2338:	910043ff 	add	sp, sp, #0x10
    233c:	d65f03c0 	ret

0000000000002340 <_<rand_chacha::chacha::ChaCha12Core as rand_core::block::BlockRngCore>::generate>:
    2340:	a9be6ffc 	stp	x28, x27, [sp, #-32]!
    2344:	a9017bfd 	stp	x29, x30, [sp, #16]
    2348:	910043fd 	add	x29, sp, #0x10
    234c:	d1402be9 	sub	x9, sp, #0xa, lsl #12
    2350:	d14007ff 	sub	sp, sp, #0x1, lsl #12
    2354:	f90003ff 	str	xzr, [sp]
    2358:	eb2963ff 	cmp	sp, x9
    235c:	54ffffa1 	b.ne	2350 <_<rand_chacha::chacha::ChaCha12Core as rand_core::block::BlockRngCore>::generate+0x10>  // b.any
    2360:	d13303ff 	sub	sp, sp, #0xcc0
    2364:	f90003ff 	str	xzr, [sp]
    2368:	91402be8 	add	x8, sp, #0xa, lsl #12
    236c:	911b8108 	add	x8, x8, #0x6e0
    2370:	f90683e8 	str	x8, [sp, #3328]
    2374:	91401be8 	add	x8, sp, #0x6, lsl #12
    2378:	911b4108 	add	x8, x8, #0x6d0
    237c:	f90687e8 	str	x8, [sp, #3336]
    2380:	91401be8 	add	x8, sp, #0x6, lsl #12
    2384:	91173d08 	add	x8, x8, #0x5cf
    2388:	f9068be8 	str	x8, [sp, #3344]
    238c:	914017e8 	add	x8, sp, #0x5, lsl #12
    2390:	91170108 	add	x8, x8, #0x5c0
    2394:	f9068fe8 	str	x8, [sp, #3352]
    2398:	914017e8 	add	x8, sp, #0x5, lsl #12
    239c:	9112fd08 	add	x8, x8, #0x4bf
    23a0:	f90693e8 	str	x8, [sp, #3360]
    23a4:	914013e8 	add	x8, sp, #0x4, lsl #12
    23a8:	910e8108 	add	x8, x8, #0x3a0
    23ac:	f906bbe8 	str	x8, [sp, #3440]
    23b0:	914013e8 	add	x8, sp, #0x4, lsl #12
    23b4:	910a3d08 	add	x8, x8, #0x28f
    23b8:	f90697e8 	str	x8, [sp, #3368]
    23bc:	91400be9 	add	x9, sp, #0x2, lsl #12
    23c0:	910c8129 	add	x9, x9, #0x320
    23c4:	f906b7e9 	str	x9, [sp, #3432]
    23c8:	91400be8 	add	x8, sp, #0x2, lsl #12
    23cc:	91073108 	add	x8, x8, #0x1cc
    23d0:	f9069be8 	str	x8, [sp, #3376]
    23d4:	914007e8 	add	x8, sp, #0x1, lsl #12
    23d8:	913ad108 	add	x8, x8, #0xeb4
    23dc:	f9069fe8 	str	x8, [sp, #3384]
    23e0:	913803e8 	add	x8, sp, #0xe00
    23e4:	f906abe8 	str	x8, [sp, #3408]
    23e8:	f906a7e0 	str	x0, [sp, #3400]
    23ec:	f906a3e1 	str	x1, [sp, #3392]
    23f0:	aa0003ea 	mov	x10, x0
    23f4:	f906bfea 	str	x10, [sp, #3448]
    23f8:	aa0103ea 	mov	x10, x1
    23fc:	f906c3ea 	str	x10, [sp, #3456]
    2400:	aa0003ea 	mov	x10, x0
    2404:	f906c7ea 	str	x10, [sp, #3464]
    2408:	528000ca 	mov	w10, #0x6                   	// #6
    240c:	b90d97ea 	str	w10, [sp, #3476]
    2410:	aa0103eb 	mov	x11, x1
    2414:	f906cfeb 	str	x11, [sp, #3480]
    2418:	aa0003eb 	mov	x11, x0
    241c:	f906d3eb 	str	x11, [sp, #3488]
    2420:	b90dafea 	str	w10, [sp, #3500]
    2424:	aa0103eb 	mov	x11, x1
    2428:	f906dbeb 	str	x11, [sp, #3504]
    242c:	aa0003eb 	mov	x11, x0
    2430:	f906dfeb 	str	x11, [sp, #3512]
    2434:	b90dc7ea 	str	w10, [sp, #3524]
    2438:	aa0103eb 	mov	x11, x1
    243c:	f906e7eb 	str	x11, [sp, #3528]
    2440:	aa0003eb 	mov	x11, x0
    2444:	f90f4feb 	str	x11, [sp, #7832]
    2448:	b91ea7ea 	str	w10, [sp, #7844]
    244c:	f90f57e1 	str	x1, [sp, #7848]
    2450:	528f0caa 	mov	w10, #0x7865                	// #30821
    2454:	72ac2e0a 	movk	w10, #0x6170, lsl #16
    2458:	b90de3ea 	str	w10, [sp, #3552]
    245c:	528c8dca 	mov	w10, #0x646e                	// #25710
    2460:	72a6640a 	movk	w10, #0x3320, lsl #16
    2464:	b90de7ea 	str	w10, [sp, #3556]
    2468:	5285a64a 	mov	w10, #0x2d32                	// #11570
    246c:	72af2c4a 	movk	w10, #0x7962, lsl #16
    2470:	b90debea 	str	w10, [sp, #3560]
    2474:	528cae8a 	mov	w10, #0x6574                	// #25972
    2478:	72ad640a 	movk	w10, #0x6b20, lsl #16
    247c:	b90defea 	str	w10, [sp, #3564]
    2480:	3dc37be0 	ldr	q0, [sp, #3552]
    2484:	3d8377e0 	str	q0, [sp, #3536]
    2488:	3dc00000 	ldr	q0, [x0]
    248c:	3d800100 	str	q0, [x8]
    2490:	3dc00100 	ldr	q0, [x8]
    2494:	3d84a120 	str	q0, [x9, #4736]
    2498:	3dc4a120 	ldr	q0, [x9, #4736]
    249c:	3d837fe0 	str	q0, [sp, #3568]
    24a0:	3dc00400 	ldr	q0, [x0, #16]
    24a4:	3d800900 	str	q0, [x8, #32]
    24a8:	3dc00900 	ldr	q0, [x8, #32]
    24ac:	3d849d20 	str	q0, [x9, #4720]
    24b0:	3dc49d20 	ldr	q0, [x9, #4720]
    24b4:	3d800500 	str	q0, [x8, #16]
    24b8:	3dc377e0 	ldr	q0, [sp, #3536]
    24bc:	913dc3e1 	add	x1, sp, #0xf70
    24c0:	3d805d00 	str	q0, [x8, #368]
    24c4:	3dc377e0 	ldr	q0, [sp, #3536]
    24c8:	3d806100 	str	q0, [x8, #384]
    24cc:	3dc377e0 	ldr	q0, [sp, #3536]
    24d0:	3d806500 	str	q0, [x8, #400]
    24d4:	3dc377e0 	ldr	q0, [sp, #3536]
    24d8:	3d806900 	str	q0, [x8, #416]
    24dc:	913cc3e0 	add	x0, sp, #0xf30
    24e0:	52800808 	mov	w8, #0x40                  	// #64
    24e4:	aa0803e2 	mov	x2, x8
    24e8:	f906b3e2 	str	x2, [sp, #3424]
    24ec:	94000000 	bl	0 <_memcpy>
    24f0:	f946abe8 	ldr	x8, [sp, #3408]
    24f4:	f946b3e2 	ldr	x2, [sp, #3424]
    24f8:	3dc37fe0 	ldr	q0, [sp, #3568]
    24fc:	913fc3e1 	add	x1, sp, #0xff0
    2500:	3d807d00 	str	q0, [x8, #496]
    2504:	3dc37fe0 	ldr	q0, [sp, #3568]
    2508:	3d808100 	str	q0, [x8, #512]
    250c:	3dc37fe0 	ldr	q0, [sp, #3568]
    2510:	3d808500 	str	q0, [x8, #528]
    2514:	3dc37fe0 	ldr	q0, [sp, #3568]
    2518:	3d808900 	str	q0, [x8, #544]
    251c:	913ec3e0 	add	x0, sp, #0xfb0
    2520:	94000000 	bl	0 <_memcpy>
    2524:	f946abe8 	ldr	x8, [sp, #3408]
    2528:	f946b3e2 	ldr	x2, [sp, #3424]
    252c:	3dc00500 	ldr	q0, [x8, #16]
    2530:	914007e1 	add	x1, sp, #0x1, lsl #12
    2534:	9101c021 	add	x1, x1, #0x70
    2538:	3d809d00 	str	q0, [x8, #624]
    253c:	3dc00500 	ldr	q0, [x8, #16]
    2540:	3d80a100 	str	q0, [x8, #640]
    2544:	3dc00500 	ldr	q0, [x8, #16]
    2548:	3d80a500 	str	q0, [x8, #656]
    254c:	3dc00500 	ldr	q0, [x8, #16]
    2550:	3d80a900 	str	q0, [x8, #672]
    2554:	914007e0 	add	x0, sp, #0x1, lsl #12
    2558:	9100c000 	add	x0, x0, #0x30
    255c:	94000000 	bl	0 <_memcpy>
    2560:	f946a7e0 	ldr	x0, [sp, #3400]
    2564:	f946abe9 	ldr	x9, [sp, #3408]
    2568:	f946b3e2 	ldr	x2, [sp, #3424]
    256c:	f946b7e8 	ldr	x8, [sp, #3432]
    2570:	3dc00800 	ldr	q0, [x0, #32]
    2574:	3d80bd20 	str	q0, [x9, #752]
    2578:	3dc0bd20 	ldr	q0, [x9, #752]
    257c:	3d816d00 	str	q0, [x8, #1456]
    2580:	3dc16d00 	ldr	q0, [x8, #1456]
    2584:	3d84ad00 	str	q0, [x8, #4784]
    2588:	3dc4ad00 	ldr	q0, [x8, #4784]
    258c:	3d80e900 	str	q0, [x8, #928]
    2590:	f913b3ff 	str	xzr, [sp, #10080]
    2594:	f913b7ff 	str	xzr, [sp, #10088]
    2598:	3dc11100 	ldr	q0, [x8, #1088]
    259c:	3d810d00 	str	q0, [x8, #1072]
    25a0:	52800029 	mov	w9, #0x1                   	// #1
    25a4:	f913c3e9 	str	x9, [sp, #10112]
    25a8:	f913c7ff 	str	xzr, [sp, #10120]
    25ac:	3dc11900 	ldr	q0, [x8, #1120]
    25b0:	3d811500 	str	q0, [x8, #1104]
    25b4:	52800049 	mov	w9, #0x2                   	// #2
    25b8:	f913d3e9 	str	x9, [sp, #10144]
    25bc:	f913d7ff 	str	xzr, [sp, #10152]
    25c0:	3dc12100 	ldr	q0, [x8, #1152]
    25c4:	3d811d00 	str	q0, [x8, #1136]
    25c8:	52800069 	mov	w9, #0x3                   	// #3
    25cc:	f913e3e9 	str	x9, [sp, #10176]
    25d0:	f913e7ff 	str	xzr, [sp, #10184]
    25d4:	3dc12900 	ldr	q0, [x8, #1184]
    25d8:	3d812500 	str	q0, [x8, #1168]
    25dc:	3dc10d00 	ldr	q0, [x8, #1072]
    25e0:	91400be1 	add	x1, sp, #0x2, lsl #12
    25e4:	911c4021 	add	x1, x1, #0x710
    25e8:	3d80fd00 	str	q0, [x8, #1008]
    25ec:	3dc11500 	ldr	q0, [x8, #1104]
    25f0:	3d810100 	str	q0, [x8, #1024]
    25f4:	3dc11d00 	ldr	q0, [x8, #1136]
    25f8:	3d810500 	str	q0, [x8, #1040]
    25fc:	3dc12500 	ldr	q0, [x8, #1168]
    2600:	3d810900 	str	q0, [x8, #1056]
    2604:	91400be0 	add	x0, sp, #0x2, lsl #12
    2608:	911b4000 	add	x0, x0, #0x6d0
    260c:	f906afe0 	str	x0, [sp, #3416]
    2610:	94000000 	bl	0 <_memcpy>
    2614:	f946b3e2 	ldr	x2, [sp, #3424]
    2618:	f946b7e8 	ldr	x8, [sp, #3432]
    261c:	3dc0e900 	ldr	q0, [x8, #928]
    2620:	91400be1 	add	x1, sp, #0x2, lsl #12
    2624:	91224021 	add	x1, x1, #0x890
    2628:	3d815d00 	str	q0, [x8, #1392]
    262c:	3dc0e900 	ldr	q0, [x8, #928]
    2630:	3d816100 	str	q0, [x8, #1408]
    2634:	3dc0e900 	ldr	q0, [x8, #928]
    2638:	3d816500 	str	q0, [x8, #1424]
    263c:	3dc0e900 	ldr	q0, [x8, #928]
    2640:	3d816900 	str	q0, [x8, #1440]
    2644:	91400be0 	add	x0, sp, #0x2, lsl #12
    2648:	91214000 	add	x0, x0, #0x850
    264c:	94000000 	bl	0 <_memcpy>
    2650:	f946afe1 	ldr	x1, [sp, #3416]
    2654:	f946b3e2 	ldr	x2, [sp, #3424]
    2658:	91400be0 	add	x0, sp, #0x2, lsl #12
    265c:	91238000 	add	x0, x0, #0x8e0
    2660:	94000000 	bl	0 <_memcpy>
    2664:	f946b7e8 	ldr	x8, [sp, #3432]
    2668:	f946bbe9 	ldr	x9, [sp, #3440]
    266c:	3dc14d00 	ldr	q0, [x8, #1328]
    2670:	3d805120 	str	q0, [x9, #320]
    2674:	3dc17100 	ldr	q0, [x8, #1472]
    2678:	3d804d20 	str	q0, [x9, #304]
    267c:	3dc05120 	ldr	q0, [x9, #320]
    2680:	914013e0 	add	x0, sp, #0x4, lsl #12
    2684:	91130000 	add	x0, x0, #0x4c0
    2688:	3d804920 	str	q0, [x9, #288]
    268c:	3dc04d20 	ldr	q0, [x9, #304]
    2690:	3d805520 	str	q0, [x9, #336]
    2694:	3907bd3f 	strb	wzr, [x9, #495]
    2698:	52800028 	mov	w8, #0x1                   	// #1
    269c:	3907bd28 	strb	w8, [x9, #495]
    26a0:	914013e8 	add	x8, sp, #0x4, lsl #12
    26a4:	91144108 	add	x8, x8, #0x510
    26a8:	90000001 	adrp	x1, d438 <l_alloc_8993d95a2b5eb1e10afdc3dee81c8c60>
    26ac:	91000021 	add	x1, x1, #0x0
    26b0:	94000000 	bl	0 <_<T as core::convert::Into<U>>::into>
    26b4:	14000009 	b	26d8 <_<rand_chacha::chacha::ChaCha12Core as rand_core::block::BlockRngCore>::generate+0x398>
    26b8:	f946bbe8 	ldr	x8, [sp, #3440]
    26bc:	f922cbe0 	str	x0, [sp, #17808]
    26c0:	aa0103e9 	mov	x9, x1
    26c4:	911673ea 	add	x10, sp, #0x59c
    26c8:	b93ffd49 	str	w9, [x10, #16380]
    26cc:	3947bd08 	ldrb	w8, [x8, #495]
    26d0:	37000488 	tbnz	w8, #0, 2760 <_<rand_chacha::chacha::ChaCha12Core as rand_core::block::BlockRngCore>::generate+0x420>
    26d4:	14000020 	b	2754 <_<rand_chacha::chacha::ChaCha12Core as rand_core::block::BlockRngCore>::generate+0x414>
    26d8:	f946bbe8 	ldr	x8, [sp, #3440]
    26dc:	3907bd1f 	strb	wzr, [x8, #495]
    26e0:	3dc05500 	ldr	q0, [x8, #336]
    26e4:	914013e0 	add	x0, sp, #0x4, lsl #12
    26e8:	9114c000 	add	x0, x0, #0x530
    26ec:	3d806500 	str	q0, [x8, #400]
    26f0:	914013e8 	add	x8, sp, #0x4, lsl #12
    26f4:	91148108 	add	x8, x8, #0x520
    26f8:	90000001 	adrp	x1, d450 <l_alloc_77ee8835248a1929d048736225bc495f>
    26fc:	91000021 	add	x1, x1, #0x0
    2700:	94000000 	bl	0 <_<T as core::convert::Into<U>>::into>
    2704:	14000001 	b	2708 <_<rand_chacha::chacha::ChaCha12Core as rand_core::block::BlockRngCore>::generate+0x3c8>
    2708:	f946bbe8 	ldr	x8, [sp, #3440]
    270c:	3dc05d00 	ldr	q0, [x8, #368]
    2710:	3d806900 	str	q0, [x8, #416]
    2714:	3dc06100 	ldr	q0, [x8, #384]
    2718:	3d806d00 	str	q0, [x8, #432]
    271c:	f962a3e1 	ldr	x1, [sp, #17728]
    2720:	f962abe2 	ldr	x2, [sp, #17744]
    2724:	914013e0 	add	x0, sp, #0x4, lsl #12
    2728:	91143c00 	add	x0, x0, #0x50f
    272c:	94000000 	bl	0 <_<ppv_lite86::generic::u64x2_generic as core::ops::arith::Add>::add::{{closure}}>
    2730:	f9067fe0 	str	x0, [sp, #3320]
    2734:	14000001 	b	2738 <_<rand_chacha::chacha::ChaCha12Core as rand_core::block::BlockRngCore>::generate+0x3f8>
    2738:	f962a7e1 	ldr	x1, [sp, #17736]
    273c:	f962afe2 	ldr	x2, [sp, #17752]
    2740:	914013e0 	add	x0, sp, #0x4, lsl #12
    2744:	91143c00 	add	x0, x0, #0x50f
    2748:	94000000 	bl	0 <_<ppv_lite86::generic::u64x2_generic as core::ops::arith::Add>::add::{{closure}}>
    274c:	f9067be0 	str	x0, [sp, #3312]
    2750:	14000005 	b	2764 <_<rand_chacha::chacha::ChaCha12Core as rand_core::block::BlockRngCore>::generate+0x424>
    2754:	f962cbe8 	ldr	x8, [sp, #17808]
    2758:	f90677e8 	str	x8, [sp, #3304]
    275c:	14002692 	b	c1a4 <_<rand_chacha::chacha::ChaCha12Core as rand_core::block::BlockRngCore>::generate+0x9e64>
    2760:	17fffffd 	b	2754 <_<rand_chacha::chacha::ChaCha12Core as rand_core::block::BlockRngCore>::generate+0x414>
    2764:	f946bbe9 	ldr	x9, [sp, #3440]
    2768:	f946b7e8 	ldr	x8, [sp, #3432]
    276c:	f9467bea 	ldr	x10, [sp, #3312]
    2770:	f9467feb 	ldr	x11, [sp, #3320]
    2774:	f922bfeb 	str	x11, [sp, #17784]
    2778:	f922c3ea 	str	x10, [sp, #17792]
    277c:	914013ea 	add	x10, sp, #0x4, lsl #12
    2780:	9111e54a 	add	x10, x10, #0x479
    2784:	3ccff140 	ldur	q0, [x10, #255]
    2788:	3d807120 	str	q0, [x9, #448]
    278c:	3dc07120 	ldr	q0, [x9, #448]
    2790:	3d808120 	str	q0, [x9, #512]
    2794:	3dc08120 	ldr	q0, [x9, #512]
    2798:	3d808520 	str	q0, [x9, #528]
    279c:	3dc08520 	ldr	q0, [x9, #528]
    27a0:	3d857500 	str	q0, [x8, #5584]
    27a4:	3dc15100 	ldr	q0, [x8, #1344]
    27a8:	3d801120 	str	q0, [x9, #64]
    27ac:	3dc17500 	ldr	q0, [x8, #1488]
    27b0:	3d800d20 	str	q0, [x9, #48]
    27b4:	3dc01120 	ldr	q0, [x9, #64]
    27b8:	914013e0 	add	x0, sp, #0x4, lsl #12
    27bc:	910f0000 	add	x0, x0, #0x3c0
    27c0:	3d800920 	str	q0, [x9, #32]
    27c4:	3dc00d20 	ldr	q0, [x9, #48]
    27c8:	3d801520 	str	q0, [x9, #80]
    27cc:	3903bd3f 	strb	wzr, [x9, #239]
    27d0:	52800028 	mov	w8, #0x1                   	// #1
    27d4:	3903bd28 	strb	w8, [x9, #239]
    27d8:	914013e8 	add	x8, sp, #0x4, lsl #12
    27dc:	91104108 	add	x8, x8, #0x410
    27e0:	90000001 	adrp	x1, d438 <l_alloc_8993d95a2b5eb1e10afdc3dee81c8c60>
    27e4:	91000021 	add	x1, x1, #0x0
    27e8:	94000000 	bl	0 <_<T as core::convert::Into<U>>::into>
    27ec:	14000009 	b	2810 <_<rand_chacha::chacha::ChaCha12Core as rand_core::block::BlockRngCore>::generate+0x4d0>
    27f0:	f946bbe8 	ldr	x8, [sp, #3440]
    27f4:	f9224be0 	str	x0, [sp, #17552]
    27f8:	aa0103e9 	mov	x9, x1
    27fc:	911273ea 	add	x10, sp, #0x49c
    2800:	b93ffd49 	str	w9, [x10, #16380]
    2804:	3943bd08 	ldrb	w8, [x8, #239]
    2808:	370004e8 	tbnz	w8, #0, 28a4 <_<rand_chacha::chacha::ChaCha12Core as rand_core::block::BlockRngCore>::generate+0x564>
    280c:	14000020 	b	288c <_<rand_chacha::chacha::ChaCha12Core as rand_core::block::BlockRngCore>::generate+0x54c>
    2810:	f946bbe8 	ldr	x8, [sp, #3440]
    2814:	3903bd1f 	strb	wzr, [x8, #239]
    2818:	3dc01500 	ldr	q0, [x8, #80]
    281c:	914013e0 	add	x0, sp, #0x4, lsl #12
    2820:	9110c000 	add	x0, x0, #0x430
    2824:	3d802500 	str	q0, [x8, #144]
    2828:	914013e8 	add	x8, sp, #0x4, lsl #12
    282c:	91108108 	add	x8, x8, #0x420
    2830:	90000001 	adrp	x1, d450 <l_alloc_77ee8835248a1929d048736225bc495f>
    2834:	91000021 	add	x1, x1, #0x0
    2838:	94000000 	bl	0 <_<T as core::convert::Into<U>>::into>
    283c:	14000001 	b	2840 <_<rand_chacha::chacha::ChaCha12Core as rand_core::block::BlockRngCore>::generate+0x500>
    2840:	f946bbe8 	ldr	x8, [sp, #3440]
    2844:	3dc01d00 	ldr	q0, [x8, #112]
    2848:	3d802900 	str	q0, [x8, #160]
    284c:	3dc02100 	ldr	q0, [x8, #128]
    2850:	3d802d00 	str	q0, [x8, #176]
    2854:	f96223e1 	ldr	x1, [sp, #17472]
    2858:	f9622be2 	ldr	x2, [sp, #17488]
    285c:	914013e0 	add	x0, sp, #0x4, lsl #12
    2860:	91103c00 	add	x0, x0, #0x40f
    2864:	94000000 	bl	0 <_<ppv_lite86::generic::u64x2_generic as core::ops::arith::Add>::add::{{closure}}>
    2868:	f90673e0 	str	x0, [sp, #3296]
    286c:	14000001 	b	2870 <_<rand_chacha::chacha::ChaCha12Core as rand_core::block::BlockRngCore>::generate+0x530>
    2870:	f96227e1 	ldr	x1, [sp, #17480]
    2874:	f9622fe2 	ldr	x2, [sp, #17496]
    2878:	914013e0 	add	x0, sp, #0x4, lsl #12
    287c:	91103c00 	add	x0, x0, #0x40f
    2880:	94000000 	bl	0 <_<ppv_lite86::generic::u64x2_generic as core::ops::arith::Add>::add::{{closure}}>
    2884:	f9066fe0 	str	x0, [sp, #3288]
    2888:	14000008 	b	28a8 <_<rand_chacha::chacha::ChaCha12Core as rand_core::block::BlockRngCore>::generate+0x568>
    288c:	f9624be8 	ldr	x8, [sp, #17552]
    2890:	f90667e8 	str	x8, [sp, #3272]
    2894:	911273e8 	add	x8, sp, #0x49c
    2898:	b97ffd08 	ldr	w8, [x8, #16380]
    289c:	b90cd7e8 	str	w8, [sp, #3284]
    28a0:	14000016 	b	28f8 <_<rand_chacha::chacha::ChaCha12Core as rand_core::block::BlockRngCore>::generate+0x5b8>
    28a4:	17fffffa 	b	288c <_<rand_chacha::chacha::ChaCha12Core as rand_core::block::BlockRngCore>::generate+0x54c>
    28a8:	f946b7e8 	ldr	x8, [sp, #3432]
    28ac:	f946bbe9 	ldr	x9, [sp, #3440]
    28b0:	f9466fea 	ldr	x10, [sp, #3288]
    28b4:	f94673eb 	ldr	x11, [sp, #3296]
    28b8:	f9223feb 	str	x11, [sp, #17528]
    28bc:	f92243ea 	str	x10, [sp, #17536]
    28c0:	914013ea 	add	x10, sp, #0x4, lsl #12
    28c4:	910de54a 	add	x10, x10, #0x379
    28c8:	3ccff140 	ldur	q0, [x10, #255]
    28cc:	3d803120 	str	q0, [x9, #192]
    28d0:	3dc03120 	ldr	q0, [x9, #192]
    28d4:	3d804120 	str	q0, [x9, #256]
    28d8:	3dc04120 	ldr	q0, [x9, #256]
    28dc:	3d804520 	str	q0, [x9, #272]
    28e0:	3dc04520 	ldr	q0, [x9, #272]
    28e4:	3d857900 	str	q0, [x8, #5600]
    28e8:	14000009 	b	290c <_<rand_chacha::chacha::ChaCha12Core as rand_core::block::BlockRngCore>::generate+0x5cc>
    28ec:	f95c9be8 	ldr	x8, [sp, #14640]
    28f0:	f90677e8 	str	x8, [sp, #3304]
    28f4:	1400262c 	b	c1a4 <_<rand_chacha::chacha::ChaCha12Core as rand_core::block::BlockRngCore>::generate+0x9e64>
    28f8:	b94cd7e8 	ldr	w8, [sp, #3284]
    28fc:	f94667e9 	ldr	x9, [sp, #3272]
    2900:	f91c9be9 	str	x9, [sp, #14640]
    2904:	b9393be8 	str	w8, [sp, #14648]
    2908:	17fffff9 	b	28ec <_<rand_chacha::chacha::ChaCha12Core as rand_core::block::BlockRngCore>::generate+0x5ac>
    290c:	f94697e9 	ldr	x9, [sp, #3368]
    2910:	f946b7e8 	ldr	x8, [sp, #3432]
    2914:	3dc15500 	ldr	q0, [x8, #1360]
    2918:	3c851120 	stur	q0, [x9, #81]
    291c:	3dc17900 	ldr	q0, [x8, #1504]
    2920:	3c841120 	stur	q0, [x9, #65]
    2924:	3cc51120 	ldur	q0, [x9, #81]
    2928:	914013e0 	add	x0, sp, #0x4, lsl #12
    292c:	910b0000 	add	x0, x0, #0x2c0
    2930:	3c831120 	stur	q0, [x9, #49]
    2934:	3cc41120 	ldur	q0, [x9, #65]
    2938:	3c861120 	stur	q0, [x9, #97]
    293c:	3904013f 	strb	wzr, [x9, #256]
    2940:	52800028 	mov	w8, #0x1                   	// #1
    2944:	39040128 	strb	w8, [x9, #256]
    2948:	914013e8 	add	x8, sp, #0x4, lsl #12
    294c:	910c4108 	add	x8, x8, #0x310
    2950:	90000001 	adrp	x1, d438 <l_alloc_8993d95a2b5eb1e10afdc3dee81c8c60>
    2954:	91000021 	add	x1, x1, #0x0
    2958:	94000000 	bl	0 <_<T as core::convert::Into<U>>::into>
    295c:	14000009 	b	2980 <_<rand_chacha::chacha::ChaCha12Core as rand_core::block::BlockRngCore>::generate+0x640>
    2960:	f94697e8 	ldr	x8, [sp, #3368]
    2964:	f921cbe0 	str	x0, [sp, #17296]
    2968:	aa0103e9 	mov	x9, x1
    296c:	910e73ea 	add	x10, sp, #0x39c
    2970:	b93ffd49 	str	w9, [x10, #16380]
    2974:	39440108 	ldrb	w8, [x8, #256]
    2978:	370004e8 	tbnz	w8, #0, 2a14 <_<rand_chacha::chacha::ChaCha12Core as rand_core::block::BlockRngCore>::generate+0x6d4>
    297c:	14000020 	b	29fc <_<rand_chacha::chacha::ChaCha12Core as rand_core::block::BlockRngCore>::generate+0x6bc>
    2980:	f94697e8 	ldr	x8, [sp, #3368]
    2984:	3904011f 	strb	wzr, [x8, #256]
    2988:	3cc61100 	ldur	q0, [x8, #97]
    298c:	914013e0 	add	x0, sp, #0x4, lsl #12
    2990:	910cc000 	add	x0, x0, #0x330
    2994:	3c8a1100 	stur	q0, [x8, #161]
    2998:	914013e8 	add	x8, sp, #0x4, lsl #12
    299c:	910c8108 	add	x8, x8, #0x320
    29a0:	90000001 	adrp	x1, d450 <l_alloc_77ee8835248a1929d048736225bc495f>
    29a4:	91000021 	add	x1, x1, #0x0
    29a8:	94000000 	bl	0 <_<T as core::convert::Into<U>>::into>
    29ac:	14000001 	b	29b0 <_<rand_chacha::chacha::ChaCha12Core as rand_core::block::BlockRngCore>::generate+0x670>
    29b0:	f94697e8 	ldr	x8, [sp, #3368]
    29b4:	3cc81100 	ldur	q0, [x8, #129]
    29b8:	3c8b1100 	stur	q0, [x8, #177]
    29bc:	3cc91100 	ldur	q0, [x8, #145]
    29c0:	3c8c1100 	stur	q0, [x8, #193]
    29c4:	f961a3e1 	ldr	x1, [sp, #17216]
    29c8:	f961abe2 	ldr	x2, [sp, #17232]
    29cc:	914013e0 	add	x0, sp, #0x4, lsl #12
    29d0:	910c3c00 	add	x0, x0, #0x30f
    29d4:	94000000 	bl	0 <_<ppv_lite86::generic::u64x2_generic as core::ops::arith::Add>::add::{{closure}}>
    29d8:	f90663e0 	str	x0, [sp, #3264]
    29dc:	14000001 	b	29e0 <_<rand_chacha::chacha::ChaCha12Core as rand_core::block::BlockRngCore>::generate+0x6a0>
    29e0:	f961a7e1 	ldr	x1, [sp, #17224]
    29e4:	f961afe2 	ldr	x2, [sp, #17240]
    29e8:	914013e0 	add	x0, sp, #0x4, lsl #12
    29ec:	910c3c00 	add	x0, x0, #0x30f
    29f0:	94000000 	bl	0 <_<ppv_lite86::generic::u64x2_generic as core::ops::arith::Add>::add::{{closure}}>
    29f4:	f9065fe0 	str	x0, [sp, #3256]
    29f8:	14000008 	b	2a18 <_<rand_chacha::chacha::ChaCha12Core as rand_core::block::BlockRngCore>::generate+0x6d8>
    29fc:	f961cbe8 	ldr	x8, [sp, #17296]
    2a00:	f90657e8 	str	x8, [sp, #3240]
    2a04:	910e73e8 	add	x8, sp, #0x39c
    2a08:	b97ffd08 	ldr	w8, [x8, #16380]
    2a0c:	b90cb7e8 	str	w8, [sp, #3252]
    2a10:	14000015 	b	2a64 <_<rand_chacha::chacha::ChaCha12Core as rand_core::block::BlockRngCore>::generate+0x724>
    2a14:	17fffffa 	b	29fc <_<rand_chacha::chacha::ChaCha12Core as rand_core::block::BlockRngCore>::generate+0x6bc>
    2a18:	f946b7e8 	ldr	x8, [sp, #3432]
    2a1c:	f946bbe9 	ldr	x9, [sp, #3440]
    2a20:	f94697ea 	ldr	x10, [sp, #3368]
    2a24:	f9465feb 	ldr	x11, [sp, #3256]
    2a28:	f94663ec 	ldr	x12, [sp, #3264]
    2a2c:	f921bfec 	str	x12, [sp, #17272]
    2a30:	f921c3eb 	str	x11, [sp, #17280]
    2a34:	914013eb 	add	x11, sp, #0x4, lsl #12
    2a38:	9109e56b 	add	x11, x11, #0x279
    2a3c:	3ccff160 	ldur	q0, [x11, #255]
    2a40:	3c8d1140 	stur	q0, [x10, #209]
    2a44:	3ccd1140 	ldur	q0, [x10, #209]
    2a48:	3d800120 	str	q0, [x9]
    2a4c:	3dc00120 	ldr	q0, [x9]
    2a50:	3d800520 	str	q0, [x9, #16]
    2a54:	3dc00520 	ldr	q0, [x9, #16]
    2a58:	3d857d00 	str	q0, [x8, #5616]
    2a5c:	14000007 	b	2a78 <_<rand_chacha::chacha::ChaCha12Core as rand_core::block::BlockRngCore>::generate+0x738>
    2a60:	17ffffa3 	b	28ec <_<rand_chacha::chacha::ChaCha12Core as rand_core::block::BlockRngCore>::generate+0x5ac>
    2a64:	b94cb7e8 	ldr	w8, [sp, #3252]
    2a68:	f94657e9 	ldr	x9, [sp, #3240]
    2a6c:	f91c9be9 	str	x9, [sp, #14640]
    2a70:	b9393be8 	str	w8, [sp, #14648]
    2a74:	17fffffb 	b	2a60 <_<rand_chacha::chacha::ChaCha12Core as rand_core::block::BlockRngCore>::generate+0x720>
    2a78:	f94697e9 	ldr	x9, [sp, #3368]
    2a7c:	f946b7e8 	ldr	x8, [sp, #3432]
    2a80:	3dc15900 	ldr	q0, [x8, #1376]
    2a84:	3d87b100 	str	q0, [x8, #7872]
    2a88:	3dc17d00 	ldr	q0, [x8, #1520]
    2a8c:	3d87ad00 	str	q0, [x8, #7856]
    2a90:	3dc7b100 	ldr	q0, [x8, #7872]
    2a94:	914013e0 	add	x0, sp, #0x4, lsl #12
    2a98:	91070000 	add	x0, x0, #0x1c0
    2a9c:	3d87a900 	str	q0, [x8, #7840]
    2aa0:	3dc7ad00 	ldr	q0, [x8, #7856]
    2aa4:	3d87b500 	str	q0, [x8, #7888]
    2aa8:	3900013f 	strb	wzr, [x9]
    2aac:	52800028 	mov	w8, #0x1                   	// #1
    2ab0:	39000128 	strb	w8, [x9]
    2ab4:	914013e8 	add	x8, sp, #0x4, lsl #12
    2ab8:	91084108 	add	x8, x8, #0x210
    2abc:	90000001 	adrp	x1, d438 <l_alloc_8993d95a2b5eb1e10afdc3dee81c8c60>
    2ac0:	91000021 	add	x1, x1, #0x0
    2ac4:	94000000 	bl	0 <_<T as core::convert::Into<U>>::into>
    2ac8:	14000009 	b	2aec <_<rand_chacha::chacha::ChaCha12Core as rand_core::block::BlockRngCore>::generate+0x7ac>
    2acc:	f94697e8 	ldr	x8, [sp, #3368]
    2ad0:	f9214be0 	str	x0, [sp, #17040]
    2ad4:	aa0103e9 	mov	x9, x1
    2ad8:	910a73ea 	add	x10, sp, #0x29c
    2adc:	b93ffd49 	str	w9, [x10, #16380]
    2ae0:	39400108 	ldrb	w8, [x8]
    2ae4:	37000508 	tbnz	w8, #0, 2b84 <_<rand_chacha::chacha::ChaCha12Core as rand_core::block::BlockRngCore>::generate+0x844>
    2ae8:	14000021 	b	2b6c <_<rand_chacha::chacha::ChaCha12Core as rand_core::block::BlockRngCore>::generate+0x82c>
    2aec:	f946b7e8 	ldr	x8, [sp, #3432]
    2af0:	f94697e9 	ldr	x9, [sp, #3368]
    2af4:	3900013f 	strb	wzr, [x9]
    2af8:	3dc7b500 	ldr	q0, [x8, #7888]
    2afc:	914013e0 	add	x0, sp, #0x4, lsl #12
    2b00:	9108c000 	add	x0, x0, #0x230
    2b04:	3d87c500 	str	q0, [x8, #7952]
    2b08:	914013e8 	add	x8, sp, #0x4, lsl #12
    2b0c:	91088108 	add	x8, x8, #0x220
    2b10:	90000001 	adrp	x1, d450 <l_alloc_77ee8835248a1929d048736225bc495f>
    2b14:	91000021 	add	x1, x1, #0x0
    2b18:	94000000 	bl	0 <_<T as core::convert::Into<U>>::into>
    2b1c:	14000001 	b	2b20 <_<rand_chacha::chacha::ChaCha12Core as rand_core::block::BlockRngCore>::generate+0x7e0>
    2b20:	f946b7e8 	ldr	x8, [sp, #3432]
    2b24:	3dc7bd00 	ldr	q0, [x8, #7920]
    2b28:	3d87c900 	str	q0, [x8, #7968]
    2b2c:	3dc7c100 	ldr	q0, [x8, #7936]
    2b30:	3d87cd00 	str	q0, [x8, #7984]
    2b34:	f96123e1 	ldr	x1, [sp, #16960]
    2b38:	f9612be2 	ldr	x2, [sp, #16976]
    2b3c:	914013e0 	add	x0, sp, #0x4, lsl #12
    2b40:	91083c00 	add	x0, x0, #0x20f
    2b44:	94000000 	bl	0 <_<ppv_lite86::generic::u64x2_generic as core::ops::arith::Add>::add::{{closure}}>
    2b48:	f90653e0 	str	x0, [sp, #3232]
    2b4c:	14000001 	b	2b50 <_<rand_chacha::chacha::ChaCha12Core as rand_core::block::BlockRngCore>::generate+0x810>
    2b50:	f96127e1 	ldr	x1, [sp, #16968]
    2b54:	f9612fe2 	ldr	x2, [sp, #16984]
    2b58:	914013e0 	add	x0, sp, #0x4, lsl #12
    2b5c:	91083c00 	add	x0, x0, #0x20f
    2b60:	94000000 	bl	0 <_<ppv_lite86::generic::u64x2_generic as core::ops::arith::Add>::add::{{closure}}>
    2b64:	f9064fe0 	str	x0, [sp, #3224]
    2b68:	14000008 	b	2b88 <_<rand_chacha::chacha::ChaCha12Core as rand_core::block::BlockRngCore>::generate+0x848>
    2b6c:	f9614be8 	ldr	x8, [sp, #17040]
    2b70:	f90647e8 	str	x8, [sp, #3208]
    2b74:	910a73e8 	add	x8, sp, #0x29c
    2b78:	b97ffd08 	ldr	w8, [x8, #16380]
    2b7c:	b90c97e8 	str	w8, [sp, #3220]
    2b80:	14000013 	b	2bcc <_<rand_chacha::chacha::ChaCha12Core as rand_core::block::BlockRngCore>::generate+0x88c>
    2b84:	17fffffa 	b	2b6c <_<rand_chacha::chacha::ChaCha12Core as rand_core::block::BlockRngCore>::generate+0x82c>
    2b88:	f946b7e8 	ldr	x8, [sp, #3432]
    2b8c:	f94697e9 	ldr	x9, [sp, #3368]
    2b90:	f9464fea 	ldr	x10, [sp, #3224]
    2b94:	f94653eb 	ldr	x11, [sp, #3232]
    2b98:	f9213feb 	str	x11, [sp, #17016]
    2b9c:	f92143ea 	str	x10, [sp, #17024]
    2ba0:	914013ea 	add	x10, sp, #0x4, lsl #12
    2ba4:	9105e54a 	add	x10, x10, #0x179
    2ba8:	3ccff140 	ldur	q0, [x10, #255]
    2bac:	3d87d100 	str	q0, [x8, #8000]
    2bb0:	3dc7d100 	ldr	q0, [x8, #8000]
    2bb4:	3c811120 	stur	q0, [x9, #17]
    2bb8:	3cc11120 	ldur	q0, [x9, #17]
    2bbc:	3c821120 	stur	q0, [x9, #33]
    2bc0:	3cc21120 	ldur	q0, [x9, #33]
    2bc4:	3d858100 	str	q0, [x8, #5632]
    2bc8:	14000006 	b	2be0 <_<rand_chacha::chacha::ChaCha12Core as rand_core::block::BlockRngCore>::generate+0x8a0>
    2bcc:	b94c97e8 	ldr	w8, [sp, #3220]
    2bd0:	f94647e9 	ldr	x9, [sp, #3208]
    2bd4:	f91c9be9 	str	x9, [sp, #14640]
    2bd8:	b9393be8 	str	w8, [sp, #14648]
    2bdc:	17ffffa1 	b	2a60 <_<rand_chacha::chacha::ChaCha12Core as rand_core::block::BlockRngCore>::generate+0x720>
    2be0:	f946b7e8 	ldr	x8, [sp, #3432]
    2be4:	3dc57500 	ldr	q0, [x8, #5584]
    2be8:	91400fe1 	add	x1, sp, #0x3, lsl #12
    2bec:	9122c021 	add	x1, x1, #0x8b0
    2bf0:	3d856500 	str	q0, [x8, #5520]
    2bf4:	3dc57900 	ldr	q0, [x8, #5600]
    2bf8:	3d856900 	str	q0, [x8, #5536]
    2bfc:	3dc57d00 	ldr	q0, [x8, #5616]
    2c00:	3d856d00 	str	q0, [x8, #5552]
    2c04:	3dc58100 	ldr	q0, [x8, #5632]
    2c08:	3d857100 	str	q0, [x8, #5568]
    2c0c:	91400be0 	add	x0, sp, #0x2, lsl #12
    2c10:	91204000 	add	x0, x0, #0x810
    2c14:	f9062fe0 	str	x0, [sp, #3160]
    2c18:	52800808 	mov	w8, #0x40                  	// #64
    2c1c:	aa0803e2 	mov	x2, x8
    2c20:	f90643e2 	str	x2, [sp, #3200]
    2c24:	94000000 	bl	0 <_memcpy>
    2c28:	f9462fe0 	ldr	x0, [sp, #3160]
    2c2c:	91400be8 	add	x8, sp, #0x2, lsl #12
    2c30:	911f4108 	add	x8, x8, #0x7d0
    2c34:	f90633e8 	str	x8, [sp, #3168]
    2c38:	90000001 	adrp	x1, d568 <l_alloc_e32af199185f4c8353045deb01caf697>
    2c3c:	91000021 	add	x1, x1, #0x0
    2c40:	94000000 	bl	0 <_<T as core::convert::Into<U>>::into>
    2c44:	f94633e1 	ldr	x1, [sp, #3168]
    2c48:	f94643e2 	ldr	x2, [sp, #3200]
    2c4c:	91400be0 	add	x0, sp, #0x2, lsl #12
    2c50:	91288000 	add	x0, x0, #0xa20
    2c54:	f90637e0 	str	x0, [sp, #3176]
    2c58:	94000000 	bl	0 <_memcpy>
    2c5c:	f94637e1 	ldr	x1, [sp, #3176]
    2c60:	f94643e2 	ldr	x2, [sp, #3200]
    2c64:	91400be0 	add	x0, sp, #0x2, lsl #12
    2c68:	91248000 	add	x0, x0, #0x920
    2c6c:	94000000 	bl	0 <_memcpy>
    2c70:	f946b7e8 	ldr	x8, [sp, #3432]
    2c74:	f94643e2 	ldr	x2, [sp, #3200]
    2c78:	3dc18100 	ldr	q0, [x8, #1536]
    2c7c:	3d81a500 	str	q0, [x8, #1680]
    2c80:	3dc1a500 	ldr	q0, [x8, #1680]
    2c84:	3d849900 	str	q0, [x8, #4704]
    2c88:	3dc49900 	ldr	q0, [x8, #4704]
    2c8c:	3d81a100 	str	q0, [x8, #1664]
    2c90:	3dc18500 	ldr	q0, [x8, #1552]
    2c94:	3d81ad00 	str	q0, [x8, #1712]
    2c98:	3dc1ad00 	ldr	q0, [x8, #1712]
    2c9c:	3d849500 	str	q0, [x8, #4688]
    2ca0:	3dc49500 	ldr	q0, [x8, #4688]
    2ca4:	3d81a900 	str	q0, [x8, #1696]
    2ca8:	3dc18900 	ldr	q0, [x8, #1568]
    2cac:	3d81b500 	str	q0, [x8, #1744]
    2cb0:	3dc1b500 	ldr	q0, [x8, #1744]
    2cb4:	3d849100 	str	q0, [x8, #4672]
    2cb8:	3dc49100 	ldr	q0, [x8, #4672]
    2cbc:	3d81b100 	str	q0, [x8, #1728]
    2cc0:	3dc18d00 	ldr	q0, [x8, #1584]
    2cc4:	3d81bd00 	str	q0, [x8, #1776]
    2cc8:	3dc1bd00 	ldr	q0, [x8, #1776]
    2ccc:	3d848d00 	str	q0, [x8, #4656]
    2cd0:	3dc48d00 	ldr	q0, [x8, #4656]
    2cd4:	3d81b900 	str	q0, [x8, #1760]
    2cd8:	3dc1a100 	ldr	q0, [x8, #1664]
    2cdc:	91400be1 	add	x1, sp, #0x2, lsl #12
    2ce0:	91258021 	add	x1, x1, #0x960
    2ce4:	3d819100 	str	q0, [x8, #1600]
    2ce8:	3dc1a900 	ldr	q0, [x8, #1696]
    2cec:	3d819500 	str	q0, [x8, #1616]
    2cf0:	3dc1b100 	ldr	q0, [x8, #1728]
    2cf4:	3d819900 	str	q0, [x8, #1632]
    2cf8:	3dc1b900 	ldr	q0, [x8, #1760]
    2cfc:	3d819d00 	str	q0, [x8, #1648]
    2d00:	914007e0 	add	x0, sp, #0x1, lsl #12
    2d04:	9102c000 	add	x0, x0, #0xb0
    2d08:	f9063fe0 	str	x0, [sp, #3192]
    2d0c:	94000000 	bl	0 <_memcpy>
    2d10:	f94643e2 	ldr	x2, [sp, #3200]
    2d14:	9138c3e0 	add	x0, sp, #0xe30
    2d18:	f9063be0 	str	x0, [sp, #3184]
    2d1c:	913cc3e1 	add	x1, sp, #0xf30
    2d20:	94000000 	bl	0 <_memcpy>
    2d24:	f9463be8 	ldr	x8, [sp, #3184]
    2d28:	f94643e2 	ldr	x2, [sp, #3200]
    2d2c:	91010100 	add	x0, x8, #0x40
    2d30:	913ec3e1 	add	x1, sp, #0xfb0
    2d34:	94000000 	bl	0 <_memcpy>
    2d38:	f9463be8 	ldr	x8, [sp, #3184]
    2d3c:	f94643e2 	ldr	x2, [sp, #3200]
    2d40:	91020100 	add	x0, x8, #0x80
    2d44:	914007e1 	add	x1, sp, #0x1, lsl #12
    2d48:	9100c021 	add	x1, x1, #0x30
    2d4c:	94000000 	bl	0 <_memcpy>
    2d50:	f9463be8 	ldr	x8, [sp, #3184]
    2d54:	f9463fe1 	ldr	x1, [sp, #3192]
    2d58:	f94643e2 	ldr	x2, [sp, #3200]
    2d5c:	91030100 	add	x0, x8, #0xc0
    2d60:	94000000 	bl	0 <_memcpy>
    2d64:	52800000 	mov	w0, #0x0                   	// #0
    2d68:	528000c1 	mov	w1, #0x6                   	// #6
    2d6c:	94000000 	bl	0 <_<I as core::iter::traits::collect::IntoIterator>::into_iter>
    2d70:	b91103e0 	str	w0, [sp, #4352]
    2d74:	b91107e1 	str	w1, [sp, #4356]
    2d78:	14000001 	b	2d7c <_<rand_chacha::chacha::ChaCha12Core as rand_core::block::BlockRngCore>::generate+0xa3c>
    2d7c:	914007e0 	add	x0, sp, #0x1, lsl #12
    2d80:	91040000 	add	x0, x0, #0x100
    2d84:	94000000 	bl	0 <_core::iter::range::<impl core::iter::traits::iterator::Iterator for core::ops::range::Range<A>>::next>
    2d88:	b9110be0 	str	w0, [sp, #4360]
    2d8c:	b9110fe1 	str	w1, [sp, #4364]
    2d90:	b9510be8 	ldr	w8, [sp, #4360]
    2d94:	b403ee68 	cbz	x8, ab60 <_<rand_chacha::chacha::ChaCha12Core as rand_core::block::BlockRngCore>::generate+0x8820>
    2d98:	14000001 	b	2d9c <_<rand_chacha::chacha::ChaCha12Core as rand_core::block::BlockRngCore>::generate+0xa5c>
    2d9c:	9138c3e1 	add	x1, sp, #0xe30
    2da0:	914007e0 	add	x0, sp, #0x1, lsl #12
    2da4:	91084000 	add	x0, x0, #0x210
    2da8:	f90627e0 	str	x0, [sp, #3144]
    2dac:	52802008 	mov	w8, #0x100                 	// #256
    2db0:	aa0803e2 	mov	x2, x8
    2db4:	94000000 	bl	0 <_memcpy>
    2db8:	f94627e8 	ldr	x8, [sp, #3144]
    2dbc:	91010101 	add	x1, x8, #0x40
    2dc0:	91400be0 	add	x0, sp, #0x2, lsl #12
    2dc4:	913d8000 	add	x0, x0, #0xf60
    2dc8:	52800808 	mov	w8, #0x40                  	// #64
    2dcc:	aa0803e2 	mov	x2, x8
    2dd0:	f9062be2 	str	x2, [sp, #3152]
    2dd4:	94000000 	bl	0 <_memcpy>
    2dd8:	f94687e8 	ldr	x8, [sp, #3336]
    2ddc:	f946abe9 	ldr	x9, [sp, #3408]
    2de0:	f94627ea 	ldr	x10, [sp, #3144]
    2de4:	f946b7eb 	ldr	x11, [sp, #3432]
    2de8:	aa0a03ec 	mov	x12, x10
    2dec:	f93b9fec 	str	x12, [sp, #30520]
    2df0:	3dc31160 	ldr	q0, [x11, #3136]
    2df4:	3d840900 	str	q0, [x8, #4128]
    2df8:	f93dbfea 	str	x10, [sp, #31608]
    2dfc:	3dc10520 	ldr	q0, [x9, #1040]
    2e00:	3d853500 	str	q0, [x8, #5328]
    2e04:	3dc40900 	ldr	q0, [x8, #4128]
    2e08:	3d853100 	str	q0, [x8, #5312]
    2e0c:	3dc53500 	ldr	q0, [x8, #5328]
    2e10:	91401fe0 	add	x0, sp, #0x7, lsl #12
    2e14:	912e0000 	add	x0, x0, #0xb80
    2e18:	3d852d00 	str	q0, [x8, #5296]
    2e1c:	3dc53100 	ldr	q0, [x8, #5312]
    2e20:	91401fe1 	add	x1, sp, #0x7, lsl #12
    2e24:	912ec021 	add	x1, x1, #0xbb0
    2e28:	3d853900 	str	q0, [x8, #5344]
    2e2c:	91401fe8 	add	x8, sp, #0x7, lsl #12
    2e30:	912da108 	add	x8, x8, #0xb68
    2e34:	94000000 	bl	0 <_ppv_lite86::generic::dmap2>
    2e38:	f94687e8 	ldr	x8, [sp, #3336]
    2e3c:	f946abe9 	ldr	x9, [sp, #3408]
    2e40:	f94627ea 	ldr	x10, [sp, #3144]
    2e44:	f946b7eb 	ldr	x11, [sp, #3432]
    2e48:	91401fec 	add	x12, sp, #0x7, lsl #12
    2e4c:	9129a58c 	add	x12, x12, #0xa69
    2e50:	3ccff180 	ldur	q0, [x12, #255]
    2e54:	3d810520 	str	q0, [x9, #1040]
    2e58:	9100414a 	add	x10, x10, #0x10
    2e5c:	3dc31560 	ldr	q0, [x11, #3152]
    2e60:	3d840d00 	str	q0, [x8, #4144]
    2e64:	f93d8fea 	str	x10, [sp, #31512]
    2e68:	3dc10920 	ldr	q0, [x9, #1056]
    2e6c:	3d851d00 	str	q0, [x8, #5232]
    2e70:	3dc40d00 	ldr	q0, [x8, #4144]
    2e74:	3d851900 	str	q0, [x8, #5216]
    2e78:	3dc51d00 	ldr	q0, [x8, #5232]
    2e7c:	91401fe0 	add	x0, sp, #0x7, lsl #12
    2e80:	912c8000 	add	x0, x0, #0xb20
    2e84:	3d851500 	str	q0, [x8, #5200]
    2e88:	3dc51900 	ldr	q0, [x8, #5216]
    2e8c:	91401fe1 	add	x1, sp, #0x7, lsl #12
    2e90:	912d4021 	add	x1, x1, #0xb50
    2e94:	3d852100 	str	q0, [x8, #5248]
    2e98:	91401fe8 	add	x8, sp, #0x7, lsl #12
    2e9c:	912c2108 	add	x8, x8, #0xb08
    2ea0:	94000000 	bl	0 <_ppv_lite86::generic::dmap2>
    2ea4:	f94687e8 	ldr	x8, [sp, #3336]
    2ea8:	f946abe9 	ldr	x9, [sp, #3408]
    2eac:	f94627ea 	ldr	x10, [sp, #3144]
    2eb0:	f946b7eb 	ldr	x11, [sp, #3432]
    2eb4:	91401fec 	add	x12, sp, #0x7, lsl #12
    2eb8:	9128258c 	add	x12, x12, #0xa09
    2ebc:	3ccff180 	ldur	q0, [x12, #255]
    2ec0:	3d810920 	str	q0, [x9, #1056]
    2ec4:	9100814a 	add	x10, x10, #0x20
    2ec8:	3dc31960 	ldr	q0, [x11, #3168]
    2ecc:	3d841100 	str	q0, [x8, #4160]
    2ed0:	f93d5fea 	str	x10, [sp, #31416]
    2ed4:	3dc10d20 	ldr	q0, [x9, #1072]
    2ed8:	3d850500 	str	q0, [x8, #5136]
    2edc:	3dc41100 	ldr	q0, [x8, #4160]
    2ee0:	3d850100 	str	q0, [x8, #5120]
    2ee4:	3dc50500 	ldr	q0, [x8, #5136]
    2ee8:	91401fe0 	add	x0, sp, #0x7, lsl #12
    2eec:	912b0000 	add	x0, x0, #0xac0
    2ef0:	3d84fd00 	str	q0, [x8, #5104]
    2ef4:	3dc50100 	ldr	q0, [x8, #5120]
    2ef8:	91401fe1 	add	x1, sp, #0x7, lsl #12
    2efc:	912bc021 	add	x1, x1, #0xaf0
    2f00:	3d850900 	str	q0, [x8, #5152]
    2f04:	91401fe8 	add	x8, sp, #0x7, lsl #12
    2f08:	912aa108 	add	x8, x8, #0xaa8
    2f0c:	94000000 	bl	0 <_ppv_lite86::generic::dmap2>
    2f10:	f94687e8 	ldr	x8, [sp, #3336]
    2f14:	f946abe9 	ldr	x9, [sp, #3408]
    2f18:	f94627ea 	ldr	x10, [sp, #3144]
    2f1c:	f946b7eb 	ldr	x11, [sp, #3432]
    2f20:	91401fec 	add	x12, sp, #0x7, lsl #12
    2f24:	9126a58c 	add	x12, x12, #0x9a9
    2f28:	3ccff180 	ldur	q0, [x12, #255]
    2f2c:	3d810d20 	str	q0, [x9, #1072]
    2f30:	9100c14a 	add	x10, x10, #0x30
    2f34:	3dc31d60 	ldr	q0, [x11, #3184]
    2f38:	3d841500 	str	q0, [x8, #4176]
    2f3c:	f93d2fea 	str	x10, [sp, #31320]
    2f40:	3dc11120 	ldr	q0, [x9, #1088]
    2f44:	3d84ed00 	str	q0, [x8, #5040]
    2f48:	3dc41500 	ldr	q0, [x8, #4176]
    2f4c:	3d84e900 	str	q0, [x8, #5024]
    2f50:	3dc4ed00 	ldr	q0, [x8, #5040]
    2f54:	91401fe0 	add	x0, sp, #0x7, lsl #12
    2f58:	91298000 	add	x0, x0, #0xa60
    2f5c:	3d84e500 	str	q0, [x8, #5008]
    2f60:	3dc4e900 	ldr	q0, [x8, #5024]
    2f64:	91401fe1 	add	x1, sp, #0x7, lsl #12
    2f68:	912a4021 	add	x1, x1, #0xa90
    2f6c:	3d84f100 	str	q0, [x8, #5056]
    2f70:	91401fe8 	add	x8, sp, #0x7, lsl #12
    2f74:	91292108 	add	x8, x8, #0xa48
    2f78:	94000000 	bl	0 <_ppv_lite86::generic::dmap2>
    2f7c:	f946abe9 	ldr	x9, [sp, #3408]
    2f80:	f94627e8 	ldr	x8, [sp, #3144]
    2f84:	f9462be2 	ldr	x2, [sp, #3152]
    2f88:	91401fea 	add	x10, sp, #0x7, lsl #12
    2f8c:	9125254a 	add	x10, x10, #0x949
    2f90:	3ccff140 	ldur	q0, [x10, #255]
    2f94:	3d811120 	str	q0, [x9, #1088]
    2f98:	91030101 	add	x1, x8, #0xc0
    2f9c:	91400fe0 	add	x0, sp, #0x3, lsl #12
    2fa0:	91008000 	add	x0, x0, #0x20
    2fa4:	94000000 	bl	0 <_memcpy>
    2fa8:	f94627e1 	ldr	x1, [sp, #3144]
    2fac:	f9462be2 	ldr	x2, [sp, #3152]
    2fb0:	91400fe0 	add	x0, sp, #0x3, lsl #12
    2fb4:	91018000 	add	x0, x0, #0x60
    2fb8:	94000000 	bl	0 <_memcpy>
    2fbc:	f946b7e8 	ldr	x8, [sp, #3432]
    2fc0:	f946bbe9 	ldr	x9, [sp, #3440]
    2fc4:	3dc34100 	ldr	q0, [x8, #3328]
    2fc8:	3d82cd20 	str	q0, [x9, #2864]
    2fcc:	3dc35100 	ldr	q0, [x8, #3392]
    2fd0:	3d82c920 	str	q0, [x9, #2848]
    2fd4:	3dc2cd20 	ldr	q0, [x9, #2864]
    2fd8:	914013e0 	add	x0, sp, #0x4, lsl #12
    2fdc:	913ac000 	add	x0, x0, #0xeb0
    2fe0:	3d82c520 	str	q0, [x9, #2832]
    2fe4:	3dc2c920 	ldr	q0, [x9, #2848]
    2fe8:	3d82d120 	str	q0, [x9, #2880]
    2fec:	392f7d3f 	strb	wzr, [x9, #3039]
    2ff0:	52800028 	mov	w8, #0x1                   	// #1
    2ff4:	392f7d28 	strb	w8, [x9, #3039]
    2ff8:	914013e8 	add	x8, sp, #0x4, lsl #12
    2ffc:	913c0108 	add	x8, x8, #0xf00
    3000:	90000001 	adrp	x1, d408 <l_alloc_d6cd646a032ab5661bff8aa78f551e65>
    3004:	91000021 	add	x1, x1, #0x0
    3008:	94000000 	bl	0 <_<T as core::convert::Into<U>>::into>
    300c:	14000008 	b	302c <_<rand_chacha::chacha::ChaCha12Core as rand_core::block::BlockRngCore>::generate+0xcec>
    3010:	f946bbe8 	ldr	x8, [sp, #3440]
    3014:	f927c3e0 	str	x0, [sp, #20352]
    3018:	aa0103e9 	mov	x9, x1
    301c:	b90be909 	str	w9, [x8, #3048]
    3020:	396f7d08 	ldrb	w8, [x8, #3039]
    3024:	37000648 	tbnz	w8, #0, 30ec <_<rand_chacha::chacha::ChaCha12Core as rand_core::block::BlockRngCore>::generate+0xdac>
    3028:	1400002e 	b	30e0 <_<rand_chacha::chacha::ChaCha12Core as rand_core::block::BlockRngCore>::generate+0xda0>
    302c:	f946bbe8 	ldr	x8, [sp, #3440]
    3030:	392f7d1f 	strb	wzr, [x8, #3039]
    3034:	3dc2d100 	ldr	q0, [x8, #2880]
    3038:	914013e0 	add	x0, sp, #0x4, lsl #12
    303c:	913c8000 	add	x0, x0, #0xf20
    3040:	3d82e100 	str	q0, [x8, #2944]
    3044:	914013e8 	add	x8, sp, #0x4, lsl #12
    3048:	913c4108 	add	x8, x8, #0xf10
    304c:	90000001 	adrp	x1, d420 <l_alloc_eb8937521ab56b1815db886b021bd11a>
    3050:	91000021 	add	x1, x1, #0x0
    3054:	94000000 	bl	0 <_<T as core::convert::Into<U>>::into>
    3058:	14000001 	b	305c <_<rand_chacha::chacha::ChaCha12Core as rand_core::block::BlockRngCore>::generate+0xd1c>
    305c:	f946bbe8 	ldr	x8, [sp, #3440]
    3060:	3dc2d900 	ldr	q0, [x8, #2912]
    3064:	3d82e500 	str	q0, [x8, #2960]
    3068:	f9679beb 	ldr	x11, [sp, #20272]
    306c:	d2800009 	mov	x9, #0x0                   	// #0
    3070:	f927f7eb 	str	x11, [sp, #20456]
    3074:	f9679fea 	ldr	x10, [sp, #20280]
    3078:	f927f3ea 	str	x10, [sp, #20448]
    307c:	aa090161 	orr	x1, x11, x9
    3080:	aa0a0122 	orr	x2, x9, x10
    3084:	4e081c20 	mov	v0.d[0], x1
    3088:	4e181c40 	mov	v0.d[1], x2
    308c:	3d82fd00 	str	q0, [x8, #3056]
    3090:	3dc2dd00 	ldr	q0, [x8, #2928]
    3094:	3d82e900 	str	q0, [x8, #2976]
    3098:	f967a3eb 	ldr	x11, [sp, #20288]
    309c:	f927ffeb 	str	x11, [sp, #20472]
    30a0:	f967a7ea 	ldr	x10, [sp, #20296]
    30a4:	f927fbea 	str	x10, [sp, #20464]
    30a8:	aa090163 	orr	x3, x11, x9
    30ac:	aa0a0124 	orr	x4, x9, x10
    30b0:	4e081c60 	mov	v0.d[0], x3
    30b4:	4e181c80 	mov	v0.d[1], x4
    30b8:	3d830100 	str	q0, [x8, #3072]
    30bc:	914013e0 	add	x0, sp, #0x4, lsl #12
    30c0:	913bfc00 	add	x0, x0, #0xeff
    30c4:	94000000 	bl	0 <_<ppv_lite86::generic::u32x4_generic as core::ops::bit::BitXor>::bitxor::{{closure}}>
    30c8:	f90613e0 	str	x0, [sp, #3104]
    30cc:	f90617e1 	str	x1, [sp, #3112]
    30d0:	4e081c00 	mov	v0.d[0], x0
    30d4:	4e181c20 	mov	v0.d[1], x1
    30d8:	3d830fe0 	str	q0, [sp, #3120]
    30dc:	14000005 	b	30f0 <_<rand_chacha::chacha::ChaCha12Core as rand_core::block::BlockRngCore>::generate+0xdb0>
    30e0:	f967c3e8 	ldr	x8, [sp, #20352]
    30e4:	f90677e8 	str	x8, [sp, #3304]
    30e8:	1400242f 	b	c1a4 <_<rand_chacha::chacha::ChaCha12Core as rand_core::block::BlockRngCore>::generate+0x9e64>
    30ec:	17fffffd 	b	30e0 <_<rand_chacha::chacha::ChaCha12Core as rand_core::block::BlockRngCore>::generate+0xda0>
    30f0:	f946bbe9 	ldr	x9, [sp, #3440]
    30f4:	f946b7e8 	ldr	x8, [sp, #3432]
    30f8:	f94617ea 	ldr	x10, [sp, #3112]
    30fc:	f94613eb 	ldr	x11, [sp, #3104]
    3100:	3dc30fe0 	ldr	q0, [sp, #3120]
    3104:	3d830920 	str	q0, [x9, #3104]
    3108:	f927b7eb 	str	x11, [sp, #20328]
    310c:	f927bbea 	str	x10, [sp, #20336]
    3110:	914013ea 	add	x10, sp, #0x4, lsl #12
    3114:	9139a54a 	add	x10, x10, #0xe69
    3118:	3ccff140 	ldur	q0, [x10, #255]
    311c:	3d82ed20 	str	q0, [x9, #2992]
    3120:	3dc2ed20 	ldr	q0, [x9, #2992]
    3124:	3d830520 	str	q0, [x9, #3088]
    3128:	3dc30520 	ldr	q0, [x9, #3088]
    312c:	3d830d20 	str	q0, [x9, #3120]
    3130:	3dc30d20 	ldr	q0, [x9, #3120]
    3134:	3d869500 	str	q0, [x8, #6736]
    3138:	3dc34500 	ldr	q0, [x8, #3344]
    313c:	3d827920 	str	q0, [x9, #2528]
    3140:	3dc35500 	ldr	q0, [x8, #3408]
    3144:	3d827520 	str	q0, [x9, #2512]
    3148:	3dc27920 	ldr	q0, [x9, #2528]
    314c:	914013e0 	add	x0, sp, #0x4, lsl #12
    3150:	91358000 	add	x0, x0, #0xd60
    3154:	3d827120 	str	q0, [x9, #2496]
    3158:	3dc27520 	ldr	q0, [x9, #2512]
    315c:	3d827d20 	str	q0, [x9, #2544]
    3160:	392a3d3f 	strb	wzr, [x9, #2703]
    3164:	52800028 	mov	w8, #0x1                   	// #1
    3168:	392a3d28 	strb	w8, [x9, #2703]
    316c:	914013e8 	add	x8, sp, #0x4, lsl #12
    3170:	9136c108 	add	x8, x8, #0xdb0
    3174:	90000001 	adrp	x1, d408 <l_alloc_d6cd646a032ab5661bff8aa78f551e65>
    3178:	91000021 	add	x1, x1, #0x0
    317c:	94000000 	bl	0 <_<T as core::convert::Into<U>>::into>
    3180:	14000008 	b	31a0 <_<rand_chacha::chacha::ChaCha12Core as rand_core::block::BlockRngCore>::generate+0xe60>
    3184:	f946bbe8 	ldr	x8, [sp, #3440]
    3188:	f9271be0 	str	x0, [sp, #20016]
    318c:	aa0103e9 	mov	x9, x1
    3190:	b90a9909 	str	w9, [x8, #2712]
    3194:	396a3d08 	ldrb	w8, [x8, #2703]
    3198:	370006a8 	tbnz	w8, #0, 326c <_<rand_chacha::chacha::ChaCha12Core as rand_core::block::BlockRngCore>::generate+0xf2c>
    319c:	1400002e 	b	3254 <_<rand_chacha::chacha::ChaCha12Core as rand_core::block::BlockRngCore>::generate+0xf14>
    31a0:	f946bbe8 	ldr	x8, [sp, #3440]
    31a4:	392a3d1f 	strb	wzr, [x8, #2703]
    31a8:	3dc27d00 	ldr	q0, [x8, #2544]
    31ac:	914013e0 	add	x0, sp, #0x4, lsl #12
    31b0:	91374000 	add	x0, x0, #0xdd0
    31b4:	3d828d00 	str	q0, [x8, #2608]
    31b8:	914013e8 	add	x8, sp, #0x4, lsl #12
    31bc:	91370108 	add	x8, x8, #0xdc0
    31c0:	90000001 	adrp	x1, d420 <l_alloc_eb8937521ab56b1815db886b021bd11a>
    31c4:	91000021 	add	x1, x1, #0x0
    31c8:	94000000 	bl	0 <_<T as core::convert::Into<U>>::into>
    31cc:	14000001 	b	31d0 <_<rand_chacha::chacha::ChaCha12Core as rand_core::block::BlockRngCore>::generate+0xe90>
    31d0:	f946bbe8 	ldr	x8, [sp, #3440]
    31d4:	3dc28500 	ldr	q0, [x8, #2576]
    31d8:	3d829100 	str	q0, [x8, #2624]
    31dc:	f966f3eb 	ldr	x11, [sp, #19936]
    31e0:	d2800009 	mov	x9, #0x0                   	// #0
    31e4:	f9274feb 	str	x11, [sp, #20120]
    31e8:	f966f7ea 	ldr	x10, [sp, #19944]
    31ec:	f9274bea 	str	x10, [sp, #20112]
    31f0:	aa090161 	orr	x1, x11, x9
    31f4:	aa0a0122 	orr	x2, x9, x10
    31f8:	4e081c20 	mov	v0.d[0], x1
    31fc:	4e181c40 	mov	v0.d[1], x2
    3200:	3d82a900 	str	q0, [x8, #2720]
    3204:	3dc28900 	ldr	q0, [x8, #2592]
    3208:	3d829500 	str	q0, [x8, #2640]
    320c:	f966fbeb 	ldr	x11, [sp, #19952]
    3210:	f92757eb 	str	x11, [sp, #20136]
    3214:	f966ffea 	ldr	x10, [sp, #19960]
    3218:	f92753ea 	str	x10, [sp, #20128]
    321c:	aa090163 	orr	x3, x11, x9
    3220:	aa0a0124 	orr	x4, x9, x10
    3224:	4e081c60 	mov	v0.d[0], x3
    3228:	4e181c80 	mov	v0.d[1], x4
    322c:	3d82ad00 	str	q0, [x8, #2736]
    3230:	914013e0 	add	x0, sp, #0x4, lsl #12
    3234:	9136bc00 	add	x0, x0, #0xdaf
    3238:	94000000 	bl	0 <_<ppv_lite86::generic::u32x4_generic as core::ops::bit::BitXor>::bitxor::{{closure}}>
    323c:	f90603e0 	str	x0, [sp, #3072]
    3240:	f90607e1 	str	x1, [sp, #3080]
    3244:	4e081c00 	mov	v0.d[0], x0
    3248:	4e181c20 	mov	v0.d[1], x1
    324c:	3d8307e0 	str	q0, [sp, #3088]
    3250:	14000008 	b	3270 <_<rand_chacha::chacha::ChaCha12Core as rand_core::block::BlockRngCore>::generate+0xf30>
    3254:	f946bbe8 	ldr	x8, [sp, #3440]
    3258:	f9671be9 	ldr	x9, [sp, #20016]
    325c:	f905fbe9 	str	x9, [sp, #3056]
    3260:	b94a9908 	ldr	w8, [x8, #2712]
    3264:	b90bffe8 	str	w8, [sp, #3068]
    3268:	14000018 	b	32c8 <_<rand_chacha::chacha::ChaCha12Core as rand_core::block::BlockRngCore>::generate+0xf88>
    326c:	17fffffa 	b	3254 <_<rand_chacha::chacha::ChaCha12Core as rand_core::block::BlockRngCore>::generate+0xf14>
    3270:	f946b7e8 	ldr	x8, [sp, #3432]
    3274:	f946bbe9 	ldr	x9, [sp, #3440]
    3278:	f94607ea 	ldr	x10, [sp, #3080]
    327c:	f94603eb 	ldr	x11, [sp, #3072]
    3280:	3dc307e0 	ldr	q0, [sp, #3088]
    3284:	3d82b520 	str	q0, [x9, #2768]
    3288:	f9270feb 	str	x11, [sp, #19992]
    328c:	f92713ea 	str	x10, [sp, #20000]
    3290:	914013ea 	add	x10, sp, #0x4, lsl #12
    3294:	9134654a 	add	x10, x10, #0xd19
    3298:	3ccff140 	ldur	q0, [x10, #255]
    329c:	3d829920 	str	q0, [x9, #2656]
    32a0:	3dc29920 	ldr	q0, [x9, #2656]
    32a4:	3d82b120 	str	q0, [x9, #2752]
    32a8:	3dc2b120 	ldr	q0, [x9, #2752]
    32ac:	3d82b920 	str	q0, [x9, #2784]
    32b0:	3dc2b920 	ldr	q0, [x9, #2784]
    32b4:	3d869900 	str	q0, [x8, #6752]
    32b8:	14000009 	b	32dc <_<rand_chacha::chacha::ChaCha12Core as rand_core::block::BlockRngCore>::generate+0xf9c>
    32bc:	f95edbe8 	ldr	x8, [sp, #15792]
    32c0:	f90677e8 	str	x8, [sp, #3304]
    32c4:	140023b8 	b	c1a4 <_<rand_chacha::chacha::ChaCha12Core as rand_core::block::BlockRngCore>::generate+0x9e64>
    32c8:	b94bffe8 	ldr	w8, [sp, #3068]
    32cc:	f945fbe9 	ldr	x9, [sp, #3056]
    32d0:	f91edbe9 	str	x9, [sp, #15792]
    32d4:	b93dbbe8 	str	w8, [sp, #15800]
    32d8:	17fffff9 	b	32bc <_<rand_chacha::chacha::ChaCha12Core as rand_core::block::BlockRngCore>::generate+0xf7c>
    32dc:	f946bbe9 	ldr	x9, [sp, #3440]
    32e0:	f946b7e8 	ldr	x8, [sp, #3432]
    32e4:	3dc34900 	ldr	q0, [x8, #3360]
    32e8:	3d822520 	str	q0, [x9, #2192]
    32ec:	3dc35900 	ldr	q0, [x8, #3424]
    32f0:	3d822120 	str	q0, [x9, #2176]
    32f4:	3dc22520 	ldr	q0, [x9, #2192]
    32f8:	914013e0 	add	x0, sp, #0x4, lsl #12
    32fc:	91304000 	add	x0, x0, #0xc10
    3300:	3d821d20 	str	q0, [x9, #2160]
    3304:	3dc22120 	ldr	q0, [x9, #2176]
    3308:	3d822920 	str	q0, [x9, #2208]
    330c:	3924fd3f 	strb	wzr, [x9, #2367]
    3310:	52800028 	mov	w8, #0x1                   	// #1
    3314:	3924fd28 	strb	w8, [x9, #2367]
    3318:	914013e8 	add	x8, sp, #0x4, lsl #12
    331c:	91318108 	add	x8, x8, #0xc60
    3320:	90000001 	adrp	x1, d408 <l_alloc_d6cd646a032ab5661bff8aa78f551e65>
    3324:	91000021 	add	x1, x1, #0x0
    3328:	94000000 	bl	0 <_<T as core::convert::Into<U>>::into>
    332c:	14000009 	b	3350 <_<rand_chacha::chacha::ChaCha12Core as rand_core::block::BlockRngCore>::generate+0x1010>
    3330:	f946bbe8 	ldr	x8, [sp, #3440]
    3334:	f92673e0 	str	x0, [sp, #19680]
    3338:	aa0103e9 	mov	x9, x1
    333c:	9133b3ea 	add	x10, sp, #0xcec
    3340:	b93ffd49 	str	w9, [x10, #16380]
    3344:	3964fd08 	ldrb	w8, [x8, #2367]
    3348:	370006a8 	tbnz	w8, #0, 341c <_<rand_chacha::chacha::ChaCha12Core as rand_core::block::BlockRngCore>::generate+0x10dc>
    334c:	1400002e 	b	3404 <_<rand_chacha::chacha::ChaCha12Core as rand_core::block::BlockRngCore>::generate+0x10c4>
    3350:	f946bbe8 	ldr	x8, [sp, #3440]
    3354:	3924fd1f 	strb	wzr, [x8, #2367]
    3358:	3dc22900 	ldr	q0, [x8, #2208]
    335c:	914013e0 	add	x0, sp, #0x4, lsl #12
    3360:	91320000 	add	x0, x0, #0xc80
    3364:	3d823900 	str	q0, [x8, #2272]
    3368:	914013e8 	add	x8, sp, #0x4, lsl #12
    336c:	9131c108 	add	x8, x8, #0xc70
    3370:	90000001 	adrp	x1, d420 <l_alloc_eb8937521ab56b1815db886b021bd11a>
    3374:	91000021 	add	x1, x1, #0x0
    3378:	94000000 	bl	0 <_<T as core::convert::Into<U>>::into>
    337c:	14000001 	b	3380 <_<rand_chacha::chacha::ChaCha12Core as rand_core::block::BlockRngCore>::generate+0x1040>
    3380:	f946bbe8 	ldr	x8, [sp, #3440]
    3384:	3dc23100 	ldr	q0, [x8, #2240]
    3388:	3d823d00 	str	q0, [x8, #2288]
    338c:	f9664beb 	ldr	x11, [sp, #19600]
    3390:	d2800009 	mov	x9, #0x0                   	// #0
    3394:	f926a7eb 	str	x11, [sp, #19784]
    3398:	f9664fea 	ldr	x10, [sp, #19608]
    339c:	f926a3ea 	str	x10, [sp, #19776]
    33a0:	aa090161 	orr	x1, x11, x9
    33a4:	aa0a0122 	orr	x2, x9, x10
    33a8:	4e081c20 	mov	v0.d[0], x1
    33ac:	4e181c40 	mov	v0.d[1], x2
    33b0:	3d825500 	str	q0, [x8, #2384]
    33b4:	3dc23500 	ldr	q0, [x8, #2256]
    33b8:	3d824100 	str	q0, [x8, #2304]
    33bc:	f96653eb 	ldr	x11, [sp, #19616]
    33c0:	f926afeb 	str	x11, [sp, #19800]
    33c4:	f96657ea 	ldr	x10, [sp, #19624]
    33c8:	f926abea 	str	x10, [sp, #19792]
    33cc:	aa090163 	orr	x3, x11, x9
    33d0:	aa0a0124 	orr	x4, x9, x10
    33d4:	4e081c60 	mov	v0.d[0], x3
    33d8:	4e181c80 	mov	v0.d[1], x4
    33dc:	3d825900 	str	q0, [x8, #2400]
    33e0:	914013e0 	add	x0, sp, #0x4, lsl #12
    33e4:	91317c00 	add	x0, x0, #0xc5f
    33e8:	94000000 	bl	0 <_<ppv_lite86::generic::u32x4_generic as core::ops::bit::BitXor>::bitxor::{{closure}}>
    33ec:	f905ebe0 	str	x0, [sp, #3024]
    33f0:	f905efe1 	str	x1, [sp, #3032]
    33f4:	4e081c00 	mov	v0.d[0], x0
    33f8:	4e181c20 	mov	v0.d[1], x1
    33fc:	3d82fbe0 	str	q0, [sp, #3040]
    3400:	14000008 	b	3420 <_<rand_chacha::chacha::ChaCha12Core as rand_core::block::BlockRngCore>::generate+0x10e0>
    3404:	f96673e8 	ldr	x8, [sp, #19680]
    3408:	f905e3e8 	str	x8, [sp, #3008]
    340c:	9133b3e8 	add	x8, sp, #0xcec
    3410:	b97ffd08 	ldr	w8, [x8, #16380]
    3414:	b90bcfe8 	str	w8, [sp, #3020]
    3418:	14000016 	b	3470 <_<rand_chacha::chacha::ChaCha12Core as rand_core::block::BlockRngCore>::generate+0x1130>
    341c:	17fffffa 	b	3404 <_<rand_chacha::chacha::ChaCha12Core as rand_core::block::BlockRngCore>::generate+0x10c4>
    3420:	f946b7e8 	ldr	x8, [sp, #3432]
    3424:	f946bbe9 	ldr	x9, [sp, #3440]
    3428:	f945efea 	ldr	x10, [sp, #3032]
    342c:	f945ebeb 	ldr	x11, [sp, #3024]
    3430:	3dc2fbe0 	ldr	q0, [sp, #3040]
    3434:	3d826120 	str	q0, [x9, #2432]
    3438:	f92667eb 	str	x11, [sp, #19656]
    343c:	f9266bea 	str	x10, [sp, #19664]
    3440:	914013ea 	add	x10, sp, #0x4, lsl #12
    3444:	912f254a 	add	x10, x10, #0xbc9
    3448:	3ccff140 	ldur	q0, [x10, #255]
    344c:	3d824520 	str	q0, [x9, #2320]
    3450:	3dc24520 	ldr	q0, [x9, #2320]
    3454:	3d825d20 	str	q0, [x9, #2416]
    3458:	3dc25d20 	ldr	q0, [x9, #2416]
    345c:	3d826520 	str	q0, [x9, #2448]
    3460:	3dc26520 	ldr	q0, [x9, #2448]
    3464:	3d869d00 	str	q0, [x8, #6768]
    3468:	14000007 	b	3484 <_<rand_chacha::chacha::ChaCha12Core as rand_core::block::BlockRngCore>::generate+0x1144>
    346c:	17ffff94 	b	32bc <_<rand_chacha::chacha::ChaCha12Core as rand_core::block::BlockRngCore>::generate+0xf7c>
    3470:	b94bcfe8 	ldr	w8, [sp, #3020]
    3474:	f945e3e9 	ldr	x9, [sp, #3008]
    3478:	f91edbe9 	str	x9, [sp, #15792]
    347c:	b93dbbe8 	str	w8, [sp, #15800]
    3480:	17fffffb 	b	346c <_<rand_chacha::chacha::ChaCha12Core as rand_core::block::BlockRngCore>::generate+0x112c>
    3484:	f946bbe9 	ldr	x9, [sp, #3440]
    3488:	f946b7e8 	ldr	x8, [sp, #3432]
    348c:	3dc34d00 	ldr	q0, [x8, #3376]
    3490:	3d81d120 	str	q0, [x9, #1856]
    3494:	3dc35d00 	ldr	q0, [x8, #3440]
    3498:	3d81cd20 	str	q0, [x9, #1840]
    349c:	3dc1d120 	ldr	q0, [x9, #1856]
    34a0:	914013e0 	add	x0, sp, #0x4, lsl #12
    34a4:	912b0000 	add	x0, x0, #0xac0
    34a8:	3d81c920 	str	q0, [x9, #1824]
    34ac:	3dc1cd20 	ldr	q0, [x9, #1840]
    34b0:	3d81d520 	str	q0, [x9, #1872]
    34b4:	391fbd3f 	strb	wzr, [x9, #2031]
    34b8:	52800028 	mov	w8, #0x1                   	// #1
    34bc:	391fbd28 	strb	w8, [x9, #2031]
    34c0:	914013e8 	add	x8, sp, #0x4, lsl #12
    34c4:	912c4108 	add	x8, x8, #0xb10
    34c8:	90000001 	adrp	x1, d408 <l_alloc_d6cd646a032ab5661bff8aa78f551e65>
    34cc:	91000021 	add	x1, x1, #0x0
    34d0:	94000000 	bl	0 <_<T as core::convert::Into<U>>::into>
    34d4:	14000009 	b	34f8 <_<rand_chacha::chacha::ChaCha12Core as rand_core::block::BlockRngCore>::generate+0x11b8>
    34d8:	f946bbe8 	ldr	x8, [sp, #3440]
    34dc:	f925cbe0 	str	x0, [sp, #19344]
    34e0:	aa0103e9 	mov	x9, x1
    34e4:	912e73ea 	add	x10, sp, #0xb9c
    34e8:	b93ffd49 	str	w9, [x10, #16380]
    34ec:	395fbd08 	ldrb	w8, [x8, #2031]
    34f0:	370006a8 	tbnz	w8, #0, 35c4 <_<rand_chacha::chacha::ChaCha12Core as rand_core::block::BlockRngCore>::generate+0x1284>
    34f4:	1400002e 	b	35ac <_<rand_chacha::chacha::ChaCha12Core as rand_core::block::BlockRngCore>::generate+0x126c>
    34f8:	f946bbe8 	ldr	x8, [sp, #3440]
    34fc:	391fbd1f 	strb	wzr, [x8, #2031]
    3500:	3dc1d500 	ldr	q0, [x8, #1872]
    3504:	914013e0 	add	x0, sp, #0x4, lsl #12
    3508:	912cc000 	add	x0, x0, #0xb30
    350c:	3d81e500 	str	q0, [x8, #1936]
    3510:	914013e8 	add	x8, sp, #0x4, lsl #12
    3514:	912c8108 	add	x8, x8, #0xb20
    3518:	90000001 	adrp	x1, d420 <l_alloc_eb8937521ab56b1815db886b021bd11a>
    351c:	91000021 	add	x1, x1, #0x0
    3520:	94000000 	bl	0 <_<T as core::convert::Into<U>>::into>
    3524:	14000001 	b	3528 <_<rand_chacha::chacha::ChaCha12Core as rand_core::block::BlockRngCore>::generate+0x11e8>
    3528:	f946bbe8 	ldr	x8, [sp, #3440]
    352c:	3dc1dd00 	ldr	q0, [x8, #1904]
    3530:	3d81e900 	str	q0, [x8, #1952]
    3534:	f965a3eb 	ldr	x11, [sp, #19264]
    3538:	d2800009 	mov	x9, #0x0                   	// #0
    353c:	f925ffeb 	str	x11, [sp, #19448]
    3540:	f965a7ea 	ldr	x10, [sp, #19272]
    3544:	f925fbea 	str	x10, [sp, #19440]
    3548:	aa090161 	orr	x1, x11, x9
    354c:	aa0a0122 	orr	x2, x9, x10
    3550:	4e081c20 	mov	v0.d[0], x1
    3554:	4e181c40 	mov	v0.d[1], x2
    3558:	3d820100 	str	q0, [x8, #2048]
    355c:	3dc1e100 	ldr	q0, [x8, #1920]
    3560:	3d81ed00 	str	q0, [x8, #1968]
    3564:	f965abeb 	ldr	x11, [sp, #19280]
    3568:	f92607eb 	str	x11, [sp, #19464]
    356c:	f965afea 	ldr	x10, [sp, #19288]
    3570:	f92603ea 	str	x10, [sp, #19456]
    3574:	aa090163 	orr	x3, x11, x9
    3578:	aa0a0124 	orr	x4, x9, x10
    357c:	4e081c60 	mov	v0.d[0], x3
    3580:	4e181c80 	mov	v0.d[1], x4
    3584:	3d820500 	str	q0, [x8, #2064]
    3588:	914013e0 	add	x0, sp, #0x4, lsl #12
    358c:	912c3c00 	add	x0, x0, #0xb0f
    3590:	94000000 	bl	0 <_<ppv_lite86::generic::u32x4_generic as core::ops::bit::BitXor>::bitxor::{{closure}}>
    3594:	f905d3e0 	str	x0, [sp, #2976]
    3598:	f905d7e1 	str	x1, [sp, #2984]
    359c:	4e081c00 	mov	v0.d[0], x0
    35a0:	4e181c20 	mov	v0.d[1], x1
    35a4:	3d82efe0 	str	q0, [sp, #2992]
    35a8:	14000008 	b	35c8 <_<rand_chacha::chacha::ChaCha12Core as rand_core::block::BlockRngCore>::generate+0x1288>
    35ac:	f965cbe8 	ldr	x8, [sp, #19344]
    35b0:	f905cbe8 	str	x8, [sp, #2960]
    35b4:	912e73e8 	add	x8, sp, #0xb9c
    35b8:	b97ffd08 	ldr	w8, [x8, #16380]
    35bc:	b90b9fe8 	str	w8, [sp, #2972]
    35c0:	14000015 	b	3614 <_<rand_chacha::chacha::ChaCha12Core as rand_core::block::BlockRngCore>::generate+0x12d4>
    35c4:	17fffffa 	b	35ac <_<rand_chacha::chacha::ChaCha12Core as rand_core::block::BlockRngCore>::generate+0x126c>
    35c8:	f946b7e8 	ldr	x8, [sp, #3432]
    35cc:	f946bbe9 	ldr	x9, [sp, #3440]
    35d0:	f945d7ea 	ldr	x10, [sp, #2984]
    35d4:	f945d3eb 	ldr	x11, [sp, #2976]
    35d8:	3dc2efe0 	ldr	q0, [sp, #2992]
    35dc:	3d820d20 	str	q0, [x9, #2096]
    35e0:	f925bfeb 	str	x11, [sp, #19320]
    35e4:	f925c3ea 	str	x10, [sp, #19328]
    35e8:	914013ea 	add	x10, sp, #0x4, lsl #12
    35ec:	9129e54a 	add	x10, x10, #0xa79
    35f0:	3ccff140 	ldur	q0, [x10, #255]
    35f4:	3d81f120 	str	q0, [x9, #1984]
    35f8:	3dc1f120 	ldr	q0, [x9, #1984]
    35fc:	3d820920 	str	q0, [x9, #2080]
    3600:	3dc20920 	ldr	q0, [x9, #2080]
    3604:	3d821120 	str	q0, [x9, #2112]
    3608:	3dc21120 	ldr	q0, [x9, #2112]
    360c:	3d86a100 	str	q0, [x8, #6784]
    3610:	14000006 	b	3628 <_<rand_chacha::chacha::ChaCha12Core as rand_core::block::BlockRngCore>::generate+0x12e8>
    3614:	b94b9fe8 	ldr	w8, [sp, #2972]
    3618:	f945cbe9 	ldr	x9, [sp, #2960]
    361c:	f91edbe9 	str	x9, [sp, #15792]
    3620:	b93dbbe8 	str	w8, [sp, #15800]
    3624:	17ffff92 	b	346c <_<rand_chacha::chacha::ChaCha12Core as rand_core::block::BlockRngCore>::generate+0x112c>
    3628:	f946b7e8 	ldr	x8, [sp, #3432]
    362c:	3dc69500 	ldr	q0, [x8, #6736]
    3630:	91400fe1 	add	x1, sp, #0x3, lsl #12
    3634:	9134c021 	add	x1, x1, #0xd30
    3638:	3d868500 	str	q0, [x8, #6672]
    363c:	3dc69900 	ldr	q0, [x8, #6752]
    3640:	3d868900 	str	q0, [x8, #6688]
    3644:	3dc69d00 	ldr	q0, [x8, #6768]
    3648:	3d868d00 	str	q0, [x8, #6704]
    364c:	3dc6a100 	ldr	q0, [x8, #6784]
    3650:	3d869100 	str	q0, [x8, #6720]
    3654:	91400be0 	add	x0, sp, #0x2, lsl #12
    3658:	913f8000 	add	x0, x0, #0xfe0
    365c:	52800808 	mov	w8, #0x40                  	// #64
    3660:	aa0803e2 	mov	x2, x8
    3664:	94000000 	bl	0 <_memcpy>
    3668:	f946b7e9 	ldr	x9, [sp, #3432]
    366c:	f94687e8 	ldr	x8, [sp, #3336]
    3670:	3dc33120 	ldr	q0, [x9, #3264]
    3674:	3d8cf900 	str	q0, [x8, #13280]
    3678:	3dccf900 	ldr	q0, [x8, #13280]
    367c:	914027e0 	add	x0, sp, #0x9, lsl #12
    3680:	912a8000 	add	x0, x0, #0xaa0
    3684:	3d8cf500 	str	q0, [x8, #13264]
    3688:	914027e8 	add	x8, sp, #0x9, lsl #12
    368c:	912b4108 	add	x8, x8, #0xad0
    3690:	90000001 	adrp	x1, d3d8 <l_alloc_345ce69d67e2022250dbe2d202815e5b>
    3694:	91000021 	add	x1, x1, #0x0
    3698:	94000000 	bl	0 <_<T as core::convert::Into<U>>::into>
    369c:	14000008 	b	36bc <_<rand_chacha::chacha::ChaCha12Core as rand_core::block::BlockRngCore>::generate+0x137c>
    36a0:	f94687e8 	ldr	x8, [sp, #3336]
    36a4:	f91a2100 	str	x0, [x8, #13376]
    36a8:	aa0103e9 	mov	x9, x1
    36ac:	b9344909 	str	w9, [x8, #13384]
    36b0:	f95a2108 	ldr	x8, [x8, #13376]
    36b4:	f90677e8 	str	x8, [sp, #3304]
    36b8:	140022bb 	b	c1a4 <_<rand_chacha::chacha::ChaCha12Core as rand_core::block::BlockRngCore>::generate+0x9e64>
    36bc:	f94687e8 	ldr	x8, [sp, #3336]
    36c0:	3dcd0100 	ldr	q0, [x8, #13312]
    36c4:	3d8d0500 	str	q0, [x8, #13328]
    36c8:	b9741101 	ldr	w1, [x8, #13328]
    36cc:	914027e0 	add	x0, sp, #0x9, lsl #12
    36d0:	912b3c00 	add	x0, x0, #0xacf
    36d4:	94000000 	bl	0 <_<ppv_lite86::generic::u32x4_generic as ppv_lite86::types::RotateEachWord32>::rotate_each_word_right16::{{closure}}>
    36d8:	b90b8fe0 	str	w0, [sp, #2956]
    36dc:	14000001 	b	36e0 <_<rand_chacha::chacha::ChaCha12Core as rand_core::block::BlockRngCore>::generate+0x13a0>
    36e0:	f94687e8 	ldr	x8, [sp, #3336]
    36e4:	b9741501 	ldr	w1, [x8, #13332]
    36e8:	914027e0 	add	x0, sp, #0x9, lsl #12
    36ec:	912b3c00 	add	x0, x0, #0xacf
    36f0:	94000000 	bl	0 <_<ppv_lite86::generic::u32x4_generic as ppv_lite86::types::RotateEachWord32>::rotate_each_word_right16::{{closure}}>
    36f4:	b90b8be0 	str	w0, [sp, #2952]
    36f8:	14000001 	b	36fc <_<rand_chacha::chacha::ChaCha12Core as rand_core::block::BlockRngCore>::generate+0x13bc>
    36fc:	f94687e8 	ldr	x8, [sp, #3336]
    3700:	b9741901 	ldr	w1, [x8, #13336]
    3704:	914027e0 	add	x0, sp, #0x9, lsl #12
    3708:	912b3c00 	add	x0, x0, #0xacf
    370c:	94000000 	bl	0 <_<ppv_lite86::generic::u32x4_generic as ppv_lite86::types::RotateEachWord32>::rotate_each_word_right16::{{closure}}>
    3710:	b90b87e0 	str	w0, [sp, #2948]
    3714:	14000001 	b	3718 <_<rand_chacha::chacha::ChaCha12Core as rand_core::block::BlockRngCore>::generate+0x13d8>
    3718:	f94687e8 	ldr	x8, [sp, #3336]
    371c:	b9741d01 	ldr	w1, [x8, #13340]
    3720:	914027e0 	add	x0, sp, #0x9, lsl #12
    3724:	912b3c00 	add	x0, x0, #0xacf
    3728:	94000000 	bl	0 <_<ppv_lite86::generic::u32x4_generic as ppv_lite86::types::RotateEachWord32>::rotate_each_word_right16::{{closure}}>
    372c:	b90b83e0 	str	w0, [sp, #2944]
    3730:	14000001 	b	3734 <_<rand_chacha::chacha::ChaCha12Core as rand_core::block::BlockRngCore>::generate+0x13f4>
    3734:	f94687e8 	ldr	x8, [sp, #3336]
    3738:	f946b7e9 	ldr	x9, [sp, #3432]
    373c:	b94b83ea 	ldr	w10, [sp, #2944]
    3740:	b94b87eb 	ldr	w11, [sp, #2948]
    3744:	b94b8bec 	ldr	w12, [sp, #2952]
    3748:	b94b8fed 	ldr	w13, [sp, #2956]
    374c:	b934310d 	str	w13, [x8, #13360]
    3750:	b934350c 	str	w12, [x8, #13364]
    3754:	b934390b 	str	w11, [x8, #13368]
    3758:	b9343d0a 	str	w10, [x8, #13372]
    375c:	3dcd0d00 	ldr	q0, [x8, #13360]
    3760:	3d8d0900 	str	q0, [x8, #13344]
    3764:	3dcd0900 	ldr	q0, [x8, #13344]
    3768:	3d8d1500 	str	q0, [x8, #13392]
    376c:	3dcd1500 	ldr	q0, [x8, #13392]
    3770:	3d8d1900 	str	q0, [x8, #13408]
    3774:	3dcd1900 	ldr	q0, [x8, #13408]
    3778:	3d8aed00 	str	q0, [x8, #11184]
    377c:	3dc33520 	ldr	q0, [x9, #3280]
    3780:	3d8cd100 	str	q0, [x8, #13120]
    3784:	3dccd100 	ldr	q0, [x8, #13120]
    3788:	914027e0 	add	x0, sp, #0x9, lsl #12
    378c:	91280000 	add	x0, x0, #0xa00
    3790:	3d8ccd00 	str	q0, [x8, #13104]
    3794:	914027e8 	add	x8, sp, #0x9, lsl #12
    3798:	9128c108 	add	x8, x8, #0xa30
    379c:	90000001 	adrp	x1, d3d8 <l_alloc_345ce69d67e2022250dbe2d202815e5b>
    37a0:	91000021 	add	x1, x1, #0x0
    37a4:	94000000 	bl	0 <_<T as core::convert::Into<U>>::into>
    37a8:	14000008 	b	37c8 <_<rand_chacha::chacha::ChaCha12Core as rand_core::block::BlockRngCore>::generate+0x1488>
    37ac:	f94687e8 	ldr	x8, [sp, #3336]
    37b0:	f919d100 	str	x0, [x8, #13216]
    37b4:	aa0103e9 	mov	x9, x1
    37b8:	b933a909 	str	w9, [x8, #13224]
    37bc:	f959d108 	ldr	x8, [x8, #13216]
    37c0:	f90677e8 	str	x8, [sp, #3304]
    37c4:	14002278 	b	c1a4 <_<rand_chacha::chacha::ChaCha12Core as rand_core::block::BlockRngCore>::generate+0x9e64>
    37c8:	f94687e8 	ldr	x8, [sp, #3336]
    37cc:	3dccd900 	ldr	q0, [x8, #13152]
    37d0:	3d8cdd00 	str	q0, [x8, #13168]
    37d4:	b9737101 	ldr	w1, [x8, #13168]
    37d8:	914027e0 	add	x0, sp, #0x9, lsl #12
    37dc:	9128bc00 	add	x0, x0, #0xa2f
    37e0:	94000000 	bl	0 <_<ppv_lite86::generic::u32x4_generic as ppv_lite86::types::RotateEachWord32>::rotate_each_word_right16::{{closure}}>
    37e4:	b90b7fe0 	str	w0, [sp, #2940]
    37e8:	14000001 	b	37ec <_<rand_chacha::chacha::ChaCha12Core as rand_core::block::BlockRngCore>::generate+0x14ac>
    37ec:	f94687e8 	ldr	x8, [sp, #3336]
    37f0:	b9737501 	ldr	w1, [x8, #13172]
    37f4:	914027e0 	add	x0, sp, #0x9, lsl #12
    37f8:	9128bc00 	add	x0, x0, #0xa2f
    37fc:	94000000 	bl	0 <_<ppv_lite86::generic::u32x4_generic as ppv_lite86::types::RotateEachWord32>::rotate_each_word_right16::{{closure}}>
    3800:	b90b7be0 	str	w0, [sp, #2936]
    3804:	14000001 	b	3808 <_<rand_chacha::chacha::ChaCha12Core as rand_core::block::BlockRngCore>::generate+0x14c8>
    3808:	f94687e8 	ldr	x8, [sp, #3336]
    380c:	b9737901 	ldr	w1, [x8, #13176]
    3810:	914027e0 	add	x0, sp, #0x9, lsl #12
    3814:	9128bc00 	add	x0, x0, #0xa2f
    3818:	94000000 	bl	0 <_<ppv_lite86::generic::u32x4_generic as ppv_lite86::types::RotateEachWord32>::rotate_each_word_right16::{{closure}}>
    381c:	b90b77e0 	str	w0, [sp, #2932]
    3820:	14000001 	b	3824 <_<rand_chacha::chacha::ChaCha12Core as rand_core::block::BlockRngCore>::generate+0x14e4>
    3824:	f94687e8 	ldr	x8, [sp, #3336]
    3828:	b9737d01 	ldr	w1, [x8, #13180]
    382c:	914027e0 	add	x0, sp, #0x9, lsl #12
    3830:	9128bc00 	add	x0, x0, #0xa2f
    3834:	94000000 	bl	0 <_<ppv_lite86::generic::u32x4_generic as ppv_lite86::types::RotateEachWord32>::rotate_each_word_right16::{{closure}}>
    3838:	b90b73e0 	str	w0, [sp, #2928]
    383c:	14000001 	b	3840 <_<rand_chacha::chacha::ChaCha12Core as rand_core::block::BlockRngCore>::generate+0x1500>
    3840:	f94687e8 	ldr	x8, [sp, #3336]
    3844:	f946b7e9 	ldr	x9, [sp, #3432]
    3848:	b94b73ea 	ldr	w10, [sp, #2928]
    384c:	b94b77eb 	ldr	w11, [sp, #2932]
    3850:	b94b7bec 	ldr	w12, [sp, #2936]
    3854:	b94b7fed 	ldr	w13, [sp, #2940]
    3858:	b933910d 	str	w13, [x8, #13200]
    385c:	b933950c 	str	w12, [x8, #13204]
    3860:	b933990b 	str	w11, [x8, #13208]
    3864:	b9339d0a 	str	w10, [x8, #13212]
    3868:	3dcce500 	ldr	q0, [x8, #13200]
    386c:	3d8ce100 	str	q0, [x8, #13184]
    3870:	3dcce100 	ldr	q0, [x8, #13184]
    3874:	3d8ced00 	str	q0, [x8, #13232]
    3878:	3dcced00 	ldr	q0, [x8, #13232]
    387c:	3d8cf100 	str	q0, [x8, #13248]
    3880:	3dccf100 	ldr	q0, [x8, #13248]
    3884:	3d8af100 	str	q0, [x8, #11200]
    3888:	3dc33920 	ldr	q0, [x9, #3296]
    388c:	3d8ca900 	str	q0, [x8, #12960]
    3890:	3dcca900 	ldr	q0, [x8, #12960]
    3894:	914027e0 	add	x0, sp, #0x9, lsl #12
    3898:	91258000 	add	x0, x0, #0x960
    389c:	3d8ca500 	str	q0, [x8, #12944]
    38a0:	914027e8 	add	x8, sp, #0x9, lsl #12
    38a4:	91264108 	add	x8, x8, #0x990
    38a8:	90000001 	adrp	x1, d3d8 <l_alloc_345ce69d67e2022250dbe2d202815e5b>
    38ac:	91000021 	add	x1, x1, #0x0
    38b0:	94000000 	bl	0 <_<T as core::convert::Into<U>>::into>
    38b4:	14000008 	b	38d4 <_<rand_chacha::chacha::ChaCha12Core as rand_core::block::BlockRngCore>::generate+0x1594>
    38b8:	f94687e8 	ldr	x8, [sp, #3336]
    38bc:	f9198100 	str	x0, [x8, #13056]
    38c0:	aa0103e9 	mov	x9, x1
    38c4:	b9330909 	str	w9, [x8, #13064]
    38c8:	f9598108 	ldr	x8, [x8, #13056]
    38cc:	f90677e8 	str	x8, [sp, #3304]
    38d0:	14002235 	b	c1a4 <_<rand_chacha::chacha::ChaCha12Core as rand_core::block::BlockRngCore>::generate+0x9e64>
    38d4:	f94687e8 	ldr	x8, [sp, #3336]
    38d8:	3dccb100 	ldr	q0, [x8, #12992]
    38dc:	3d8cb500 	str	q0, [x8, #13008]
    38e0:	b972d101 	ldr	w1, [x8, #13008]
    38e4:	914027e0 	add	x0, sp, #0x9, lsl #12
    38e8:	91263c00 	add	x0, x0, #0x98f
    38ec:	94000000 	bl	0 <_<ppv_lite86::generic::u32x4_generic as ppv_lite86::types::RotateEachWord32>::rotate_each_word_right16::{{closure}}>
    38f0:	b90b6fe0 	str	w0, [sp, #2924]
    38f4:	14000001 	b	38f8 <_<rand_chacha::chacha::ChaCha12Core as rand_core::block::BlockRngCore>::generate+0x15b8>
    38f8:	f94687e8 	ldr	x8, [sp, #3336]
    38fc:	b972d501 	ldr	w1, [x8, #13012]
    3900:	914027e0 	add	x0, sp, #0x9, lsl #12
    3904:	91263c00 	add	x0, x0, #0x98f
    3908:	94000000 	bl	0 <_<ppv_lite86::generic::u32x4_generic as ppv_lite86::types::RotateEachWord32>::rotate_each_word_right16::{{closure}}>
    390c:	b90b6be0 	str	w0, [sp, #2920]
    3910:	14000001 	b	3914 <_<rand_chacha::chacha::ChaCha12Core as rand_core::block::BlockRngCore>::generate+0x15d4>
    3914:	f94687e8 	ldr	x8, [sp, #3336]
    3918:	b972d901 	ldr	w1, [x8, #13016]
    391c:	914027e0 	add	x0, sp, #0x9, lsl #12
    3920:	91263c00 	add	x0, x0, #0x98f
    3924:	94000000 	bl	0 <_<ppv_lite86::generic::u32x4_generic as ppv_lite86::types::RotateEachWord32>::rotate_each_word_right16::{{closure}}>
    3928:	b90b67e0 	str	w0, [sp, #2916]
    392c:	14000001 	b	3930 <_<rand_chacha::chacha::ChaCha12Core as rand_core::block::BlockRngCore>::generate+0x15f0>
    3930:	f94687e8 	ldr	x8, [sp, #3336]
    3934:	b972dd01 	ldr	w1, [x8, #13020]
    3938:	914027e0 	add	x0, sp, #0x9, lsl #12
    393c:	91263c00 	add	x0, x0, #0x98f
    3940:	94000000 	bl	0 <_<ppv_lite86::generic::u32x4_generic as ppv_lite86::types::RotateEachWord32>::rotate_each_word_right16::{{closure}}>
    3944:	b90b63e0 	str	w0, [sp, #2912]
    3948:	14000001 	b	394c <_<rand_chacha::chacha::ChaCha12Core as rand_core::block::BlockRngCore>::generate+0x160c>
    394c:	f94687e8 	ldr	x8, [sp, #3336]
    3950:	f946b7e9 	ldr	x9, [sp, #3432]
    3954:	b94b63ea 	ldr	w10, [sp, #2912]
    3958:	b94b67eb 	ldr	w11, [sp, #2916]
    395c:	b94b6bec 	ldr	w12, [sp, #2920]
    3960:	b94b6fed 	ldr	w13, [sp, #2924]
    3964:	b932f10d 	str	w13, [x8, #13040]
    3968:	b932f50c 	str	w12, [x8, #13044]
    396c:	b932f90b 	str	w11, [x8, #13048]
    3970:	b932fd0a 	str	w10, [x8, #13052]
    3974:	3dccbd00 	ldr	q0, [x8, #13040]
    3978:	3d8cb900 	str	q0, [x8, #13024]
    397c:	3dccb900 	ldr	q0, [x8, #13024]
    3980:	3d8cc500 	str	q0, [x8, #13072]
    3984:	3dccc500 	ldr	q0, [x8, #13072]
    3988:	3d8cc900 	str	q0, [x8, #13088]
    398c:	3dccc900 	ldr	q0, [x8, #13088]
    3990:	3d8af500 	str	q0, [x8, #11216]
    3994:	3dc33d20 	ldr	q0, [x9, #3312]
    3998:	3d8c8100 	str	q0, [x8, #12800]
    399c:	3dcc8100 	ldr	q0, [x8, #12800]
    39a0:	914027e0 	add	x0, sp, #0x9, lsl #12
    39a4:	91230000 	add	x0, x0, #0x8c0
    39a8:	3d8c7d00 	str	q0, [x8, #12784]
    39ac:	914027e8 	add	x8, sp, #0x9, lsl #12
    39b0:	9123c108 	add	x8, x8, #0x8f0
    39b4:	90000001 	adrp	x1, d3d8 <l_alloc_345ce69d67e2022250dbe2d202815e5b>
    39b8:	91000021 	add	x1, x1, #0x0
    39bc:	94000000 	bl	0 <_<T as core::convert::Into<U>>::into>
    39c0:	14000008 	b	39e0 <_<rand_chacha::chacha::ChaCha12Core as rand_core::block::BlockRngCore>::generate+0x16a0>
    39c4:	f94687e8 	ldr	x8, [sp, #3336]
    39c8:	f9193100 	str	x0, [x8, #12896]
    39cc:	aa0103e9 	mov	x9, x1
    39d0:	b9326909 	str	w9, [x8, #12904]
    39d4:	f9593108 	ldr	x8, [x8, #12896]
    39d8:	f90677e8 	str	x8, [sp, #3304]
    39dc:	140021f2 	b	c1a4 <_<rand_chacha::chacha::ChaCha12Core as rand_core::block::BlockRngCore>::generate+0x9e64>
    39e0:	f94687e8 	ldr	x8, [sp, #3336]
    39e4:	3dcc8900 	ldr	q0, [x8, #12832]
    39e8:	3d8c8d00 	str	q0, [x8, #12848]
    39ec:	b9723101 	ldr	w1, [x8, #12848]
    39f0:	914027e0 	add	x0, sp, #0x9, lsl #12
    39f4:	9123bc00 	add	x0, x0, #0x8ef
    39f8:	94000000 	bl	0 <_<ppv_lite86::generic::u32x4_generic as ppv_lite86::types::RotateEachWord32>::rotate_each_word_right16::{{closure}}>
    39fc:	b90b5fe0 	str	w0, [sp, #2908]
    3a00:	14000001 	b	3a04 <_<rand_chacha::chacha::ChaCha12Core as rand_core::block::BlockRngCore>::generate+0x16c4>
    3a04:	f94687e8 	ldr	x8, [sp, #3336]
    3a08:	b9723501 	ldr	w1, [x8, #12852]
    3a0c:	914027e0 	add	x0, sp, #0x9, lsl #12
    3a10:	9123bc00 	add	x0, x0, #0x8ef
    3a14:	94000000 	bl	0 <_<ppv_lite86::generic::u32x4_generic as ppv_lite86::types::RotateEachWord32>::rotate_each_word_right16::{{closure}}>
    3a18:	b90b5be0 	str	w0, [sp, #2904]
    3a1c:	14000001 	b	3a20 <_<rand_chacha::chacha::ChaCha12Core as rand_core::block::BlockRngCore>::generate+0x16e0>
    3a20:	f94687e8 	ldr	x8, [sp, #3336]
    3a24:	b9723901 	ldr	w1, [x8, #12856]
    3a28:	914027e0 	add	x0, sp, #0x9, lsl #12
    3a2c:	9123bc00 	add	x0, x0, #0x8ef
    3a30:	94000000 	bl	0 <_<ppv_lite86::generic::u32x4_generic as ppv_lite86::types::RotateEachWord32>::rotate_each_word_right16::{{closure}}>
    3a34:	b90b57e0 	str	w0, [sp, #2900]
    3a38:	14000001 	b	3a3c <_<rand_chacha::chacha::ChaCha12Core as rand_core::block::BlockRngCore>::generate+0x16fc>
    3a3c:	f94687e8 	ldr	x8, [sp, #3336]
    3a40:	b9723d01 	ldr	w1, [x8, #12860]
    3a44:	914027e0 	add	x0, sp, #0x9, lsl #12
    3a48:	9123bc00 	add	x0, x0, #0x8ef
    3a4c:	94000000 	bl	0 <_<ppv_lite86::generic::u32x4_generic as ppv_lite86::types::RotateEachWord32>::rotate_each_word_right16::{{closure}}>
    3a50:	b90b53e0 	str	w0, [sp, #2896]
    3a54:	14000001 	b	3a58 <_<rand_chacha::chacha::ChaCha12Core as rand_core::block::BlockRngCore>::generate+0x1718>
    3a58:	f94687e8 	ldr	x8, [sp, #3336]
    3a5c:	b94b53e9 	ldr	w9, [sp, #2896]
    3a60:	b94b57ea 	ldr	w10, [sp, #2900]
    3a64:	b94b5beb 	ldr	w11, [sp, #2904]
    3a68:	b94b5fec 	ldr	w12, [sp, #2908]
    3a6c:	b932510c 	str	w12, [x8, #12880]
    3a70:	b932550b 	str	w11, [x8, #12884]
    3a74:	b932590a 	str	w10, [x8, #12888]
    3a78:	b9325d09 	str	w9, [x8, #12892]
    3a7c:	3dcc9500 	ldr	q0, [x8, #12880]
    3a80:	3d8c9100 	str	q0, [x8, #12864]
    3a84:	3dcc9100 	ldr	q0, [x8, #12864]
    3a88:	3d8c9d00 	str	q0, [x8, #12912]
    3a8c:	3dcc9d00 	ldr	q0, [x8, #12912]
    3a90:	3d8ca100 	str	q0, [x8, #12928]
    3a94:	3dcca100 	ldr	q0, [x8, #12928]
    3a98:	3d8af900 	str	q0, [x8, #11232]
    3a9c:	3dcaed00 	ldr	q0, [x8, #11184]
    3aa0:	914027e1 	add	x1, sp, #0x9, lsl #12
    3aa4:	91090021 	add	x1, x1, #0x240
    3aa8:	3d8add00 	str	q0, [x8, #11120]
    3aac:	3dcaf100 	ldr	q0, [x8, #11200]
    3ab0:	3d8ae100 	str	q0, [x8, #11136]
    3ab4:	3dcaf500 	ldr	q0, [x8, #11216]
    3ab8:	3d8ae500 	str	q0, [x8, #11152]
    3abc:	3dcaf900 	ldr	q0, [x8, #11232]
    3ac0:	3d8ae900 	str	q0, [x8, #11168]
    3ac4:	91400be0 	add	x0, sp, #0x2, lsl #12
    3ac8:	913e8000 	add	x0, x0, #0xfa0
    3acc:	f9059be0 	str	x0, [sp, #2864]
    3ad0:	52800808 	mov	w8, #0x40                  	// #64
    3ad4:	aa0803e2 	mov	x2, x8
    3ad8:	f905a7e2 	str	x2, [sp, #2888]
    3adc:	94000000 	bl	0 <_memcpy>
    3ae0:	f9459be1 	ldr	x1, [sp, #2864]
    3ae4:	f945a7e2 	ldr	x2, [sp, #2888]
    3ae8:	914007e8 	add	x8, sp, #0x1, lsl #12
    3aec:	91084108 	add	x8, x8, #0x210
    3af0:	f905a3e8 	str	x8, [sp, #2880]
    3af4:	91030100 	add	x0, x8, #0xc0
    3af8:	94000000 	bl	0 <_memcpy>
    3afc:	f945a3e8 	ldr	x8, [sp, #2880]
    3b00:	f945a7e2 	ldr	x2, [sp, #2888]
    3b04:	91020109 	add	x9, x8, #0x80
    3b08:	f9059fe9 	str	x9, [sp, #2872]
    3b0c:	91030101 	add	x1, x8, #0xc0
    3b10:	91400fe0 	add	x0, sp, #0x3, lsl #12
    3b14:	91028000 	add	x0, x0, #0xa0
    3b18:	94000000 	bl	0 <_memcpy>
    3b1c:	f9459fea 	ldr	x10, [sp, #2872]
    3b20:	f94687e8 	ldr	x8, [sp, #3336]
    3b24:	f946abe9 	ldr	x9, [sp, #3408]
    3b28:	f946b7eb 	ldr	x11, [sp, #3432]
    3b2c:	aa0a03ec 	mov	x12, x10
    3b30:	f93b77ec 	str	x12, [sp, #30440]
    3b34:	3dc36160 	ldr	q0, [x11, #3456]
    3b38:	3d83f500 	str	q0, [x8, #4048]
    3b3c:	f93e7fea 	str	x10, [sp, #31992]
    3b40:	3dc12520 	ldr	q0, [x9, #1168]
    3b44:	3d859500 	str	q0, [x8, #5712]
    3b48:	3dc3f500 	ldr	q0, [x8, #4048]
    3b4c:	3d859100 	str	q0, [x8, #5696]
    3b50:	3dc59500 	ldr	q0, [x8, #5712]
    3b54:	91401fe0 	add	x0, sp, #0x7, lsl #12
    3b58:	91340000 	add	x0, x0, #0xd00
    3b5c:	3d858d00 	str	q0, [x8, #5680]
    3b60:	3dc59100 	ldr	q0, [x8, #5696]
    3b64:	91401fe1 	add	x1, sp, #0x7, lsl #12
    3b68:	9134c021 	add	x1, x1, #0xd30
    3b6c:	3d859900 	str	q0, [x8, #5728]
    3b70:	91401fe8 	add	x8, sp, #0x7, lsl #12
    3b74:	9133a108 	add	x8, x8, #0xce8
    3b78:	94000000 	bl	0 <_ppv_lite86::generic::dmap2>
    3b7c:	f94687e8 	ldr	x8, [sp, #3336]
    3b80:	f946abe9 	ldr	x9, [sp, #3408]
    3b84:	f945a3ea 	ldr	x10, [sp, #2880]
    3b88:	f946b7eb 	ldr	x11, [sp, #3432]
    3b8c:	91401fec 	add	x12, sp, #0x7, lsl #12
    3b90:	912fa58c 	add	x12, x12, #0xbe9
    3b94:	3ccff180 	ldur	q0, [x12, #255]
    3b98:	3d812520 	str	q0, [x9, #1168]
    3b9c:	9102414a 	add	x10, x10, #0x90
    3ba0:	3dc36560 	ldr	q0, [x11, #3472]
    3ba4:	3d83f900 	str	q0, [x8, #4064]
    3ba8:	f93e4fea 	str	x10, [sp, #31896]
    3bac:	3dc12920 	ldr	q0, [x9, #1184]
    3bb0:	3d857d00 	str	q0, [x8, #5616]
    3bb4:	3dc3f900 	ldr	q0, [x8, #4064]
    3bb8:	3d857900 	str	q0, [x8, #5600]
    3bbc:	3dc57d00 	ldr	q0, [x8, #5616]
    3bc0:	91401fe0 	add	x0, sp, #0x7, lsl #12
    3bc4:	91328000 	add	x0, x0, #0xca0
    3bc8:	3d857500 	str	q0, [x8, #5584]
    3bcc:	3dc57900 	ldr	q0, [x8, #5600]
    3bd0:	91401fe1 	add	x1, sp, #0x7, lsl #12
    3bd4:	91334021 	add	x1, x1, #0xcd0
    3bd8:	3d858100 	str	q0, [x8, #5632]
    3bdc:	91401fe8 	add	x8, sp, #0x7, lsl #12
    3be0:	91322108 	add	x8, x8, #0xc88
    3be4:	94000000 	bl	0 <_ppv_lite86::generic::dmap2>
    3be8:	f94687e8 	ldr	x8, [sp, #3336]
    3bec:	f946abe9 	ldr	x9, [sp, #3408]
    3bf0:	f945a3ea 	ldr	x10, [sp, #2880]
    3bf4:	f946b7eb 	ldr	x11, [sp, #3432]
    3bf8:	91401fec 	add	x12, sp, #0x7, lsl #12
    3bfc:	912e258c 	add	x12, x12, #0xb89
    3c00:	3ccff180 	ldur	q0, [x12, #255]
    3c04:	3d812920 	str	q0, [x9, #1184]
    3c08:	9102814a 	add	x10, x10, #0xa0
    3c0c:	3dc36960 	ldr	q0, [x11, #3488]
    3c10:	3d83fd00 	str	q0, [x8, #4080]
    3c14:	f93e1fea 	str	x10, [sp, #31800]
    3c18:	3dc12d20 	ldr	q0, [x9, #1200]
    3c1c:	3d856500 	str	q0, [x8, #5520]
    3c20:	3dc3fd00 	ldr	q0, [x8, #4080]
    3c24:	3d856100 	str	q0, [x8, #5504]
    3c28:	3dc56500 	ldr	q0, [x8, #5520]
    3c2c:	91401fe0 	add	x0, sp, #0x7, lsl #12
    3c30:	91310000 	add	x0, x0, #0xc40
    3c34:	3d855d00 	str	q0, [x8, #5488]
    3c38:	3dc56100 	ldr	q0, [x8, #5504]
    3c3c:	91401fe1 	add	x1, sp, #0x7, lsl #12
    3c40:	9131c021 	add	x1, x1, #0xc70
    3c44:	3d856900 	str	q0, [x8, #5536]
    3c48:	91401fe8 	add	x8, sp, #0x7, lsl #12
    3c4c:	9130a108 	add	x8, x8, #0xc28
    3c50:	94000000 	bl	0 <_ppv_lite86::generic::dmap2>
    3c54:	f94687e8 	ldr	x8, [sp, #3336]
    3c58:	f946abe9 	ldr	x9, [sp, #3408]
    3c5c:	f945a3ea 	ldr	x10, [sp, #2880]
    3c60:	f946b7eb 	ldr	x11, [sp, #3432]
    3c64:	91401fec 	add	x12, sp, #0x7, lsl #12
    3c68:	912ca58c 	add	x12, x12, #0xb29
    3c6c:	3ccff180 	ldur	q0, [x12, #255]
    3c70:	3d812d20 	str	q0, [x9, #1200]
    3c74:	9102c14a 	add	x10, x10, #0xb0
    3c78:	3dc36d60 	ldr	q0, [x11, #3504]
    3c7c:	3d840100 	str	q0, [x8, #4096]
    3c80:	f93defea 	str	x10, [sp, #31704]
    3c84:	3dc13120 	ldr	q0, [x9, #1216]
    3c88:	3d854d00 	str	q0, [x8, #5424]
    3c8c:	3dc40100 	ldr	q0, [x8, #4096]
    3c90:	3d854900 	str	q0, [x8, #5408]
    3c94:	3dc54d00 	ldr	q0, [x8, #5424]
    3c98:	91401fe0 	add	x0, sp, #0x7, lsl #12
    3c9c:	912f8000 	add	x0, x0, #0xbe0
    3ca0:	3d854500 	str	q0, [x8, #5392]
    3ca4:	3dc54900 	ldr	q0, [x8, #5408]
    3ca8:	91401fe1 	add	x1, sp, #0x7, lsl #12
    3cac:	91304021 	add	x1, x1, #0xc10
    3cb0:	3d855100 	str	q0, [x8, #5440]
    3cb4:	91401fe8 	add	x8, sp, #0x7, lsl #12
    3cb8:	912f2108 	add	x8, x8, #0xbc8
    3cbc:	94000000 	bl	0 <_ppv_lite86::generic::dmap2>
    3cc0:	f946abe9 	ldr	x9, [sp, #3408]
    3cc4:	f945a3e8 	ldr	x8, [sp, #2880]
    3cc8:	f945a7e2 	ldr	x2, [sp, #2888]
    3ccc:	91401fea 	add	x10, sp, #0x7, lsl #12
    3cd0:	912b254a 	add	x10, x10, #0xac9
    3cd4:	3ccff140 	ldur	q0, [x10, #255]
    3cd8:	3d813120 	str	q0, [x9, #1216]
    3cdc:	91010101 	add	x1, x8, #0x40
    3ce0:	91400fe0 	add	x0, sp, #0x3, lsl #12
    3ce4:	91058000 	add	x0, x0, #0x160
    3ce8:	94000000 	bl	0 <_memcpy>
    3cec:	f945a3e8 	ldr	x8, [sp, #2880]
    3cf0:	f945a7e2 	ldr	x2, [sp, #2888]
    3cf4:	91020101 	add	x1, x8, #0x80
    3cf8:	91400fe0 	add	x0, sp, #0x3, lsl #12
    3cfc:	91068000 	add	x0, x0, #0x1a0
    3d00:	94000000 	bl	0 <_memcpy>
    3d04:	f946b7ea 	ldr	x10, [sp, #3432]
    3d08:	f946bbe8 	ldr	x8, [sp, #3440]
    3d0c:	f94693e9 	ldr	x9, [sp, #3360]
    3d10:	3dc39140 	ldr	q0, [x10, #3648]
    3d14:	3d841d00 	str	q0, [x8, #4208]
    3d18:	3dc3a140 	ldr	q0, [x10, #3712]
    3d1c:	3d841900 	str	q0, [x8, #4192]
    3d20:	3dc41d00 	ldr	q0, [x8, #4208]
    3d24:	914017e0 	add	x0, sp, #0x5, lsl #12
    3d28:	910fc000 	add	x0, x0, #0x3f0
    3d2c:	3d841500 	str	q0, [x8, #4176]
    3d30:	3dc41900 	ldr	q0, [x8, #4192]
    3d34:	3d842100 	str	q0, [x8, #4224]
    3d38:	3900013f 	strb	wzr, [x9]
    3d3c:	52800028 	mov	w8, #0x1                   	// #1
    3d40:	39000128 	strb	w8, [x9]
    3d44:	914017e8 	add	x8, sp, #0x5, lsl #12
    3d48:	91110108 	add	x8, x8, #0x440
    3d4c:	90000001 	adrp	x1, d408 <l_alloc_d6cd646a032ab5661bff8aa78f551e65>
    3d50:	91000021 	add	x1, x1, #0x0
    3d54:	94000000 	bl	0 <_<T as core::convert::Into<U>>::into>
    3d58:	14000008 	b	3d78 <_<rand_chacha::chacha::ChaCha12Core as rand_core::block::BlockRngCore>::generate+0x1a38>
    3d5c:	f94693e8 	ldr	x8, [sp, #3360]
    3d60:	f92a63e0 	str	x0, [sp, #21696]
    3d64:	aa0103e9 	mov	x9, x1
    3d68:	b8009109 	stur	w9, [x8, #9]
    3d6c:	39400108 	ldrb	w8, [x8]
    3d70:	37000688 	tbnz	w8, #0, 3e40 <_<rand_chacha::chacha::ChaCha12Core as rand_core::block::BlockRngCore>::generate+0x1b00>
    3d74:	14000030 	b	3e34 <_<rand_chacha::chacha::ChaCha12Core as rand_core::block::BlockRngCore>::generate+0x1af4>
    3d78:	f946bbe8 	ldr	x8, [sp, #3440]
    3d7c:	f94693e9 	ldr	x9, [sp, #3360]
    3d80:	3900013f 	strb	wzr, [x9]
    3d84:	3dc42100 	ldr	q0, [x8, #4224]
    3d88:	914017e0 	add	x0, sp, #0x5, lsl #12
    3d8c:	91118000 	add	x0, x0, #0x460
    3d90:	3d843100 	str	q0, [x8, #4288]
    3d94:	914017e8 	add	x8, sp, #0x5, lsl #12
    3d98:	91114108 	add	x8, x8, #0x450
    3d9c:	90000001 	adrp	x1, d420 <l_alloc_eb8937521ab56b1815db886b021bd11a>
    3da0:	91000021 	add	x1, x1, #0x0
    3da4:	94000000 	bl	0 <_<T as core::convert::Into<U>>::into>
    3da8:	14000001 	b	3dac <_<rand_chacha::chacha::ChaCha12Core as rand_core::block::BlockRngCore>::generate+0x1a6c>
    3dac:	f94693e8 	ldr	x8, [sp, #3360]
    3db0:	f946bbea 	ldr	x10, [sp, #3440]
    3db4:	3dc42940 	ldr	q0, [x10, #4256]
    3db8:	3d843540 	str	q0, [x10, #4304]
    3dbc:	f96a3bec 	ldr	x12, [sp, #21616]
    3dc0:	d2800009 	mov	x9, #0x0                   	// #0
    3dc4:	f92a97ec 	str	x12, [sp, #21800]
    3dc8:	f96a3feb 	ldr	x11, [sp, #21624]
    3dcc:	f92a93eb 	str	x11, [sp, #21792]
    3dd0:	aa090181 	orr	x1, x12, x9
    3dd4:	aa0b0122 	orr	x2, x9, x11
    3dd8:	4e081c20 	mov	v0.d[0], x1
    3ddc:	4e181c40 	mov	v0.d[1], x2
    3de0:	3c811100 	stur	q0, [x8, #17]
    3de4:	3dc42d40 	ldr	q0, [x10, #4272]
    3de8:	3d843940 	str	q0, [x10, #4320]
    3dec:	f96a43eb 	ldr	x11, [sp, #21632]
    3df0:	f92a9feb 	str	x11, [sp, #21816]
    3df4:	f96a47ea 	ldr	x10, [sp, #21640]
    3df8:	f92a9bea 	str	x10, [sp, #21808]
    3dfc:	aa090163 	orr	x3, x11, x9
    3e00:	aa0a0124 	orr	x4, x9, x10
    3e04:	4e081c60 	mov	v0.d[0], x3
    3e08:	4e181c80 	mov	v0.d[1], x4
    3e0c:	3c821100 	stur	q0, [x8, #33]
    3e10:	914017e0 	add	x0, sp, #0x5, lsl #12
    3e14:	9110fc00 	add	x0, x0, #0x43f
    3e18:	94000000 	bl	0 <_<ppv_lite86::generic::u32x4_generic as core::ops::bit::BitXor>::bitxor::{{closure}}>
    3e1c:	f9058be0 	str	x0, [sp, #2832]
    3e20:	f9058fe1 	str	x1, [sp, #2840]
    3e24:	4e081c00 	mov	v0.d[0], x0
    3e28:	4e181c20 	mov	v0.d[1], x1
    3e2c:	3d82cbe0 	str	q0, [sp, #2848]
    3e30:	14000005 	b	3e44 <_<rand_chacha::chacha::ChaCha12Core as rand_core::block::BlockRngCore>::generate+0x1b04>
    3e34:	f96a63e8 	ldr	x8, [sp, #21696]
    3e38:	f90677e8 	str	x8, [sp, #3304]
    3e3c:	140020da 	b	c1a4 <_<rand_chacha::chacha::ChaCha12Core as rand_core::block::BlockRngCore>::generate+0x9e64>
    3e40:	17fffffd 	b	3e34 <_<rand_chacha::chacha::ChaCha12Core as rand_core::block::BlockRngCore>::generate+0x1af4>
    3e44:	f946bbe9 	ldr	x9, [sp, #3440]
    3e48:	f946b7e8 	ldr	x8, [sp, #3432]
    3e4c:	f94693ea 	ldr	x10, [sp, #3360]
    3e50:	f9458feb 	ldr	x11, [sp, #2840]
    3e54:	f9458bec 	ldr	x12, [sp, #2832]
    3e58:	3dc2cbe0 	ldr	q0, [sp, #2848]
    3e5c:	3c841140 	stur	q0, [x10, #65]
    3e60:	f92a57ec 	str	x12, [sp, #21672]
    3e64:	f92a5beb 	str	x11, [sp, #21680]
    3e68:	914017eb 	add	x11, sp, #0x5, lsl #12
    3e6c:	910ea56b 	add	x11, x11, #0x3a9
    3e70:	3ccff160 	ldur	q0, [x11, #255]
    3e74:	3d843d20 	str	q0, [x9, #4336]
    3e78:	3dc43d20 	ldr	q0, [x9, #4336]
    3e7c:	3c831140 	stur	q0, [x10, #49]
    3e80:	3cc31140 	ldur	q0, [x10, #49]
    3e84:	3c851140 	stur	q0, [x10, #81]
    3e88:	3cc51140 	ldur	q0, [x10, #81]
    3e8c:	3d867100 	str	q0, [x8, #6592]
    3e90:	3dc39500 	ldr	q0, [x8, #3664]
    3e94:	3d83c920 	str	q0, [x9, #3872]
    3e98:	3dc3a500 	ldr	q0, [x8, #3728]
    3e9c:	3d83c520 	str	q0, [x9, #3856]
    3ea0:	3dc3c920 	ldr	q0, [x9, #3872]
    3ea4:	914017e0 	add	x0, sp, #0x5, lsl #12
    3ea8:	910a8000 	add	x0, x0, #0x2a0
    3eac:	3d83c120 	str	q0, [x9, #3840]
    3eb0:	3dc3c520 	ldr	q0, [x9, #3856]
    3eb4:	3d83cd20 	str	q0, [x9, #3888]
    3eb8:	393f3d3f 	strb	wzr, [x9, #4047]
    3ebc:	52800028 	mov	w8, #0x1                   	// #1
    3ec0:	393f3d28 	strb	w8, [x9, #4047]
    3ec4:	914017e8 	add	x8, sp, #0x5, lsl #12
    3ec8:	910bc108 	add	x8, x8, #0x2f0
    3ecc:	90000001 	adrp	x1, d408 <l_alloc_d6cd646a032ab5661bff8aa78f551e65>
    3ed0:	91000021 	add	x1, x1, #0x0
    3ed4:	94000000 	bl	0 <_<T as core::convert::Into<U>>::into>
    3ed8:	14000008 	b	3ef8 <_<rand_chacha::chacha::ChaCha12Core as rand_core::block::BlockRngCore>::generate+0x1bb8>
    3edc:	f946bbe8 	ldr	x8, [sp, #3440]
    3ee0:	f929bbe0 	str	x0, [sp, #21360]
    3ee4:	aa0103e9 	mov	x9, x1
    3ee8:	b90fd909 	str	w9, [x8, #4056]
    3eec:	397f3d08 	ldrb	w8, [x8, #4047]
    3ef0:	370006a8 	tbnz	w8, #0, 3fc4 <_<rand_chacha::chacha::ChaCha12Core as rand_core::block::BlockRngCore>::generate+0x1c84>
    3ef4:	1400002e 	b	3fac <_<rand_chacha::chacha::ChaCha12Core as rand_core::block::BlockRngCore>::generate+0x1c6c>
    3ef8:	f946bbe8 	ldr	x8, [sp, #3440]
    3efc:	393f3d1f 	strb	wzr, [x8, #4047]
    3f00:	3dc3cd00 	ldr	q0, [x8, #3888]
    3f04:	914017e0 	add	x0, sp, #0x5, lsl #12
    3f08:	910c4000 	add	x0, x0, #0x310
    3f0c:	3d83dd00 	str	q0, [x8, #3952]
    3f10:	914017e8 	add	x8, sp, #0x5, lsl #12
    3f14:	910c0108 	add	x8, x8, #0x300
    3f18:	90000001 	adrp	x1, d420 <l_alloc_eb8937521ab56b1815db886b021bd11a>
    3f1c:	91000021 	add	x1, x1, #0x0
    3f20:	94000000 	bl	0 <_<T as core::convert::Into<U>>::into>
    3f24:	14000001 	b	3f28 <_<rand_chacha::chacha::ChaCha12Core as rand_core::block::BlockRngCore>::generate+0x1be8>
    3f28:	f946bbe8 	ldr	x8, [sp, #3440]
    3f2c:	3dc3d500 	ldr	q0, [x8, #3920]
    3f30:	3d83e100 	str	q0, [x8, #3968]
    3f34:	f96993eb 	ldr	x11, [sp, #21280]
    3f38:	d2800009 	mov	x9, #0x0                   	// #0
    3f3c:	f929efeb 	str	x11, [sp, #21464]
    3f40:	f96997ea 	ldr	x10, [sp, #21288]
    3f44:	f929ebea 	str	x10, [sp, #21456]
    3f48:	aa090161 	orr	x1, x11, x9
    3f4c:	aa0a0122 	orr	x2, x9, x10
    3f50:	4e081c20 	mov	v0.d[0], x1
    3f54:	4e181c40 	mov	v0.d[1], x2
    3f58:	3d83f900 	str	q0, [x8, #4064]
    3f5c:	3dc3d900 	ldr	q0, [x8, #3936]
    3f60:	3d83e500 	str	q0, [x8, #3984]
    3f64:	f9699beb 	ldr	x11, [sp, #21296]
    3f68:	f929f7eb 	str	x11, [sp, #21480]
    3f6c:	f9699fea 	ldr	x10, [sp, #21304]
    3f70:	f929f3ea 	str	x10, [sp, #21472]
    3f74:	aa090163 	orr	x3, x11, x9
    3f78:	aa0a0124 	orr	x4, x9, x10
    3f7c:	4e081c60 	mov	v0.d[0], x3
    3f80:	4e181c80 	mov	v0.d[1], x4
    3f84:	3d83fd00 	str	q0, [x8, #4080]
    3f88:	914017e0 	add	x0, sp, #0x5, lsl #12
    3f8c:	910bbc00 	add	x0, x0, #0x2ef
    3f90:	94000000 	bl	0 <_<ppv_lite86::generic::u32x4_generic as core::ops::bit::BitXor>::bitxor::{{closure}}>
    3f94:	f9057be0 	str	x0, [sp, #2800]
    3f98:	f9057fe1 	str	x1, [sp, #2808]
    3f9c:	4e081c00 	mov	v0.d[0], x0
    3fa0:	4e181c20 	mov	v0.d[1], x1
    3fa4:	3d82c3e0 	str	q0, [sp, #2816]
    3fa8:	14000008 	b	3fc8 <_<rand_chacha::chacha::ChaCha12Core as rand_core::block::BlockRngCore>::generate+0x1c88>
    3fac:	f946bbe8 	ldr	x8, [sp, #3440]
    3fb0:	f969bbe9 	ldr	x9, [sp, #21360]
    3fb4:	f90573e9 	str	x9, [sp, #2784]
    3fb8:	b94fd908 	ldr	w8, [x8, #4056]
    3fbc:	b90aefe8 	str	w8, [sp, #2796]
    3fc0:	14000018 	b	4020 <_<rand_chacha::chacha::ChaCha12Core as rand_core::block::BlockRngCore>::generate+0x1ce0>
    3fc4:	17fffffa 	b	3fac <_<rand_chacha::chacha::ChaCha12Core as rand_core::block::BlockRngCore>::generate+0x1c6c>
    3fc8:	f946b7e8 	ldr	x8, [sp, #3432]
    3fcc:	f946bbe9 	ldr	x9, [sp, #3440]
    3fd0:	f9457fea 	ldr	x10, [sp, #2808]
    3fd4:	f9457beb 	ldr	x11, [sp, #2800]
    3fd8:	3dc2c3e0 	ldr	q0, [sp, #2816]
    3fdc:	3d840520 	str	q0, [x9, #4112]
    3fe0:	f929afeb 	str	x11, [sp, #21336]
    3fe4:	f929b3ea 	str	x10, [sp, #21344]
    3fe8:	914017ea 	add	x10, sp, #0x5, lsl #12
    3fec:	9109654a 	add	x10, x10, #0x259
    3ff0:	3ccff140 	ldur	q0, [x10, #255]
    3ff4:	3d83e920 	str	q0, [x9, #4000]
    3ff8:	3dc3e920 	ldr	q0, [x9, #4000]
    3ffc:	3d840120 	str	q0, [x9, #4096]
    4000:	3dc40120 	ldr	q0, [x9, #4096]
    4004:	3d840920 	str	q0, [x9, #4128]
    4008:	3dc40920 	ldr	q0, [x9, #4128]
    400c:	3d867500 	str	q0, [x8, #6608]
    4010:	14000009 	b	4034 <_<rand_chacha::chacha::ChaCha12Core as rand_core::block::BlockRngCore>::generate+0x1cf4>
    4014:	f95e93e8 	ldr	x8, [sp, #15648]
    4018:	f90677e8 	str	x8, [sp, #3304]
    401c:	14002062 	b	c1a4 <_<rand_chacha::chacha::ChaCha12Core as rand_core::block::BlockRngCore>::generate+0x9e64>
    4020:	b94aefe8 	ldr	w8, [sp, #2796]
    4024:	f94573e9 	ldr	x9, [sp, #2784]
    4028:	f91e93e9 	str	x9, [sp, #15648]
    402c:	b93d2be8 	str	w8, [sp, #15656]
    4030:	17fffff9 	b	4014 <_<rand_chacha::chacha::ChaCha12Core as rand_core::block::BlockRngCore>::generate+0x1cd4>
    4034:	f946bbe9 	ldr	x9, [sp, #3440]
    4038:	f946b7e8 	ldr	x8, [sp, #3432]
    403c:	3dc39900 	ldr	q0, [x8, #3680]
    4040:	3d837520 	str	q0, [x9, #3536]
    4044:	3dc3a900 	ldr	q0, [x8, #3744]
    4048:	3d837120 	str	q0, [x9, #3520]
    404c:	3dc37520 	ldr	q0, [x9, #3536]
    4050:	914017e0 	add	x0, sp, #0x5, lsl #12
    4054:	91054000 	add	x0, x0, #0x150
    4058:	3d836d20 	str	q0, [x9, #3504]
    405c:	3dc37120 	ldr	q0, [x9, #3520]
    4060:	3d837920 	str	q0, [x9, #3552]
    4064:	3939fd3f 	strb	wzr, [x9, #3711]
    4068:	52800028 	mov	w8, #0x1                   	// #1
    406c:	3939fd28 	strb	w8, [x9, #3711]
    4070:	914017e8 	add	x8, sp, #0x5, lsl #12
    4074:	91068108 	add	x8, x8, #0x1a0
    4078:	90000001 	adrp	x1, d408 <l_alloc_d6cd646a032ab5661bff8aa78f551e65>
    407c:	91000021 	add	x1, x1, #0x0
    4080:	94000000 	bl	0 <_<T as core::convert::Into<U>>::into>
    4084:	14000008 	b	40a4 <_<rand_chacha::chacha::ChaCha12Core as rand_core::block::BlockRngCore>::generate+0x1d64>
    4088:	f946bbe8 	ldr	x8, [sp, #3440]
    408c:	f92913e0 	str	x0, [sp, #21024]
    4090:	aa0103e9 	mov	x9, x1
    4094:	b90e8909 	str	w9, [x8, #3720]
    4098:	3979fd08 	ldrb	w8, [x8, #3711]
    409c:	370006a8 	tbnz	w8, #0, 4170 <_<rand_chacha::chacha::ChaCha12Core as rand_core::block::BlockRngCore>::generate+0x1e30>
    40a0:	1400002e 	b	4158 <_<rand_chacha::chacha::ChaCha12Core as rand_core::block::BlockRngCore>::generate+0x1e18>
    40a4:	f946bbe8 	ldr	x8, [sp, #3440]
    40a8:	3939fd1f 	strb	wzr, [x8, #3711]
    40ac:	3dc37900 	ldr	q0, [x8, #3552]
    40b0:	914017e0 	add	x0, sp, #0x5, lsl #12
    40b4:	91070000 	add	x0, x0, #0x1c0
    40b8:	3d838900 	str	q0, [x8, #3616]
    40bc:	914017e8 	add	x8, sp, #0x5, lsl #12
    40c0:	9106c108 	add	x8, x8, #0x1b0
    40c4:	90000001 	adrp	x1, d420 <l_alloc_eb8937521ab56b1815db886b021bd11a>
    40c8:	91000021 	add	x1, x1, #0x0
    40cc:	94000000 	bl	0 <_<T as core::convert::Into<U>>::into>
    40d0:	14000001 	b	40d4 <_<rand_chacha::chacha::ChaCha12Core as rand_core::block::BlockRngCore>::generate+0x1d94>
    40d4:	f946bbe8 	ldr	x8, [sp, #3440]
    40d8:	3dc38100 	ldr	q0, [x8, #3584]
    40dc:	3d838d00 	str	q0, [x8, #3632]
    40e0:	f968ebeb 	ldr	x11, [sp, #20944]
    40e4:	d2800009 	mov	x9, #0x0                   	// #0
    40e8:	f92947eb 	str	x11, [sp, #21128]
    40ec:	f968efea 	ldr	x10, [sp, #20952]
    40f0:	f92943ea 	str	x10, [sp, #21120]
    40f4:	aa090161 	orr	x1, x11, x9
    40f8:	aa0a0122 	orr	x2, x9, x10
    40fc:	4e081c20 	mov	v0.d[0], x1
    4100:	4e181c40 	mov	v0.d[1], x2
    4104:	3d83a500 	str	q0, [x8, #3728]
    4108:	3dc38500 	ldr	q0, [x8, #3600]
    410c:	3d839100 	str	q0, [x8, #3648]
    4110:	f968f3eb 	ldr	x11, [sp, #20960]
    4114:	f9294feb 	str	x11, [sp, #21144]
    4118:	f968f7ea 	ldr	x10, [sp, #20968]
    411c:	f9294bea 	str	x10, [sp, #21136]
    4120:	aa090163 	orr	x3, x11, x9
    4124:	aa0a0124 	orr	x4, x9, x10
    4128:	4e081c60 	mov	v0.d[0], x3
    412c:	4e181c80 	mov	v0.d[1], x4
    4130:	3d83a900 	str	q0, [x8, #3744]
    4134:	914017e0 	add	x0, sp, #0x5, lsl #12
    4138:	91067c00 	add	x0, x0, #0x19f
    413c:	94000000 	bl	0 <_<ppv_lite86::generic::u32x4_generic as core::ops::bit::BitXor>::bitxor::{{closure}}>
    4140:	f90563e0 	str	x0, [sp, #2752]
    4144:	f90567e1 	str	x1, [sp, #2760]
    4148:	4e081c00 	mov	v0.d[0], x0
    414c:	4e181c20 	mov	v0.d[1], x1
    4150:	3d82b7e0 	str	q0, [sp, #2768]
    4154:	14000008 	b	4174 <_<rand_chacha::chacha::ChaCha12Core as rand_core::block::BlockRngCore>::generate+0x1e34>
    4158:	f946bbe8 	ldr	x8, [sp, #3440]
    415c:	f96913e9 	ldr	x9, [sp, #21024]
    4160:	f9055be9 	str	x9, [sp, #2736]
    4164:	b94e8908 	ldr	w8, [x8, #3720]
    4168:	b90abfe8 	str	w8, [sp, #2748]
    416c:	14000016 	b	41c4 <_<rand_chacha::chacha::ChaCha12Core as rand_core::block::BlockRngCore>::generate+0x1e84>
    4170:	17fffffa 	b	4158 <_<rand_chacha::chacha::ChaCha12Core as rand_core::block::BlockRngCore>::generate+0x1e18>
    4174:	f946b7e8 	ldr	x8, [sp, #3432]
    4178:	f946bbe9 	ldr	x9, [sp, #3440]
    417c:	f94567ea 	ldr	x10, [sp, #2760]
    4180:	f94563eb 	ldr	x11, [sp, #2752]
    4184:	3dc2b7e0 	ldr	q0, [sp, #2768]
    4188:	3d83b120 	str	q0, [x9, #3776]
    418c:	f92907eb 	str	x11, [sp, #21000]
    4190:	f9290bea 	str	x10, [sp, #21008]
    4194:	914017ea 	add	x10, sp, #0x5, lsl #12
    4198:	9104254a 	add	x10, x10, #0x109
    419c:	3ccff140 	ldur	q0, [x10, #255]
    41a0:	3d839520 	str	q0, [x9, #3664]
    41a4:	3dc39520 	ldr	q0, [x9, #3664]
    41a8:	3d83ad20 	str	q0, [x9, #3760]
    41ac:	3dc3ad20 	ldr	q0, [x9, #3760]
    41b0:	3d83b520 	str	q0, [x9, #3792]
    41b4:	3dc3b520 	ldr	q0, [x9, #3792]
    41b8:	3d867900 	str	q0, [x8, #6624]
    41bc:	14000007 	b	41d8 <_<rand_chacha::chacha::ChaCha12Core as rand_core::block::BlockRngCore>::generate+0x1e98>
    41c0:	17ffff95 	b	4014 <_<rand_chacha::chacha::ChaCha12Core as rand_core::block::BlockRngCore>::generate+0x1cd4>
    41c4:	b94abfe8 	ldr	w8, [sp, #2748]
    41c8:	f9455be9 	ldr	x9, [sp, #2736]
    41cc:	f91e93e9 	str	x9, [sp, #15648]
    41d0:	b93d2be8 	str	w8, [sp, #15656]
    41d4:	17fffffb 	b	41c0 <_<rand_chacha::chacha::ChaCha12Core as rand_core::block::BlockRngCore>::generate+0x1e80>
    41d8:	f946bbe9 	ldr	x9, [sp, #3440]
    41dc:	f946b7e8 	ldr	x8, [sp, #3432]
    41e0:	3dc39d00 	ldr	q0, [x8, #3696]
    41e4:	3d832120 	str	q0, [x9, #3200]
    41e8:	3dc3ad00 	ldr	q0, [x8, #3760]
    41ec:	3d831d20 	str	q0, [x9, #3184]
    41f0:	3dc32120 	ldr	q0, [x9, #3200]
    41f4:	914017e0 	add	x0, sp, #0x5, lsl #12
    41f8:	3d831920 	str	q0, [x9, #3168]
    41fc:	3dc31d20 	ldr	q0, [x9, #3184]
    4200:	3d832520 	str	q0, [x9, #3216]
    4204:	3934bd3f 	strb	wzr, [x9, #3375]
    4208:	52800028 	mov	w8, #0x1                   	// #1
    420c:	3934bd28 	strb	w8, [x9, #3375]
    4210:	914017e8 	add	x8, sp, #0x5, lsl #12
    4214:	91014108 	add	x8, x8, #0x50
    4218:	90000001 	adrp	x1, d408 <l_alloc_d6cd646a032ab5661bff8aa78f551e65>
    421c:	91000021 	add	x1, x1, #0x0
    4220:	94000000 	bl	0 <_<T as core::convert::Into<U>>::into>
    4224:	14000008 	b	4244 <_<rand_chacha::chacha::ChaCha12Core as rand_core::block::BlockRngCore>::generate+0x1f04>
    4228:	f946bbe8 	ldr	x8, [sp, #3440]
    422c:	f9286be0 	str	x0, [sp, #20688]
    4230:	aa0103e9 	mov	x9, x1
    4234:	b90d3909 	str	w9, [x8, #3384]
    4238:	3974bd08 	ldrb	w8, [x8, #3375]
    423c:	370006a8 	tbnz	w8, #0, 4310 <_<rand_chacha::chacha::ChaCha12Core as rand_core::block::BlockRngCore>::generate+0x1fd0>
    4240:	1400002e 	b	42f8 <_<rand_chacha::chacha::ChaCha12Core as rand_core::block::BlockRngCore>::generate+0x1fb8>
    4244:	f946bbe8 	ldr	x8, [sp, #3440]
    4248:	3934bd1f 	strb	wzr, [x8, #3375]
    424c:	3dc32500 	ldr	q0, [x8, #3216]
    4250:	914017e0 	add	x0, sp, #0x5, lsl #12
    4254:	9101c000 	add	x0, x0, #0x70
    4258:	3d833500 	str	q0, [x8, #3280]
    425c:	914017e8 	add	x8, sp, #0x5, lsl #12
    4260:	91018108 	add	x8, x8, #0x60
    4264:	90000001 	adrp	x1, d420 <l_alloc_eb8937521ab56b1815db886b021bd11a>
    4268:	91000021 	add	x1, x1, #0x0
    426c:	94000000 	bl	0 <_<T as core::convert::Into<U>>::into>
    4270:	14000001 	b	4274 <_<rand_chacha::chacha::ChaCha12Core as rand_core::block::BlockRngCore>::generate+0x1f34>
    4274:	f946bbe8 	ldr	x8, [sp, #3440]
    4278:	3dc32d00 	ldr	q0, [x8, #3248]
    427c:	3d833900 	str	q0, [x8, #3296]
    4280:	f96843eb 	ldr	x11, [sp, #20608]
    4284:	d2800009 	mov	x9, #0x0                   	// #0
    4288:	f9289feb 	str	x11, [sp, #20792]
    428c:	f96847ea 	ldr	x10, [sp, #20616]
    4290:	f9289bea 	str	x10, [sp, #20784]
    4294:	aa090161 	orr	x1, x11, x9
    4298:	aa0a0122 	orr	x2, x9, x10
    429c:	4e081c20 	mov	v0.d[0], x1
    42a0:	4e181c40 	mov	v0.d[1], x2
    42a4:	3d835100 	str	q0, [x8, #3392]
    42a8:	3dc33100 	ldr	q0, [x8, #3264]
    42ac:	3d833d00 	str	q0, [x8, #3312]
    42b0:	f9684beb 	ldr	x11, [sp, #20624]
    42b4:	f928a7eb 	str	x11, [sp, #20808]
    42b8:	f9684fea 	ldr	x10, [sp, #20632]
    42bc:	f928a3ea 	str	x10, [sp, #20800]
    42c0:	aa090163 	orr	x3, x11, x9
    42c4:	aa0a0124 	orr	x4, x9, x10
    42c8:	4e081c60 	mov	v0.d[0], x3
    42cc:	4e181c80 	mov	v0.d[1], x4
    42d0:	3d835500 	str	q0, [x8, #3408]
    42d4:	914017e0 	add	x0, sp, #0x5, lsl #12
    42d8:	91013c00 	add	x0, x0, #0x4f
    42dc:	94000000 	bl	0 <_<ppv_lite86::generic::u32x4_generic as core::ops::bit::BitXor>::bitxor::{{closure}}>
    42e0:	f9054be0 	str	x0, [sp, #2704]
    42e4:	f9054fe1 	str	x1, [sp, #2712]
    42e8:	4e081c00 	mov	v0.d[0], x0
    42ec:	4e181c20 	mov	v0.d[1], x1
    42f0:	3d82abe0 	str	q0, [sp, #2720]
    42f4:	14000008 	b	4314 <_<rand_chacha::chacha::ChaCha12Core as rand_core::block::BlockRngCore>::generate+0x1fd4>
    42f8:	f946bbe8 	ldr	x8, [sp, #3440]
    42fc:	f9686be9 	ldr	x9, [sp, #20688]
    4300:	f90543e9 	str	x9, [sp, #2688]
    4304:	b94d3908 	ldr	w8, [x8, #3384]
    4308:	b90a8fe8 	str	w8, [sp, #2700]
    430c:	14000015 	b	4360 <_<rand_chacha::chacha::ChaCha12Core as rand_core::block::BlockRngCore>::generate+0x2020>
    4310:	17fffffa 	b	42f8 <_<rand_chacha::chacha::ChaCha12Core as rand_core::block::BlockRngCore>::generate+0x1fb8>
    4314:	f946b7e8 	ldr	x8, [sp, #3432]
    4318:	f946bbe9 	ldr	x9, [sp, #3440]
    431c:	f9454fea 	ldr	x10, [sp, #2712]
    4320:	f9454beb 	ldr	x11, [sp, #2704]
    4324:	3dc2abe0 	ldr	q0, [sp, #2720]
    4328:	3d835d20 	str	q0, [x9, #3440]
    432c:	f9285feb 	str	x11, [sp, #20664]
    4330:	f92863ea 	str	x10, [sp, #20672]
    4334:	914013ea 	add	x10, sp, #0x4, lsl #12
    4338:	913ee54a 	add	x10, x10, #0xfb9
    433c:	3ccff140 	ldur	q0, [x10, #255]
    4340:	3d834120 	str	q0, [x9, #3328]
    4344:	3dc34120 	ldr	q0, [x9, #3328]
    4348:	3d835920 	str	q0, [x9, #3424]
    434c:	3dc35920 	ldr	q0, [x9, #3424]
    4350:	3d836120 	str	q0, [x9, #3456]
    4354:	3dc36120 	ldr	q0, [x9, #3456]
    4358:	3d867d00 	str	q0, [x8, #6640]
    435c:	14000006 	b	4374 <_<rand_chacha::chacha::ChaCha12Core as rand_core::block::BlockRngCore>::generate+0x2034>
    4360:	b94a8fe8 	ldr	w8, [sp, #2700]
    4364:	f94543e9 	ldr	x9, [sp, #2688]
    4368:	f91e93e9 	str	x9, [sp, #15648]
    436c:	b93d2be8 	str	w8, [sp, #15656]
    4370:	17ffff94 	b	41c0 <_<rand_chacha::chacha::ChaCha12Core as rand_core::block::BlockRngCore>::generate+0x1e80>
    4374:	f946b7e8 	ldr	x8, [sp, #3432]
    4378:	3dc67100 	ldr	q0, [x8, #6592]
    437c:	91400fe1 	add	x1, sp, #0x3, lsl #12
    4380:	91328021 	add	x1, x1, #0xca0
    4384:	3d866100 	str	q0, [x8, #6528]
    4388:	3dc67500 	ldr	q0, [x8, #6608]
    438c:	3d866500 	str	q0, [x8, #6544]
    4390:	3dc67900 	ldr	q0, [x8, #6624]
    4394:	3d866900 	str	q0, [x8, #6560]
    4398:	3dc67d00 	ldr	q0, [x8, #6640]
    439c:	3d866d00 	str	q0, [x8, #6576]
    43a0:	91400fe0 	add	x0, sp, #0x3, lsl #12
    43a4:	91048000 	add	x0, x0, #0x120
    43a8:	52800808 	mov	w8, #0x40                  	// #64
    43ac:	aa0803e2 	mov	x2, x8
    43b0:	94000000 	bl	0 <_memcpy>
    43b4:	f946b7e9 	ldr	x9, [sp, #3432]
    43b8:	f94687e8 	ldr	x8, [sp, #3336]
    43bc:	3dc38120 	ldr	q0, [x9, #3584]
    43c0:	3d8e3900 	str	q0, [x8, #14560]
    43c4:	3dce3900 	ldr	q0, [x8, #14560]
    43c8:	914027e0 	add	x0, sp, #0x9, lsl #12
    43cc:	913e8000 	add	x0, x0, #0xfa0
    43d0:	3d8e3500 	str	q0, [x8, #14544]
    43d4:	914027e8 	add	x8, sp, #0x9, lsl #12
    43d8:	913f4108 	add	x8, x8, #0xfd0
    43dc:	90000001 	adrp	x1, d3d8 <l_alloc_345ce69d67e2022250dbe2d202815e5b>
    43e0:	91000021 	add	x1, x1, #0x0
    43e4:	94000000 	bl	0 <_<T as core::convert::Into<U>>::into>
    43e8:	14000008 	b	4408 <_<rand_chacha::chacha::ChaCha12Core as rand_core::block::BlockRngCore>::generate+0x20c8>
    43ec:	f94687e8 	ldr	x8, [sp, #3336]
    43f0:	f91ca100 	str	x0, [x8, #14656]
    43f4:	aa0103e9 	mov	x9, x1
    43f8:	b9394909 	str	w9, [x8, #14664]
    43fc:	f95ca108 	ldr	x8, [x8, #14656]
    4400:	f90677e8 	str	x8, [sp, #3304]
    4404:	14001f68 	b	c1a4 <_<rand_chacha::chacha::ChaCha12Core as rand_core::block::BlockRngCore>::generate+0x9e64>
    4408:	f94687e8 	ldr	x8, [sp, #3336]
    440c:	3dce4100 	ldr	q0, [x8, #14592]
    4410:	3d8e4500 	str	q0, [x8, #14608]
    4414:	b9791101 	ldr	w1, [x8, #14608]
    4418:	914027e0 	add	x0, sp, #0x9, lsl #12
    441c:	913f3c00 	add	x0, x0, #0xfcf
    4420:	94000000 	bl	0 <_<ppv_lite86::generic::u32x4_generic as ppv_lite86::types::RotateEachWord32>::rotate_each_word_right20::{{closure}}>
    4424:	b90a7fe0 	str	w0, [sp, #2684]
    4428:	14000001 	b	442c <_<rand_chacha::chacha::ChaCha12Core as rand_core::block::BlockRngCore>::generate+0x20ec>
    442c:	f94687e8 	ldr	x8, [sp, #3336]
    4430:	b9791501 	ldr	w1, [x8, #14612]
    4434:	914027e0 	add	x0, sp, #0x9, lsl #12
    4438:	913f3c00 	add	x0, x0, #0xfcf
    443c:	94000000 	bl	0 <_<ppv_lite86::generic::u32x4_generic as ppv_lite86::types::RotateEachWord32>::rotate_each_word_right20::{{closure}}>
    4440:	b90a7be0 	str	w0, [sp, #2680]
    4444:	14000001 	b	4448 <_<rand_chacha::chacha::ChaCha12Core as rand_core::block::BlockRngCore>::generate+0x2108>
    4448:	f94687e8 	ldr	x8, [sp, #3336]
    444c:	b9791901 	ldr	w1, [x8, #14616]
    4450:	914027e0 	add	x0, sp, #0x9, lsl #12
    4454:	913f3c00 	add	x0, x0, #0xfcf
    4458:	94000000 	bl	0 <_<ppv_lite86::generic::u32x4_generic as ppv_lite86::types::RotateEachWord32>::rotate_each_word_right20::{{closure}}>
    445c:	b90a77e0 	str	w0, [sp, #2676]
    4460:	14000001 	b	4464 <_<rand_chacha::chacha::ChaCha12Core as rand_core::block::BlockRngCore>::generate+0x2124>
    4464:	f94687e8 	ldr	x8, [sp, #3336]
    4468:	b9791d01 	ldr	w1, [x8, #14620]
    446c:	914027e0 	add	x0, sp, #0x9, lsl #12
    4470:	913f3c00 	add	x0, x0, #0xfcf
    4474:	94000000 	bl	0 <_<ppv_lite86::generic::u32x4_generic as ppv_lite86::types::RotateEachWord32>::rotate_each_word_right20::{{closure}}>
    4478:	b90a73e0 	str	w0, [sp, #2672]
    447c:	14000001 	b	4480 <_<rand_chacha::chacha::ChaCha12Core as rand_core::block::BlockRngCore>::generate+0x2140>
    4480:	f94687e8 	ldr	x8, [sp, #3336]
    4484:	f946b7e9 	ldr	x9, [sp, #3432]
    4488:	b94a73ea 	ldr	w10, [sp, #2672]
    448c:	b94a77eb 	ldr	w11, [sp, #2676]
    4490:	b94a7bec 	ldr	w12, [sp, #2680]
    4494:	b94a7fed 	ldr	w13, [sp, #2684]
    4498:	b939310d 	str	w13, [x8, #14640]
    449c:	b939350c 	str	w12, [x8, #14644]
    44a0:	b939390b 	str	w11, [x8, #14648]
    44a4:	b9393d0a 	str	w10, [x8, #14652]
    44a8:	3dce4d00 	ldr	q0, [x8, #14640]
    44ac:	3d8e4900 	str	q0, [x8, #14624]
    44b0:	3dce4900 	ldr	q0, [x8, #14624]
    44b4:	3d8e5500 	str	q0, [x8, #14672]
    44b8:	3dce5500 	ldr	q0, [x8, #14672]
    44bc:	3d8e5900 	str	q0, [x8, #14688]
    44c0:	3dce5900 	ldr	q0, [x8, #14688]
    44c4:	3d8b2d00 	str	q0, [x8, #11440]
    44c8:	3dc38520 	ldr	q0, [x9, #3600]
    44cc:	3d8e1100 	str	q0, [x8, #14400]
    44d0:	3dce1100 	ldr	q0, [x8, #14400]
    44d4:	914027e0 	add	x0, sp, #0x9, lsl #12
    44d8:	913c0000 	add	x0, x0, #0xf00
    44dc:	3d8e0d00 	str	q0, [x8, #14384]
    44e0:	914027e8 	add	x8, sp, #0x9, lsl #12
    44e4:	913cc108 	add	x8, x8, #0xf30
    44e8:	90000001 	adrp	x1, d3d8 <l_alloc_345ce69d67e2022250dbe2d202815e5b>
    44ec:	91000021 	add	x1, x1, #0x0
    44f0:	94000000 	bl	0 <_<T as core::convert::Into<U>>::into>
    44f4:	14000008 	b	4514 <_<rand_chacha::chacha::ChaCha12Core as rand_core::block::BlockRngCore>::generate+0x21d4>
    44f8:	f94687e8 	ldr	x8, [sp, #3336]
    44fc:	f91c5100 	str	x0, [x8, #14496]
    4500:	aa0103e9 	mov	x9, x1
    4504:	b938a909 	str	w9, [x8, #14504]
    4508:	f95c5108 	ldr	x8, [x8, #14496]
    450c:	f90677e8 	str	x8, [sp, #3304]
    4510:	14001f25 	b	c1a4 <_<rand_chacha::chacha::ChaCha12Core as rand_core::block::BlockRngCore>::generate+0x9e64>
    4514:	f94687e8 	ldr	x8, [sp, #3336]
    4518:	3dce1900 	ldr	q0, [x8, #14432]
    451c:	3d8e1d00 	str	q0, [x8, #14448]
    4520:	b9787101 	ldr	w1, [x8, #14448]
    4524:	914027e0 	add	x0, sp, #0x9, lsl #12
    4528:	913cbc00 	add	x0, x0, #0xf2f
    452c:	94000000 	bl	0 <_<ppv_lite86::generic::u32x4_generic as ppv_lite86::types::RotateEachWord32>::rotate_each_word_right20::{{closure}}>
    4530:	b90a6fe0 	str	w0, [sp, #2668]
    4534:	14000001 	b	4538 <_<rand_chacha::chacha::ChaCha12Core as rand_core::block::BlockRngCore>::generate+0x21f8>
    4538:	f94687e8 	ldr	x8, [sp, #3336]
    453c:	b9787501 	ldr	w1, [x8, #14452]
    4540:	914027e0 	add	x0, sp, #0x9, lsl #12
    4544:	913cbc00 	add	x0, x0, #0xf2f
    4548:	94000000 	bl	0 <_<ppv_lite86::generic::u32x4_generic as ppv_lite86::types::RotateEachWord32>::rotate_each_word_right20::{{closure}}>
    454c:	b90a6be0 	str	w0, [sp, #2664]
    4550:	14000001 	b	4554 <_<rand_chacha::chacha::ChaCha12Core as rand_core::block::BlockRngCore>::generate+0x2214>
    4554:	f94687e8 	ldr	x8, [sp, #3336]
    4558:	b9787901 	ldr	w1, [x8, #14456]
    455c:	914027e0 	add	x0, sp, #0x9, lsl #12
    4560:	913cbc00 	add	x0, x0, #0xf2f
    4564:	94000000 	bl	0 <_<ppv_lite86::generic::u32x4_generic as ppv_lite86::types::RotateEachWord32>::rotate_each_word_right20::{{closure}}>
    4568:	b90a67e0 	str	w0, [sp, #2660]
    456c:	14000001 	b	4570 <_<rand_chacha::chacha::ChaCha12Core as rand_core::block::BlockRngCore>::generate+0x2230>
    4570:	f94687e8 	ldr	x8, [sp, #3336]
    4574:	b9787d01 	ldr	w1, [x8, #14460]
    4578:	914027e0 	add	x0, sp, #0x9, lsl #12
    457c:	913cbc00 	add	x0, x0, #0xf2f
    4580:	94000000 	bl	0 <_<ppv_lite86::generic::u32x4_generic as ppv_lite86::types::RotateEachWord32>::rotate_each_word_right20::{{closure}}>
    4584:	b90a63e0 	str	w0, [sp, #2656]
    4588:	14000001 	b	458c <_<rand_chacha::chacha::ChaCha12Core as rand_core::block::BlockRngCore>::generate+0x224c>
    458c:	f94687e8 	ldr	x8, [sp, #3336]
    4590:	f946b7e9 	ldr	x9, [sp, #3432]
    4594:	b94a63ea 	ldr	w10, [sp, #2656]
    4598:	b94a67eb 	ldr	w11, [sp, #2660]
    459c:	b94a6bec 	ldr	w12, [sp, #2664]
    45a0:	b94a6fed 	ldr	w13, [sp, #2668]
    45a4:	b938910d 	str	w13, [x8, #14480]
    45a8:	b938950c 	str	w12, [x8, #14484]
    45ac:	b938990b 	str	w11, [x8, #14488]
    45b0:	b9389d0a 	str	w10, [x8, #14492]
    45b4:	3dce2500 	ldr	q0, [x8, #14480]
    45b8:	3d8e2100 	str	q0, [x8, #14464]
    45bc:	3dce2100 	ldr	q0, [x8, #14464]
    45c0:	3d8e2d00 	str	q0, [x8, #14512]
    45c4:	3dce2d00 	ldr	q0, [x8, #14512]
    45c8:	3d8e3100 	str	q0, [x8, #14528]
    45cc:	3dce3100 	ldr	q0, [x8, #14528]
    45d0:	3d8b3100 	str	q0, [x8, #11456]
    45d4:	3dc38920 	ldr	q0, [x9, #3616]
    45d8:	3d8de900 	str	q0, [x8, #14240]
    45dc:	3dcde900 	ldr	q0, [x8, #14240]
    45e0:	914027e0 	add	x0, sp, #0x9, lsl #12
    45e4:	91398000 	add	x0, x0, #0xe60
    45e8:	3d8de500 	str	q0, [x8, #14224]
    45ec:	914027e8 	add	x8, sp, #0x9, lsl #12
    45f0:	913a4108 	add	x8, x8, #0xe90
    45f4:	90000001 	adrp	x1, d3d8 <l_alloc_345ce69d67e2022250dbe2d202815e5b>
    45f8:	91000021 	add	x1, x1, #0x0
    45fc:	94000000 	bl	0 <_<T as core::convert::Into<U>>::into>
    4600:	14000008 	b	4620 <_<rand_chacha::chacha::ChaCha12Core as rand_core::block::BlockRngCore>::generate+0x22e0>
    4604:	f94687e8 	ldr	x8, [sp, #3336]
    4608:	f91c0100 	str	x0, [x8, #14336]
    460c:	aa0103e9 	mov	x9, x1
    4610:	b9380909 	str	w9, [x8, #14344]
    4614:	f95c0108 	ldr	x8, [x8, #14336]
    4618:	f90677e8 	str	x8, [sp, #3304]
    461c:	14001ee2 	b	c1a4 <_<rand_chacha::chacha::ChaCha12Core as rand_core::block::BlockRngCore>::generate+0x9e64>
    4620:	f94687e8 	ldr	x8, [sp, #3336]
    4624:	3dcdf100 	ldr	q0, [x8, #14272]
    4628:	3d8df500 	str	q0, [x8, #14288]
    462c:	b977d101 	ldr	w1, [x8, #14288]
    4630:	914027e0 	add	x0, sp, #0x9, lsl #12
    4634:	913a3c00 	add	x0, x0, #0xe8f
    4638:	94000000 	bl	0 <_<ppv_lite86::generic::u32x4_generic as ppv_lite86::types::RotateEachWord32>::rotate_each_word_right20::{{closure}}>
    463c:	b90a5fe0 	str	w0, [sp, #2652]
    4640:	14000001 	b	4644 <_<rand_chacha::chacha::ChaCha12Core as rand_core::block::BlockRngCore>::generate+0x2304>
    4644:	f94687e8 	ldr	x8, [sp, #3336]
    4648:	b977d501 	ldr	w1, [x8, #14292]
    464c:	914027e0 	add	x0, sp, #0x9, lsl #12
    4650:	913a3c00 	add	x0, x0, #0xe8f
    4654:	94000000 	bl	0 <_<ppv_lite86::generic::u32x4_generic as ppv_lite86::types::RotateEachWord32>::rotate_each_word_right20::{{closure}}>
    4658:	b90a5be0 	str	w0, [sp, #2648]
    465c:	14000001 	b	4660 <_<rand_chacha::chacha::ChaCha12Core as rand_core::block::BlockRngCore>::generate+0x2320>
    4660:	f94687e8 	ldr	x8, [sp, #3336]
    4664:	b977d901 	ldr	w1, [x8, #14296]
    4668:	914027e0 	add	x0, sp, #0x9, lsl #12
    466c:	913a3c00 	add	x0, x0, #0xe8f
    4670:	94000000 	bl	0 <_<ppv_lite86::generic::u32x4_generic as ppv_lite86::types::RotateEachWord32>::rotate_each_word_right20::{{closure}}>
    4674:	b90a57e0 	str	w0, [sp, #2644]
    4678:	14000001 	b	467c <_<rand_chacha::chacha::ChaCha12Core as rand_core::block::BlockRngCore>::generate+0x233c>
    467c:	f94687e8 	ldr	x8, [sp, #3336]
    4680:	b977dd01 	ldr	w1, [x8, #14300]
    4684:	914027e0 	add	x0, sp, #0x9, lsl #12
    4688:	913a3c00 	add	x0, x0, #0xe8f
    468c:	94000000 	bl	0 <_<ppv_lite86::generic::u32x4_generic as ppv_lite86::types::RotateEachWord32>::rotate_each_word_right20::{{closure}}>
    4690:	b90a53e0 	str	w0, [sp, #2640]
    4694:	14000001 	b	4698 <_<rand_chacha::chacha::ChaCha12Core as rand_core::block::BlockRngCore>::generate+0x2358>
    4698:	f94687e8 	ldr	x8, [sp, #3336]
    469c:	f946b7e9 	ldr	x9, [sp, #3432]
    46a0:	b94a53ea 	ldr	w10, [sp, #2640]
    46a4:	b94a57eb 	ldr	w11, [sp, #2644]
    46a8:	b94a5bec 	ldr	w12, [sp, #2648]
    46ac:	b94a5fed 	ldr	w13, [sp, #2652]
    46b0:	b937f10d 	str	w13, [x8, #14320]
    46b4:	b937f50c 	str	w12, [x8, #14324]
    46b8:	b937f90b 	str	w11, [x8, #14328]
    46bc:	b937fd0a 	str	w10, [x8, #14332]
    46c0:	3dcdfd00 	ldr	q0, [x8, #14320]
    46c4:	3d8df900 	str	q0, [x8, #14304]
    46c8:	3dcdf900 	ldr	q0, [x8, #14304]
    46cc:	3d8e0500 	str	q0, [x8, #14352]
    46d0:	3dce0500 	ldr	q0, [x8, #14352]
    46d4:	3d8e0900 	str	q0, [x8, #14368]
    46d8:	3dce0900 	ldr	q0, [x8, #14368]
    46dc:	3d8b3500 	str	q0, [x8, #11472]
    46e0:	3dc38d20 	ldr	q0, [x9, #3632]
    46e4:	3d8dc100 	str	q0, [x8, #14080]
    46e8:	3dcdc100 	ldr	q0, [x8, #14080]
    46ec:	914027e0 	add	x0, sp, #0x9, lsl #12
    46f0:	91370000 	add	x0, x0, #0xdc0
    46f4:	3d8dbd00 	str	q0, [x8, #14064]
    46f8:	914027e8 	add	x8, sp, #0x9, lsl #12
    46fc:	9137c108 	add	x8, x8, #0xdf0
    4700:	90000001 	adrp	x1, d3d8 <l_alloc_345ce69d67e2022250dbe2d202815e5b>
    4704:	91000021 	add	x1, x1, #0x0
    4708:	94000000 	bl	0 <_<T as core::convert::Into<U>>::into>
    470c:	14000008 	b	472c <_<rand_chacha::chacha::ChaCha12Core as rand_core::block::BlockRngCore>::generate+0x23ec>
    4710:	f94687e8 	ldr	x8, [sp, #3336]
    4714:	f91bb100 	str	x0, [x8, #14176]
    4718:	aa0103e9 	mov	x9, x1
    471c:	b9376909 	str	w9, [x8, #14184]
    4720:	f95bb108 	ldr	x8, [x8, #14176]
    4724:	f90677e8 	str	x8, [sp, #3304]
    4728:	14001e9f 	b	c1a4 <_<rand_chacha::chacha::ChaCha12Core as rand_core::block::BlockRngCore>::generate+0x9e64>
    472c:	f94687e8 	ldr	x8, [sp, #3336]
    4730:	3dcdc900 	ldr	q0, [x8, #14112]
    4734:	3d8dcd00 	str	q0, [x8, #14128]
    4738:	b9773101 	ldr	w1, [x8, #14128]
    473c:	914027e0 	add	x0, sp, #0x9, lsl #12
    4740:	9137bc00 	add	x0, x0, #0xdef
    4744:	94000000 	bl	0 <_<ppv_lite86::generic::u32x4_generic as ppv_lite86::types::RotateEachWord32>::rotate_each_word_right20::{{closure}}>
    4748:	b90a4fe0 	str	w0, [sp, #2636]
    474c:	14000001 	b	4750 <_<rand_chacha::chacha::ChaCha12Core as rand_core::block::BlockRngCore>::generate+0x2410>
    4750:	f94687e8 	ldr	x8, [sp, #3336]
    4754:	b9773501 	ldr	w1, [x8, #14132]
    4758:	914027e0 	add	x0, sp, #0x9, lsl #12
    475c:	9137bc00 	add	x0, x0, #0xdef
    4760:	94000000 	bl	0 <_<ppv_lite86::generic::u32x4_generic as ppv_lite86::types::RotateEachWord32>::rotate_each_word_right20::{{closure}}>
    4764:	b90a4be0 	str	w0, [sp, #2632]
    4768:	14000001 	b	476c <_<rand_chacha::chacha::ChaCha12Core as rand_core::block::BlockRngCore>::generate+0x242c>
    476c:	f94687e8 	ldr	x8, [sp, #3336]
    4770:	b9773901 	ldr	w1, [x8, #14136]
    4774:	914027e0 	add	x0, sp, #0x9, lsl #12
    4778:	9137bc00 	add	x0, x0, #0xdef
    477c:	94000000 	bl	0 <_<ppv_lite86::generic::u32x4_generic as ppv_lite86::types::RotateEachWord32>::rotate_each_word_right20::{{closure}}>
    4780:	b90a47e0 	str	w0, [sp, #2628]
    4784:	14000001 	b	4788 <_<rand_chacha::chacha::ChaCha12Core as rand_core::block::BlockRngCore>::generate+0x2448>
    4788:	f94687e8 	ldr	x8, [sp, #3336]
    478c:	b9773d01 	ldr	w1, [x8, #14140]
    4790:	914027e0 	add	x0, sp, #0x9, lsl #12
    4794:	9137bc00 	add	x0, x0, #0xdef
    4798:	94000000 	bl	0 <_<ppv_lite86::generic::u32x4_generic as ppv_lite86::types::RotateEachWord32>::rotate_each_word_right20::{{closure}}>
    479c:	b90a43e0 	str	w0, [sp, #2624]
    47a0:	14000001 	b	47a4 <_<rand_chacha::chacha::ChaCha12Core as rand_core::block::BlockRngCore>::generate+0x2464>
    47a4:	f94687e8 	ldr	x8, [sp, #3336]
    47a8:	b94a43e9 	ldr	w9, [sp, #2624]
    47ac:	b94a47ea 	ldr	w10, [sp, #2628]
    47b0:	b94a4beb 	ldr	w11, [sp, #2632]
    47b4:	b94a4fec 	ldr	w12, [sp, #2636]
    47b8:	b937510c 	str	w12, [x8, #14160]
    47bc:	b937550b 	str	w11, [x8, #14164]
    47c0:	b937590a 	str	w10, [x8, #14168]
    47c4:	b9375d09 	str	w9, [x8, #14172]
    47c8:	3dcdd500 	ldr	q0, [x8, #14160]
    47cc:	3d8dd100 	str	q0, [x8, #14144]
    47d0:	3dcdd100 	ldr	q0, [x8, #14144]
    47d4:	3d8ddd00 	str	q0, [x8, #14192]
    47d8:	3dcddd00 	ldr	q0, [x8, #14192]
    47dc:	3d8de100 	str	q0, [x8, #14208]
    47e0:	3dcde100 	ldr	q0, [x8, #14208]
    47e4:	3d8b3900 	str	q0, [x8, #11488]
    47e8:	3dcb2d00 	ldr	q0, [x8, #11440]
    47ec:	914027e1 	add	x1, sp, #0x9, lsl #12
    47f0:	910d0021 	add	x1, x1, #0x340
    47f4:	3d8b1d00 	str	q0, [x8, #11376]
    47f8:	3dcb3100 	ldr	q0, [x8, #11456]
    47fc:	3d8b2100 	str	q0, [x8, #11392]
    4800:	3dcb3500 	ldr	q0, [x8, #11472]
    4804:	3d8b2500 	str	q0, [x8, #11408]
    4808:	3dcb3900 	ldr	q0, [x8, #11488]
    480c:	3d8b2900 	str	q0, [x8, #11424]
    4810:	91400fe0 	add	x0, sp, #0x3, lsl #12
    4814:	91038000 	add	x0, x0, #0xe0
    4818:	f90517e0 	str	x0, [sp, #2600]
    481c:	52800808 	mov	w8, #0x40                  	// #64
    4820:	aa0803e2 	mov	x2, x8
    4824:	f9051fe2 	str	x2, [sp, #2616]
    4828:	94000000 	bl	0 <_memcpy>
    482c:	f94517e1 	ldr	x1, [sp, #2600]
    4830:	f9451fe2 	ldr	x2, [sp, #2616]
    4834:	914007e8 	add	x8, sp, #0x1, lsl #12
    4838:	91084108 	add	x8, x8, #0x210
    483c:	f9051be8 	str	x8, [sp, #2608]
    4840:	91010100 	add	x0, x8, #0x40
    4844:	94000000 	bl	0 <_memcpy>
    4848:	f9451be8 	ldr	x8, [sp, #2608]
    484c:	f9451fe2 	ldr	x2, [sp, #2616]
    4850:	91010101 	add	x1, x8, #0x40
    4854:	91400fe0 	add	x0, sp, #0x3, lsl #12
    4858:	91078000 	add	x0, x0, #0x1e0
    485c:	94000000 	bl	0 <_memcpy>
    4860:	f94687e8 	ldr	x8, [sp, #3336]
    4864:	f946abe9 	ldr	x9, [sp, #3408]
    4868:	f9451bea 	ldr	x10, [sp, #2608]
    486c:	f946b7eb 	ldr	x11, [sp, #3432]
    4870:	aa0a03ec 	mov	x12, x10
    4874:	f93b4fec 	str	x12, [sp, #30360]
    4878:	3dc3b160 	ldr	q0, [x11, #3776]
    487c:	3d83e100 	str	q0, [x8, #3968]
    4880:	f93f3fea 	str	x10, [sp, #32376]
    4884:	3dc10520 	ldr	q0, [x9, #1040]
    4888:	3d85f500 	str	q0, [x8, #6096]
    488c:	3dc3e100 	ldr	q0, [x8, #3968]
    4890:	3d85f100 	str	q0, [x8, #6080]
    4894:	3dc5f500 	ldr	q0, [x8, #6096]
    4898:	91401fe0 	add	x0, sp, #0x7, lsl #12
    489c:	913a0000 	add	x0, x0, #0xe80
    48a0:	3d85ed00 	str	q0, [x8, #6064]
    48a4:	3dc5f100 	ldr	q0, [x8, #6080]
    48a8:	91401fe1 	add	x1, sp, #0x7, lsl #12
    48ac:	913ac021 	add	x1, x1, #0xeb0
    48b0:	3d85f900 	str	q0, [x8, #6112]
    48b4:	91401fe8 	add	x8, sp, #0x7, lsl #12
    48b8:	9139a108 	add	x8, x8, #0xe68
    48bc:	94000000 	bl	0 <_ppv_lite86::generic::dmap2>
    48c0:	f94687e8 	ldr	x8, [sp, #3336]
    48c4:	f946abe9 	ldr	x9, [sp, #3408]
    48c8:	f9451bea 	ldr	x10, [sp, #2608]
    48cc:	f946b7eb 	ldr	x11, [sp, #3432]
    48d0:	91401fec 	add	x12, sp, #0x7, lsl #12
    48d4:	9135a58c 	add	x12, x12, #0xd69
    48d8:	3ccff180 	ldur	q0, [x12, #255]
    48dc:	3d810520 	str	q0, [x9, #1040]
    48e0:	9100414a 	add	x10, x10, #0x10
    48e4:	3dc3b560 	ldr	q0, [x11, #3792]
    48e8:	3d83e500 	str	q0, [x8, #3984]
    48ec:	f93f0fea 	str	x10, [sp, #32280]
    48f0:	3dc10920 	ldr	q0, [x9, #1056]
    48f4:	3d85dd00 	str	q0, [x8, #6000]
    48f8:	3dc3e500 	ldr	q0, [x8, #3984]
    48fc:	3d85d900 	str	q0, [x8, #5984]
    4900:	3dc5dd00 	ldr	q0, [x8, #6000]
    4904:	91401fe0 	add	x0, sp, #0x7, lsl #12
    4908:	91388000 	add	x0, x0, #0xe20
    490c:	3d85d500 	str	q0, [x8, #5968]
    4910:	3dc5d900 	ldr	q0, [x8, #5984]
    4914:	91401fe1 	add	x1, sp, #0x7, lsl #12
    4918:	91394021 	add	x1, x1, #0xe50
    491c:	3d85e100 	str	q0, [x8, #6016]
    4920:	91401fe8 	add	x8, sp, #0x7, lsl #12
    4924:	91382108 	add	x8, x8, #0xe08
    4928:	94000000 	bl	0 <_ppv_lite86::generic::dmap2>
    492c:	f94687e8 	ldr	x8, [sp, #3336]
    4930:	f946abe9 	ldr	x9, [sp, #3408]
    4934:	f9451bea 	ldr	x10, [sp, #2608]
    4938:	f946b7eb 	ldr	x11, [sp, #3432]
    493c:	91401fec 	add	x12, sp, #0x7, lsl #12
    4940:	9134258c 	add	x12, x12, #0xd09
    4944:	3ccff180 	ldur	q0, [x12, #255]
    4948:	3d810920 	str	q0, [x9, #1056]
    494c:	9100814a 	add	x10, x10, #0x20
    4950:	3dc3b960 	ldr	q0, [x11, #3808]
    4954:	3d83e900 	str	q0, [x8, #4000]
    4958:	f93edfea 	str	x10, [sp, #32184]
    495c:	3dc10d20 	ldr	q0, [x9, #1072]
    4960:	3d85c500 	str	q0, [x8, #5904]
    4964:	3dc3e900 	ldr	q0, [x8, #4000]
    4968:	3d85c100 	str	q0, [x8, #5888]
    496c:	3dc5c500 	ldr	q0, [x8, #5904]
    4970:	91401fe0 	add	x0, sp, #0x7, lsl #12
    4974:	91370000 	add	x0, x0, #0xdc0
    4978:	3d85bd00 	str	q0, [x8, #5872]
    497c:	3dc5c100 	ldr	q0, [x8, #5888]
    4980:	91401fe1 	add	x1, sp, #0x7, lsl #12
    4984:	9137c021 	add	x1, x1, #0xdf0
    4988:	3d85c900 	str	q0, [x8, #5920]
    498c:	91401fe8 	add	x8, sp, #0x7, lsl #12
    4990:	9136a108 	add	x8, x8, #0xda8
    4994:	94000000 	bl	0 <_ppv_lite86::generic::dmap2>
    4998:	f94687e8 	ldr	x8, [sp, #3336]
    499c:	f946abe9 	ldr	x9, [sp, #3408]
    49a0:	f9451bea 	ldr	x10, [sp, #2608]
    49a4:	f946b7eb 	ldr	x11, [sp, #3432]
    49a8:	91401fec 	add	x12, sp, #0x7, lsl #12
    49ac:	9132a58c 	add	x12, x12, #0xca9
    49b0:	3ccff180 	ldur	q0, [x12, #255]
    49b4:	3d810d20 	str	q0, [x9, #1072]
    49b8:	9100c14a 	add	x10, x10, #0x30
    49bc:	3dc3bd60 	ldr	q0, [x11, #3824]
    49c0:	3d83ed00 	str	q0, [x8, #4016]
    49c4:	f93eafea 	str	x10, [sp, #32088]
    49c8:	3dc11120 	ldr	q0, [x9, #1088]
    49cc:	3d85ad00 	str	q0, [x8, #5808]
    49d0:	3dc3ed00 	ldr	q0, [x8, #4016]
    49d4:	3d85a900 	str	q0, [x8, #5792]
    49d8:	3dc5ad00 	ldr	q0, [x8, #5808]
    49dc:	91401fe0 	add	x0, sp, #0x7, lsl #12
    49e0:	91358000 	add	x0, x0, #0xd60
    49e4:	3d85a500 	str	q0, [x8, #5776]
    49e8:	3dc5a900 	ldr	q0, [x8, #5792]
    49ec:	91401fe1 	add	x1, sp, #0x7, lsl #12
    49f0:	91364021 	add	x1, x1, #0xd90
    49f4:	3d85b100 	str	q0, [x8, #5824]
    49f8:	91401fe8 	add	x8, sp, #0x7, lsl #12
    49fc:	91352108 	add	x8, x8, #0xd48
    4a00:	94000000 	bl	0 <_ppv_lite86::generic::dmap2>
    4a04:	f946abe9 	ldr	x9, [sp, #3408]
    4a08:	f9451be8 	ldr	x8, [sp, #2608]
    4a0c:	f9451fe2 	ldr	x2, [sp, #2616]
    4a10:	91401fea 	add	x10, sp, #0x7, lsl #12
    4a14:	9131254a 	add	x10, x10, #0xc49
    4a18:	3ccff140 	ldur	q0, [x10, #255]
    4a1c:	3d811120 	str	q0, [x9, #1088]
    4a20:	91030101 	add	x1, x8, #0xc0
    4a24:	91400fe0 	add	x0, sp, #0x3, lsl #12
    4a28:	910a8000 	add	x0, x0, #0x2a0
    4a2c:	94000000 	bl	0 <_memcpy>
    4a30:	f9451be1 	ldr	x1, [sp, #2608]
    4a34:	f9451fe2 	ldr	x2, [sp, #2616]
    4a38:	91400fe0 	add	x0, sp, #0x3, lsl #12
    4a3c:	910b8000 	add	x0, x0, #0x2e0
    4a40:	94000000 	bl	0 <_memcpy>
    4a44:	f946b7e8 	ldr	x8, [sp, #3432]
    4a48:	f9468fe9 	ldr	x9, [sp, #3352]
    4a4c:	3dc3e100 	ldr	q0, [x8, #3968]
    4a50:	3d80e520 	str	q0, [x9, #912]
    4a54:	3dc3f100 	ldr	q0, [x8, #4032]
    4a58:	3d80e120 	str	q0, [x9, #896]
    4a5c:	3dc0e520 	ldr	q0, [x9, #912]
    4a60:	914017e0 	add	x0, sp, #0x5, lsl #12
    4a64:	9124c000 	add	x0, x0, #0x930
    4a68:	3d80dd20 	str	q0, [x9, #880]
    4a6c:	3dc0e120 	ldr	q0, [x9, #896]
    4a70:	3d80e920 	str	q0, [x9, #928]
    4a74:	3910fd3f 	strb	wzr, [x9, #1087]
    4a78:	52800028 	mov	w8, #0x1                   	// #1
    4a7c:	3910fd28 	strb	w8, [x9, #1087]
    4a80:	914017e8 	add	x8, sp, #0x5, lsl #12
    4a84:	91260108 	add	x8, x8, #0x980
    4a88:	90000001 	adrp	x1, d408 <l_alloc_d6cd646a032ab5661bff8aa78f551e65>
    4a8c:	91000021 	add	x1, x1, #0x0
    4a90:	94000000 	bl	0 <_<T as core::convert::Into<U>>::into>
    4a94:	14000008 	b	4ab4 <_<rand_chacha::chacha::ChaCha12Core as rand_core::block::BlockRngCore>::generate+0x2774>
    4a98:	f9468fe8 	ldr	x8, [sp, #3352]
    4a9c:	f92d03e0 	str	x0, [sp, #23040]
    4aa0:	aa0103e9 	mov	x9, x1
    4aa4:	b9044909 	str	w9, [x8, #1096]
    4aa8:	3950fd08 	ldrb	w8, [x8, #1087]
    4aac:	37000648 	tbnz	w8, #0, 4b74 <_<rand_chacha::chacha::ChaCha12Core as rand_core::block::BlockRngCore>::generate+0x2834>
    4ab0:	1400002e 	b	4b68 <_<rand_chacha::chacha::ChaCha12Core as rand_core::block::BlockRngCore>::generate+0x2828>
    4ab4:	f9468fe8 	ldr	x8, [sp, #3352]
    4ab8:	3910fd1f 	strb	wzr, [x8, #1087]
    4abc:	3dc0e900 	ldr	q0, [x8, #928]
    4ac0:	914017e0 	add	x0, sp, #0x5, lsl #12
    4ac4:	91268000 	add	x0, x0, #0x9a0
    4ac8:	3d80f900 	str	q0, [x8, #992]
    4acc:	914017e8 	add	x8, sp, #0x5, lsl #12
    4ad0:	91264108 	add	x8, x8, #0x990
    4ad4:	90000001 	adrp	x1, d420 <l_alloc_eb8937521ab56b1815db886b021bd11a>
    4ad8:	91000021 	add	x1, x1, #0x0
    4adc:	94000000 	bl	0 <_<T as core::convert::Into<U>>::into>
    4ae0:	14000001 	b	4ae4 <_<rand_chacha::chacha::ChaCha12Core as rand_core::block::BlockRngCore>::generate+0x27a4>
    4ae4:	f9468fe8 	ldr	x8, [sp, #3352]
    4ae8:	3dc0f100 	ldr	q0, [x8, #960]
    4aec:	3d80fd00 	str	q0, [x8, #1008]
    4af0:	f96cdbeb 	ldr	x11, [sp, #22960]
    4af4:	d2800009 	mov	x9, #0x0                   	// #0
    4af8:	f92d37eb 	str	x11, [sp, #23144]
    4afc:	f96cdfea 	ldr	x10, [sp, #22968]
    4b00:	f92d33ea 	str	x10, [sp, #23136]
    4b04:	aa090161 	orr	x1, x11, x9
    4b08:	aa0a0122 	orr	x2, x9, x10
    4b0c:	4e081c20 	mov	v0.d[0], x1
    4b10:	4e181c40 	mov	v0.d[1], x2
    4b14:	3d811500 	str	q0, [x8, #1104]
    4b18:	3dc0f500 	ldr	q0, [x8, #976]
    4b1c:	3d810100 	str	q0, [x8, #1024]
    4b20:	f96ce3eb 	ldr	x11, [sp, #22976]
    4b24:	f92d3feb 	str	x11, [sp, #23160]
    4b28:	f96ce7ea 	ldr	x10, [sp, #22984]
    4b2c:	f92d3bea 	str	x10, [sp, #23152]
    4b30:	aa090163 	orr	x3, x11, x9
    4b34:	aa0a0124 	orr	x4, x9, x10
    4b38:	4e081c60 	mov	v0.d[0], x3
    4b3c:	4e181c80 	mov	v0.d[1], x4
    4b40:	3d811900 	str	q0, [x8, #1120]
    4b44:	914017e0 	add	x0, sp, #0x5, lsl #12
    4b48:	9125fc00 	add	x0, x0, #0x97f
    4b4c:	94000000 	bl	0 <_<ppv_lite86::generic::u32x4_generic as core::ops::bit::BitXor>::bitxor::{{closure}}>
    4b50:	f90503e0 	str	x0, [sp, #2560]
    4b54:	f90507e1 	str	x1, [sp, #2568]
    4b58:	4e081c00 	mov	v0.d[0], x0
    4b5c:	4e181c20 	mov	v0.d[1], x1
    4b60:	3d8287e0 	str	q0, [sp, #2576]
    4b64:	14000005 	b	4b78 <_<rand_chacha::chacha::ChaCha12Core as rand_core::block::BlockRngCore>::generate+0x2838>
    4b68:	f96d03e8 	ldr	x8, [sp, #23040]
    4b6c:	f90677e8 	str	x8, [sp, #3304]
    4b70:	14001d8d 	b	c1a4 <_<rand_chacha::chacha::ChaCha12Core as rand_core::block::BlockRngCore>::generate+0x9e64>
    4b74:	17fffffd 	b	4b68 <_<rand_chacha::chacha::ChaCha12Core as rand_core::block::BlockRngCore>::generate+0x2828>
    4b78:	f9468fe9 	ldr	x9, [sp, #3352]
    4b7c:	f946b7e8 	ldr	x8, [sp, #3432]
    4b80:	f94507ea 	ldr	x10, [sp, #2568]
    4b84:	f94503eb 	ldr	x11, [sp, #2560]
    4b88:	3dc287e0 	ldr	q0, [sp, #2576]
    4b8c:	3d812120 	str	q0, [x9, #1152]
    4b90:	f92cf7eb 	str	x11, [sp, #23016]
    4b94:	f92cfbea 	str	x10, [sp, #23024]
    4b98:	914017ea 	add	x10, sp, #0x5, lsl #12
    4b9c:	9123a54a 	add	x10, x10, #0x8e9
    4ba0:	3ccff140 	ldur	q0, [x10, #255]
    4ba4:	3d810520 	str	q0, [x9, #1040]
    4ba8:	3dc10520 	ldr	q0, [x9, #1040]
    4bac:	3d811d20 	str	q0, [x9, #1136]
    4bb0:	3dc11d20 	ldr	q0, [x9, #1136]
    4bb4:	3d812520 	str	q0, [x9, #1168]
    4bb8:	3dc12520 	ldr	q0, [x9, #1168]
    4bbc:	3d864d00 	str	q0, [x8, #6448]
    4bc0:	3dc3e500 	ldr	q0, [x8, #3984]
    4bc4:	3d809120 	str	q0, [x9, #576]
    4bc8:	3dc3f500 	ldr	q0, [x8, #4048]
    4bcc:	3d808d20 	str	q0, [x9, #560]
    4bd0:	3dc09120 	ldr	q0, [x9, #576]
    4bd4:	914017e0 	add	x0, sp, #0x5, lsl #12
    4bd8:	911f8000 	add	x0, x0, #0x7e0
    4bdc:	3d808920 	str	q0, [x9, #544]
    4be0:	3dc08d20 	ldr	q0, [x9, #560]
    4be4:	3d809520 	str	q0, [x9, #592]
    4be8:	390bbd3f 	strb	wzr, [x9, #751]
    4bec:	52800028 	mov	w8, #0x1                   	// #1
    4bf0:	390bbd28 	strb	w8, [x9, #751]
    4bf4:	914017e8 	add	x8, sp, #0x5, lsl #12
    4bf8:	9120c108 	add	x8, x8, #0x830
    4bfc:	90000001 	adrp	x1, d408 <l_alloc_d6cd646a032ab5661bff8aa78f551e65>
    4c00:	91000021 	add	x1, x1, #0x0
    4c04:	94000000 	bl	0 <_<T as core::convert::Into<U>>::into>
    4c08:	14000008 	b	4c28 <_<rand_chacha::chacha::ChaCha12Core as rand_core::block::BlockRngCore>::generate+0x28e8>
    4c0c:	f9468fe8 	ldr	x8, [sp, #3352]
    4c10:	f92c5be0 	str	x0, [sp, #22704]
    4c14:	aa0103e9 	mov	x9, x1
    4c18:	b902f909 	str	w9, [x8, #760]
    4c1c:	394bbd08 	ldrb	w8, [x8, #751]
    4c20:	370006a8 	tbnz	w8, #0, 4cf4 <_<rand_chacha::chacha::ChaCha12Core as rand_core::block::BlockRngCore>::generate+0x29b4>
    4c24:	1400002e 	b	4cdc <_<rand_chacha::chacha::ChaCha12Core as rand_core::block::BlockRngCore>::generate+0x299c>
    4c28:	f9468fe8 	ldr	x8, [sp, #3352]
    4c2c:	390bbd1f 	strb	wzr, [x8, #751]
    4c30:	3dc09500 	ldr	q0, [x8, #592]
    4c34:	914017e0 	add	x0, sp, #0x5, lsl #12
    4c38:	91214000 	add	x0, x0, #0x850
    4c3c:	3d80a500 	str	q0, [x8, #656]
    4c40:	914017e8 	add	x8, sp, #0x5, lsl #12
    4c44:	91210108 	add	x8, x8, #0x840
    4c48:	90000001 	adrp	x1, d420 <l_alloc_eb8937521ab56b1815db886b021bd11a>
    4c4c:	91000021 	add	x1, x1, #0x0
    4c50:	94000000 	bl	0 <_<T as core::convert::Into<U>>::into>
    4c54:	14000001 	b	4c58 <_<rand_chacha::chacha::ChaCha12Core as rand_core::block::BlockRngCore>::generate+0x2918>
    4c58:	f9468fe8 	ldr	x8, [sp, #3352]
    4c5c:	3dc09d00 	ldr	q0, [x8, #624]
    4c60:	3d80a900 	str	q0, [x8, #672]
    4c64:	f96c33eb 	ldr	x11, [sp, #22624]
    4c68:	d2800009 	mov	x9, #0x0                   	// #0
    4c6c:	f92c8feb 	str	x11, [sp, #22808]
    4c70:	f96c37ea 	ldr	x10, [sp, #22632]
    4c74:	f92c8bea 	str	x10, [sp, #22800]
    4c78:	aa090161 	orr	x1, x11, x9
    4c7c:	aa0a0122 	orr	x2, x9, x10
    4c80:	4e081c20 	mov	v0.d[0], x1
    4c84:	4e181c40 	mov	v0.d[1], x2
    4c88:	3d80c100 	str	q0, [x8, #768]
    4c8c:	3dc0a100 	ldr	q0, [x8, #640]
    4c90:	3d80ad00 	str	q0, [x8, #688]
    4c94:	f96c3beb 	ldr	x11, [sp, #22640]
    4c98:	f92c97eb 	str	x11, [sp, #22824]
    4c9c:	f96c3fea 	ldr	x10, [sp, #22648]
    4ca0:	f92c93ea 	str	x10, [sp, #22816]
    4ca4:	aa090163 	orr	x3, x11, x9
    4ca8:	aa0a0124 	orr	x4, x9, x10
    4cac:	4e081c60 	mov	v0.d[0], x3
    4cb0:	4e181c80 	mov	v0.d[1], x4
    4cb4:	3d80c500 	str	q0, [x8, #784]
    4cb8:	914017e0 	add	x0, sp, #0x5, lsl #12
    4cbc:	9120bc00 	add	x0, x0, #0x82f
    4cc0:	94000000 	bl	0 <_<ppv_lite86::generic::u32x4_generic as core::ops::bit::BitXor>::bitxor::{{closure}}>
    4cc4:	f904f3e0 	str	x0, [sp, #2528]
    4cc8:	f904f7e1 	str	x1, [sp, #2536]
    4ccc:	4e081c00 	mov	v0.d[0], x0
    4cd0:	4e181c20 	mov	v0.d[1], x1
    4cd4:	3d827fe0 	str	q0, [sp, #2544]
    4cd8:	14000008 	b	4cf8 <_<rand_chacha::chacha::ChaCha12Core as rand_core::block::BlockRngCore>::generate+0x29b8>
    4cdc:	f9468fe8 	ldr	x8, [sp, #3352]
    4ce0:	f96c5be9 	ldr	x9, [sp, #22704]
    4ce4:	f904ebe9 	str	x9, [sp, #2512]
    4ce8:	b942f908 	ldr	w8, [x8, #760]
    4cec:	b909dfe8 	str	w8, [sp, #2524]
    4cf0:	14000018 	b	4d50 <_<rand_chacha::chacha::ChaCha12Core as rand_core::block::BlockRngCore>::generate+0x2a10>
    4cf4:	17fffffa 	b	4cdc <_<rand_chacha::chacha::ChaCha12Core as rand_core::block::BlockRngCore>::generate+0x299c>
    4cf8:	f946b7e8 	ldr	x8, [sp, #3432]
    4cfc:	f9468fe9 	ldr	x9, [sp, #3352]
    4d00:	f944f7ea 	ldr	x10, [sp, #2536]
    4d04:	f944f3eb 	ldr	x11, [sp, #2528]
    4d08:	3dc27fe0 	ldr	q0, [sp, #2544]
    4d0c:	3d80cd20 	str	q0, [x9, #816]
    4d10:	f92c4feb 	str	x11, [sp, #22680]
    4d14:	f92c53ea 	str	x10, [sp, #22688]
    4d18:	914017ea 	add	x10, sp, #0x5, lsl #12
    4d1c:	911e654a 	add	x10, x10, #0x799
    4d20:	3ccff140 	ldur	q0, [x10, #255]
    4d24:	3d80b120 	str	q0, [x9, #704]
    4d28:	3dc0b120 	ldr	q0, [x9, #704]
    4d2c:	3d80c920 	str	q0, [x9, #800]
    4d30:	3dc0c920 	ldr	q0, [x9, #800]
    4d34:	3d80d120 	str	q0, [x9, #832]
    4d38:	3dc0d120 	ldr	q0, [x9, #832]
    4d3c:	3d865100 	str	q0, [x8, #6464]
    4d40:	14000009 	b	4d64 <_<rand_chacha::chacha::ChaCha12Core as rand_core::block::BlockRngCore>::generate+0x2a24>
    4d44:	f95e4be8 	ldr	x8, [sp, #15504]
    4d48:	f90677e8 	str	x8, [sp, #3304]
    4d4c:	14001d16 	b	c1a4 <_<rand_chacha::chacha::ChaCha12Core as rand_core::block::BlockRngCore>::generate+0x9e64>
    4d50:	b949dfe8 	ldr	w8, [sp, #2524]
    4d54:	f944ebe9 	ldr	x9, [sp, #2512]
    4d58:	f91e4be9 	str	x9, [sp, #15504]
    4d5c:	b93c9be8 	str	w8, [sp, #15512]
    4d60:	17fffff9 	b	4d44 <_<rand_chacha::chacha::ChaCha12Core as rand_core::block::BlockRngCore>::generate+0x2a04>
    4d64:	f9468fe9 	ldr	x9, [sp, #3352]
    4d68:	f946b7e8 	ldr	x8, [sp, #3432]
    4d6c:	3dc3e900 	ldr	q0, [x8, #4000]
    4d70:	3d803d20 	str	q0, [x9, #240]
    4d74:	3dc3f900 	ldr	q0, [x8, #4064]
    4d78:	3d803920 	str	q0, [x9, #224]
    4d7c:	3dc03d20 	ldr	q0, [x9, #240]
    4d80:	914017e0 	add	x0, sp, #0x5, lsl #12
    4d84:	911a4000 	add	x0, x0, #0x690
    4d88:	3d803520 	str	q0, [x9, #208]
    4d8c:	3dc03920 	ldr	q0, [x9, #224]
    4d90:	3d804120 	str	q0, [x9, #256]
    4d94:	39067d3f 	strb	wzr, [x9, #415]
    4d98:	52800028 	mov	w8, #0x1                   	// #1
    4d9c:	39067d28 	strb	w8, [x9, #415]
    4da0:	914017e8 	add	x8, sp, #0x5, lsl #12
    4da4:	911b8108 	add	x8, x8, #0x6e0
    4da8:	90000001 	adrp	x1, d408 <l_alloc_d6cd646a032ab5661bff8aa78f551e65>
    4dac:	91000021 	add	x1, x1, #0x0
    4db0:	94000000 	bl	0 <_<T as core::convert::Into<U>>::into>
    4db4:	14000008 	b	4dd4 <_<rand_chacha::chacha::ChaCha12Core as rand_core::block::BlockRngCore>::generate+0x2a94>
    4db8:	f9468fe8 	ldr	x8, [sp, #3352]
    4dbc:	f92bb3e0 	str	x0, [sp, #22368]
    4dc0:	aa0103e9 	mov	x9, x1
    4dc4:	b901a909 	str	w9, [x8, #424]
    4dc8:	39467d08 	ldrb	w8, [x8, #415]
    4dcc:	370006a8 	tbnz	w8, #0, 4ea0 <_<rand_chacha::chacha::ChaCha12Core as rand_core::block::BlockRngCore>::generate+0x2b60>
    4dd0:	1400002e 	b	4e88 <_<rand_chacha::chacha::ChaCha12Core as rand_core::block::BlockRngCore>::generate+0x2b48>
    4dd4:	f9468fe8 	ldr	x8, [sp, #3352]
    4dd8:	39067d1f 	strb	wzr, [x8, #415]
    4ddc:	3dc04100 	ldr	q0, [x8, #256]
    4de0:	914017e0 	add	x0, sp, #0x5, lsl #12
    4de4:	911c0000 	add	x0, x0, #0x700
    4de8:	3d805100 	str	q0, [x8, #320]
    4dec:	914017e8 	add	x8, sp, #0x5, lsl #12
    4df0:	911bc108 	add	x8, x8, #0x6f0
    4df4:	90000001 	adrp	x1, d420 <l_alloc_eb8937521ab56b1815db886b021bd11a>
    4df8:	91000021 	add	x1, x1, #0x0
    4dfc:	94000000 	bl	0 <_<T as core::convert::Into<U>>::into>
    4e00:	14000001 	b	4e04 <_<rand_chacha::chacha::ChaCha12Core as rand_core::block::BlockRngCore>::generate+0x2ac4>
    4e04:	f9468fe8 	ldr	x8, [sp, #3352]
    4e08:	3dc04900 	ldr	q0, [x8, #288]
    4e0c:	3d805500 	str	q0, [x8, #336]
    4e10:	f96b8beb 	ldr	x11, [sp, #22288]
    4e14:	d2800009 	mov	x9, #0x0                   	// #0
    4e18:	f92be7eb 	str	x11, [sp, #22472]
    4e1c:	f96b8fea 	ldr	x10, [sp, #22296]
    4e20:	f92be3ea 	str	x10, [sp, #22464]
    4e24:	aa090161 	orr	x1, x11, x9
    4e28:	aa0a0122 	orr	x2, x9, x10
    4e2c:	4e081c20 	mov	v0.d[0], x1
    4e30:	4e181c40 	mov	v0.d[1], x2
    4e34:	3d806d00 	str	q0, [x8, #432]
    4e38:	3dc04d00 	ldr	q0, [x8, #304]
    4e3c:	3d805900 	str	q0, [x8, #352]
    4e40:	f96b93eb 	ldr	x11, [sp, #22304]
    4e44:	f92befeb 	str	x11, [sp, #22488]
    4e48:	f96b97ea 	ldr	x10, [sp, #22312]
    4e4c:	f92bebea 	str	x10, [sp, #22480]
    4e50:	aa090163 	orr	x3, x11, x9
    4e54:	aa0a0124 	orr	x4, x9, x10
    4e58:	4e081c60 	mov	v0.d[0], x3
    4e5c:	4e181c80 	mov	v0.d[1], x4
    4e60:	3d807100 	str	q0, [x8, #448]
    4e64:	914017e0 	add	x0, sp, #0x5, lsl #12
    4e68:	911b7c00 	add	x0, x0, #0x6df
    4e6c:	94000000 	bl	0 <_<ppv_lite86::generic::u32x4_generic as core::ops::bit::BitXor>::bitxor::{{closure}}>
    4e70:	f904dbe0 	str	x0, [sp, #2480]
    4e74:	f904dfe1 	str	x1, [sp, #2488]
    4e78:	4e081c00 	mov	v0.d[0], x0
    4e7c:	4e181c20 	mov	v0.d[1], x1
    4e80:	3d8273e0 	str	q0, [sp, #2496]
    4e84:	14000008 	b	4ea4 <_<rand_chacha::chacha::ChaCha12Core as rand_core::block::BlockRngCore>::generate+0x2b64>
    4e88:	f9468fe8 	ldr	x8, [sp, #3352]
    4e8c:	f96bb3e9 	ldr	x9, [sp, #22368]
    4e90:	f904d3e9 	str	x9, [sp, #2464]
    4e94:	b941a908 	ldr	w8, [x8, #424]
    4e98:	b909afe8 	str	w8, [sp, #2476]
    4e9c:	14000016 	b	4ef4 <_<rand_chacha::chacha::ChaCha12Core as rand_core::block::BlockRngCore>::generate+0x2bb4>
    4ea0:	17fffffa 	b	4e88 <_<rand_chacha::chacha::ChaCha12Core as rand_core::block::BlockRngCore>::generate+0x2b48>
    4ea4:	f946b7e8 	ldr	x8, [sp, #3432]
    4ea8:	f9468fe9 	ldr	x9, [sp, #3352]
    4eac:	f944dfea 	ldr	x10, [sp, #2488]
    4eb0:	f944dbeb 	ldr	x11, [sp, #2480]
    4eb4:	3dc273e0 	ldr	q0, [sp, #2496]
    4eb8:	3d807920 	str	q0, [x9, #480]
    4ebc:	f92ba7eb 	str	x11, [sp, #22344]
    4ec0:	f92babea 	str	x10, [sp, #22352]
    4ec4:	914017ea 	add	x10, sp, #0x5, lsl #12
    4ec8:	9119254a 	add	x10, x10, #0x649
    4ecc:	3ccff140 	ldur	q0, [x10, #255]
    4ed0:	3d805d20 	str	q0, [x9, #368]
    4ed4:	3dc05d20 	ldr	q0, [x9, #368]
    4ed8:	3d807520 	str	q0, [x9, #464]
    4edc:	3dc07520 	ldr	q0, [x9, #464]
    4ee0:	3d807d20 	str	q0, [x9, #496]
    4ee4:	3dc07d20 	ldr	q0, [x9, #496]
    4ee8:	3d865500 	str	q0, [x8, #6480]
    4eec:	14000007 	b	4f08 <_<rand_chacha::chacha::ChaCha12Core as rand_core::block::BlockRngCore>::generate+0x2bc8>
    4ef0:	17ffff95 	b	4d44 <_<rand_chacha::chacha::ChaCha12Core as rand_core::block::BlockRngCore>::generate+0x2a04>
    4ef4:	b949afe8 	ldr	w8, [sp, #2476]
    4ef8:	f944d3e9 	ldr	x9, [sp, #2464]
    4efc:	f91e4be9 	str	x9, [sp, #15504]
    4f00:	b93c9be8 	str	w8, [sp, #15512]
    4f04:	17fffffb 	b	4ef0 <_<rand_chacha::chacha::ChaCha12Core as rand_core::block::BlockRngCore>::generate+0x2bb0>
    4f08:	f9468fe9 	ldr	x9, [sp, #3352]
    4f0c:	f94693e8 	ldr	x8, [sp, #3360]
    4f10:	f946b7ea 	ldr	x10, [sp, #3432]
    4f14:	3dc3ed40 	ldr	q0, [x10, #4016]
    4f18:	3c8a1100 	stur	q0, [x8, #161]
    4f1c:	3dc3fd40 	ldr	q0, [x10, #4080]
    4f20:	3c891100 	stur	q0, [x8, #145]
    4f24:	3cca1100 	ldur	q0, [x8, #161]
    4f28:	914017e0 	add	x0, sp, #0x5, lsl #12
    4f2c:	91150000 	add	x0, x0, #0x540
    4f30:	3c881100 	stur	q0, [x8, #129]
    4f34:	3cc91100 	ldur	q0, [x8, #145]
    4f38:	3c8b1100 	stur	q0, [x8, #177]
    4f3c:	39013d3f 	strb	wzr, [x9, #79]
    4f40:	52800028 	mov	w8, #0x1                   	// #1
    4f44:	39013d28 	strb	w8, [x9, #79]
    4f48:	914017e8 	add	x8, sp, #0x5, lsl #12
    4f4c:	91164108 	add	x8, x8, #0x590
    4f50:	90000001 	adrp	x1, d408 <l_alloc_d6cd646a032ab5661bff8aa78f551e65>
    4f54:	91000021 	add	x1, x1, #0x0
    4f58:	94000000 	bl	0 <_<T as core::convert::Into<U>>::into>
    4f5c:	14000008 	b	4f7c <_<rand_chacha::chacha::ChaCha12Core as rand_core::block::BlockRngCore>::generate+0x2c3c>
    4f60:	f9468fe8 	ldr	x8, [sp, #3352]
    4f64:	f92b0be0 	str	x0, [sp, #22032]
    4f68:	aa0103e9 	mov	x9, x1
    4f6c:	b9005909 	str	w9, [x8, #88]
    4f70:	39413d08 	ldrb	w8, [x8, #79]
    4f74:	370006e8 	tbnz	w8, #0, 5050 <_<rand_chacha::chacha::ChaCha12Core as rand_core::block::BlockRngCore>::generate+0x2d10>
    4f78:	14000030 	b	5038 <_<rand_chacha::chacha::ChaCha12Core as rand_core::block::BlockRngCore>::generate+0x2cf8>
    4f7c:	f94693e8 	ldr	x8, [sp, #3360]
    4f80:	f9468fe9 	ldr	x9, [sp, #3352]
    4f84:	39013d3f 	strb	wzr, [x9, #79]
    4f88:	3ccb1100 	ldur	q0, [x8, #177]
    4f8c:	914017e0 	add	x0, sp, #0x5, lsl #12
    4f90:	9116c000 	add	x0, x0, #0x5b0
    4f94:	3c8f1100 	stur	q0, [x8, #241]
    4f98:	914017e8 	add	x8, sp, #0x5, lsl #12
    4f9c:	91168108 	add	x8, x8, #0x5a0
    4fa0:	90000001 	adrp	x1, d420 <l_alloc_eb8937521ab56b1815db886b021bd11a>
    4fa4:	91000021 	add	x1, x1, #0x0
    4fa8:	94000000 	bl	0 <_<T as core::convert::Into<U>>::into>
    4fac:	14000001 	b	4fb0 <_<rand_chacha::chacha::ChaCha12Core as rand_core::block::BlockRngCore>::generate+0x2c70>
    4fb0:	f9468fe8 	ldr	x8, [sp, #3352]
    4fb4:	f94693ea 	ldr	x10, [sp, #3360]
    4fb8:	3ccd1140 	ldur	q0, [x10, #209]
    4fbc:	3d800100 	str	q0, [x8]
    4fc0:	f96ae3ec 	ldr	x12, [sp, #21952]
    4fc4:	d2800009 	mov	x9, #0x0                   	// #0
    4fc8:	f92b3fec 	str	x12, [sp, #22136]
    4fcc:	f96ae7eb 	ldr	x11, [sp, #21960]
    4fd0:	f92b3beb 	str	x11, [sp, #22128]
    4fd4:	aa090181 	orr	x1, x12, x9
    4fd8:	aa0b0122 	orr	x2, x9, x11
    4fdc:	4e081c20 	mov	v0.d[0], x1
    4fe0:	4e181c40 	mov	v0.d[1], x2
    4fe4:	3d801900 	str	q0, [x8, #96]
    4fe8:	3cce1140 	ldur	q0, [x10, #225]
    4fec:	3d800500 	str	q0, [x8, #16]
    4ff0:	f96aebeb 	ldr	x11, [sp, #21968]
    4ff4:	f92b47eb 	str	x11, [sp, #22152]
    4ff8:	f96aefea 	ldr	x10, [sp, #21976]
    4ffc:	f92b43ea 	str	x10, [sp, #22144]
    5000:	aa090163 	orr	x3, x11, x9
    5004:	aa0a0124 	orr	x4, x9, x10
    5008:	4e081c60 	mov	v0.d[0], x3
    500c:	4e181c80 	mov	v0.d[1], x4
    5010:	3d801d00 	str	q0, [x8, #112]
    5014:	914017e0 	add	x0, sp, #0x5, lsl #12
    5018:	91163c00 	add	x0, x0, #0x58f
    501c:	94000000 	bl	0 <_<ppv_lite86::generic::u32x4_generic as core::ops::bit::BitXor>::bitxor::{{closure}}>
    5020:	f904c3e0 	str	x0, [sp, #2432]
    5024:	f904c7e1 	str	x1, [sp, #2440]
    5028:	4e081c00 	mov	v0.d[0], x0
    502c:	4e181c20 	mov	v0.d[1], x1
    5030:	3d8267e0 	str	q0, [sp, #2448]
    5034:	14000008 	b	5054 <_<rand_chacha::chacha::ChaCha12Core as rand_core::block::BlockRngCore>::generate+0x2d14>
    5038:	f9468fe8 	ldr	x8, [sp, #3352]
    503c:	f96b0be9 	ldr	x9, [sp, #22032]
    5040:	f904bbe9 	str	x9, [sp, #2416]
    5044:	b9405908 	ldr	w8, [x8, #88]
    5048:	b9097fe8 	str	w8, [sp, #2428]
    504c:	14000015 	b	50a0 <_<rand_chacha::chacha::ChaCha12Core as rand_core::block::BlockRngCore>::generate+0x2d60>
    5050:	17fffffa 	b	5038 <_<rand_chacha::chacha::ChaCha12Core as rand_core::block::BlockRngCore>::generate+0x2cf8>
    5054:	f946b7e8 	ldr	x8, [sp, #3432]
    5058:	f9468fe9 	ldr	x9, [sp, #3352]
    505c:	f944c7ea 	ldr	x10, [sp, #2440]
    5060:	f944c3eb 	ldr	x11, [sp, #2432]
    5064:	3dc267e0 	ldr	q0, [sp, #2448]
    5068:	3d802520 	str	q0, [x9, #144]
    506c:	f92affeb 	str	x11, [sp, #22008]
    5070:	f92b03ea 	str	x10, [sp, #22016]
    5074:	914017ea 	add	x10, sp, #0x5, lsl #12
    5078:	9113e54a 	add	x10, x10, #0x4f9
    507c:	3ccff140 	ldur	q0, [x10, #255]
    5080:	3d800920 	str	q0, [x9, #32]
    5084:	3dc00920 	ldr	q0, [x9, #32]
    5088:	3d802120 	str	q0, [x9, #128]
    508c:	3dc02120 	ldr	q0, [x9, #128]
    5090:	3d802920 	str	q0, [x9, #160]
    5094:	3dc02920 	ldr	q0, [x9, #160]
    5098:	3d865900 	str	q0, [x8, #6496]
    509c:	14000006 	b	50b4 <_<rand_chacha::chacha::ChaCha12Core as rand_core::block::BlockRngCore>::generate+0x2d74>
    50a0:	b9497fe8 	ldr	w8, [sp, #2428]
    50a4:	f944bbe9 	ldr	x9, [sp, #2416]
    50a8:	f91e4be9 	str	x9, [sp, #15504]
    50ac:	b93c9be8 	str	w8, [sp, #15512]
    50b0:	17ffff90 	b	4ef0 <_<rand_chacha::chacha::ChaCha12Core as rand_core::block::BlockRngCore>::generate+0x2bb0>
    50b4:	f946b7e8 	ldr	x8, [sp, #3432]
    50b8:	3dc64d00 	ldr	q0, [x8, #6448]
    50bc:	91400fe1 	add	x1, sp, #0x3, lsl #12
    50c0:	91304021 	add	x1, x1, #0xc10
    50c4:	3d863d00 	str	q0, [x8, #6384]
    50c8:	3dc65100 	ldr	q0, [x8, #6464]
    50cc:	3d864100 	str	q0, [x8, #6400]
    50d0:	3dc65500 	ldr	q0, [x8, #6480]
    50d4:	3d864500 	str	q0, [x8, #6416]
    50d8:	3dc65900 	ldr	q0, [x8, #6496]
    50dc:	3d864900 	str	q0, [x8, #6432]
    50e0:	91400fe0 	add	x0, sp, #0x3, lsl #12
    50e4:	91098000 	add	x0, x0, #0x260
    50e8:	52800808 	mov	w8, #0x40                  	// #64
    50ec:	aa0803e2 	mov	x2, x8
    50f0:	94000000 	bl	0 <_memcpy>
    50f4:	f946b7e9 	ldr	x9, [sp, #3432]
    50f8:	f94687e8 	ldr	x8, [sp, #3336]
    50fc:	3dc3d120 	ldr	q0, [x9, #3904]
    5100:	3d8f7900 	str	q0, [x8, #15840]
    5104:	3dcf7900 	ldr	q0, [x8, #15840]
    5108:	91402be0 	add	x0, sp, #0xa, lsl #12
    510c:	91128000 	add	x0, x0, #0x4a0
    5110:	3d8f7500 	str	q0, [x8, #15824]
    5114:	91402be8 	add	x8, sp, #0xa, lsl #12
    5118:	91134108 	add	x8, x8, #0x4d0
    511c:	90000001 	adrp	x1, d3d8 <l_alloc_345ce69d67e2022250dbe2d202815e5b>
    5120:	91000021 	add	x1, x1, #0x0
    5124:	94000000 	bl	0 <_<T as core::convert::Into<U>>::into>
    5128:	14000008 	b	5148 <_<rand_chacha::chacha::ChaCha12Core as rand_core::block::BlockRngCore>::generate+0x2e08>
    512c:	f94687e8 	ldr	x8, [sp, #3336]
    5130:	f91f2100 	str	x0, [x8, #15936]
    5134:	aa0103e9 	mov	x9, x1
    5138:	b93e4909 	str	w9, [x8, #15944]
    513c:	f95f2108 	ldr	x8, [x8, #15936]
    5140:	f90677e8 	str	x8, [sp, #3304]
    5144:	14001c18 	b	c1a4 <_<rand_chacha::chacha::ChaCha12Core as rand_core::block::BlockRngCore>::generate+0x9e64>
    5148:	f94687e8 	ldr	x8, [sp, #3336]
    514c:	3dcf8100 	ldr	q0, [x8, #15872]
    5150:	3d8f8500 	str	q0, [x8, #15888]
    5154:	b97e1101 	ldr	w1, [x8, #15888]
    5158:	91402be0 	add	x0, sp, #0xa, lsl #12
    515c:	91133c00 	add	x0, x0, #0x4cf
    5160:	94000000 	bl	0 <_<ppv_lite86::generic::u32x4_generic as ppv_lite86::types::RotateEachWord32>::rotate_each_word_right24::{{closure}}>
    5164:	b9096fe0 	str	w0, [sp, #2412]
    5168:	14000001 	b	516c <_<rand_chacha::chacha::ChaCha12Core as rand_core::block::BlockRngCore>::generate+0x2e2c>
    516c:	f94687e8 	ldr	x8, [sp, #3336]
    5170:	b97e1501 	ldr	w1, [x8, #15892]
    5174:	91402be0 	add	x0, sp, #0xa, lsl #12
    5178:	91133c00 	add	x0, x0, #0x4cf
    517c:	94000000 	bl	0 <_<ppv_lite86::generic::u32x4_generic as ppv_lite86::types::RotateEachWord32>::rotate_each_word_right24::{{closure}}>
    5180:	b9096be0 	str	w0, [sp, #2408]
    5184:	14000001 	b	5188 <_<rand_chacha::chacha::ChaCha12Core as rand_core::block::BlockRngCore>::generate+0x2e48>
    5188:	f94687e8 	ldr	x8, [sp, #3336]
    518c:	b97e1901 	ldr	w1, [x8, #15896]
    5190:	91402be0 	add	x0, sp, #0xa, lsl #12
    5194:	91133c00 	add	x0, x0, #0x4cf
    5198:	94000000 	bl	0 <_<ppv_lite86::generic::u32x4_generic as ppv_lite86::types::RotateEachWord32>::rotate_each_word_right24::{{closure}}>
    519c:	b90967e0 	str	w0, [sp, #2404]
    51a0:	14000001 	b	51a4 <_<rand_chacha::chacha::ChaCha12Core as rand_core::block::BlockRngCore>::generate+0x2e64>
    51a4:	f94687e8 	ldr	x8, [sp, #3336]
    51a8:	b97e1d01 	ldr	w1, [x8, #15900]
    51ac:	91402be0 	add	x0, sp, #0xa, lsl #12
    51b0:	91133c00 	add	x0, x0, #0x4cf
    51b4:	94000000 	bl	0 <_<ppv_lite86::generic::u32x4_generic as ppv_lite86::types::RotateEachWord32>::rotate_each_word_right24::{{closure}}>
    51b8:	b90963e0 	str	w0, [sp, #2400]
    51bc:	14000001 	b	51c0 <_<rand_chacha::chacha::ChaCha12Core as rand_core::block::BlockRngCore>::generate+0x2e80>
    51c0:	f94687e8 	ldr	x8, [sp, #3336]
    51c4:	f946b7e9 	ldr	x9, [sp, #3432]
    51c8:	b94963ea 	ldr	w10, [sp, #2400]
    51cc:	b94967eb 	ldr	w11, [sp, #2404]
    51d0:	b9496bec 	ldr	w12, [sp, #2408]
    51d4:	b9496fed 	ldr	w13, [sp, #2412]
    51d8:	b93e310d 	str	w13, [x8, #15920]
    51dc:	b93e350c 	str	w12, [x8, #15924]
    51e0:	b93e390b 	str	w11, [x8, #15928]
    51e4:	b93e3d0a 	str	w10, [x8, #15932]
    51e8:	3dcf8d00 	ldr	q0, [x8, #15920]
    51ec:	3d8f8900 	str	q0, [x8, #15904]
    51f0:	3dcf8900 	ldr	q0, [x8, #15904]
    51f4:	3d8f9500 	str	q0, [x8, #15952]
    51f8:	3dcf9500 	ldr	q0, [x8, #15952]
    51fc:	3d8f9900 	str	q0, [x8, #15968]
    5200:	3dcf9900 	ldr	q0, [x8, #15968]
    5204:	3d8b6d00 	str	q0, [x8, #11696]
    5208:	3dc3d520 	ldr	q0, [x9, #3920]
    520c:	3d8f5100 	str	q0, [x8, #15680]
    5210:	3dcf5100 	ldr	q0, [x8, #15680]
    5214:	91402be0 	add	x0, sp, #0xa, lsl #12
    5218:	91100000 	add	x0, x0, #0x400
    521c:	3d8f4d00 	str	q0, [x8, #15664]
    5220:	91402be8 	add	x8, sp, #0xa, lsl #12
    5224:	9110c108 	add	x8, x8, #0x430
    5228:	90000001 	adrp	x1, d3d8 <l_alloc_345ce69d67e2022250dbe2d202815e5b>
    522c:	91000021 	add	x1, x1, #0x0
    5230:	94000000 	bl	0 <_<T as core::convert::Into<U>>::into>
    5234:	14000008 	b	5254 <_<rand_chacha::chacha::ChaCha12Core as rand_core::block::BlockRngCore>::generate+0x2f14>
    5238:	f94687e8 	ldr	x8, [sp, #3336]
    523c:	f91ed100 	str	x0, [x8, #15776]
    5240:	aa0103e9 	mov	x9, x1
    5244:	b93da909 	str	w9, [x8, #15784]
    5248:	f95ed108 	ldr	x8, [x8, #15776]
    524c:	f90677e8 	str	x8, [sp, #3304]
    5250:	14001bd5 	b	c1a4 <_<rand_chacha::chacha::ChaCha12Core as rand_core::block::BlockRngCore>::generate+0x9e64>
    5254:	f94687e8 	ldr	x8, [sp, #3336]
    5258:	3dcf5900 	ldr	q0, [x8, #15712]
    525c:	3d8f5d00 	str	q0, [x8, #15728]
    5260:	b97d7101 	ldr	w1, [x8, #15728]
    5264:	91402be0 	add	x0, sp, #0xa, lsl #12
    5268:	9110bc00 	add	x0, x0, #0x42f
    526c:	94000000 	bl	0 <_<ppv_lite86::generic::u32x4_generic as ppv_lite86::types::RotateEachWord32>::rotate_each_word_right24::{{closure}}>
    5270:	b9095fe0 	str	w0, [sp, #2396]
    5274:	14000001 	b	5278 <_<rand_chacha::chacha::ChaCha12Core as rand_core::block::BlockRngCore>::generate+0x2f38>
    5278:	f94687e8 	ldr	x8, [sp, #3336]
    527c:	b97d7501 	ldr	w1, [x8, #15732]
    5280:	91402be0 	add	x0, sp, #0xa, lsl #12
    5284:	9110bc00 	add	x0, x0, #0x42f
    5288:	94000000 	bl	0 <_<ppv_lite86::generic::u32x4_generic as ppv_lite86::types::RotateEachWord32>::rotate_each_word_right24::{{closure}}>
    528c:	b9095be0 	str	w0, [sp, #2392]
    5290:	14000001 	b	5294 <_<rand_chacha::chacha::ChaCha12Core as rand_core::block::BlockRngCore>::generate+0x2f54>
    5294:	f94687e8 	ldr	x8, [sp, #3336]
    5298:	b97d7901 	ldr	w1, [x8, #15736]
    529c:	91402be0 	add	x0, sp, #0xa, lsl #12
    52a0:	9110bc00 	add	x0, x0, #0x42f
    52a4:	94000000 	bl	0 <_<ppv_lite86::generic::u32x4_generic as ppv_lite86::types::RotateEachWord32>::rotate_each_word_right24::{{closure}}>
    52a8:	b90957e0 	str	w0, [sp, #2388]
    52ac:	14000001 	b	52b0 <_<rand_chacha::chacha::ChaCha12Core as rand_core::block::BlockRngCore>::generate+0x2f70>
    52b0:	f94687e8 	ldr	x8, [sp, #3336]
    52b4:	b97d7d01 	ldr	w1, [x8, #15740]
    52b8:	91402be0 	add	x0, sp, #0xa, lsl #12
    52bc:	9110bc00 	add	x0, x0, #0x42f
    52c0:	94000000 	bl	0 <_<ppv_lite86::generic::u32x4_generic as ppv_lite86::types::RotateEachWord32>::rotate_each_word_right24::{{closure}}>
    52c4:	b90953e0 	str	w0, [sp, #2384]
    52c8:	14000001 	b	52cc <_<rand_chacha::chacha::ChaCha12Core as rand_core::block::BlockRngCore>::generate+0x2f8c>
    52cc:	f94687e8 	ldr	x8, [sp, #3336]
    52d0:	f946b7e9 	ldr	x9, [sp, #3432]
    52d4:	b94953ea 	ldr	w10, [sp, #2384]
    52d8:	b94957eb 	ldr	w11, [sp, #2388]
    52dc:	b9495bec 	ldr	w12, [sp, #2392]
    52e0:	b9495fed 	ldr	w13, [sp, #2396]
    52e4:	b93d910d 	str	w13, [x8, #15760]
    52e8:	b93d950c 	str	w12, [x8, #15764]
    52ec:	b93d990b 	str	w11, [x8, #15768]
    52f0:	b93d9d0a 	str	w10, [x8, #15772]
    52f4:	3dcf6500 	ldr	q0, [x8, #15760]
    52f8:	3d8f6100 	str	q0, [x8, #15744]
    52fc:	3dcf6100 	ldr	q0, [x8, #15744]
    5300:	3d8f6d00 	str	q0, [x8, #15792]
    5304:	3dcf6d00 	ldr	q0, [x8, #15792]
    5308:	3d8f7100 	str	q0, [x8, #15808]
    530c:	3dcf7100 	ldr	q0, [x8, #15808]
    5310:	3d8b7100 	str	q0, [x8, #11712]
    5314:	3dc3d920 	ldr	q0, [x9, #3936]
    5318:	3d8f2900 	str	q0, [x8, #15520]
    531c:	3dcf2900 	ldr	q0, [x8, #15520]
    5320:	91402be0 	add	x0, sp, #0xa, lsl #12
    5324:	910d8000 	add	x0, x0, #0x360
    5328:	3d8f2500 	str	q0, [x8, #15504]
    532c:	91402be8 	add	x8, sp, #0xa, lsl #12
    5330:	910e4108 	add	x8, x8, #0x390
    5334:	90000001 	adrp	x1, d3d8 <l_alloc_345ce69d67e2022250dbe2d202815e5b>
    5338:	91000021 	add	x1, x1, #0x0
    533c:	94000000 	bl	0 <_<T as core::convert::Into<U>>::into>
    5340:	14000008 	b	5360 <_<rand_chacha::chacha::ChaCha12Core as rand_core::block::BlockRngCore>::generate+0x3020>
    5344:	f94687e8 	ldr	x8, [sp, #3336]
    5348:	f91e8100 	str	x0, [x8, #15616]
    534c:	aa0103e9 	mov	x9, x1
    5350:	b93d0909 	str	w9, [x8, #15624]
    5354:	f95e8108 	ldr	x8, [x8, #15616]
    5358:	f90677e8 	str	x8, [sp, #3304]
    535c:	14001b92 	b	c1a4 <_<rand_chacha::chacha::ChaCha12Core as rand_core::block::BlockRngCore>::generate+0x9e64>
    5360:	f94687e8 	ldr	x8, [sp, #3336]
    5364:	3dcf3100 	ldr	q0, [x8, #15552]
    5368:	3d8f3500 	str	q0, [x8, #15568]
    536c:	b97cd101 	ldr	w1, [x8, #15568]
    5370:	91402be0 	add	x0, sp, #0xa, lsl #12
    5374:	910e3c00 	add	x0, x0, #0x38f
    5378:	94000000 	bl	0 <_<ppv_lite86::generic::u32x4_generic as ppv_lite86::types::RotateEachWord32>::rotate_each_word_right24::{{closure}}>
    537c:	b9094fe0 	str	w0, [sp, #2380]
    5380:	14000001 	b	5384 <_<rand_chacha::chacha::ChaCha12Core as rand_core::block::BlockRngCore>::generate+0x3044>
    5384:	f94687e8 	ldr	x8, [sp, #3336]
    5388:	b97cd501 	ldr	w1, [x8, #15572]
    538c:	91402be0 	add	x0, sp, #0xa, lsl #12
    5390:	910e3c00 	add	x0, x0, #0x38f
    5394:	94000000 	bl	0 <_<ppv_lite86::generic::u32x4_generic as ppv_lite86::types::RotateEachWord32>::rotate_each_word_right24::{{closure}}>
    5398:	b9094be0 	str	w0, [sp, #2376]
    539c:	14000001 	b	53a0 <_<rand_chacha::chacha::ChaCha12Core as rand_core::block::BlockRngCore>::generate+0x3060>
    53a0:	f94687e8 	ldr	x8, [sp, #3336]
    53a4:	b97cd901 	ldr	w1, [x8, #15576]
    53a8:	91402be0 	add	x0, sp, #0xa, lsl #12
    53ac:	910e3c00 	add	x0, x0, #0x38f
    53b0:	94000000 	bl	0 <_<ppv_lite86::generic::u32x4_generic as ppv_lite86::types::RotateEachWord32>::rotate_each_word_right24::{{closure}}>
    53b4:	b90947e0 	str	w0, [sp, #2372]
    53b8:	14000001 	b	53bc <_<rand_chacha::chacha::ChaCha12Core as rand_core::block::BlockRngCore>::generate+0x307c>
    53bc:	f94687e8 	ldr	x8, [sp, #3336]
    53c0:	b97cdd01 	ldr	w1, [x8, #15580]
    53c4:	91402be0 	add	x0, sp, #0xa, lsl #12
    53c8:	910e3c00 	add	x0, x0, #0x38f
    53cc:	94000000 	bl	0 <_<ppv_lite86::generic::u32x4_generic as ppv_lite86::types::RotateEachWord32>::rotate_each_word_right24::{{closure}}>
    53d0:	b90943e0 	str	w0, [sp, #2368]
    53d4:	14000001 	b	53d8 <_<rand_chacha::chacha::ChaCha12Core as rand_core::block::BlockRngCore>::generate+0x3098>
    53d8:	f94687e8 	ldr	x8, [sp, #3336]
    53dc:	f946b7e9 	ldr	x9, [sp, #3432]
    53e0:	b94943ea 	ldr	w10, [sp, #2368]
    53e4:	b94947eb 	ldr	w11, [sp, #2372]
    53e8:	b9494bec 	ldr	w12, [sp, #2376]
    53ec:	b9494fed 	ldr	w13, [sp, #2380]
    53f0:	b93cf10d 	str	w13, [x8, #15600]
    53f4:	b93cf50c 	str	w12, [x8, #15604]
    53f8:	b93cf90b 	str	w11, [x8, #15608]
    53fc:	b93cfd0a 	str	w10, [x8, #15612]
    5400:	3dcf3d00 	ldr	q0, [x8, #15600]
    5404:	3d8f3900 	str	q0, [x8, #15584]
    5408:	3dcf3900 	ldr	q0, [x8, #15584]
    540c:	3d8f4500 	str	q0, [x8, #15632]
    5410:	3dcf4500 	ldr	q0, [x8, #15632]
    5414:	3d8f4900 	str	q0, [x8, #15648]
    5418:	3dcf4900 	ldr	q0, [x8, #15648]
    541c:	3d8b7500 	str	q0, [x8, #11728]
    5420:	3dc3dd20 	ldr	q0, [x9, #3952]
    5424:	3d8f0100 	str	q0, [x8, #15360]
    5428:	3dcf0100 	ldr	q0, [x8, #15360]
    542c:	91402be0 	add	x0, sp, #0xa, lsl #12
    5430:	910b0000 	add	x0, x0, #0x2c0
    5434:	3d8efd00 	str	q0, [x8, #15344]
    5438:	91402be8 	add	x8, sp, #0xa, lsl #12
    543c:	910bc108 	add	x8, x8, #0x2f0
    5440:	90000001 	adrp	x1, d3d8 <l_alloc_345ce69d67e2022250dbe2d202815e5b>
    5444:	91000021 	add	x1, x1, #0x0
    5448:	94000000 	bl	0 <_<T as core::convert::Into<U>>::into>
    544c:	14000008 	b	546c <_<rand_chacha::chacha::ChaCha12Core as rand_core::block::BlockRngCore>::generate+0x312c>
    5450:	f94687e8 	ldr	x8, [sp, #3336]
    5454:	f91e3100 	str	x0, [x8, #15456]
    5458:	aa0103e9 	mov	x9, x1
    545c:	b93c6909 	str	w9, [x8, #15464]
    5460:	f95e3108 	ldr	x8, [x8, #15456]
    5464:	f90677e8 	str	x8, [sp, #3304]
    5468:	14001b4f 	b	c1a4 <_<rand_chacha::chacha::ChaCha12Core as rand_core::block::BlockRngCore>::generate+0x9e64>
    546c:	f94687e8 	ldr	x8, [sp, #3336]
    5470:	3dcf0900 	ldr	q0, [x8, #15392]
    5474:	3d8f0d00 	str	q0, [x8, #15408]
    5478:	b97c3101 	ldr	w1, [x8, #15408]
    547c:	91402be0 	add	x0, sp, #0xa, lsl #12
    5480:	910bbc00 	add	x0, x0, #0x2ef
    5484:	94000000 	bl	0 <_<ppv_lite86::generic::u32x4_generic as ppv_lite86::types::RotateEachWord32>::rotate_each_word_right24::{{closure}}>
    5488:	b9093fe0 	str	w0, [sp, #2364]
    548c:	14000001 	b	5490 <_<rand_chacha::chacha::ChaCha12Core as rand_core::block::BlockRngCore>::generate+0x3150>
    5490:	f94687e8 	ldr	x8, [sp, #3336]
    5494:	b97c3501 	ldr	w1, [x8, #15412]
    5498:	91402be0 	add	x0, sp, #0xa, lsl #12
    549c:	910bbc00 	add	x0, x0, #0x2ef
    54a0:	94000000 	bl	0 <_<ppv_lite86::generic::u32x4_generic as ppv_lite86::types::RotateEachWord32>::rotate_each_word_right24::{{closure}}>
    54a4:	b9093be0 	str	w0, [sp, #2360]
    54a8:	14000001 	b	54ac <_<rand_chacha::chacha::ChaCha12Core as rand_core::block::BlockRngCore>::generate+0x316c>
    54ac:	f94687e8 	ldr	x8, [sp, #3336]
    54b0:	b97c3901 	ldr	w1, [x8, #15416]
    54b4:	91402be0 	add	x0, sp, #0xa, lsl #12
    54b8:	910bbc00 	add	x0, x0, #0x2ef
    54bc:	94000000 	bl	0 <_<ppv_lite86::generic::u32x4_generic as ppv_lite86::types::RotateEachWord32>::rotate_each_word_right24::{{closure}}>
    54c0:	b90937e0 	str	w0, [sp, #2356]
    54c4:	14000001 	b	54c8 <_<rand_chacha::chacha::ChaCha12Core as rand_core::block::BlockRngCore>::generate+0x3188>
    54c8:	f94687e8 	ldr	x8, [sp, #3336]
    54cc:	b97c3d01 	ldr	w1, [x8, #15420]
    54d0:	91402be0 	add	x0, sp, #0xa, lsl #12
    54d4:	910bbc00 	add	x0, x0, #0x2ef
    54d8:	94000000 	bl	0 <_<ppv_lite86::generic::u32x4_generic as ppv_lite86::types::RotateEachWord32>::rotate_each_word_right24::{{closure}}>
    54dc:	b90933e0 	str	w0, [sp, #2352]
    54e0:	14000001 	b	54e4 <_<rand_chacha::chacha::ChaCha12Core as rand_core::block::BlockRngCore>::generate+0x31a4>
    54e4:	f94687e8 	ldr	x8, [sp, #3336]
    54e8:	b94933e9 	ldr	w9, [sp, #2352]
    54ec:	b94937ea 	ldr	w10, [sp, #2356]
    54f0:	b9493beb 	ldr	w11, [sp, #2360]
    54f4:	b9493fec 	ldr	w12, [sp, #2364]
    54f8:	b93c510c 	str	w12, [x8, #15440]
    54fc:	b93c550b 	str	w11, [x8, #15444]
    5500:	b93c590a 	str	w10, [x8, #15448]
    5504:	b93c5d09 	str	w9, [x8, #15452]
    5508:	3dcf1500 	ldr	q0, [x8, #15440]
    550c:	3d8f1100 	str	q0, [x8, #15424]
    5510:	3dcf1100 	ldr	q0, [x8, #15424]
    5514:	3d8f1d00 	str	q0, [x8, #15472]
    5518:	3dcf1d00 	ldr	q0, [x8, #15472]
    551c:	3d8f2100 	str	q0, [x8, #15488]
    5520:	3dcf2100 	ldr	q0, [x8, #15488]
    5524:	3d8b7900 	str	q0, [x8, #11744]
    5528:	3dcb6d00 	ldr	q0, [x8, #11696]
    552c:	914027e1 	add	x1, sp, #0x9, lsl #12
    5530:	91110021 	add	x1, x1, #0x440
    5534:	3d8b5d00 	str	q0, [x8, #11632]
    5538:	3dcb7100 	ldr	q0, [x8, #11712]
    553c:	3d8b6100 	str	q0, [x8, #11648]
    5540:	3dcb7500 	ldr	q0, [x8, #11728]
    5544:	3d8b6500 	str	q0, [x8, #11664]
    5548:	3dcb7900 	ldr	q0, [x8, #11744]
    554c:	3d8b6900 	str	q0, [x8, #11680]
    5550:	91400fe0 	add	x0, sp, #0x3, lsl #12
    5554:	91088000 	add	x0, x0, #0x220
    5558:	f9048be0 	str	x0, [sp, #2320]
    555c:	52800808 	mov	w8, #0x40                  	// #64
    5560:	aa0803e2 	mov	x2, x8
    5564:	f90497e2 	str	x2, [sp, #2344]
    5568:	94000000 	bl	0 <_memcpy>
    556c:	f9448be1 	ldr	x1, [sp, #2320]
    5570:	f94497e2 	ldr	x2, [sp, #2344]
    5574:	914007e8 	add	x8, sp, #0x1, lsl #12
    5578:	91084108 	add	x8, x8, #0x210
    557c:	f90493e8 	str	x8, [sp, #2336]
    5580:	91030100 	add	x0, x8, #0xc0
    5584:	94000000 	bl	0 <_memcpy>
    5588:	f94493e8 	ldr	x8, [sp, #2336]
    558c:	f94497e2 	ldr	x2, [sp, #2344]
    5590:	91020109 	add	x9, x8, #0x80
    5594:	f9048fe9 	str	x9, [sp, #2328]
    5598:	91030101 	add	x1, x8, #0xc0
    559c:	91400fe0 	add	x0, sp, #0x3, lsl #12
    55a0:	910c8000 	add	x0, x0, #0x320
    55a4:	94000000 	bl	0 <_memcpy>
    55a8:	f9448fea 	ldr	x10, [sp, #2328]
    55ac:	f94687e8 	ldr	x8, [sp, #3336]
    55b0:	f946abe9 	ldr	x9, [sp, #3408]
    55b4:	f946b7eb 	ldr	x11, [sp, #3432]
    55b8:	aa0a03ec 	mov	x12, x10
    55bc:	f93b27ec 	str	x12, [sp, #30280]
    55c0:	3dc40160 	ldr	q0, [x11, #4096]
    55c4:	3d83cd00 	str	q0, [x8, #3888]
    55c8:	f93fffea 	str	x10, [sp, #32760]
    55cc:	3dc12520 	ldr	q0, [x9, #1168]
    55d0:	3d865500 	str	q0, [x8, #6480]
    55d4:	3dc3cd00 	ldr	q0, [x8, #3888]
    55d8:	3d865100 	str	q0, [x8, #6464]
    55dc:	3dc65500 	ldr	q0, [x8, #6480]
    55e0:	914023e0 	add	x0, sp, #0x8, lsl #12
    55e4:	3d864d00 	str	q0, [x8, #6448]
    55e8:	3dc65100 	ldr	q0, [x8, #6464]
    55ec:	914023e1 	add	x1, sp, #0x8, lsl #12
    55f0:	9100c021 	add	x1, x1, #0x30
    55f4:	3d865900 	str	q0, [x8, #6496]
    55f8:	91401fe8 	add	x8, sp, #0x7, lsl #12
    55fc:	913fa108 	add	x8, x8, #0xfe8
    5600:	94000000 	bl	0 <_ppv_lite86::generic::dmap2>
    5604:	f94687e8 	ldr	x8, [sp, #3336]
    5608:	f946abe9 	ldr	x9, [sp, #3408]
    560c:	f94493ea 	ldr	x10, [sp, #2336]
    5610:	f946b7eb 	ldr	x11, [sp, #3432]
    5614:	91401fec 	add	x12, sp, #0x7, lsl #12
    5618:	913ba58c 	add	x12, x12, #0xee9
    561c:	3ccff180 	ldur	q0, [x12, #255]
    5620:	3d812520 	str	q0, [x9, #1168]
    5624:	9102414a 	add	x10, x10, #0x90
    5628:	3dc40560 	ldr	q0, [x11, #4112]
    562c:	3d83d100 	str	q0, [x8, #3904]
    5630:	f93fcfea 	str	x10, [sp, #32664]
    5634:	3dc12920 	ldr	q0, [x9, #1184]
    5638:	3d863d00 	str	q0, [x8, #6384]
    563c:	3dc3d100 	ldr	q0, [x8, #3904]
    5640:	3d863900 	str	q0, [x8, #6368]
    5644:	3dc63d00 	ldr	q0, [x8, #6384]
    5648:	91401fe0 	add	x0, sp, #0x7, lsl #12
    564c:	913e8000 	add	x0, x0, #0xfa0
    5650:	3d863500 	str	q0, [x8, #6352]
    5654:	3dc63900 	ldr	q0, [x8, #6368]
    5658:	91401fe1 	add	x1, sp, #0x7, lsl #12
    565c:	913f4021 	add	x1, x1, #0xfd0
    5660:	3d864100 	str	q0, [x8, #6400]
    5664:	91401fe8 	add	x8, sp, #0x7, lsl #12
    5668:	913e2108 	add	x8, x8, #0xf88
    566c:	94000000 	bl	0 <_ppv_lite86::generic::dmap2>
    5670:	f94687e8 	ldr	x8, [sp, #3336]
    5674:	f946abe9 	ldr	x9, [sp, #3408]
    5678:	f94493ea 	ldr	x10, [sp, #2336]
    567c:	f946b7eb 	ldr	x11, [sp, #3432]
    5680:	91401fec 	add	x12, sp, #0x7, lsl #12
    5684:	913a258c 	add	x12, x12, #0xe89
    5688:	3ccff180 	ldur	q0, [x12, #255]
    568c:	3d812920 	str	q0, [x9, #1184]
    5690:	9102814a 	add	x10, x10, #0xa0
    5694:	3dc40960 	ldr	q0, [x11, #4128]
    5698:	3d83d500 	str	q0, [x8, #3920]
    569c:	f93f9fea 	str	x10, [sp, #32568]
    56a0:	3dc12d20 	ldr	q0, [x9, #1200]
    56a4:	3d862500 	str	q0, [x8, #6288]
    56a8:	3dc3d500 	ldr	q0, [x8, #3920]
    56ac:	3d862100 	str	q0, [x8, #6272]
    56b0:	3dc62500 	ldr	q0, [x8, #6288]
    56b4:	91401fe0 	add	x0, sp, #0x7, lsl #12
    56b8:	913d0000 	add	x0, x0, #0xf40
    56bc:	3d861d00 	str	q0, [x8, #6256]
    56c0:	3dc62100 	ldr	q0, [x8, #6272]
    56c4:	91401fe1 	add	x1, sp, #0x7, lsl #12
    56c8:	913dc021 	add	x1, x1, #0xf70
    56cc:	3d862900 	str	q0, [x8, #6304]
    56d0:	91401fe8 	add	x8, sp, #0x7, lsl #12
    56d4:	913ca108 	add	x8, x8, #0xf28
    56d8:	94000000 	bl	0 <_ppv_lite86::generic::dmap2>
    56dc:	f94687e8 	ldr	x8, [sp, #3336]
    56e0:	f946abe9 	ldr	x9, [sp, #3408]
    56e4:	f94493ea 	ldr	x10, [sp, #2336]
    56e8:	f946b7eb 	ldr	x11, [sp, #3432]
    56ec:	91401fec 	add	x12, sp, #0x7, lsl #12
    56f0:	9138a58c 	add	x12, x12, #0xe29
    56f4:	3ccff180 	ldur	q0, [x12, #255]
    56f8:	3d812d20 	str	q0, [x9, #1200]
    56fc:	9102c14a 	add	x10, x10, #0xb0
    5700:	3dc40d60 	ldr	q0, [x11, #4144]
    5704:	3d83d900 	str	q0, [x8, #3936]
    5708:	f93f6fea 	str	x10, [sp, #32472]
    570c:	3dc13120 	ldr	q0, [x9, #1216]
    5710:	3d860d00 	str	q0, [x8, #6192]
    5714:	3dc3d900 	ldr	q0, [x8, #3936]
    5718:	3d860900 	str	q0, [x8, #6176]
    571c:	3dc60d00 	ldr	q0, [x8, #6192]
    5720:	91401fe0 	add	x0, sp, #0x7, lsl #12
    5724:	913b8000 	add	x0, x0, #0xee0
    5728:	3d860500 	str	q0, [x8, #6160]
    572c:	3dc60900 	ldr	q0, [x8, #6176]
    5730:	91401fe1 	add	x1, sp, #0x7, lsl #12
    5734:	913c4021 	add	x1, x1, #0xf10
    5738:	3d861100 	str	q0, [x8, #6208]
    573c:	91401fe8 	add	x8, sp, #0x7, lsl #12
    5740:	913b2108 	add	x8, x8, #0xec8
    5744:	94000000 	bl	0 <_ppv_lite86::generic::dmap2>
    5748:	f946abe9 	ldr	x9, [sp, #3408]
    574c:	f94493e8 	ldr	x8, [sp, #2336]
    5750:	f94497e2 	ldr	x2, [sp, #2344]
    5754:	91401fea 	add	x10, sp, #0x7, lsl #12
    5758:	9137254a 	add	x10, x10, #0xdc9
    575c:	3ccff140 	ldur	q0, [x10, #255]
    5760:	3d813120 	str	q0, [x9, #1216]
    5764:	91010101 	add	x1, x8, #0x40
    5768:	91400fe0 	add	x0, sp, #0x3, lsl #12
    576c:	910f8000 	add	x0, x0, #0x3e0
    5770:	94000000 	bl	0 <_memcpy>
    5774:	f94493e8 	ldr	x8, [sp, #2336]
    5778:	f94497e2 	ldr	x2, [sp, #2344]
    577c:	91020101 	add	x1, x8, #0x80
    5780:	91400fe0 	add	x0, sp, #0x3, lsl #12
    5784:	91108000 	add	x0, x0, #0x420
    5788:	94000000 	bl	0 <_memcpy>
    578c:	f946b7e8 	ldr	x8, [sp, #3432]
    5790:	f9468fe9 	ldr	x9, [sp, #3352]
    5794:	3dc43100 	ldr	q0, [x8, #4288]
    5798:	3d823520 	str	q0, [x9, #2256]
    579c:	3dc44100 	ldr	q0, [x8, #4352]
    57a0:	3d823120 	str	q0, [x9, #2240]
    57a4:	3dc23520 	ldr	q0, [x9, #2256]
    57a8:	914017e0 	add	x0, sp, #0x5, lsl #12
    57ac:	9139c000 	add	x0, x0, #0xe70
    57b0:	3d822d20 	str	q0, [x9, #2224]
    57b4:	3dc23120 	ldr	q0, [x9, #2240]
    57b8:	3d823920 	str	q0, [x9, #2272]
    57bc:	3925fd3f 	strb	wzr, [x9, #2431]
    57c0:	52800028 	mov	w8, #0x1                   	// #1
    57c4:	3925fd28 	strb	w8, [x9, #2431]
    57c8:	914017e8 	add	x8, sp, #0x5, lsl #12
    57cc:	913b0108 	add	x8, x8, #0xec0
    57d0:	90000001 	adrp	x1, d408 <l_alloc_d6cd646a032ab5661bff8aa78f551e65>
    57d4:	91000021 	add	x1, x1, #0x0
    57d8:	94000000 	bl	0 <_<T as core::convert::Into<U>>::into>
    57dc:	14000008 	b	57fc <_<rand_chacha::chacha::ChaCha12Core as rand_core::block::BlockRngCore>::generate+0x34bc>
    57e0:	f9468fe8 	ldr	x8, [sp, #3352]
    57e4:	f92fa3e0 	str	x0, [sp, #24384]
    57e8:	aa0103e9 	mov	x9, x1
    57ec:	b9098909 	str	w9, [x8, #2440]
    57f0:	3965fd08 	ldrb	w8, [x8, #2431]
    57f4:	37000648 	tbnz	w8, #0, 58bc <_<rand_chacha::chacha::ChaCha12Core as rand_core::block::BlockRngCore>::generate+0x357c>
    57f8:	1400002e 	b	58b0 <_<rand_chacha::chacha::ChaCha12Core as rand_core::block::BlockRngCore>::generate+0x3570>
    57fc:	f9468fe8 	ldr	x8, [sp, #3352]
    5800:	3925fd1f 	strb	wzr, [x8, #2431]
    5804:	3dc23900 	ldr	q0, [x8, #2272]
    5808:	914017e0 	add	x0, sp, #0x5, lsl #12
    580c:	913b8000 	add	x0, x0, #0xee0
    5810:	3d824900 	str	q0, [x8, #2336]
    5814:	914017e8 	add	x8, sp, #0x5, lsl #12
    5818:	913b4108 	add	x8, x8, #0xed0
    581c:	90000001 	adrp	x1, d420 <l_alloc_eb8937521ab56b1815db886b021bd11a>
    5820:	91000021 	add	x1, x1, #0x0
    5824:	94000000 	bl	0 <_<T as core::convert::Into<U>>::into>
    5828:	14000001 	b	582c <_<rand_chacha::chacha::ChaCha12Core as rand_core::block::BlockRngCore>::generate+0x34ec>
    582c:	f9468fe8 	ldr	x8, [sp, #3352]
    5830:	3dc24100 	ldr	q0, [x8, #2304]
    5834:	3d824d00 	str	q0, [x8, #2352]
    5838:	f96f7beb 	ldr	x11, [sp, #24304]
    583c:	d2800009 	mov	x9, #0x0                   	// #0
    5840:	f92fd7eb 	str	x11, [sp, #24488]
    5844:	f96f7fea 	ldr	x10, [sp, #24312]
    5848:	f92fd3ea 	str	x10, [sp, #24480]
    584c:	aa090161 	orr	x1, x11, x9
    5850:	aa0a0122 	orr	x2, x9, x10
    5854:	4e081c20 	mov	v0.d[0], x1
    5858:	4e181c40 	mov	v0.d[1], x2
    585c:	3d826500 	str	q0, [x8, #2448]
    5860:	3dc24500 	ldr	q0, [x8, #2320]
    5864:	3d825100 	str	q0, [x8, #2368]
    5868:	f96f83eb 	ldr	x11, [sp, #24320]
    586c:	f92fdfeb 	str	x11, [sp, #24504]
    5870:	f96f87ea 	ldr	x10, [sp, #24328]
    5874:	f92fdbea 	str	x10, [sp, #24496]
    5878:	aa090163 	orr	x3, x11, x9
    587c:	aa0a0124 	orr	x4, x9, x10
    5880:	4e081c60 	mov	v0.d[0], x3
    5884:	4e181c80 	mov	v0.d[1], x4
    5888:	3d826900 	str	q0, [x8, #2464]
    588c:	914017e0 	add	x0, sp, #0x5, lsl #12
    5890:	913afc00 	add	x0, x0, #0xebf
    5894:	94000000 	bl	0 <_<ppv_lite86::generic::u32x4_generic as core::ops::bit::BitXor>::bitxor::{{closure}}>
    5898:	f9047be0 	str	x0, [sp, #2288]
    589c:	f9047fe1 	str	x1, [sp, #2296]
    58a0:	4e081c00 	mov	v0.d[0], x0
    58a4:	4e181c20 	mov	v0.d[1], x1
    58a8:	3d8243e0 	str	q0, [sp, #2304]
    58ac:	14000005 	b	58c0 <_<rand_chacha::chacha::ChaCha12Core as rand_core::block::BlockRngCore>::generate+0x3580>
    58b0:	f96fa3e8 	ldr	x8, [sp, #24384]
    58b4:	f90677e8 	str	x8, [sp, #3304]
    58b8:	14001a3b 	b	c1a4 <_<rand_chacha::chacha::ChaCha12Core as rand_core::block::BlockRngCore>::generate+0x9e64>
    58bc:	17fffffd 	b	58b0 <_<rand_chacha::chacha::ChaCha12Core as rand_core::block::BlockRngCore>::generate+0x3570>
    58c0:	f9468fe9 	ldr	x9, [sp, #3352]
    58c4:	f946b7e8 	ldr	x8, [sp, #3432]
    58c8:	f9447fea 	ldr	x10, [sp, #2296]
    58cc:	f9447beb 	ldr	x11, [sp, #2288]
    58d0:	3dc243e0 	ldr	q0, [sp, #2304]
    58d4:	3d827120 	str	q0, [x9, #2496]
    58d8:	f92f97eb 	str	x11, [sp, #24360]
    58dc:	f92f9bea 	str	x10, [sp, #24368]
    58e0:	914017ea 	add	x10, sp, #0x5, lsl #12
    58e4:	9138a54a 	add	x10, x10, #0xe29
    58e8:	3ccff140 	ldur	q0, [x10, #255]
    58ec:	3d825520 	str	q0, [x9, #2384]
    58f0:	3dc25520 	ldr	q0, [x9, #2384]
    58f4:	3d826d20 	str	q0, [x9, #2480]
    58f8:	3dc26d20 	ldr	q0, [x9, #2480]
    58fc:	3d827520 	str	q0, [x9, #2512]
    5900:	3dc27520 	ldr	q0, [x9, #2512]
    5904:	3d862900 	str	q0, [x8, #6304]
    5908:	3dc43500 	ldr	q0, [x8, #4304]
    590c:	3d81e120 	str	q0, [x9, #1920]
    5910:	3dc44500 	ldr	q0, [x8, #4368]
    5914:	3d81dd20 	str	q0, [x9, #1904]
    5918:	3dc1e120 	ldr	q0, [x9, #1920]
    591c:	914017e0 	add	x0, sp, #0x5, lsl #12
    5920:	91348000 	add	x0, x0, #0xd20
    5924:	3d81d920 	str	q0, [x9, #1888]
    5928:	3dc1dd20 	ldr	q0, [x9, #1904]
    592c:	3d81e520 	str	q0, [x9, #1936]
    5930:	3920bd3f 	strb	wzr, [x9, #2095]
    5934:	52800028 	mov	w8, #0x1                   	// #1
    5938:	3920bd28 	strb	w8, [x9, #2095]
    593c:	914017e8 	add	x8, sp, #0x5, lsl #12
    5940:	9135c108 	add	x8, x8, #0xd70
    5944:	90000001 	adrp	x1, d408 <l_alloc_d6cd646a032ab5661bff8aa78f551e65>
    5948:	91000021 	add	x1, x1, #0x0
    594c:	94000000 	bl	0 <_<T as core::convert::Into<U>>::into>
    5950:	14000008 	b	5970 <_<rand_chacha::chacha::ChaCha12Core as rand_core::block::BlockRngCore>::generate+0x3630>
    5954:	f9468fe8 	ldr	x8, [sp, #3352]
    5958:	f92efbe0 	str	x0, [sp, #24048]
    595c:	aa0103e9 	mov	x9, x1
    5960:	b9083909 	str	w9, [x8, #2104]
    5964:	3960bd08 	ldrb	w8, [x8, #2095]
    5968:	370006a8 	tbnz	w8, #0, 5a3c <_<rand_chacha::chacha::ChaCha12Core as rand_core::block::BlockRngCore>::generate+0x36fc>
    596c:	1400002e 	b	5a24 <_<rand_chacha::chacha::ChaCha12Core as rand_core::block::BlockRngCore>::generate+0x36e4>
    5970:	f9468fe8 	ldr	x8, [sp, #3352]
    5974:	3920bd1f 	strb	wzr, [x8, #2095]
    5978:	3dc1e500 	ldr	q0, [x8, #1936]
    597c:	914017e0 	add	x0, sp, #0x5, lsl #12
    5980:	91364000 	add	x0, x0, #0xd90
    5984:	3d81f500 	str	q0, [x8, #2000]
    5988:	914017e8 	add	x8, sp, #0x5, lsl #12
    598c:	91360108 	add	x8, x8, #0xd80
    5990:	90000001 	adrp	x1, d420 <l_alloc_eb8937521ab56b1815db886b021bd11a>
    5994:	91000021 	add	x1, x1, #0x0
    5998:	94000000 	bl	0 <_<T as core::convert::Into<U>>::into>
    599c:	14000001 	b	59a0 <_<rand_chacha::chacha::ChaCha12Core as rand_core::block::BlockRngCore>::generate+0x3660>
    59a0:	f9468fe8 	ldr	x8, [sp, #3352]
    59a4:	3dc1ed00 	ldr	q0, [x8, #1968]
    59a8:	3d81f900 	str	q0, [x8, #2016]
    59ac:	f96ed3eb 	ldr	x11, [sp, #23968]
    59b0:	d2800009 	mov	x9, #0x0                   	// #0
    59b4:	f92f2feb 	str	x11, [sp, #24152]
    59b8:	f96ed7ea 	ldr	x10, [sp, #23976]
    59bc:	f92f2bea 	str	x10, [sp, #24144]
    59c0:	aa090161 	orr	x1, x11, x9
    59c4:	aa0a0122 	orr	x2, x9, x10
    59c8:	4e081c20 	mov	v0.d[0], x1
    59cc:	4e181c40 	mov	v0.d[1], x2
    59d0:	3d821100 	str	q0, [x8, #2112]
    59d4:	3dc1f100 	ldr	q0, [x8, #1984]
    59d8:	3d81fd00 	str	q0, [x8, #2032]
    59dc:	f96edbeb 	ldr	x11, [sp, #23984]
    59e0:	f92f37eb 	str	x11, [sp, #24168]
    59e4:	f96edfea 	ldr	x10, [sp, #23992]
    59e8:	f92f33ea 	str	x10, [sp, #24160]
    59ec:	aa090163 	orr	x3, x11, x9
    59f0:	aa0a0124 	orr	x4, x9, x10
    59f4:	4e081c60 	mov	v0.d[0], x3
    59f8:	4e181c80 	mov	v0.d[1], x4
    59fc:	3d821500 	str	q0, [x8, #2128]
    5a00:	914017e0 	add	x0, sp, #0x5, lsl #12
    5a04:	9135bc00 	add	x0, x0, #0xd6f
    5a08:	94000000 	bl	0 <_<ppv_lite86::generic::u32x4_generic as core::ops::bit::BitXor>::bitxor::{{closure}}>
    5a0c:	f9046be0 	str	x0, [sp, #2256]
    5a10:	f9046fe1 	str	x1, [sp, #2264]
    5a14:	4e081c00 	mov	v0.d[0], x0
    5a18:	4e181c20 	mov	v0.d[1], x1
    5a1c:	3d823be0 	str	q0, [sp, #2272]
    5a20:	14000008 	b	5a40 <_<rand_chacha::chacha::ChaCha12Core as rand_core::block::BlockRngCore>::generate+0x3700>
    5a24:	f9468fe8 	ldr	x8, [sp, #3352]
    5a28:	f96efbe9 	ldr	x9, [sp, #24048]
    5a2c:	f90463e9 	str	x9, [sp, #2240]
    5a30:	b9483908 	ldr	w8, [x8, #2104]
    5a34:	b908cfe8 	str	w8, [sp, #2252]
    5a38:	14000018 	b	5a98 <_<rand_chacha::chacha::ChaCha12Core as rand_core::block::BlockRngCore>::generate+0x3758>
    5a3c:	17fffffa 	b	5a24 <_<rand_chacha::chacha::ChaCha12Core as rand_core::block::BlockRngCore>::generate+0x36e4>
    5a40:	f946b7e8 	ldr	x8, [sp, #3432]
    5a44:	f9468fe9 	ldr	x9, [sp, #3352]
    5a48:	f9446fea 	ldr	x10, [sp, #2264]
    5a4c:	f9446beb 	ldr	x11, [sp, #2256]
    5a50:	3dc23be0 	ldr	q0, [sp, #2272]
    5a54:	3d821d20 	str	q0, [x9, #2160]
    5a58:	f92eefeb 	str	x11, [sp, #24024]
    5a5c:	f92ef3ea 	str	x10, [sp, #24032]
    5a60:	914017ea 	add	x10, sp, #0x5, lsl #12
    5a64:	9133654a 	add	x10, x10, #0xcd9
    5a68:	3ccff140 	ldur	q0, [x10, #255]
    5a6c:	3d820120 	str	q0, [x9, #2048]
    5a70:	3dc20120 	ldr	q0, [x9, #2048]
    5a74:	3d821920 	str	q0, [x9, #2144]
    5a78:	3dc21920 	ldr	q0, [x9, #2144]
    5a7c:	3d822120 	str	q0, [x9, #2176]
    5a80:	3dc22120 	ldr	q0, [x9, #2176]
    5a84:	3d862d00 	str	q0, [x8, #6320]
    5a88:	14000009 	b	5aac <_<rand_chacha::chacha::ChaCha12Core as rand_core::block::BlockRngCore>::generate+0x376c>
    5a8c:	f95e03e8 	ldr	x8, [sp, #15360]
    5a90:	f90677e8 	str	x8, [sp, #3304]
    5a94:	140019c4 	b	c1a4 <_<rand_chacha::chacha::ChaCha12Core as rand_core::block::BlockRngCore>::generate+0x9e64>
    5a98:	b948cfe8 	ldr	w8, [sp, #2252]
    5a9c:	f94463e9 	ldr	x9, [sp, #2240]
    5aa0:	f91e03e9 	str	x9, [sp, #15360]
    5aa4:	b93c0be8 	str	w8, [sp, #15368]
    5aa8:	17fffff9 	b	5a8c <_<rand_chacha::chacha::ChaCha12Core as rand_core::block::BlockRngCore>::generate+0x374c>
    5aac:	f9468fe9 	ldr	x9, [sp, #3352]
    5ab0:	f946b7e8 	ldr	x8, [sp, #3432]
    5ab4:	3dc43900 	ldr	q0, [x8, #4320]
    5ab8:	3d818d20 	str	q0, [x9, #1584]
    5abc:	3dc44900 	ldr	q0, [x8, #4384]
    5ac0:	3d818920 	str	q0, [x9, #1568]
    5ac4:	3dc18d20 	ldr	q0, [x9, #1584]
    5ac8:	914017e0 	add	x0, sp, #0x5, lsl #12
    5acc:	912f4000 	add	x0, x0, #0xbd0
    5ad0:	3d818520 	str	q0, [x9, #1552]
    5ad4:	3dc18920 	ldr	q0, [x9, #1568]
    5ad8:	3d819120 	str	q0, [x9, #1600]
    5adc:	391b7d3f 	strb	wzr, [x9, #1759]
    5ae0:	52800028 	mov	w8, #0x1                   	// #1
    5ae4:	391b7d28 	strb	w8, [x9, #1759]
    5ae8:	914017e8 	add	x8, sp, #0x5, lsl #12
    5aec:	91308108 	add	x8, x8, #0xc20
    5af0:	90000001 	adrp	x1, d408 <l_alloc_d6cd646a032ab5661bff8aa78f551e65>
    5af4:	91000021 	add	x1, x1, #0x0
    5af8:	94000000 	bl	0 <_<T as core::convert::Into<U>>::into>
    5afc:	14000008 	b	5b1c <_<rand_chacha::chacha::ChaCha12Core as rand_core::block::BlockRngCore>::generate+0x37dc>
    5b00:	f9468fe8 	ldr	x8, [sp, #3352]
    5b04:	f92e53e0 	str	x0, [sp, #23712]
    5b08:	aa0103e9 	mov	x9, x1
    5b0c:	b906e909 	str	w9, [x8, #1768]
    5b10:	395b7d08 	ldrb	w8, [x8, #1759]
    5b14:	370006a8 	tbnz	w8, #0, 5be8 <_<rand_chacha::chacha::ChaCha12Core as rand_core::block::BlockRngCore>::generate+0x38a8>
    5b18:	1400002e 	b	5bd0 <_<rand_chacha::chacha::ChaCha12Core as rand_core::block::BlockRngCore>::generate+0x3890>
    5b1c:	f9468fe8 	ldr	x8, [sp, #3352]
    5b20:	391b7d1f 	strb	wzr, [x8, #1759]
    5b24:	3dc19100 	ldr	q0, [x8, #1600]
    5b28:	914017e0 	add	x0, sp, #0x5, lsl #12
    5b2c:	91310000 	add	x0, x0, #0xc40
    5b30:	3d81a100 	str	q0, [x8, #1664]
    5b34:	914017e8 	add	x8, sp, #0x5, lsl #12
    5b38:	9130c108 	add	x8, x8, #0xc30
    5b3c:	90000001 	adrp	x1, d420 <l_alloc_eb8937521ab56b1815db886b021bd11a>
    5b40:	91000021 	add	x1, x1, #0x0
    5b44:	94000000 	bl	0 <_<T as core::convert::Into<U>>::into>
    5b48:	14000001 	b	5b4c <_<rand_chacha::chacha::ChaCha12Core as rand_core::block::BlockRngCore>::generate+0x380c>
    5b4c:	f9468fe8 	ldr	x8, [sp, #3352]
    5b50:	3dc19900 	ldr	q0, [x8, #1632]
    5b54:	3d81a500 	str	q0, [x8, #1680]
    5b58:	f96e2beb 	ldr	x11, [sp, #23632]
    5b5c:	d2800009 	mov	x9, #0x0                   	// #0
    5b60:	f92e87eb 	str	x11, [sp, #23816]
    5b64:	f96e2fea 	ldr	x10, [sp, #23640]
    5b68:	f92e83ea 	str	x10, [sp, #23808]
    5b6c:	aa090161 	orr	x1, x11, x9
    5b70:	aa0a0122 	orr	x2, x9, x10
    5b74:	4e081c20 	mov	v0.d[0], x1
    5b78:	4e181c40 	mov	v0.d[1], x2
    5b7c:	3d81bd00 	str	q0, [x8, #1776]
    5b80:	3dc19d00 	ldr	q0, [x8, #1648]
    5b84:	3d81a900 	str	q0, [x8, #1696]
    5b88:	f96e33eb 	ldr	x11, [sp, #23648]
    5b8c:	f92e8feb 	str	x11, [sp, #23832]
    5b90:	f96e37ea 	ldr	x10, [sp, #23656]
    5b94:	f92e8bea 	str	x10, [sp, #23824]
    5b98:	aa090163 	orr	x3, x11, x9
    5b9c:	aa0a0124 	orr	x4, x9, x10
    5ba0:	4e081c60 	mov	v0.d[0], x3
    5ba4:	4e181c80 	mov	v0.d[1], x4
    5ba8:	3d81c100 	str	q0, [x8, #1792]
    5bac:	914017e0 	add	x0, sp, #0x5, lsl #12
    5bb0:	91307c00 	add	x0, x0, #0xc1f
    5bb4:	94000000 	bl	0 <_<ppv_lite86::generic::u32x4_generic as core::ops::bit::BitXor>::bitxor::{{closure}}>
    5bb8:	f90453e0 	str	x0, [sp, #2208]
    5bbc:	f90457e1 	str	x1, [sp, #2216]
    5bc0:	4e081c00 	mov	v0.d[0], x0
    5bc4:	4e181c20 	mov	v0.d[1], x1
    5bc8:	3d822fe0 	str	q0, [sp, #2224]
    5bcc:	14000008 	b	5bec <_<rand_chacha::chacha::ChaCha12Core as rand_core::block::BlockRngCore>::generate+0x38ac>
    5bd0:	f9468fe8 	ldr	x8, [sp, #3352]
    5bd4:	f96e53e9 	ldr	x9, [sp, #23712]
    5bd8:	f9044be9 	str	x9, [sp, #2192]
    5bdc:	b946e908 	ldr	w8, [x8, #1768]
    5be0:	b9089fe8 	str	w8, [sp, #2204]
    5be4:	14000016 	b	5c3c <_<rand_chacha::chacha::ChaCha12Core as rand_core::block::BlockRngCore>::generate+0x38fc>
    5be8:	17fffffa 	b	5bd0 <_<rand_chacha::chacha::ChaCha12Core as rand_core::block::BlockRngCore>::generate+0x3890>
    5bec:	f946b7e8 	ldr	x8, [sp, #3432]
    5bf0:	f9468fe9 	ldr	x9, [sp, #3352]
    5bf4:	f94457ea 	ldr	x10, [sp, #2216]
    5bf8:	f94453eb 	ldr	x11, [sp, #2208]
    5bfc:	3dc22fe0 	ldr	q0, [sp, #2224]
    5c00:	3d81c920 	str	q0, [x9, #1824]
    5c04:	f92e47eb 	str	x11, [sp, #23688]
    5c08:	f92e4bea 	str	x10, [sp, #23696]
    5c0c:	914017ea 	add	x10, sp, #0x5, lsl #12
    5c10:	912e254a 	add	x10, x10, #0xb89
    5c14:	3ccff140 	ldur	q0, [x10, #255]
    5c18:	3d81ad20 	str	q0, [x9, #1712]
    5c1c:	3dc1ad20 	ldr	q0, [x9, #1712]
    5c20:	3d81c520 	str	q0, [x9, #1808]
    5c24:	3dc1c520 	ldr	q0, [x9, #1808]
    5c28:	3d81cd20 	str	q0, [x9, #1840]
    5c2c:	3dc1cd20 	ldr	q0, [x9, #1840]
    5c30:	3d863100 	str	q0, [x8, #6336]
    5c34:	14000007 	b	5c50 <_<rand_chacha::chacha::ChaCha12Core as rand_core::block::BlockRngCore>::generate+0x3910>
    5c38:	17ffff95 	b	5a8c <_<rand_chacha::chacha::ChaCha12Core as rand_core::block::BlockRngCore>::generate+0x374c>
    5c3c:	b9489fe8 	ldr	w8, [sp, #2204]
    5c40:	f9444be9 	ldr	x9, [sp, #2192]
    5c44:	f91e03e9 	str	x9, [sp, #15360]
    5c48:	b93c0be8 	str	w8, [sp, #15368]
    5c4c:	17fffffb 	b	5c38 <_<rand_chacha::chacha::ChaCha12Core as rand_core::block::BlockRngCore>::generate+0x38f8>
    5c50:	f9468fe9 	ldr	x9, [sp, #3352]
    5c54:	f946b7e8 	ldr	x8, [sp, #3432]
    5c58:	3dc43d00 	ldr	q0, [x8, #4336]
    5c5c:	3d813920 	str	q0, [x9, #1248]
    5c60:	3dc44d00 	ldr	q0, [x8, #4400]
    5c64:	3d813520 	str	q0, [x9, #1232]
    5c68:	3dc13920 	ldr	q0, [x9, #1248]
    5c6c:	914017e0 	add	x0, sp, #0x5, lsl #12
    5c70:	912a0000 	add	x0, x0, #0xa80
    5c74:	3d813120 	str	q0, [x9, #1216]
    5c78:	3dc13520 	ldr	q0, [x9, #1232]
    5c7c:	3d813d20 	str	q0, [x9, #1264]
    5c80:	39163d3f 	strb	wzr, [x9, #1423]
    5c84:	52800028 	mov	w8, #0x1                   	// #1
    5c88:	39163d28 	strb	w8, [x9, #1423]
    5c8c:	914017e8 	add	x8, sp, #0x5, lsl #12
    5c90:	912b4108 	add	x8, x8, #0xad0
    5c94:	90000001 	adrp	x1, d408 <l_alloc_d6cd646a032ab5661bff8aa78f551e65>
    5c98:	91000021 	add	x1, x1, #0x0
    5c9c:	94000000 	bl	0 <_<T as core::convert::Into<U>>::into>
    5ca0:	14000008 	b	5cc0 <_<rand_chacha::chacha::ChaCha12Core as rand_core::block::BlockRngCore>::generate+0x3980>
    5ca4:	f9468fe8 	ldr	x8, [sp, #3352]
    5ca8:	f92dabe0 	str	x0, [sp, #23376]
    5cac:	aa0103e9 	mov	x9, x1
    5cb0:	b9059909 	str	w9, [x8, #1432]
    5cb4:	39563d08 	ldrb	w8, [x8, #1423]
    5cb8:	370006a8 	tbnz	w8, #0, 5d8c <_<rand_chacha::chacha::ChaCha12Core as rand_core::block::BlockRngCore>::generate+0x3a4c>
    5cbc:	1400002e 	b	5d74 <_<rand_chacha::chacha::ChaCha12Core as rand_core::block::BlockRngCore>::generate+0x3a34>
    5cc0:	f9468fe8 	ldr	x8, [sp, #3352]
    5cc4:	39163d1f 	strb	wzr, [x8, #1423]
    5cc8:	3dc13d00 	ldr	q0, [x8, #1264]
    5ccc:	914017e0 	add	x0, sp, #0x5, lsl #12
    5cd0:	912bc000 	add	x0, x0, #0xaf0
    5cd4:	3d814d00 	str	q0, [x8, #1328]
    5cd8:	914017e8 	add	x8, sp, #0x5, lsl #12
    5cdc:	912b8108 	add	x8, x8, #0xae0
    5ce0:	90000001 	adrp	x1, d420 <l_alloc_eb8937521ab56b1815db886b021bd11a>
    5ce4:	91000021 	add	x1, x1, #0x0
    5ce8:	94000000 	bl	0 <_<T as core::convert::Into<U>>::into>
    5cec:	14000001 	b	5cf0 <_<rand_chacha::chacha::ChaCha12Core as rand_core::block::BlockRngCore>::generate+0x39b0>
    5cf0:	f9468fe8 	ldr	x8, [sp, #3352]
    5cf4:	3dc14500 	ldr	q0, [x8, #1296]
    5cf8:	3d815100 	str	q0, [x8, #1344]
    5cfc:	f96d83eb 	ldr	x11, [sp, #23296]
    5d00:	d2800009 	mov	x9, #0x0                   	// #0
    5d04:	f92ddfeb 	str	x11, [sp, #23480]
    5d08:	f96d87ea 	ldr	x10, [sp, #23304]
    5d0c:	f92ddbea 	str	x10, [sp, #23472]
    5d10:	aa090161 	orr	x1, x11, x9
    5d14:	aa0a0122 	orr	x2, x9, x10
    5d18:	4e081c20 	mov	v0.d[0], x1
    5d1c:	4e181c40 	mov	v0.d[1], x2
    5d20:	3d816900 	str	q0, [x8, #1440]
    5d24:	3dc14900 	ldr	q0, [x8, #1312]
    5d28:	3d815500 	str	q0, [x8, #1360]
    5d2c:	f96d8beb 	ldr	x11, [sp, #23312]
    5d30:	f92de7eb 	str	x11, [sp, #23496]
    5d34:	f96d8fea 	ldr	x10, [sp, #23320]
    5d38:	f92de3ea 	str	x10, [sp, #23488]
    5d3c:	aa090163 	orr	x3, x11, x9
    5d40:	aa0a0124 	orr	x4, x9, x10
    5d44:	4e081c60 	mov	v0.d[0], x3
    5d48:	4e181c80 	mov	v0.d[1], x4
    5d4c:	3d816d00 	str	q0, [x8, #1456]
    5d50:	914017e0 	add	x0, sp, #0x5, lsl #12
    5d54:	912b3c00 	add	x0, x0, #0xacf
    5d58:	94000000 	bl	0 <_<ppv_lite86::generic::u32x4_generic as core::ops::bit::BitXor>::bitxor::{{closure}}>
    5d5c:	f9043be0 	str	x0, [sp, #2160]
    5d60:	f9043fe1 	str	x1, [sp, #2168]
    5d64:	4e081c00 	mov	v0.d[0], x0
    5d68:	4e181c20 	mov	v0.d[1], x1
    5d6c:	3d8223e0 	str	q0, [sp, #2176]
    5d70:	14000008 	b	5d90 <_<rand_chacha::chacha::ChaCha12Core as rand_core::block::BlockRngCore>::generate+0x3a50>
    5d74:	f9468fe8 	ldr	x8, [sp, #3352]
    5d78:	f96dabe9 	ldr	x9, [sp, #23376]
    5d7c:	f90433e9 	str	x9, [sp, #2144]
    5d80:	b9459908 	ldr	w8, [x8, #1432]
    5d84:	b9086fe8 	str	w8, [sp, #2156]
    5d88:	14000015 	b	5ddc <_<rand_chacha::chacha::ChaCha12Core as rand_core::block::BlockRngCore>::generate+0x3a9c>
    5d8c:	17fffffa 	b	5d74 <_<rand_chacha::chacha::ChaCha12Core as rand_core::block::BlockRngCore>::generate+0x3a34>
    5d90:	f946b7e8 	ldr	x8, [sp, #3432]
    5d94:	f9468fe9 	ldr	x9, [sp, #3352]
    5d98:	f9443fea 	ldr	x10, [sp, #2168]
    5d9c:	f9443beb 	ldr	x11, [sp, #2160]
    5da0:	3dc223e0 	ldr	q0, [sp, #2176]
    5da4:	3d817520 	str	q0, [x9, #1488]
    5da8:	f92d9feb 	str	x11, [sp, #23352]
    5dac:	f92da3ea 	str	x10, [sp, #23360]
    5db0:	914017ea 	add	x10, sp, #0x5, lsl #12
    5db4:	9128e54a 	add	x10, x10, #0xa39
    5db8:	3ccff140 	ldur	q0, [x10, #255]
    5dbc:	3d815920 	str	q0, [x9, #1376]
    5dc0:	3dc15920 	ldr	q0, [x9, #1376]
    5dc4:	3d817120 	str	q0, [x9, #1472]
    5dc8:	3dc17120 	ldr	q0, [x9, #1472]
    5dcc:	3d817920 	str	q0, [x9, #1504]
    5dd0:	3dc17920 	ldr	q0, [x9, #1504]
    5dd4:	3d863500 	str	q0, [x8, #6352]
    5dd8:	14000006 	b	5df0 <_<rand_chacha::chacha::ChaCha12Core as rand_core::block::BlockRngCore>::generate+0x3ab0>
    5ddc:	b9486fe8 	ldr	w8, [sp, #2156]
    5de0:	f94433e9 	ldr	x9, [sp, #2144]
    5de4:	f91e03e9 	str	x9, [sp, #15360]
    5de8:	b93c0be8 	str	w8, [sp, #15368]
    5dec:	17ffff93 	b	5c38 <_<rand_chacha::chacha::ChaCha12Core as rand_core::block::BlockRngCore>::generate+0x38f8>
    5df0:	f946b7e8 	ldr	x8, [sp, #3432]
    5df4:	3dc62900 	ldr	q0, [x8, #6304]
    5df8:	91400fe1 	add	x1, sp, #0x3, lsl #12
    5dfc:	912e0021 	add	x1, x1, #0xb80
    5e00:	3d861900 	str	q0, [x8, #6240]
    5e04:	3dc62d00 	ldr	q0, [x8, #6320]
    5e08:	3d861d00 	str	q0, [x8, #6256]
    5e0c:	3dc63100 	ldr	q0, [x8, #6336]
    5e10:	3d862100 	str	q0, [x8, #6272]
    5e14:	3dc63500 	ldr	q0, [x8, #6352]
    5e18:	3d862500 	str	q0, [x8, #6288]
    5e1c:	91400fe0 	add	x0, sp, #0x3, lsl #12
    5e20:	910e8000 	add	x0, x0, #0x3a0
    5e24:	52800808 	mov	w8, #0x40                  	// #64
    5e28:	aa0803e2 	mov	x2, x8
    5e2c:	94000000 	bl	0 <_memcpy>
    5e30:	f946b7e9 	ldr	x9, [sp, #3432]
    5e34:	f94683e8 	ldr	x8, [sp, #3328]
    5e38:	3dc42120 	ldr	q0, [x9, #4224]
    5e3c:	3d80b500 	str	q0, [x8, #720]
    5e40:	3dc0b500 	ldr	q0, [x8, #720]
    5e44:	91402be0 	add	x0, sp, #0xa, lsl #12
    5e48:	91268000 	add	x0, x0, #0x9a0
    5e4c:	3d80b100 	str	q0, [x8, #704]
    5e50:	91402be8 	add	x8, sp, #0xa, lsl #12
    5e54:	91274108 	add	x8, x8, #0x9d0
    5e58:	90000001 	adrp	x1, d3d8 <l_alloc_345ce69d67e2022250dbe2d202815e5b>
    5e5c:	91000021 	add	x1, x1, #0x0
    5e60:	94000000 	bl	0 <_<T as core::convert::Into<U>>::into>
    5e64:	14000008 	b	5e84 <_<rand_chacha::chacha::ChaCha12Core as rand_core::block::BlockRngCore>::generate+0x3b44>
    5e68:	f94683e8 	ldr	x8, [sp, #3328]
    5e6c:	f9019900 	str	x0, [x8, #816]
    5e70:	aa0103e9 	mov	x9, x1
    5e74:	b9033909 	str	w9, [x8, #824]
    5e78:	f9419908 	ldr	x8, [x8, #816]
    5e7c:	f90677e8 	str	x8, [sp, #3304]
    5e80:	140018c9 	b	c1a4 <_<rand_chacha::chacha::ChaCha12Core as rand_core::block::BlockRngCore>::generate+0x9e64>
    5e84:	f94683e8 	ldr	x8, [sp, #3328]
    5e88:	3dc0bd00 	ldr	q0, [x8, #752]
    5e8c:	3d80c100 	str	q0, [x8, #768]
    5e90:	b9430101 	ldr	w1, [x8, #768]
    5e94:	91402be0 	add	x0, sp, #0xa, lsl #12
    5e98:	91273c00 	add	x0, x0, #0x9cf
    5e9c:	94000000 	bl	0 <_<ppv_lite86::generic::u32x4_generic as ppv_lite86::types::RotateEachWord32>::rotate_each_word_right25::{{closure}}>
    5ea0:	b9085fe0 	str	w0, [sp, #2140]
    5ea4:	14000001 	b	5ea8 <_<rand_chacha::chacha::ChaCha12Core as rand_core::block::BlockRngCore>::generate+0x3b68>
    5ea8:	f94683e8 	ldr	x8, [sp, #3328]
    5eac:	b9430501 	ldr	w1, [x8, #772]
    5eb0:	91402be0 	add	x0, sp, #0xa, lsl #12
    5eb4:	91273c00 	add	x0, x0, #0x9cf
    5eb8:	94000000 	bl	0 <_<ppv_lite86::generic::u32x4_generic as ppv_lite86::types::RotateEachWord32>::rotate_each_word_right25::{{closure}}>
    5ebc:	b9085be0 	str	w0, [sp, #2136]
    5ec0:	14000001 	b	5ec4 <_<rand_chacha::chacha::ChaCha12Core as rand_core::block::BlockRngCore>::generate+0x3b84>
    5ec4:	f94683e8 	ldr	x8, [sp, #3328]
    5ec8:	b9430901 	ldr	w1, [x8, #776]
    5ecc:	91402be0 	add	x0, sp, #0xa, lsl #12
    5ed0:	91273c00 	add	x0, x0, #0x9cf
    5ed4:	94000000 	bl	0 <_<ppv_lite86::generic::u32x4_generic as ppv_lite86::types::RotateEachWord32>::rotate_each_word_right25::{{closure}}>
    5ed8:	b90857e0 	str	w0, [sp, #2132]
    5edc:	14000001 	b	5ee0 <_<rand_chacha::chacha::ChaCha12Core as rand_core::block::BlockRngCore>::generate+0x3ba0>
    5ee0:	f94683e8 	ldr	x8, [sp, #3328]
    5ee4:	b9430d01 	ldr	w1, [x8, #780]
    5ee8:	91402be0 	add	x0, sp, #0xa, lsl #12
    5eec:	91273c00 	add	x0, x0, #0x9cf
    5ef0:	94000000 	bl	0 <_<ppv_lite86::generic::u32x4_generic as ppv_lite86::types::RotateEachWord32>::rotate_each_word_right25::{{closure}}>
    5ef4:	b90853e0 	str	w0, [sp, #2128]
    5ef8:	14000001 	b	5efc <_<rand_chacha::chacha::ChaCha12Core as rand_core::block::BlockRngCore>::generate+0x3bbc>
    5efc:	f94683e8 	ldr	x8, [sp, #3328]
    5f00:	f946b7e9 	ldr	x9, [sp, #3432]
    5f04:	f94687ea 	ldr	x10, [sp, #3336]
    5f08:	b94853eb 	ldr	w11, [sp, #2128]
    5f0c:	b94857ec 	ldr	w12, [sp, #2132]
    5f10:	b9485bed 	ldr	w13, [sp, #2136]
    5f14:	b9485fee 	ldr	w14, [sp, #2140]
    5f18:	b903210e 	str	w14, [x8, #800]
    5f1c:	b903250d 	str	w13, [x8, #804]
    5f20:	b903290c 	str	w12, [x8, #808]
    5f24:	b9032d0b 	str	w11, [x8, #812]
    5f28:	3dc0c900 	ldr	q0, [x8, #800]
    5f2c:	3d80c500 	str	q0, [x8, #784]
    5f30:	3dc0c500 	ldr	q0, [x8, #784]
    5f34:	3d80d100 	str	q0, [x8, #832]
    5f38:	3dc0d100 	ldr	q0, [x8, #832]
    5f3c:	3d80d500 	str	q0, [x8, #848]
    5f40:	3dc0d500 	ldr	q0, [x8, #848]
    5f44:	3d8bad40 	str	q0, [x10, #11952]
    5f48:	3dc42520 	ldr	q0, [x9, #4240]
    5f4c:	3d808d00 	str	q0, [x8, #560]
    5f50:	3dc08d00 	ldr	q0, [x8, #560]
    5f54:	91402be0 	add	x0, sp, #0xa, lsl #12
    5f58:	91240000 	add	x0, x0, #0x900
    5f5c:	3d808900 	str	q0, [x8, #544]
    5f60:	91402be8 	add	x8, sp, #0xa, lsl #12
    5f64:	9124c108 	add	x8, x8, #0x930
    5f68:	90000001 	adrp	x1, d3d8 <l_alloc_345ce69d67e2022250dbe2d202815e5b>
    5f6c:	91000021 	add	x1, x1, #0x0
    5f70:	94000000 	bl	0 <_<T as core::convert::Into<U>>::into>
    5f74:	14000008 	b	5f94 <_<rand_chacha::chacha::ChaCha12Core as rand_core::block::BlockRngCore>::generate+0x3c54>
    5f78:	f94683e8 	ldr	x8, [sp, #3328]
    5f7c:	f9014900 	str	x0, [x8, #656]
    5f80:	aa0103e9 	mov	x9, x1
    5f84:	b9029909 	str	w9, [x8, #664]
    5f88:	f9414908 	ldr	x8, [x8, #656]
    5f8c:	f90677e8 	str	x8, [sp, #3304]
    5f90:	14001885 	b	c1a4 <_<rand_chacha::chacha::ChaCha12Core as rand_core::block::BlockRngCore>::generate+0x9e64>
    5f94:	f94683e8 	ldr	x8, [sp, #3328]
    5f98:	3dc09500 	ldr	q0, [x8, #592]
    5f9c:	3d809900 	str	q0, [x8, #608]
    5fa0:	b9426101 	ldr	w1, [x8, #608]
    5fa4:	91402be0 	add	x0, sp, #0xa, lsl #12
    5fa8:	9124bc00 	add	x0, x0, #0x92f
    5fac:	94000000 	bl	0 <_<ppv_lite86::generic::u32x4_generic as ppv_lite86::types::RotateEachWord32>::rotate_each_word_right25::{{closure}}>
    5fb0:	b9084fe0 	str	w0, [sp, #2124]
    5fb4:	14000001 	b	5fb8 <_<rand_chacha::chacha::ChaCha12Core as rand_core::block::BlockRngCore>::generate+0x3c78>
    5fb8:	f94683e8 	ldr	x8, [sp, #3328]
    5fbc:	b9426501 	ldr	w1, [x8, #612]
    5fc0:	91402be0 	add	x0, sp, #0xa, lsl #12
    5fc4:	9124bc00 	add	x0, x0, #0x92f
    5fc8:	94000000 	bl	0 <_<ppv_lite86::generic::u32x4_generic as ppv_lite86::types::RotateEachWord32>::rotate_each_word_right25::{{closure}}>
    5fcc:	b9084be0 	str	w0, [sp, #2120]
    5fd0:	14000001 	b	5fd4 <_<rand_chacha::chacha::ChaCha12Core as rand_core::block::BlockRngCore>::generate+0x3c94>
    5fd4:	f94683e8 	ldr	x8, [sp, #3328]
    5fd8:	b9426901 	ldr	w1, [x8, #616]
    5fdc:	91402be0 	add	x0, sp, #0xa, lsl #12
    5fe0:	9124bc00 	add	x0, x0, #0x92f
    5fe4:	94000000 	bl	0 <_<ppv_lite86::generic::u32x4_generic as ppv_lite86::types::RotateEachWord32>::rotate_each_word_right25::{{closure}}>
    5fe8:	b90847e0 	str	w0, [sp, #2116]
    5fec:	14000001 	b	5ff0 <_<rand_chacha::chacha::ChaCha12Core as rand_core::block::BlockRngCore>::generate+0x3cb0>
    5ff0:	f94683e8 	ldr	x8, [sp, #3328]
    5ff4:	b9426d01 	ldr	w1, [x8, #620]
    5ff8:	91402be0 	add	x0, sp, #0xa, lsl #12
    5ffc:	9124bc00 	add	x0, x0, #0x92f
    6000:	94000000 	bl	0 <_<ppv_lite86::generic::u32x4_generic as ppv_lite86::types::RotateEachWord32>::rotate_each_word_right25::{{closure}}>
    6004:	b90843e0 	str	w0, [sp, #2112]
    6008:	14000001 	b	600c <_<rand_chacha::chacha::ChaCha12Core as rand_core::block::BlockRngCore>::generate+0x3ccc>
    600c:	f94683e8 	ldr	x8, [sp, #3328]
    6010:	f946b7e9 	ldr	x9, [sp, #3432]
    6014:	f94687ea 	ldr	x10, [sp, #3336]
    6018:	b94843eb 	ldr	w11, [sp, #2112]
    601c:	b94847ec 	ldr	w12, [sp, #2116]
    6020:	b9484bed 	ldr	w13, [sp, #2120]
    6024:	b9484fee 	ldr	w14, [sp, #2124]
    6028:	b902810e 	str	w14, [x8, #640]
    602c:	b902850d 	str	w13, [x8, #644]
    6030:	b902890c 	str	w12, [x8, #648]
    6034:	b9028d0b 	str	w11, [x8, #652]
    6038:	3dc0a100 	ldr	q0, [x8, #640]
    603c:	3d809d00 	str	q0, [x8, #624]
    6040:	3dc09d00 	ldr	q0, [x8, #624]
    6044:	3d80a900 	str	q0, [x8, #672]
    6048:	3dc0a900 	ldr	q0, [x8, #672]
    604c:	3d80ad00 	str	q0, [x8, #688]
    6050:	3dc0ad00 	ldr	q0, [x8, #688]
    6054:	3d8bb140 	str	q0, [x10, #11968]
    6058:	3dc42920 	ldr	q0, [x9, #4256]
    605c:	3d806500 	str	q0, [x8, #400]
    6060:	3dc06500 	ldr	q0, [x8, #400]
    6064:	91402be0 	add	x0, sp, #0xa, lsl #12
    6068:	91218000 	add	x0, x0, #0x860
    606c:	3d806100 	str	q0, [x8, #384]
    6070:	91402be8 	add	x8, sp, #0xa, lsl #12
    6074:	91224108 	add	x8, x8, #0x890
    6078:	90000001 	adrp	x1, d3d8 <l_alloc_345ce69d67e2022250dbe2d202815e5b>
    607c:	91000021 	add	x1, x1, #0x0
    6080:	94000000 	bl	0 <_<T as core::convert::Into<U>>::into>
    6084:	14000008 	b	60a4 <_<rand_chacha::chacha::ChaCha12Core as rand_core::block::BlockRngCore>::generate+0x3d64>
    6088:	f94683e8 	ldr	x8, [sp, #3328]
    608c:	f900f900 	str	x0, [x8, #496]
    6090:	aa0103e9 	mov	x9, x1
    6094:	b901f909 	str	w9, [x8, #504]
    6098:	f940f908 	ldr	x8, [x8, #496]
    609c:	f90677e8 	str	x8, [sp, #3304]
    60a0:	14001841 	b	c1a4 <_<rand_chacha::chacha::ChaCha12Core as rand_core::block::BlockRngCore>::generate+0x9e64>
    60a4:	f94683e8 	ldr	x8, [sp, #3328]
    60a8:	3dc06d00 	ldr	q0, [x8, #432]
    60ac:	3d807100 	str	q0, [x8, #448]
    60b0:	b941c101 	ldr	w1, [x8, #448]
    60b4:	91402be0 	add	x0, sp, #0xa, lsl #12
    60b8:	91223c00 	add	x0, x0, #0x88f
    60bc:	94000000 	bl	0 <_<ppv_lite86::generic::u32x4_generic as ppv_lite86::types::RotateEachWord32>::rotate_each_word_right25::{{closure}}>
    60c0:	b9083fe0 	str	w0, [sp, #2108]
    60c4:	14000001 	b	60c8 <_<rand_chacha::chacha::ChaCha12Core as rand_core::block::BlockRngCore>::generate+0x3d88>
    60c8:	f94683e8 	ldr	x8, [sp, #3328]
    60cc:	b941c501 	ldr	w1, [x8, #452]
    60d0:	91402be0 	add	x0, sp, #0xa, lsl #12
    60d4:	91223c00 	add	x0, x0, #0x88f
    60d8:	94000000 	bl	0 <_<ppv_lite86::generic::u32x4_generic as ppv_lite86::types::RotateEachWord32>::rotate_each_word_right25::{{closure}}>
    60dc:	b9083be0 	str	w0, [sp, #2104]
    60e0:	14000001 	b	60e4 <_<rand_chacha::chacha::ChaCha12Core as rand_core::block::BlockRngCore>::generate+0x3da4>
    60e4:	f94683e8 	ldr	x8, [sp, #3328]
    60e8:	b941c901 	ldr	w1, [x8, #456]
    60ec:	91402be0 	add	x0, sp, #0xa, lsl #12
    60f0:	91223c00 	add	x0, x0, #0x88f
    60f4:	94000000 	bl	0 <_<ppv_lite86::generic::u32x4_generic as ppv_lite86::types::RotateEachWord32>::rotate_each_word_right25::{{closure}}>
    60f8:	b90837e0 	str	w0, [sp, #2100]
    60fc:	14000001 	b	6100 <_<rand_chacha::chacha::ChaCha12Core as rand_core::block::BlockRngCore>::generate+0x3dc0>
    6100:	f94683e8 	ldr	x8, [sp, #3328]
    6104:	b941cd01 	ldr	w1, [x8, #460]
    6108:	91402be0 	add	x0, sp, #0xa, lsl #12
    610c:	91223c00 	add	x0, x0, #0x88f
    6110:	94000000 	bl	0 <_<ppv_lite86::generic::u32x4_generic as ppv_lite86::types::RotateEachWord32>::rotate_each_word_right25::{{closure}}>
    6114:	b90833e0 	str	w0, [sp, #2096]
    6118:	14000001 	b	611c <_<rand_chacha::chacha::ChaCha12Core as rand_core::block::BlockRngCore>::generate+0x3ddc>
    611c:	f94683e8 	ldr	x8, [sp, #3328]
    6120:	f946b7e9 	ldr	x9, [sp, #3432]
    6124:	f94687ea 	ldr	x10, [sp, #3336]
    6128:	b94833eb 	ldr	w11, [sp, #2096]
    612c:	b94837ec 	ldr	w12, [sp, #2100]
    6130:	b9483bed 	ldr	w13, [sp, #2104]
    6134:	b9483fee 	ldr	w14, [sp, #2108]
    6138:	b901e10e 	str	w14, [x8, #480]
    613c:	b901e50d 	str	w13, [x8, #484]
    6140:	b901e90c 	str	w12, [x8, #488]
    6144:	b901ed0b 	str	w11, [x8, #492]
    6148:	3dc07900 	ldr	q0, [x8, #480]
    614c:	3d807500 	str	q0, [x8, #464]
    6150:	3dc07500 	ldr	q0, [x8, #464]
    6154:	3d808100 	str	q0, [x8, #512]
    6158:	3dc08100 	ldr	q0, [x8, #512]
    615c:	3d808500 	str	q0, [x8, #528]
    6160:	3dc08500 	ldr	q0, [x8, #528]
    6164:	3d8bb540 	str	q0, [x10, #11984]
    6168:	3dc42d20 	ldr	q0, [x9, #4272]
    616c:	3d803d00 	str	q0, [x8, #240]
    6170:	3dc03d00 	ldr	q0, [x8, #240]
    6174:	91402be0 	add	x0, sp, #0xa, lsl #12
    6178:	911f0000 	add	x0, x0, #0x7c0
    617c:	3d803900 	str	q0, [x8, #224]
    6180:	91402be8 	add	x8, sp, #0xa, lsl #12
    6184:	911fc108 	add	x8, x8, #0x7f0
    6188:	90000001 	adrp	x1, d3d8 <l_alloc_345ce69d67e2022250dbe2d202815e5b>
    618c:	91000021 	add	x1, x1, #0x0
    6190:	94000000 	bl	0 <_<T as core::convert::Into<U>>::into>
    6194:	14000008 	b	61b4 <_<rand_chacha::chacha::ChaCha12Core as rand_core::block::BlockRngCore>::generate+0x3e74>
    6198:	f94683e8 	ldr	x8, [sp, #3328]
    619c:	f900a900 	str	x0, [x8, #336]
    61a0:	aa0103e9 	mov	x9, x1
    61a4:	b9015909 	str	w9, [x8, #344]
    61a8:	f940a908 	ldr	x8, [x8, #336]
    61ac:	f90677e8 	str	x8, [sp, #3304]
    61b0:	140017fd 	b	c1a4 <_<rand_chacha::chacha::ChaCha12Core as rand_core::block::BlockRngCore>::generate+0x9e64>
    61b4:	f94683e8 	ldr	x8, [sp, #3328]
    61b8:	3dc04500 	ldr	q0, [x8, #272]
    61bc:	3d804900 	str	q0, [x8, #288]
    61c0:	b9412101 	ldr	w1, [x8, #288]
    61c4:	91402be0 	add	x0, sp, #0xa, lsl #12
    61c8:	911fbc00 	add	x0, x0, #0x7ef
    61cc:	94000000 	bl	0 <_<ppv_lite86::generic::u32x4_generic as ppv_lite86::types::RotateEachWord32>::rotate_each_word_right25::{{closure}}>
    61d0:	b9082fe0 	str	w0, [sp, #2092]
    61d4:	14000001 	b	61d8 <_<rand_chacha::chacha::ChaCha12Core as rand_core::block::BlockRngCore>::generate+0x3e98>
    61d8:	f94683e8 	ldr	x8, [sp, #3328]
    61dc:	b9412501 	ldr	w1, [x8, #292]
    61e0:	91402be0 	add	x0, sp, #0xa, lsl #12
    61e4:	911fbc00 	add	x0, x0, #0x7ef
    61e8:	94000000 	bl	0 <_<ppv_lite86::generic::u32x4_generic as ppv_lite86::types::RotateEachWord32>::rotate_each_word_right25::{{closure}}>
    61ec:	b9082be0 	str	w0, [sp, #2088]
    61f0:	14000001 	b	61f4 <_<rand_chacha::chacha::ChaCha12Core as rand_core::block::BlockRngCore>::generate+0x3eb4>
    61f4:	f94683e8 	ldr	x8, [sp, #3328]
    61f8:	b9412901 	ldr	w1, [x8, #296]
    61fc:	91402be0 	add	x0, sp, #0xa, lsl #12
    6200:	911fbc00 	add	x0, x0, #0x7ef
    6204:	94000000 	bl	0 <_<ppv_lite86::generic::u32x4_generic as ppv_lite86::types::RotateEachWord32>::rotate_each_word_right25::{{closure}}>
    6208:	b90827e0 	str	w0, [sp, #2084]
    620c:	14000001 	b	6210 <_<rand_chacha::chacha::ChaCha12Core as rand_core::block::BlockRngCore>::generate+0x3ed0>
    6210:	f94683e8 	ldr	x8, [sp, #3328]
    6214:	b9412d01 	ldr	w1, [x8, #300]
    6218:	91402be0 	add	x0, sp, #0xa, lsl #12
    621c:	911fbc00 	add	x0, x0, #0x7ef
    6220:	94000000 	bl	0 <_<ppv_lite86::generic::u32x4_generic as ppv_lite86::types::RotateEachWord32>::rotate_each_word_right25::{{closure}}>
    6224:	b90823e0 	str	w0, [sp, #2080]
    6228:	14000001 	b	622c <_<rand_chacha::chacha::ChaCha12Core as rand_core::block::BlockRngCore>::generate+0x3eec>
    622c:	f94687e8 	ldr	x8, [sp, #3336]
    6230:	f94683e9 	ldr	x9, [sp, #3328]
    6234:	b94823ea 	ldr	w10, [sp, #2080]
    6238:	b94827eb 	ldr	w11, [sp, #2084]
    623c:	b9482bec 	ldr	w12, [sp, #2088]
    6240:	b9482fed 	ldr	w13, [sp, #2092]
    6244:	b901412d 	str	w13, [x9, #320]
    6248:	b901452c 	str	w12, [x9, #324]
    624c:	b901492b 	str	w11, [x9, #328]
    6250:	b9014d2a 	str	w10, [x9, #332]
    6254:	3dc05120 	ldr	q0, [x9, #320]
    6258:	3d804d20 	str	q0, [x9, #304]
    625c:	3dc04d20 	ldr	q0, [x9, #304]
    6260:	3d805920 	str	q0, [x9, #352]
    6264:	3dc05920 	ldr	q0, [x9, #352]
    6268:	3d805d20 	str	q0, [x9, #368]
    626c:	3dc05d20 	ldr	q0, [x9, #368]
    6270:	3d8bb900 	str	q0, [x8, #12000]
    6274:	3dcbad00 	ldr	q0, [x8, #11952]
    6278:	914027e1 	add	x1, sp, #0x9, lsl #12
    627c:	91150021 	add	x1, x1, #0x540
    6280:	3d8b9d00 	str	q0, [x8, #11888]
    6284:	3dcbb100 	ldr	q0, [x8, #11968]
    6288:	3d8ba100 	str	q0, [x8, #11904]
    628c:	3dcbb500 	ldr	q0, [x8, #11984]
    6290:	3d8ba500 	str	q0, [x8, #11920]
    6294:	3dcbb900 	ldr	q0, [x8, #12000]
    6298:	3d8ba900 	str	q0, [x8, #11936]
    629c:	91400fe0 	add	x0, sp, #0x3, lsl #12
    62a0:	910d8000 	add	x0, x0, #0x360
    62a4:	f903f7e0 	str	x0, [sp, #2024]
    62a8:	52800808 	mov	w8, #0x40                  	// #64
    62ac:	aa0803e2 	mov	x2, x8
    62b0:	f9040fe2 	str	x2, [sp, #2072]
    62b4:	94000000 	bl	0 <_memcpy>
    62b8:	f943f7e1 	ldr	x1, [sp, #2024]
    62bc:	f9440fe2 	ldr	x2, [sp, #2072]
    62c0:	914007e8 	add	x8, sp, #0x1, lsl #12
    62c4:	91084108 	add	x8, x8, #0x210
    62c8:	f903fbe8 	str	x8, [sp, #2032]
    62cc:	91010100 	add	x0, x8, #0x40
    62d0:	94000000 	bl	0 <_memcpy>
    62d4:	f943fbe1 	ldr	x1, [sp, #2032]
    62d8:	914007e0 	add	x0, sp, #0x1, lsl #12
    62dc:	91044000 	add	x0, x0, #0x110
    62e0:	f903ffe0 	str	x0, [sp, #2040]
    62e4:	52802008 	mov	w8, #0x100                 	// #256
    62e8:	aa0803e2 	mov	x2, x8
    62ec:	f90407e2 	str	x2, [sp, #2056]
    62f0:	94000000 	bl	0 <_memcpy>
    62f4:	f943ffe1 	ldr	x1, [sp, #2040]
    62f8:	f94407e2 	ldr	x2, [sp, #2056]
    62fc:	9138c3e0 	add	x0, sp, #0xe30
    6300:	f90403e0 	str	x0, [sp, #2048]
    6304:	94000000 	bl	0 <_memcpy>
    6308:	f94403e1 	ldr	x1, [sp, #2048]
    630c:	f94407e2 	ldr	x2, [sp, #2056]
    6310:	914007e0 	add	x0, sp, #0x1, lsl #12
    6314:	91184000 	add	x0, x0, #0x610
    6318:	f9040be0 	str	x0, [sp, #2064]
    631c:	94000000 	bl	0 <_memcpy>
    6320:	f9440be8 	ldr	x8, [sp, #2064]
    6324:	f9440fe2 	ldr	x2, [sp, #2072]
    6328:	f9469fe9 	ldr	x9, [sp, #3384]
    632c:	390b0d3f 	strb	wzr, [x9, #707]
    6330:	390b093f 	strb	wzr, [x9, #706]
    6334:	390b053f 	strb	wzr, [x9, #705]
    6338:	5280002a 	mov	w10, #0x1                   	// #1
    633c:	390b052a 	strb	w10, [x9, #705]
    6340:	390b092a 	strb	w10, [x9, #706]
    6344:	390b0d2a 	strb	w10, [x9, #707]
    6348:	390b0d3f 	strb	wzr, [x9, #707]
    634c:	91010101 	add	x1, x8, #0x40
    6350:	91400be0 	add	x0, sp, #0x2, lsl #12
    6354:	9100d000 	add	x0, x0, #0x34
    6358:	94000000 	bl	0 <_memcpy>
    635c:	f9469fe9 	ldr	x9, [sp, #3384]
    6360:	f94687e8 	ldr	x8, [sp, #3336]
    6364:	3dc06120 	ldr	q0, [x9, #384]
    6368:	3d8a7100 	str	q0, [x8, #10688]
    636c:	3dca7100 	ldr	q0, [x8, #10688]
    6370:	3d8a6d00 	str	q0, [x8, #10672]
    6374:	3dca6d00 	ldr	q0, [x8, #10672]
    6378:	3d8a7500 	str	q0, [x8, #10704]
    637c:	b969d50c 	ldr	w12, [x8, #10708]
    6380:	b969d90b 	ldr	w11, [x8, #10712]
    6384:	b969dd0a 	ldr	w10, [x8, #10716]
    6388:	b969d109 	ldr	w9, [x8, #10704]
    638c:	b929e10c 	str	w12, [x8, #10720]
    6390:	b929e50b 	str	w11, [x8, #10724]
    6394:	b929e90a 	str	w10, [x8, #10728]
    6398:	b929ed09 	str	w9, [x8, #10732]
    639c:	3dca7900 	ldr	q0, [x8, #10720]
    63a0:	3d84cd00 	str	q0, [x8, #4912]
    63a4:	14000001 	b	63a8 <_<rand_chacha::chacha::ChaCha12Core as rand_core::block::BlockRngCore>::generate+0x4068>
    63a8:	f94687e8 	ldr	x8, [sp, #3336]
    63ac:	f9469fe9 	ldr	x9, [sp, #3384]
    63b0:	3dc06520 	ldr	q0, [x9, #400]
    63b4:	3d8a6100 	str	q0, [x8, #10624]
    63b8:	3dca6100 	ldr	q0, [x8, #10624]
    63bc:	3d8a5d00 	str	q0, [x8, #10608]
    63c0:	3dca5d00 	ldr	q0, [x8, #10608]
    63c4:	3d8a6500 	str	q0, [x8, #10640]
    63c8:	b969950c 	ldr	w12, [x8, #10644]
    63cc:	b969990b 	ldr	w11, [x8, #10648]
    63d0:	b9699d0a 	ldr	w10, [x8, #10652]
    63d4:	b9699109 	ldr	w9, [x8, #10640]
    63d8:	b929a10c 	str	w12, [x8, #10656]
    63dc:	b929a50b 	str	w11, [x8, #10660]
    63e0:	b929a90a 	str	w10, [x8, #10664]
    63e4:	b929ad09 	str	w9, [x8, #10668]
    63e8:	3dca6900 	ldr	q0, [x8, #10656]
    63ec:	3d84d100 	str	q0, [x8, #4928]
    63f0:	14000001 	b	63f4 <_<rand_chacha::chacha::ChaCha12Core as rand_core::block::BlockRngCore>::generate+0x40b4>
    63f4:	f94687e8 	ldr	x8, [sp, #3336]
    63f8:	f9469fe9 	ldr	x9, [sp, #3384]
    63fc:	3dc06920 	ldr	q0, [x9, #416]
    6400:	3d8a5100 	str	q0, [x8, #10560]
    6404:	3dca5100 	ldr	q0, [x8, #10560]
    6408:	3d8a4d00 	str	q0, [x8, #10544]
    640c:	3dca4d00 	ldr	q0, [x8, #10544]
    6410:	3d8a5500 	str	q0, [x8, #10576]
    6414:	b969550c 	ldr	w12, [x8, #10580]
    6418:	b969590b 	ldr	w11, [x8, #10584]
    641c:	b9695d0a 	ldr	w10, [x8, #10588]
    6420:	b9695109 	ldr	w9, [x8, #10576]
    6424:	b929610c 	str	w12, [x8, #10592]
    6428:	b929650b 	str	w11, [x8, #10596]
    642c:	b929690a 	str	w10, [x8, #10600]
    6430:	b9296d09 	str	w9, [x8, #10604]
    6434:	3dca5900 	ldr	q0, [x8, #10592]
    6438:	3d84d500 	str	q0, [x8, #4944]
    643c:	14000001 	b	6440 <_<rand_chacha::chacha::ChaCha12Core as rand_core::block::BlockRngCore>::generate+0x4100>
    6440:	f94687e8 	ldr	x8, [sp, #3336]
    6444:	f9469fe9 	ldr	x9, [sp, #3384]
    6448:	3dc06d20 	ldr	q0, [x9, #432]
    644c:	3d8a4100 	str	q0, [x8, #10496]
    6450:	3dca4100 	ldr	q0, [x8, #10496]
    6454:	3d8a3d00 	str	q0, [x8, #10480]
    6458:	3dca3d00 	ldr	q0, [x8, #10480]
    645c:	3d8a4500 	str	q0, [x8, #10512]
    6460:	b969150c 	ldr	w12, [x8, #10516]
    6464:	b969190b 	ldr	w11, [x8, #10520]
    6468:	b9691d0a 	ldr	w10, [x8, #10524]
    646c:	b9691109 	ldr	w9, [x8, #10512]
    6470:	b929210c 	str	w12, [x8, #10528]
    6474:	b929250b 	str	w11, [x8, #10532]
    6478:	b929290a 	str	w10, [x8, #10536]
    647c:	b9292d09 	str	w9, [x8, #10540]
    6480:	3dca4900 	ldr	q0, [x8, #10528]
    6484:	3d84d900 	str	q0, [x8, #4960]
    6488:	14000001 	b	648c <_<rand_chacha::chacha::ChaCha12Core as rand_core::block::BlockRngCore>::generate+0x414c>
    648c:	f94687e8 	ldr	x8, [sp, #3336]
    6490:	3dc4cd00 	ldr	q0, [x8, #4912]
    6494:	91401fe1 	add	x1, sp, #0x7, lsl #12
    6498:	91270021 	add	x1, x1, #0x9c0
    649c:	3d84bd00 	str	q0, [x8, #4848]
    64a0:	3dc4d100 	ldr	q0, [x8, #4928]
    64a4:	3d84c100 	str	q0, [x8, #4864]
    64a8:	3dc4d500 	ldr	q0, [x8, #4944]
    64ac:	3d84c500 	str	q0, [x8, #4880]
    64b0:	3dc4d900 	ldr	q0, [x8, #4960]
    64b4:	3d84c900 	str	q0, [x8, #4896]
    64b8:	914007e0 	add	x0, sp, #0x1, lsl #12
    64bc:	913fd000 	add	x0, x0, #0xff4
    64c0:	52800808 	mov	w8, #0x40                  	// #64
    64c4:	aa0803e2 	mov	x2, x8
    64c8:	94000000 	bl	0 <_memcpy>
    64cc:	14000018 	b	652c <_<rand_chacha::chacha::ChaCha12Core as rand_core::block::BlockRngCore>::generate+0x41ec>
    64d0:	b947d7e8 	ldr	w8, [sp, #2004]
    64d4:	f943e7e9 	ldr	x9, [sp, #1992]
    64d8:	f903efe9 	str	x9, [sp, #2008]
    64dc:	b907e7e8 	str	w8, [sp, #2020]
    64e0:	14000001 	b	64e4 <_<rand_chacha::chacha::ChaCha12Core as rand_core::block::BlockRngCore>::generate+0x41a4>
    64e4:	f943efe9 	ldr	x9, [sp, #2008]
    64e8:	b947e7e8 	ldr	w8, [sp, #2020]
    64ec:	f903dfe9 	str	x9, [sp, #1976]
    64f0:	b907c7e8 	str	w8, [sp, #1988]
    64f4:	14000001 	b	64f8 <_<rand_chacha::chacha::ChaCha12Core as rand_core::block::BlockRngCore>::generate+0x41b8>
    64f8:	f943dfe9 	ldr	x9, [sp, #1976]
    64fc:	b947c7e8 	ldr	w8, [sp, #1988]
    6500:	f903d7e9 	str	x9, [sp, #1960]
    6504:	b907b7e8 	str	w8, [sp, #1972]
    6508:	14000001 	b	650c <_<rand_chacha::chacha::ChaCha12Core as rand_core::block::BlockRngCore>::generate+0x41cc>
    650c:	f9469fe8 	ldr	x8, [sp, #3384]
    6510:	f943d7ea 	ldr	x10, [sp, #1960]
    6514:	b947b7e9 	ldr	w9, [sp, #1972]
    6518:	f910bfea 	str	x10, [sp, #8568]
    651c:	b92183e9 	str	w9, [sp, #8576]
    6520:	394b0d08 	ldrb	w8, [x8, #707]
    6524:	37003848 	tbnz	w8, #0, 6c2c <_<rand_chacha::chacha::ChaCha12Core as rand_core::block::BlockRngCore>::generate+0x48ec>
    6528:	140001bd 	b	6c1c <_<rand_chacha::chacha::ChaCha12Core as rand_core::block::BlockRngCore>::generate+0x48dc>
    652c:	f9469fe9 	ldr	x9, [sp, #3384]
    6530:	52800028 	mov	w8, #0x1                   	// #1
    6534:	390b0d28 	strb	w8, [x9, #707]
    6538:	914007e8 	add	x8, sp, #0x1, lsl #12
    653c:	91184108 	add	x8, x8, #0x610
    6540:	f903cfe8 	str	x8, [sp, #1944]
    6544:	91010100 	add	x0, x8, #0x40
    6548:	914007e1 	add	x1, sp, #0x1, lsl #12
    654c:	913fd021 	add	x1, x1, #0xff4
    6550:	52800808 	mov	w8, #0x40                  	// #64
    6554:	aa0803e2 	mov	x2, x8
    6558:	f903d3e2 	str	x2, [sp, #1952]
    655c:	94000000 	bl	0 <_memcpy>
    6560:	f943cfe8 	ldr	x8, [sp, #1944]
    6564:	f943d3e2 	ldr	x2, [sp, #1952]
    6568:	f9469fe9 	ldr	x9, [sp, #3384]
    656c:	390b093f 	strb	wzr, [x9, #706]
    6570:	91020101 	add	x1, x8, #0x80
    6574:	91400be0 	add	x0, sp, #0x2, lsl #12
    6578:	9102d000 	add	x0, x0, #0xb4
    657c:	94000000 	bl	0 <_memcpy>
    6580:	f9469fe9 	ldr	x9, [sp, #3384]
    6584:	f94687e8 	ldr	x8, [sp, #3336]
    6588:	3dc08120 	ldr	q0, [x9, #512]
    658c:	3d891100 	str	q0, [x8, #9280]
    6590:	3dc91100 	ldr	q0, [x8, #9280]
    6594:	3d891500 	str	q0, [x8, #9296]
    6598:	3dc91500 	ldr	q0, [x8, #9296]
    659c:	3d891d00 	str	q0, [x8, #9328]
    65a0:	3dc91d00 	ldr	q0, [x8, #9328]
    65a4:	914023e0 	add	x0, sp, #0x8, lsl #12
    65a8:	912cc000 	add	x0, x0, #0xb30
    65ac:	3d891900 	str	q0, [x8, #9312]
    65b0:	914023e8 	add	x8, sp, #0x8, lsl #12
    65b4:	912d8108 	add	x8, x8, #0xb60
    65b8:	90000001 	adrp	x1, d3f0 <l_alloc_b67bf84b64957410b9640b67558ad03c>
    65bc:	91000021 	add	x1, x1, #0x0
    65c0:	94000000 	bl	0 <_<T as core::convert::Into<U>>::into>
    65c4:	1400000c 	b	65f4 <_<rand_chacha::chacha::ChaCha12Core as rand_core::block::BlockRngCore>::generate+0x42b4>
    65c8:	f94687e8 	ldr	x8, [sp, #3336]
    65cc:	912ea3e9 	add	x9, sp, #0xba8
    65d0:	f93ffd20 	str	x0, [x9, #32760]
    65d4:	aa0103e9 	mov	x9, x1
    65d8:	b924d909 	str	w9, [x8, #9432]
    65dc:	912ea3e9 	add	x9, sp, #0xba8
    65e0:	f97ffd29 	ldr	x9, [x9, #32760]
    65e4:	f903e7e9 	str	x9, [sp, #1992]
    65e8:	b964d908 	ldr	w8, [x8, #9432]
    65ec:	b907d7e8 	str	w8, [sp, #2004]
    65f0:	17ffffb8 	b	64d0 <_<rand_chacha::chacha::ChaCha12Core as rand_core::block::BlockRngCore>::generate+0x4190>
    65f4:	f94687e8 	ldr	x8, [sp, #3336]
    65f8:	3dc92500 	ldr	q0, [x8, #9360]
    65fc:	3d892900 	str	q0, [x8, #9376]
    6600:	912de3e9 	add	x9, sp, #0xb78
    6604:	f97ffd2b 	ldr	x11, [x9, #32760]
    6608:	d2800009 	mov	x9, #0x0                   	// #0
    660c:	913003ea 	add	x10, sp, #0xc00
    6610:	f93ffd4b 	str	x11, [x10, #32760]
    6614:	912e03ea 	add	x10, sp, #0xb80
    6618:	f97ffd4a 	ldr	x10, [x10, #32760]
    661c:	912fe3ec 	add	x12, sp, #0xbf8
    6620:	f93ffd8a 	str	x10, [x12, #32760]
    6624:	aa090161 	orr	x1, x11, x9
    6628:	aa0a0122 	orr	x2, x9, x10
    662c:	4e081c20 	mov	v0.d[0], x1
    6630:	4e181c40 	mov	v0.d[1], x2
    6634:	3d893900 	str	q0, [x8, #9440]
    6638:	914023e0 	add	x0, sp, #0x8, lsl #12
    663c:	912d7c00 	add	x0, x0, #0xb5f
    6640:	94000000 	bl	0 <_<ppv_lite86::generic::u32x4_generic as ppv_lite86::types::Swap64>::swap64::{{closure}}>
    6644:	f903bbe0 	str	x0, [sp, #1904]
    6648:	f903bfe1 	str	x1, [sp, #1912]
    664c:	4e081c00 	mov	v0.d[0], x0
    6650:	4e181c20 	mov	v0.d[1], x1
    6654:	3d81e3e0 	str	q0, [sp, #1920]
    6658:	14000001 	b	665c <_<rand_chacha::chacha::ChaCha12Core as rand_core::block::BlockRngCore>::generate+0x431c>
    665c:	f94687e8 	ldr	x8, [sp, #3336]
    6660:	f943bfe9 	ldr	x9, [sp, #1912]
    6664:	f943bbea 	ldr	x10, [sp, #1904]
    6668:	3dc1e3e0 	ldr	q0, [sp, #1920]
    666c:	3d894100 	str	q0, [x8, #9472]
    6670:	912e63eb 	add	x11, sp, #0xb98
    6674:	f93ffd6a 	str	x10, [x11, #32760]
    6678:	912e83ea 	add	x10, sp, #0xba0
    667c:	f93ffd49 	str	x9, [x10, #32760]
    6680:	3dc93100 	ldr	q0, [x8, #9408]
    6684:	3d892d00 	str	q0, [x8, #9392]
    6688:	3dc92d00 	ldr	q0, [x8, #9392]
    668c:	3d893d00 	str	q0, [x8, #9456]
    6690:	3dc93d00 	ldr	q0, [x8, #9456]
    6694:	3d894500 	str	q0, [x8, #9488]
    6698:	3dc94500 	ldr	q0, [x8, #9488]
    669c:	3d848d00 	str	q0, [x8, #4656]
    66a0:	14000001 	b	66a4 <_<rand_chacha::chacha::ChaCha12Core as rand_core::block::BlockRngCore>::generate+0x4364>
    66a4:	f94687e8 	ldr	x8, [sp, #3336]
    66a8:	f9469fe9 	ldr	x9, [sp, #3384]
    66ac:	3dc08520 	ldr	q0, [x9, #528]
    66b0:	3d88d500 	str	q0, [x8, #9040]
    66b4:	3dc8d500 	ldr	q0, [x8, #9040]
    66b8:	3d88d900 	str	q0, [x8, #9056]
    66bc:	3dc8d900 	ldr	q0, [x8, #9056]
    66c0:	3d88e100 	str	q0, [x8, #9088]
    66c4:	3dc8e100 	ldr	q0, [x8, #9088]
    66c8:	914023e0 	add	x0, sp, #0x8, lsl #12
    66cc:	91290000 	add	x0, x0, #0xa40
    66d0:	3d88dd00 	str	q0, [x8, #9072]
    66d4:	914023e8 	add	x8, sp, #0x8, lsl #12
    66d8:	9129c108 	add	x8, x8, #0xa70
    66dc:	90000001 	adrp	x1, d3f0 <l_alloc_b67bf84b64957410b9640b67558ad03c>
    66e0:	91000021 	add	x1, x1, #0x0
    66e4:	94000000 	bl	0 <_<T as core::convert::Into<U>>::into>
    66e8:	1400000c 	b	6718 <_<rand_chacha::chacha::ChaCha12Core as rand_core::block::BlockRngCore>::generate+0x43d8>
    66ec:	f94687e8 	ldr	x8, [sp, #3336]
    66f0:	912ae3e9 	add	x9, sp, #0xab8
    66f4:	f93ffd20 	str	x0, [x9, #32760]
    66f8:	aa0103e9 	mov	x9, x1
    66fc:	b923e909 	str	w9, [x8, #9192]
    6700:	912ae3e9 	add	x9, sp, #0xab8
    6704:	f97ffd29 	ldr	x9, [x9, #32760]
    6708:	b963e908 	ldr	w8, [x8, #9192]
    670c:	f903efe9 	str	x9, [sp, #2008]
    6710:	b907e7e8 	str	w8, [sp, #2020]
    6714:	17ffff74 	b	64e4 <_<rand_chacha::chacha::ChaCha12Core as rand_core::block::BlockRngCore>::generate+0x41a4>
    6718:	f94687e8 	ldr	x8, [sp, #3336]
    671c:	3dc8e900 	ldr	q0, [x8, #9120]
    6720:	3d88ed00 	str	q0, [x8, #9136]
    6724:	912a23e9 	add	x9, sp, #0xa88
    6728:	f97ffd2b 	ldr	x11, [x9, #32760]
    672c:	d2800009 	mov	x9, #0x0                   	// #0
    6730:	912c43ea 	add	x10, sp, #0xb10
    6734:	f93ffd4b 	str	x11, [x10, #32760]
    6738:	912a43ea 	add	x10, sp, #0xa90
    673c:	f97ffd4a 	ldr	x10, [x10, #32760]
    6740:	912c23ec 	add	x12, sp, #0xb08
    6744:	f93ffd8a 	str	x10, [x12, #32760]
    6748:	aa090161 	orr	x1, x11, x9
    674c:	aa0a0122 	orr	x2, x9, x10
    6750:	4e081c20 	mov	v0.d[0], x1
    6754:	4e181c40 	mov	v0.d[1], x2
    6758:	3d88fd00 	str	q0, [x8, #9200]
    675c:	914023e0 	add	x0, sp, #0x8, lsl #12
    6760:	9129bc00 	add	x0, x0, #0xa6f
    6764:	94000000 	bl	0 <_<ppv_lite86::generic::u32x4_generic as ppv_lite86::types::Swap64>::swap64::{{closure}}>
    6768:	f903abe0 	str	x0, [sp, #1872]
    676c:	f903afe1 	str	x1, [sp, #1880]
    6770:	4e081c00 	mov	v0.d[0], x0
    6774:	4e181c20 	mov	v0.d[1], x1
    6778:	3d81dbe0 	str	q0, [sp, #1888]
    677c:	14000001 	b	6780 <_<rand_chacha::chacha::ChaCha12Core as rand_core::block::BlockRngCore>::generate+0x4440>
    6780:	f94687e8 	ldr	x8, [sp, #3336]
    6784:	f943afe9 	ldr	x9, [sp, #1880]
    6788:	f943abea 	ldr	x10, [sp, #1872]
    678c:	3dc1dbe0 	ldr	q0, [sp, #1888]
    6790:	3d890500 	str	q0, [x8, #9232]
    6794:	912aa3eb 	add	x11, sp, #0xaa8
    6798:	f93ffd6a 	str	x10, [x11, #32760]
    679c:	912ac3ea 	add	x10, sp, #0xab0
    67a0:	f93ffd49 	str	x9, [x10, #32760]
    67a4:	3dc8f500 	ldr	q0, [x8, #9168]
    67a8:	3d88f100 	str	q0, [x8, #9152]
    67ac:	3dc8f100 	ldr	q0, [x8, #9152]
    67b0:	3d890100 	str	q0, [x8, #9216]
    67b4:	3dc90100 	ldr	q0, [x8, #9216]
    67b8:	3d890900 	str	q0, [x8, #9248]
    67bc:	3dc90900 	ldr	q0, [x8, #9248]
    67c0:	3d849100 	str	q0, [x8, #4672]
    67c4:	14000001 	b	67c8 <_<rand_chacha::chacha::ChaCha12Core as rand_core::block::BlockRngCore>::generate+0x4488>
    67c8:	f94687e8 	ldr	x8, [sp, #3336]
    67cc:	f9469fe9 	ldr	x9, [sp, #3384]
    67d0:	3dc08920 	ldr	q0, [x9, #544]
    67d4:	3d889900 	str	q0, [x8, #8800]
    67d8:	3dc89900 	ldr	q0, [x8, #8800]
    67dc:	3d889d00 	str	q0, [x8, #8816]
    67e0:	3dc89d00 	ldr	q0, [x8, #8816]
    67e4:	3d88a500 	str	q0, [x8, #8848]
    67e8:	3dc8a500 	ldr	q0, [x8, #8848]
    67ec:	914023e0 	add	x0, sp, #0x8, lsl #12
    67f0:	91254000 	add	x0, x0, #0x950
    67f4:	3d88a100 	str	q0, [x8, #8832]
    67f8:	914023e8 	add	x8, sp, #0x8, lsl #12
    67fc:	91260108 	add	x8, x8, #0x980
    6800:	90000001 	adrp	x1, d3f0 <l_alloc_b67bf84b64957410b9640b67558ad03c>
    6804:	91000021 	add	x1, x1, #0x0
    6808:	94000000 	bl	0 <_<T as core::convert::Into<U>>::into>
    680c:	1400000c 	b	683c <_<rand_chacha::chacha::ChaCha12Core as rand_core::block::BlockRngCore>::generate+0x44fc>
    6810:	f94687e8 	ldr	x8, [sp, #3336]
    6814:	912723e9 	add	x9, sp, #0x9c8
    6818:	f93ffd20 	str	x0, [x9, #32760]
    681c:	aa0103e9 	mov	x9, x1
    6820:	b922f909 	str	w9, [x8, #8952]
    6824:	912723e9 	add	x9, sp, #0x9c8
    6828:	f97ffd29 	ldr	x9, [x9, #32760]
    682c:	b962f908 	ldr	w8, [x8, #8952]
    6830:	f903dfe9 	str	x9, [sp, #1976]
    6834:	b907c7e8 	str	w8, [sp, #1988]
    6838:	17ffff30 	b	64f8 <_<rand_chacha::chacha::ChaCha12Core as rand_core::block::BlockRngCore>::generate+0x41b8>
    683c:	f94687e8 	ldr	x8, [sp, #3336]
    6840:	3dc8ad00 	ldr	q0, [x8, #8880]
    6844:	3d88b100 	str	q0, [x8, #8896]
    6848:	912663e9 	add	x9, sp, #0x998
    684c:	f97ffd2b 	ldr	x11, [x9, #32760]
    6850:	d2800009 	mov	x9, #0x0                   	// #0
    6854:	912883ea 	add	x10, sp, #0xa20
    6858:	f93ffd4b 	str	x11, [x10, #32760]
    685c:	912683ea 	add	x10, sp, #0x9a0
    6860:	f97ffd4a 	ldr	x10, [x10, #32760]
    6864:	912863ec 	add	x12, sp, #0xa18
    6868:	f93ffd8a 	str	x10, [x12, #32760]
    686c:	aa090161 	orr	x1, x11, x9
    6870:	aa0a0122 	orr	x2, x9, x10
    6874:	4e081c20 	mov	v0.d[0], x1
    6878:	4e181c40 	mov	v0.d[1], x2
    687c:	3d88c100 	str	q0, [x8, #8960]
    6880:	914023e0 	add	x0, sp, #0x8, lsl #12
    6884:	9125fc00 	add	x0, x0, #0x97f
    6888:	94000000 	bl	0 <_<ppv_lite86::generic::u32x4_generic as ppv_lite86::types::Swap64>::swap64::{{closure}}>
    688c:	f9039be0 	str	x0, [sp, #1840]
    6890:	f9039fe1 	str	x1, [sp, #1848]
    6894:	4e081c00 	mov	v0.d[0], x0
    6898:	4e181c20 	mov	v0.d[1], x1
    689c:	3d81d3e0 	str	q0, [sp, #1856]
    68a0:	14000001 	b	68a4 <_<rand_chacha::chacha::ChaCha12Core as rand_core::block::BlockRngCore>::generate+0x4564>
    68a4:	f94687e8 	ldr	x8, [sp, #3336]
    68a8:	f9439fe9 	ldr	x9, [sp, #1848]
    68ac:	f9439bea 	ldr	x10, [sp, #1840]
    68b0:	3dc1d3e0 	ldr	q0, [sp, #1856]
    68b4:	3d88c900 	str	q0, [x8, #8992]
    68b8:	9126e3eb 	add	x11, sp, #0x9b8
    68bc:	f93ffd6a 	str	x10, [x11, #32760]
    68c0:	912703ea 	add	x10, sp, #0x9c0
    68c4:	f93ffd49 	str	x9, [x10, #32760]
    68c8:	3dc8b900 	ldr	q0, [x8, #8928]
    68cc:	3d88b500 	str	q0, [x8, #8912]
    68d0:	3dc8b500 	ldr	q0, [x8, #8912]
    68d4:	3d88c500 	str	q0, [x8, #8976]
    68d8:	3dc8c500 	ldr	q0, [x8, #8976]
    68dc:	3d88cd00 	str	q0, [x8, #9008]
    68e0:	3dc8cd00 	ldr	q0, [x8, #9008]
    68e4:	3d849500 	str	q0, [x8, #4688]
    68e8:	14000001 	b	68ec <_<rand_chacha::chacha::ChaCha12Core as rand_core::block::BlockRngCore>::generate+0x45ac>
    68ec:	f94687e8 	ldr	x8, [sp, #3336]
    68f0:	f9469fe9 	ldr	x9, [sp, #3384]
    68f4:	3dc08d20 	ldr	q0, [x9, #560]
    68f8:	3d885d00 	str	q0, [x8, #8560]
    68fc:	3dc85d00 	ldr	q0, [x8, #8560]
    6900:	3d886100 	str	q0, [x8, #8576]
    6904:	3dc86100 	ldr	q0, [x8, #8576]
    6908:	3d886900 	str	q0, [x8, #8608]
    690c:	3dc86900 	ldr	q0, [x8, #8608]
    6910:	914023e0 	add	x0, sp, #0x8, lsl #12
    6914:	91218000 	add	x0, x0, #0x860
    6918:	3d886500 	str	q0, [x8, #8592]
    691c:	914023e8 	add	x8, sp, #0x8, lsl #12
    6920:	91224108 	add	x8, x8, #0x890
    6924:	90000001 	adrp	x1, d3f0 <l_alloc_b67bf84b64957410b9640b67558ad03c>
    6928:	91000021 	add	x1, x1, #0x0
    692c:	94000000 	bl	0 <_<T as core::convert::Into<U>>::into>
    6930:	1400000c 	b	6960 <_<rand_chacha::chacha::ChaCha12Core as rand_core::block::BlockRngCore>::generate+0x4620>
    6934:	f94687e8 	ldr	x8, [sp, #3336]
    6938:	912363e9 	add	x9, sp, #0x8d8
    693c:	f93ffd20 	str	x0, [x9, #32760]
    6940:	aa0103e9 	mov	x9, x1
    6944:	b9220909 	str	w9, [x8, #8712]
    6948:	912363e9 	add	x9, sp, #0x8d8
    694c:	f97ffd29 	ldr	x9, [x9, #32760]
    6950:	b9620908 	ldr	w8, [x8, #8712]
    6954:	f903d7e9 	str	x9, [sp, #1960]
    6958:	b907b7e8 	str	w8, [sp, #1972]
    695c:	17fffeec 	b	650c <_<rand_chacha::chacha::ChaCha12Core as rand_core::block::BlockRngCore>::generate+0x41cc>
    6960:	f94687e8 	ldr	x8, [sp, #3336]
    6964:	3dc87100 	ldr	q0, [x8, #8640]
    6968:	3d887500 	str	q0, [x8, #8656]
    696c:	9122a3e9 	add	x9, sp, #0x8a8
    6970:	f97ffd2b 	ldr	x11, [x9, #32760]
    6974:	d2800009 	mov	x9, #0x0                   	// #0
    6978:	9124c3ea 	add	x10, sp, #0x930
    697c:	f93ffd4b 	str	x11, [x10, #32760]
    6980:	9122c3ea 	add	x10, sp, #0x8b0
    6984:	f97ffd4a 	ldr	x10, [x10, #32760]
    6988:	9124a3ec 	add	x12, sp, #0x928
    698c:	f93ffd8a 	str	x10, [x12, #32760]
    6990:	aa090161 	orr	x1, x11, x9
    6994:	aa0a0122 	orr	x2, x9, x10
    6998:	4e081c20 	mov	v0.d[0], x1
    699c:	4e181c40 	mov	v0.d[1], x2
    69a0:	3d888500 	str	q0, [x8, #8720]
    69a4:	914023e0 	add	x0, sp, #0x8, lsl #12
    69a8:	91223c00 	add	x0, x0, #0x88f
    69ac:	94000000 	bl	0 <_<ppv_lite86::generic::u32x4_generic as ppv_lite86::types::Swap64>::swap64::{{closure}}>
    69b0:	f9038be0 	str	x0, [sp, #1808]
    69b4:	f9038fe1 	str	x1, [sp, #1816]
    69b8:	4e081c00 	mov	v0.d[0], x0
    69bc:	4e181c20 	mov	v0.d[1], x1
    69c0:	3d81cbe0 	str	q0, [sp, #1824]
    69c4:	14000001 	b	69c8 <_<rand_chacha::chacha::ChaCha12Core as rand_core::block::BlockRngCore>::generate+0x4688>
    69c8:	f94687e8 	ldr	x8, [sp, #3336]
    69cc:	f9438fe9 	ldr	x9, [sp, #1816]
    69d0:	f9438bea 	ldr	x10, [sp, #1808]
    69d4:	3dc1cbe0 	ldr	q0, [sp, #1824]
    69d8:	3d888d00 	str	q0, [x8, #8752]
    69dc:	912323eb 	add	x11, sp, #0x8c8
    69e0:	f93ffd6a 	str	x10, [x11, #32760]
    69e4:	912343ea 	add	x10, sp, #0x8d0
    69e8:	f93ffd49 	str	x9, [x10, #32760]
    69ec:	3dc87d00 	ldr	q0, [x8, #8688]
    69f0:	3d887900 	str	q0, [x8, #8672]
    69f4:	3dc87900 	ldr	q0, [x8, #8672]
    69f8:	3d888900 	str	q0, [x8, #8736]
    69fc:	3dc88900 	ldr	q0, [x8, #8736]
    6a00:	3d889100 	str	q0, [x8, #8768]
    6a04:	3dc89100 	ldr	q0, [x8, #8768]
    6a08:	3d849900 	str	q0, [x8, #4704]
    6a0c:	14000001 	b	6a10 <_<rand_chacha::chacha::ChaCha12Core as rand_core::block::BlockRngCore>::generate+0x46d0>
    6a10:	f94687e8 	ldr	x8, [sp, #3336]
    6a14:	3dc48d00 	ldr	q0, [x8, #4656]
    6a18:	91401fe1 	add	x1, sp, #0x7, lsl #12
    6a1c:	91230021 	add	x1, x1, #0x8c0
    6a20:	3d847d00 	str	q0, [x8, #4592]
    6a24:	3dc49100 	ldr	q0, [x8, #4672]
    6a28:	3d848100 	str	q0, [x8, #4608]
    6a2c:	3dc49500 	ldr	q0, [x8, #4688]
    6a30:	3d848500 	str	q0, [x8, #4624]
    6a34:	3dc49900 	ldr	q0, [x8, #4704]
    6a38:	3d848900 	str	q0, [x8, #4640]
    6a3c:	91400be0 	add	x0, sp, #0x2, lsl #12
    6a40:	9101d000 	add	x0, x0, #0x74
    6a44:	52800808 	mov	w8, #0x40                  	// #64
    6a48:	aa0803e2 	mov	x2, x8
    6a4c:	94000000 	bl	0 <_memcpy>
    6a50:	14000001 	b	6a54 <_<rand_chacha::chacha::ChaCha12Core as rand_core::block::BlockRngCore>::generate+0x4714>
    6a54:	f9469fe9 	ldr	x9, [sp, #3384]
    6a58:	52800028 	mov	w8, #0x1                   	// #1
    6a5c:	390b0928 	strb	w8, [x9, #706]
    6a60:	914007e8 	add	x8, sp, #0x1, lsl #12
    6a64:	91184108 	add	x8, x8, #0x610
    6a68:	f90383e8 	str	x8, [sp, #1792]
    6a6c:	91020100 	add	x0, x8, #0x80
    6a70:	91400be1 	add	x1, sp, #0x2, lsl #12
    6a74:	9101d021 	add	x1, x1, #0x74
    6a78:	52800808 	mov	w8, #0x40                  	// #64
    6a7c:	aa0803e2 	mov	x2, x8
    6a80:	f90387e2 	str	x2, [sp, #1800]
    6a84:	94000000 	bl	0 <_memcpy>
    6a88:	f94383e8 	ldr	x8, [sp, #1792]
    6a8c:	f94387e2 	ldr	x2, [sp, #1800]
    6a90:	f9469fe9 	ldr	x9, [sp, #3384]
    6a94:	390b053f 	strb	wzr, [x9, #705]
    6a98:	91030101 	add	x1, x8, #0xc0
    6a9c:	91400be0 	add	x0, sp, #0x2, lsl #12
    6aa0:	9104d000 	add	x0, x0, #0x134
    6aa4:	94000000 	bl	0 <_memcpy>
    6aa8:	f9469fe9 	ldr	x9, [sp, #3384]
    6aac:	f94687e8 	ldr	x8, [sp, #3336]
    6ab0:	3dc0a120 	ldr	q0, [x9, #640]
    6ab4:	3d881100 	str	q0, [x8, #8256]
    6ab8:	3dc81100 	ldr	q0, [x8, #8256]
    6abc:	3d880d00 	str	q0, [x8, #8240]
    6ac0:	3dc80d00 	ldr	q0, [x8, #8240]
    6ac4:	3d881500 	str	q0, [x8, #8272]
    6ac8:	b9605d0c 	ldr	w12, [x8, #8284]
    6acc:	b960510b 	ldr	w11, [x8, #8272]
    6ad0:	b960550a 	ldr	w10, [x8, #8276]
    6ad4:	b9605909 	ldr	w9, [x8, #8280]
    6ad8:	b920610c 	str	w12, [x8, #8288]
    6adc:	b920650b 	str	w11, [x8, #8292]
    6ae0:	b920690a 	str	w10, [x8, #8296]
    6ae4:	b9206d09 	str	w9, [x8, #8300]
    6ae8:	3dc81900 	ldr	q0, [x8, #8288]
    6aec:	3d844d00 	str	q0, [x8, #4400]
    6af0:	14000001 	b	6af4 <_<rand_chacha::chacha::ChaCha12Core as rand_core::block::BlockRngCore>::generate+0x47b4>
    6af4:	f94687e8 	ldr	x8, [sp, #3336]
    6af8:	f9469fe9 	ldr	x9, [sp, #3384]
    6afc:	3dc0a520 	ldr	q0, [x9, #656]
    6b00:	3d880100 	str	q0, [x8, #8192]
    6b04:	3dc80100 	ldr	q0, [x8, #8192]
    6b08:	3d87fd00 	str	q0, [x8, #8176]
    6b0c:	3dc7fd00 	ldr	q0, [x8, #8176]
    6b10:	3d880500 	str	q0, [x8, #8208]
    6b14:	b9601d0c 	ldr	w12, [x8, #8220]
    6b18:	b960110b 	ldr	w11, [x8, #8208]
    6b1c:	b960150a 	ldr	w10, [x8, #8212]
    6b20:	b9601909 	ldr	w9, [x8, #8216]
    6b24:	b920210c 	str	w12, [x8, #8224]
    6b28:	b920250b 	str	w11, [x8, #8228]
    6b2c:	b920290a 	str	w10, [x8, #8232]
    6b30:	b9202d09 	str	w9, [x8, #8236]
    6b34:	3dc80900 	ldr	q0, [x8, #8224]
    6b38:	3d845100 	str	q0, [x8, #4416]
    6b3c:	14000001 	b	6b40 <_<rand_chacha::chacha::ChaCha12Core as rand_core::block::BlockRngCore>::generate+0x4800>
    6b40:	f94687e8 	ldr	x8, [sp, #3336]
    6b44:	f9469fe9 	ldr	x9, [sp, #3384]
    6b48:	3dc0a920 	ldr	q0, [x9, #672]
    6b4c:	3d87f100 	str	q0, [x8, #8128]
    6b50:	3dc7f100 	ldr	q0, [x8, #8128]
    6b54:	3d87ed00 	str	q0, [x8, #8112]
    6b58:	3dc7ed00 	ldr	q0, [x8, #8112]
    6b5c:	3d87f500 	str	q0, [x8, #8144]
    6b60:	b95fdd0c 	ldr	w12, [x8, #8156]
    6b64:	b95fd10b 	ldr	w11, [x8, #8144]
    6b68:	b95fd50a 	ldr	w10, [x8, #8148]
    6b6c:	b95fd909 	ldr	w9, [x8, #8152]
    6b70:	b91fe10c 	str	w12, [x8, #8160]
    6b74:	b91fe50b 	str	w11, [x8, #8164]
    6b78:	b91fe90a 	str	w10, [x8, #8168]
    6b7c:	b91fed09 	str	w9, [x8, #8172]
    6b80:	3dc7f900 	ldr	q0, [x8, #8160]
    6b84:	3d845500 	str	q0, [x8, #4432]
    6b88:	14000001 	b	6b8c <_<rand_chacha::chacha::ChaCha12Core as rand_core::block::BlockRngCore>::generate+0x484c>
    6b8c:	f94687e8 	ldr	x8, [sp, #3336]
    6b90:	f9469fe9 	ldr	x9, [sp, #3384]
    6b94:	3dc0ad20 	ldr	q0, [x9, #688]
    6b98:	3d87e100 	str	q0, [x8, #8064]
    6b9c:	3dc7e100 	ldr	q0, [x8, #8064]
    6ba0:	3d87dd00 	str	q0, [x8, #8048]
    6ba4:	3dc7dd00 	ldr	q0, [x8, #8048]
    6ba8:	3d87e500 	str	q0, [x8, #8080]
    6bac:	b95f9d0c 	ldr	w12, [x8, #8092]
    6bb0:	b95f910b 	ldr	w11, [x8, #8080]
    6bb4:	b95f950a 	ldr	w10, [x8, #8084]
    6bb8:	b95f9909 	ldr	w9, [x8, #8088]
    6bbc:	b91fa10c 	str	w12, [x8, #8096]
    6bc0:	b91fa50b 	str	w11, [x8, #8100]
    6bc4:	b91fa90a 	str	w10, [x8, #8104]
    6bc8:	b91fad09 	str	w9, [x8, #8108]
    6bcc:	3dc7e900 	ldr	q0, [x8, #8096]
    6bd0:	3d845900 	str	q0, [x8, #4448]
    6bd4:	14000001 	b	6bd8 <_<rand_chacha::chacha::ChaCha12Core as rand_core::block::BlockRngCore>::generate+0x4898>
    6bd8:	f94687e8 	ldr	x8, [sp, #3336]
    6bdc:	3dc44d00 	ldr	q0, [x8, #4400]
    6be0:	91401fe1 	add	x1, sp, #0x7, lsl #12
    6be4:	911f0021 	add	x1, x1, #0x7c0
    6be8:	3d843d00 	str	q0, [x8, #4336]
    6bec:	3dc45100 	ldr	q0, [x8, #4416]
    6bf0:	3d844100 	str	q0, [x8, #4352]
    6bf4:	3dc45500 	ldr	q0, [x8, #4432]
    6bf8:	3d844500 	str	q0, [x8, #4368]
    6bfc:	3dc45900 	ldr	q0, [x8, #4448]
    6c00:	3d844900 	str	q0, [x8, #4384]
    6c04:	91400be0 	add	x0, sp, #0x2, lsl #12
    6c08:	9103d000 	add	x0, x0, #0xf4
    6c0c:	52800808 	mov	w8, #0x40                  	// #64
    6c10:	aa0803e2 	mov	x2, x8
    6c14:	94000000 	bl	0 <_memcpy>
    6c18:	1400000f 	b	6c54 <_<rand_chacha::chacha::ChaCha12Core as rand_core::block::BlockRngCore>::generate+0x4914>
    6c1c:	f9469fe8 	ldr	x8, [sp, #3384]
    6c20:	394b0908 	ldrb	w8, [x8, #706]
    6c24:	370000e8 	tbnz	w8, #0, 6c40 <_<rand_chacha::chacha::ChaCha12Core as rand_core::block::BlockRngCore>::generate+0x4900>
    6c28:	14000002 	b	6c30 <_<rand_chacha::chacha::ChaCha12Core as rand_core::block::BlockRngCore>::generate+0x48f0>
    6c2c:	17fffffc 	b	6c1c <_<rand_chacha::chacha::ChaCha12Core as rand_core::block::BlockRngCore>::generate+0x48dc>
    6c30:	f9469fe8 	ldr	x8, [sp, #3384]
    6c34:	394b0508 	ldrb	w8, [x8, #705]
    6c38:	370000c8 	tbnz	w8, #0, 6c50 <_<rand_chacha::chacha::ChaCha12Core as rand_core::block::BlockRngCore>::generate+0x4910>
    6c3c:	14000002 	b	6c44 <_<rand_chacha::chacha::ChaCha12Core as rand_core::block::BlockRngCore>::generate+0x4904>
    6c40:	17fffffc 	b	6c30 <_<rand_chacha::chacha::ChaCha12Core as rand_core::block::BlockRngCore>::generate+0x48f0>
    6c44:	f950bfe8 	ldr	x8, [sp, #8568]
    6c48:	f90677e8 	str	x8, [sp, #3304]
    6c4c:	14001556 	b	c1a4 <_<rand_chacha::chacha::ChaCha12Core as rand_core::block::BlockRngCore>::generate+0x9e64>
    6c50:	17fffffd 	b	6c44 <_<rand_chacha::chacha::ChaCha12Core as rand_core::block::BlockRngCore>::generate+0x4904>
    6c54:	f9469fe9 	ldr	x9, [sp, #3384]
    6c58:	52800028 	mov	w8, #0x1                   	// #1
    6c5c:	b906ffe8 	str	w8, [sp, #1788]
    6c60:	390b0528 	strb	w8, [x9, #705]
    6c64:	914007e8 	add	x8, sp, #0x1, lsl #12
    6c68:	91184108 	add	x8, x8, #0x610
    6c6c:	f90373e8 	str	x8, [sp, #1760]
    6c70:	91030100 	add	x0, x8, #0xc0
    6c74:	91400be1 	add	x1, sp, #0x2, lsl #12
    6c78:	9103d021 	add	x1, x1, #0xf4
    6c7c:	52800808 	mov	w8, #0x40                  	// #64
    6c80:	aa0803e2 	mov	x2, x8
    6c84:	f9037be2 	str	x2, [sp, #1776]
    6c88:	94000000 	bl	0 <_memcpy>
    6c8c:	f9469fe8 	ldr	x8, [sp, #3384]
    6c90:	f94373e1 	ldr	x1, [sp, #1760]
    6c94:	390b051f 	strb	wzr, [x8, #705]
    6c98:	390b091f 	strb	wzr, [x8, #706]
    6c9c:	390b0d1f 	strb	wzr, [x8, #707]
    6ca0:	914007e0 	add	x0, sp, #0x1, lsl #12
    6ca4:	91144000 	add	x0, x0, #0x510
    6ca8:	f90377e0 	str	x0, [sp, #1768]
    6cac:	52802008 	mov	w8, #0x100                 	// #256
    6cb0:	aa0803e2 	mov	x2, x8
    6cb4:	94000000 	bl	0 <_memcpy>
    6cb8:	f94377e8 	ldr	x8, [sp, #1768]
    6cbc:	f9437be2 	ldr	x2, [sp, #1776]
    6cc0:	91010101 	add	x1, x8, #0x40
    6cc4:	91400be0 	add	x0, sp, #0x2, lsl #12
    6cc8:	91298000 	add	x0, x0, #0xa60
    6ccc:	94000000 	bl	0 <_memcpy>
    6cd0:	f94687e8 	ldr	x8, [sp, #3336]
    6cd4:	f946abe9 	ldr	x9, [sp, #3408]
    6cd8:	f94377ea 	ldr	x10, [sp, #1768]
    6cdc:	f946b7eb 	ldr	x11, [sp, #3432]
    6ce0:	aa0a03ec 	mov	x12, x10
    6ce4:	f93affec 	str	x12, [sp, #30200]
    6ce8:	3dc1d160 	ldr	q0, [x11, #1856]
    6cec:	3d83b900 	str	q0, [x8, #3808]
    6cf0:	910603eb 	add	x11, sp, #0x180
    6cf4:	f93ffd6a 	str	x10, [x11, #32760]
    6cf8:	3dc1c520 	ldr	q0, [x9, #1808]
    6cfc:	3d86b500 	str	q0, [x8, #6864]
    6d00:	3dc3b900 	ldr	q0, [x8, #3808]
    6d04:	3d86b100 	str	q0, [x8, #6848]
    6d08:	3dc6b500 	ldr	q0, [x8, #6864]
    6d0c:	914023e0 	add	x0, sp, #0x8, lsl #12
    6d10:	91060000 	add	x0, x0, #0x180
    6d14:	3d86ad00 	str	q0, [x8, #6832]
    6d18:	3dc6b100 	ldr	q0, [x8, #6848]
    6d1c:	914023e1 	add	x1, sp, #0x8, lsl #12
    6d20:	9106c021 	add	x1, x1, #0x1b0
    6d24:	3d86b900 	str	q0, [x8, #6880]
    6d28:	914023e8 	add	x8, sp, #0x8, lsl #12
    6d2c:	9105a108 	add	x8, x8, #0x168
    6d30:	94000000 	bl	0 <_ppv_lite86::generic::dmap2>
    6d34:	f94687e8 	ldr	x8, [sp, #3336]
    6d38:	f946abe9 	ldr	x9, [sp, #3408]
    6d3c:	f94377ea 	ldr	x10, [sp, #1768]
    6d40:	f946b7eb 	ldr	x11, [sp, #3432]
    6d44:	914023ec 	add	x12, sp, #0x8, lsl #12
    6d48:	9101a58c 	add	x12, x12, #0x69
    6d4c:	3ccff180 	ldur	q0, [x12, #255]
    6d50:	3d81c520 	str	q0, [x9, #1808]
    6d54:	9100414a 	add	x10, x10, #0x10
    6d58:	3dc1d560 	ldr	q0, [x11, #1872]
    6d5c:	3d83bd00 	str	q0, [x8, #3824]
    6d60:	910483eb 	add	x11, sp, #0x120
    6d64:	f93ffd6a 	str	x10, [x11, #32760]
    6d68:	3dc1c920 	ldr	q0, [x9, #1824]
    6d6c:	3d869d00 	str	q0, [x8, #6768]
    6d70:	3dc3bd00 	ldr	q0, [x8, #3824]
    6d74:	3d869900 	str	q0, [x8, #6752]
    6d78:	3dc69d00 	ldr	q0, [x8, #6768]
    6d7c:	914023e0 	add	x0, sp, #0x8, lsl #12
    6d80:	91048000 	add	x0, x0, #0x120
    6d84:	3d869500 	str	q0, [x8, #6736]
    6d88:	3dc69900 	ldr	q0, [x8, #6752]
    6d8c:	914023e1 	add	x1, sp, #0x8, lsl #12
    6d90:	91054021 	add	x1, x1, #0x150
    6d94:	3d86a100 	str	q0, [x8, #6784]
    6d98:	914023e8 	add	x8, sp, #0x8, lsl #12
    6d9c:	91042108 	add	x8, x8, #0x108
    6da0:	94000000 	bl	0 <_ppv_lite86::generic::dmap2>
    6da4:	f94687e8 	ldr	x8, [sp, #3336]
    6da8:	f946abe9 	ldr	x9, [sp, #3408]
    6dac:	f94377ea 	ldr	x10, [sp, #1768]
    6db0:	f946b7eb 	ldr	x11, [sp, #3432]
    6db4:	914023ec 	add	x12, sp, #0x8, lsl #12
    6db8:	9100258c 	add	x12, x12, #0x9
    6dbc:	3ccff180 	ldur	q0, [x12, #255]
    6dc0:	3d81c920 	str	q0, [x9, #1824]
    6dc4:	9100814a 	add	x10, x10, #0x20
    6dc8:	3dc1d960 	ldr	q0, [x11, #1888]
    6dcc:	3d83c100 	str	q0, [x8, #3840]
    6dd0:	910303eb 	add	x11, sp, #0xc0
    6dd4:	f93ffd6a 	str	x10, [x11, #32760]
    6dd8:	3dc1cd20 	ldr	q0, [x9, #1840]
    6ddc:	3d868500 	str	q0, [x8, #6672]
    6de0:	3dc3c100 	ldr	q0, [x8, #3840]
    6de4:	3d868100 	str	q0, [x8, #6656]
    6de8:	3dc68500 	ldr	q0, [x8, #6672]
    6dec:	914023e0 	add	x0, sp, #0x8, lsl #12
    6df0:	91030000 	add	x0, x0, #0xc0
    6df4:	3d867d00 	str	q0, [x8, #6640]
    6df8:	3dc68100 	ldr	q0, [x8, #6656]
    6dfc:	914023e1 	add	x1, sp, #0x8, lsl #12
    6e00:	9103c021 	add	x1, x1, #0xf0
    6e04:	3d868900 	str	q0, [x8, #6688]
    6e08:	914023e8 	add	x8, sp, #0x8, lsl #12
    6e0c:	9102a108 	add	x8, x8, #0xa8
    6e10:	94000000 	bl	0 <_ppv_lite86::generic::dmap2>
    6e14:	f94687e8 	ldr	x8, [sp, #3336]
    6e18:	f946abe9 	ldr	x9, [sp, #3408]
    6e1c:	f94377ea 	ldr	x10, [sp, #1768]
    6e20:	f946b7eb 	ldr	x11, [sp, #3432]
    6e24:	91401fec 	add	x12, sp, #0x7, lsl #12
    6e28:	913ea58c 	add	x12, x12, #0xfa9
    6e2c:	3ccff180 	ldur	q0, [x12, #255]
    6e30:	3d81cd20 	str	q0, [x9, #1840]
    6e34:	9100c14a 	add	x10, x10, #0x30
    6e38:	3dc1dd60 	ldr	q0, [x11, #1904]
    6e3c:	3d83c500 	str	q0, [x8, #3856]
    6e40:	910183eb 	add	x11, sp, #0x60
    6e44:	f93ffd6a 	str	x10, [x11, #32760]
    6e48:	3dc1d120 	ldr	q0, [x9, #1856]
    6e4c:	3d866d00 	str	q0, [x8, #6576]
    6e50:	3dc3c500 	ldr	q0, [x8, #3856]
    6e54:	3d866900 	str	q0, [x8, #6560]
    6e58:	3dc66d00 	ldr	q0, [x8, #6576]
    6e5c:	914023e0 	add	x0, sp, #0x8, lsl #12
    6e60:	91018000 	add	x0, x0, #0x60
    6e64:	3d866500 	str	q0, [x8, #6544]
    6e68:	3dc66900 	ldr	q0, [x8, #6560]
    6e6c:	914023e1 	add	x1, sp, #0x8, lsl #12
    6e70:	91024021 	add	x1, x1, #0x90
    6e74:	3d867100 	str	q0, [x8, #6592]
    6e78:	914023e8 	add	x8, sp, #0x8, lsl #12
    6e7c:	91012108 	add	x8, x8, #0x48
    6e80:	94000000 	bl	0 <_ppv_lite86::generic::dmap2>
    6e84:	f946abe9 	ldr	x9, [sp, #3408]
    6e88:	f94377e8 	ldr	x8, [sp, #1768]
    6e8c:	f9437be2 	ldr	x2, [sp, #1776]
    6e90:	91401fea 	add	x10, sp, #0x7, lsl #12
    6e94:	913d254a 	add	x10, x10, #0xf49
    6e98:	3ccff140 	ldur	q0, [x10, #255]
    6e9c:	3d81d120 	str	q0, [x9, #1856]
    6ea0:	91030101 	add	x1, x8, #0xc0
    6ea4:	91400be0 	add	x0, sp, #0x2, lsl #12
    6ea8:	912c8000 	add	x0, x0, #0xb20
    6eac:	94000000 	bl	0 <_memcpy>
    6eb0:	f94377e1 	ldr	x1, [sp, #1768]
    6eb4:	f9437be2 	ldr	x2, [sp, #1776]
    6eb8:	91400be0 	add	x0, sp, #0x2, lsl #12
    6ebc:	912d8000 	add	x0, x0, #0xb60
    6ec0:	94000000 	bl	0 <_memcpy>
    6ec4:	f946b7ea 	ldr	x10, [sp, #3432]
    6ec8:	f9468fe9 	ldr	x9, [sp, #3352]
    6ecc:	b946ffe8 	ldr	w8, [sp, #1788]
    6ed0:	3dc20140 	ldr	q0, [x10, #2048]
    6ed4:	3d838520 	str	q0, [x9, #3600]
    6ed8:	3dc21140 	ldr	q0, [x10, #2112]
    6edc:	3d838120 	str	q0, [x9, #3584]
    6ee0:	3dc38520 	ldr	q0, [x9, #3600]
    6ee4:	91401be0 	add	x0, sp, #0x6, lsl #12
    6ee8:	910ec000 	add	x0, x0, #0x3b0
    6eec:	3d837d20 	str	q0, [x9, #3568]
    6ef0:	3dc38120 	ldr	q0, [x9, #3584]
    6ef4:	3d838920 	str	q0, [x9, #3616]
    6ef8:	393afd3f 	strb	wzr, [x9, #3775]
    6efc:	393afd28 	strb	w8, [x9, #3775]
    6f00:	91401be8 	add	x8, sp, #0x6, lsl #12
    6f04:	91100108 	add	x8, x8, #0x400
    6f08:	90000001 	adrp	x1, d408 <l_alloc_d6cd646a032ab5661bff8aa78f551e65>
    6f0c:	91000021 	add	x1, x1, #0x0
    6f10:	94000000 	bl	0 <_<T as core::convert::Into<U>>::into>
    6f14:	14000008 	b	6f34 <_<rand_chacha::chacha::ChaCha12Core as rand_core::block::BlockRngCore>::generate+0x4bf4>
    6f18:	f9468fe8 	ldr	x8, [sp, #3352]
    6f1c:	f93243e0 	str	x0, [sp, #25728]
    6f20:	aa0103e9 	mov	x9, x1
    6f24:	b90ec909 	str	w9, [x8, #3784]
    6f28:	397afd08 	ldrb	w8, [x8, #3775]
    6f2c:	37000648 	tbnz	w8, #0, 6ff4 <_<rand_chacha::chacha::ChaCha12Core as rand_core::block::BlockRngCore>::generate+0x4cb4>
    6f30:	1400002e 	b	6fe8 <_<rand_chacha::chacha::ChaCha12Core as rand_core::block::BlockRngCore>::generate+0x4ca8>
    6f34:	f9468fe8 	ldr	x8, [sp, #3352]
    6f38:	393afd1f 	strb	wzr, [x8, #3775]
    6f3c:	3dc38900 	ldr	q0, [x8, #3616]
    6f40:	91401be0 	add	x0, sp, #0x6, lsl #12
    6f44:	91108000 	add	x0, x0, #0x420
    6f48:	3d839900 	str	q0, [x8, #3680]
    6f4c:	91401be8 	add	x8, sp, #0x6, lsl #12
    6f50:	91104108 	add	x8, x8, #0x410
    6f54:	90000001 	adrp	x1, d420 <l_alloc_eb8937521ab56b1815db886b021bd11a>
    6f58:	91000021 	add	x1, x1, #0x0
    6f5c:	94000000 	bl	0 <_<T as core::convert::Into<U>>::into>
    6f60:	14000001 	b	6f64 <_<rand_chacha::chacha::ChaCha12Core as rand_core::block::BlockRngCore>::generate+0x4c24>
    6f64:	f9468fe8 	ldr	x8, [sp, #3352]
    6f68:	3dc39100 	ldr	q0, [x8, #3648]
    6f6c:	3d839d00 	str	q0, [x8, #3696]
    6f70:	f9721beb 	ldr	x11, [sp, #25648]
    6f74:	d2800009 	mov	x9, #0x0                   	// #0
    6f78:	f93277eb 	str	x11, [sp, #25832]
    6f7c:	f9721fea 	ldr	x10, [sp, #25656]
    6f80:	f93273ea 	str	x10, [sp, #25824]
    6f84:	aa090161 	orr	x1, x11, x9
    6f88:	aa0a0122 	orr	x2, x9, x10
    6f8c:	4e081c20 	mov	v0.d[0], x1
    6f90:	4e181c40 	mov	v0.d[1], x2
    6f94:	3d83b500 	str	q0, [x8, #3792]
    6f98:	3dc39500 	ldr	q0, [x8, #3664]
    6f9c:	3d83a100 	str	q0, [x8, #3712]
    6fa0:	f97223eb 	ldr	x11, [sp, #25664]
    6fa4:	f9327feb 	str	x11, [sp, #25848]
    6fa8:	f97227ea 	ldr	x10, [sp, #25672]
    6fac:	f9327bea 	str	x10, [sp, #25840]
    6fb0:	aa090163 	orr	x3, x11, x9
    6fb4:	aa0a0124 	orr	x4, x9, x10
    6fb8:	4e081c60 	mov	v0.d[0], x3
    6fbc:	4e181c80 	mov	v0.d[1], x4
    6fc0:	3d83b900 	str	q0, [x8, #3808]
    6fc4:	91401be0 	add	x0, sp, #0x6, lsl #12
    6fc8:	910ffc00 	add	x0, x0, #0x3ff
    6fcc:	94000000 	bl	0 <_<ppv_lite86::generic::u32x4_generic as core::ops::bit::BitXor>::bitxor::{{closure}}>
    6fd0:	f90363e0 	str	x0, [sp, #1728]
    6fd4:	f90367e1 	str	x1, [sp, #1736]
    6fd8:	4e081c00 	mov	v0.d[0], x0
    6fdc:	4e181c20 	mov	v0.d[1], x1
    6fe0:	3d81b7e0 	str	q0, [sp, #1744]
    6fe4:	14000005 	b	6ff8 <_<rand_chacha::chacha::ChaCha12Core as rand_core::block::BlockRngCore>::generate+0x4cb8>
    6fe8:	f97243e8 	ldr	x8, [sp, #25728]
    6fec:	f90677e8 	str	x8, [sp, #3304]
    6ff0:	1400146d 	b	c1a4 <_<rand_chacha::chacha::ChaCha12Core as rand_core::block::BlockRngCore>::generate+0x9e64>
    6ff4:	17fffffd 	b	6fe8 <_<rand_chacha::chacha::ChaCha12Core as rand_core::block::BlockRngCore>::generate+0x4ca8>
    6ff8:	f9468fe9 	ldr	x9, [sp, #3352]
    6ffc:	f946b7e8 	ldr	x8, [sp, #3432]
    7000:	f94367ea 	ldr	x10, [sp, #1736]
    7004:	f94363eb 	ldr	x11, [sp, #1728]
    7008:	3dc1b7e0 	ldr	q0, [sp, #1744]
    700c:	3d83c120 	str	q0, [x9, #3840]
    7010:	f93237eb 	str	x11, [sp, #25704]
    7014:	f9323bea 	str	x10, [sp, #25712]
    7018:	91401bea 	add	x10, sp, #0x6, lsl #12
    701c:	910da54a 	add	x10, x10, #0x369
    7020:	3ccff140 	ldur	q0, [x10, #255]
    7024:	3d83a520 	str	q0, [x9, #3728]
    7028:	3dc3a520 	ldr	q0, [x9, #3728]
    702c:	3d83bd20 	str	q0, [x9, #3824]
    7030:	3dc3bd20 	ldr	q0, [x9, #3824]
    7034:	3d83c520 	str	q0, [x9, #3856]
    7038:	3dc3c520 	ldr	q0, [x9, #3856]
    703c:	3d860500 	str	q0, [x8, #6160]
    7040:	3dc20500 	ldr	q0, [x8, #2064]
    7044:	3d833120 	str	q0, [x9, #3264]
    7048:	3dc21500 	ldr	q0, [x8, #2128]
    704c:	3d832d20 	str	q0, [x9, #3248]
    7050:	3dc33120 	ldr	q0, [x9, #3264]
    7054:	91401be0 	add	x0, sp, #0x6, lsl #12
    7058:	91098000 	add	x0, x0, #0x260
    705c:	3d832920 	str	q0, [x9, #3232]
    7060:	3dc32d20 	ldr	q0, [x9, #3248]
    7064:	3d833520 	str	q0, [x9, #3280]
    7068:	3935bd3f 	strb	wzr, [x9, #3439]
    706c:	52800028 	mov	w8, #0x1                   	// #1
    7070:	3935bd28 	strb	w8, [x9, #3439]
    7074:	91401be8 	add	x8, sp, #0x6, lsl #12
    7078:	910ac108 	add	x8, x8, #0x2b0
    707c:	90000001 	adrp	x1, d408 <l_alloc_d6cd646a032ab5661bff8aa78f551e65>
    7080:	91000021 	add	x1, x1, #0x0
    7084:	94000000 	bl	0 <_<T as core::convert::Into<U>>::into>
    7088:	14000008 	b	70a8 <_<rand_chacha::chacha::ChaCha12Core as rand_core::block::BlockRngCore>::generate+0x4d68>
    708c:	f9468fe8 	ldr	x8, [sp, #3352]
    7090:	f9319be0 	str	x0, [sp, #25392]
    7094:	aa0103e9 	mov	x9, x1
    7098:	b90d7909 	str	w9, [x8, #3448]
    709c:	3975bd08 	ldrb	w8, [x8, #3439]
    70a0:	370006a8 	tbnz	w8, #0, 7174 <_<rand_chacha::chacha::ChaCha12Core as rand_core::block::BlockRngCore>::generate+0x4e34>
    70a4:	1400002e 	b	715c <_<rand_chacha::chacha::ChaCha12Core as rand_core::block::BlockRngCore>::generate+0x4e1c>
    70a8:	f9468fe8 	ldr	x8, [sp, #3352]
    70ac:	3935bd1f 	strb	wzr, [x8, #3439]
    70b0:	3dc33500 	ldr	q0, [x8, #3280]
    70b4:	91401be0 	add	x0, sp, #0x6, lsl #12
    70b8:	910b4000 	add	x0, x0, #0x2d0
    70bc:	3d834500 	str	q0, [x8, #3344]
    70c0:	91401be8 	add	x8, sp, #0x6, lsl #12
    70c4:	910b0108 	add	x8, x8, #0x2c0
    70c8:	90000001 	adrp	x1, d420 <l_alloc_eb8937521ab56b1815db886b021bd11a>
    70cc:	91000021 	add	x1, x1, #0x0
    70d0:	94000000 	bl	0 <_<T as core::convert::Into<U>>::into>
    70d4:	14000001 	b	70d8 <_<rand_chacha::chacha::ChaCha12Core as rand_core::block::BlockRngCore>::generate+0x4d98>
    70d8:	f9468fe8 	ldr	x8, [sp, #3352]
    70dc:	3dc33d00 	ldr	q0, [x8, #3312]
    70e0:	3d834900 	str	q0, [x8, #3360]
    70e4:	f97173eb 	ldr	x11, [sp, #25312]
    70e8:	d2800009 	mov	x9, #0x0                   	// #0
    70ec:	f931cfeb 	str	x11, [sp, #25496]
    70f0:	f97177ea 	ldr	x10, [sp, #25320]
    70f4:	f931cbea 	str	x10, [sp, #25488]
    70f8:	aa090161 	orr	x1, x11, x9
    70fc:	aa0a0122 	orr	x2, x9, x10
    7100:	4e081c20 	mov	v0.d[0], x1
    7104:	4e181c40 	mov	v0.d[1], x2
    7108:	3d836100 	str	q0, [x8, #3456]
    710c:	3dc34100 	ldr	q0, [x8, #3328]
    7110:	3d834d00 	str	q0, [x8, #3376]
    7114:	f9717beb 	ldr	x11, [sp, #25328]
    7118:	f931d7eb 	str	x11, [sp, #25512]
    711c:	f9717fea 	ldr	x10, [sp, #25336]
    7120:	f931d3ea 	str	x10, [sp, #25504]
    7124:	aa090163 	orr	x3, x11, x9
    7128:	aa0a0124 	orr	x4, x9, x10
    712c:	4e081c60 	mov	v0.d[0], x3
    7130:	4e181c80 	mov	v0.d[1], x4
    7134:	3d836500 	str	q0, [x8, #3472]
    7138:	91401be0 	add	x0, sp, #0x6, lsl #12
    713c:	910abc00 	add	x0, x0, #0x2af
    7140:	94000000 	bl	0 <_<ppv_lite86::generic::u32x4_generic as core::ops::bit::BitXor>::bitxor::{{closure}}>
    7144:	f90353e0 	str	x0, [sp, #1696]
    7148:	f90357e1 	str	x1, [sp, #1704]
    714c:	4e081c00 	mov	v0.d[0], x0
    7150:	4e181c20 	mov	v0.d[1], x1
    7154:	3d81afe0 	str	q0, [sp, #1712]
    7158:	14000008 	b	7178 <_<rand_chacha::chacha::ChaCha12Core as rand_core::block::BlockRngCore>::generate+0x4e38>
    715c:	f9468fe8 	ldr	x8, [sp, #3352]
    7160:	f9719be9 	ldr	x9, [sp, #25392]
    7164:	f9034be9 	str	x9, [sp, #1680]
    7168:	b94d7908 	ldr	w8, [x8, #3448]
    716c:	b9069fe8 	str	w8, [sp, #1692]
    7170:	14000018 	b	71d0 <_<rand_chacha::chacha::ChaCha12Core as rand_core::block::BlockRngCore>::generate+0x4e90>
    7174:	17fffffa 	b	715c <_<rand_chacha::chacha::ChaCha12Core as rand_core::block::BlockRngCore>::generate+0x4e1c>
    7178:	f946b7e8 	ldr	x8, [sp, #3432]
    717c:	f9468fe9 	ldr	x9, [sp, #3352]
    7180:	f94357ea 	ldr	x10, [sp, #1704]
    7184:	f94353eb 	ldr	x11, [sp, #1696]
    7188:	3dc1afe0 	ldr	q0, [sp, #1712]
    718c:	3d836d20 	str	q0, [x9, #3504]
    7190:	f9318feb 	str	x11, [sp, #25368]
    7194:	f93193ea 	str	x10, [sp, #25376]
    7198:	91401bea 	add	x10, sp, #0x6, lsl #12
    719c:	9108654a 	add	x10, x10, #0x219
    71a0:	3ccff140 	ldur	q0, [x10, #255]
    71a4:	3d835120 	str	q0, [x9, #3392]
    71a8:	3dc35120 	ldr	q0, [x9, #3392]
    71ac:	3d836920 	str	q0, [x9, #3488]
    71b0:	3dc36920 	ldr	q0, [x9, #3488]
    71b4:	3d837120 	str	q0, [x9, #3520]
    71b8:	3dc37120 	ldr	q0, [x9, #3520]
    71bc:	3d860900 	str	q0, [x8, #6176]
    71c0:	14000009 	b	71e4 <_<rand_chacha::chacha::ChaCha12Core as rand_core::block::BlockRngCore>::generate+0x4ea4>
    71c4:	f95dbbe8 	ldr	x8, [sp, #15216]
    71c8:	f90677e8 	str	x8, [sp, #3304]
    71cc:	140013f6 	b	c1a4 <_<rand_chacha::chacha::ChaCha12Core as rand_core::block::BlockRngCore>::generate+0x9e64>
    71d0:	b9469fe8 	ldr	w8, [sp, #1692]
    71d4:	f9434be9 	ldr	x9, [sp, #1680]
    71d8:	f91dbbe9 	str	x9, [sp, #15216]
    71dc:	b93b7be8 	str	w8, [sp, #15224]
    71e0:	17fffff9 	b	71c4 <_<rand_chacha::chacha::ChaCha12Core as rand_core::block::BlockRngCore>::generate+0x4e84>
    71e4:	f9468fe9 	ldr	x9, [sp, #3352]
    71e8:	f946b7e8 	ldr	x8, [sp, #3432]
    71ec:	3dc20900 	ldr	q0, [x8, #2080]
    71f0:	3d82dd20 	str	q0, [x9, #2928]
    71f4:	3dc21900 	ldr	q0, [x8, #2144]
    71f8:	3d82d920 	str	q0, [x9, #2912]
    71fc:	3dc2dd20 	ldr	q0, [x9, #2928]
    7200:	91401be0 	add	x0, sp, #0x6, lsl #12
    7204:	91044000 	add	x0, x0, #0x110
    7208:	3d82d520 	str	q0, [x9, #2896]
    720c:	3dc2d920 	ldr	q0, [x9, #2912]
    7210:	3d82e120 	str	q0, [x9, #2944]
    7214:	39307d3f 	strb	wzr, [x9, #3103]
    7218:	52800028 	mov	w8, #0x1                   	// #1
    721c:	39307d28 	strb	w8, [x9, #3103]
    7220:	91401be8 	add	x8, sp, #0x6, lsl #12
    7224:	91058108 	add	x8, x8, #0x160
    7228:	90000001 	adrp	x1, d408 <l_alloc_d6cd646a032ab5661bff8aa78f551e65>
    722c:	91000021 	add	x1, x1, #0x0
    7230:	94000000 	bl	0 <_<T as core::convert::Into<U>>::into>
    7234:	14000008 	b	7254 <_<rand_chacha::chacha::ChaCha12Core as rand_core::block::BlockRngCore>::generate+0x4f14>
    7238:	f9468fe8 	ldr	x8, [sp, #3352]
    723c:	f930f3e0 	str	x0, [sp, #25056]
    7240:	aa0103e9 	mov	x9, x1
    7244:	b90c2909 	str	w9, [x8, #3112]
    7248:	39707d08 	ldrb	w8, [x8, #3103]
    724c:	370006a8 	tbnz	w8, #0, 7320 <_<rand_chacha::chacha::ChaCha12Core as rand_core::block::BlockRngCore>::generate+0x4fe0>
    7250:	1400002e 	b	7308 <_<rand_chacha::chacha::ChaCha12Core as rand_core::block::BlockRngCore>::generate+0x4fc8>
    7254:	f9468fe8 	ldr	x8, [sp, #3352]
    7258:	39307d1f 	strb	wzr, [x8, #3103]
    725c:	3dc2e100 	ldr	q0, [x8, #2944]
    7260:	91401be0 	add	x0, sp, #0x6, lsl #12
    7264:	91060000 	add	x0, x0, #0x180
    7268:	3d82f100 	str	q0, [x8, #3008]
    726c:	91401be8 	add	x8, sp, #0x6, lsl #12
    7270:	9105c108 	add	x8, x8, #0x170
    7274:	90000001 	adrp	x1, d420 <l_alloc_eb8937521ab56b1815db886b021bd11a>
    7278:	91000021 	add	x1, x1, #0x0
    727c:	94000000 	bl	0 <_<T as core::convert::Into<U>>::into>
    7280:	14000001 	b	7284 <_<rand_chacha::chacha::ChaCha12Core as rand_core::block::BlockRngCore>::generate+0x4f44>
    7284:	f9468fe8 	ldr	x8, [sp, #3352]
    7288:	3dc2e900 	ldr	q0, [x8, #2976]
    728c:	3d82f500 	str	q0, [x8, #3024]
    7290:	f970cbeb 	ldr	x11, [sp, #24976]
    7294:	d2800009 	mov	x9, #0x0                   	// #0
    7298:	f93127eb 	str	x11, [sp, #25160]
    729c:	f970cfea 	ldr	x10, [sp, #24984]
    72a0:	f93123ea 	str	x10, [sp, #25152]
    72a4:	aa090161 	orr	x1, x11, x9
    72a8:	aa0a0122 	orr	x2, x9, x10
    72ac:	4e081c20 	mov	v0.d[0], x1
    72b0:	4e181c40 	mov	v0.d[1], x2
    72b4:	3d830d00 	str	q0, [x8, #3120]
    72b8:	3dc2ed00 	ldr	q0, [x8, #2992]
    72bc:	3d82f900 	str	q0, [x8, #3040]
    72c0:	f970d3eb 	ldr	x11, [sp, #24992]
    72c4:	f9312feb 	str	x11, [sp, #25176]
    72c8:	f970d7ea 	ldr	x10, [sp, #25000]
    72cc:	f9312bea 	str	x10, [sp, #25168]
    72d0:	aa090163 	orr	x3, x11, x9
    72d4:	aa0a0124 	orr	x4, x9, x10
    72d8:	4e081c60 	mov	v0.d[0], x3
    72dc:	4e181c80 	mov	v0.d[1], x4
    72e0:	3d831100 	str	q0, [x8, #3136]
    72e4:	91401be0 	add	x0, sp, #0x6, lsl #12
    72e8:	91057c00 	add	x0, x0, #0x15f
    72ec:	94000000 	bl	0 <_<ppv_lite86::generic::u32x4_generic as core::ops::bit::BitXor>::bitxor::{{closure}}>
    72f0:	f9033be0 	str	x0, [sp, #1648]
    72f4:	f9033fe1 	str	x1, [sp, #1656]
    72f8:	4e081c00 	mov	v0.d[0], x0
    72fc:	4e181c20 	mov	v0.d[1], x1
    7300:	3d81a3e0 	str	q0, [sp, #1664]
    7304:	14000008 	b	7324 <_<rand_chacha::chacha::ChaCha12Core as rand_core::block::BlockRngCore>::generate+0x4fe4>
    7308:	f9468fe8 	ldr	x8, [sp, #3352]
    730c:	f970f3e9 	ldr	x9, [sp, #25056]
    7310:	f90333e9 	str	x9, [sp, #1632]
    7314:	b94c2908 	ldr	w8, [x8, #3112]
    7318:	b9066fe8 	str	w8, [sp, #1644]
    731c:	14000016 	b	7374 <_<rand_chacha::chacha::ChaCha12Core as rand_core::block::BlockRngCore>::generate+0x5034>
    7320:	17fffffa 	b	7308 <_<rand_chacha::chacha::ChaCha12Core as rand_core::block::BlockRngCore>::generate+0x4fc8>
    7324:	f946b7e8 	ldr	x8, [sp, #3432]
    7328:	f9468fe9 	ldr	x9, [sp, #3352]
    732c:	f9433fea 	ldr	x10, [sp, #1656]
    7330:	f9433beb 	ldr	x11, [sp, #1648]
    7334:	3dc1a3e0 	ldr	q0, [sp, #1664]
    7338:	3d831920 	str	q0, [x9, #3168]
    733c:	f930e7eb 	str	x11, [sp, #25032]
    7340:	f930ebea 	str	x10, [sp, #25040]
    7344:	91401bea 	add	x10, sp, #0x6, lsl #12
    7348:	9103254a 	add	x10, x10, #0xc9
    734c:	3ccff140 	ldur	q0, [x10, #255]
    7350:	3d82fd20 	str	q0, [x9, #3056]
    7354:	3dc2fd20 	ldr	q0, [x9, #3056]
    7358:	3d831520 	str	q0, [x9, #3152]
    735c:	3dc31520 	ldr	q0, [x9, #3152]
    7360:	3d831d20 	str	q0, [x9, #3184]
    7364:	3dc31d20 	ldr	q0, [x9, #3184]
    7368:	3d860d00 	str	q0, [x8, #6192]
    736c:	14000007 	b	7388 <_<rand_chacha::chacha::ChaCha12Core as rand_core::block::BlockRngCore>::generate+0x5048>
    7370:	17ffff95 	b	71c4 <_<rand_chacha::chacha::ChaCha12Core as rand_core::block::BlockRngCore>::generate+0x4e84>
    7374:	b9466fe8 	ldr	w8, [sp, #1644]
    7378:	f94333e9 	ldr	x9, [sp, #1632]
    737c:	f91dbbe9 	str	x9, [sp, #15216]
    7380:	b93b7be8 	str	w8, [sp, #15224]
    7384:	17fffffb 	b	7370 <_<rand_chacha::chacha::ChaCha12Core as rand_core::block::BlockRngCore>::generate+0x5030>
    7388:	f9468fe9 	ldr	x9, [sp, #3352]
    738c:	f946b7e8 	ldr	x8, [sp, #3432]
    7390:	3dc20d00 	ldr	q0, [x8, #2096]
    7394:	3d828920 	str	q0, [x9, #2592]
    7398:	3dc21d00 	ldr	q0, [x8, #2160]
    739c:	3d828520 	str	q0, [x9, #2576]
    73a0:	3dc28920 	ldr	q0, [x9, #2592]
    73a4:	914017e0 	add	x0, sp, #0x5, lsl #12
    73a8:	913f0000 	add	x0, x0, #0xfc0
    73ac:	3d828120 	str	q0, [x9, #2560]
    73b0:	3dc28520 	ldr	q0, [x9, #2576]
    73b4:	3d828d20 	str	q0, [x9, #2608]
    73b8:	392b3d3f 	strb	wzr, [x9, #2767]
    73bc:	52800028 	mov	w8, #0x1                   	// #1
    73c0:	392b3d28 	strb	w8, [x9, #2767]
    73c4:	91401be8 	add	x8, sp, #0x6, lsl #12
    73c8:	91004108 	add	x8, x8, #0x10
    73cc:	90000001 	adrp	x1, d408 <l_alloc_d6cd646a032ab5661bff8aa78f551e65>
    73d0:	91000021 	add	x1, x1, #0x0
    73d4:	94000000 	bl	0 <_<T as core::convert::Into<U>>::into>
    73d8:	14000008 	b	73f8 <_<rand_chacha::chacha::ChaCha12Core as rand_core::block::BlockRngCore>::generate+0x50b8>
    73dc:	f9468fe8 	ldr	x8, [sp, #3352]
    73e0:	f9304be0 	str	x0, [sp, #24720]
    73e4:	aa0103e9 	mov	x9, x1
    73e8:	b90ad909 	str	w9, [x8, #2776]
    73ec:	396b3d08 	ldrb	w8, [x8, #2767]
    73f0:	370006a8 	tbnz	w8, #0, 74c4 <_<rand_chacha::chacha::ChaCha12Core as rand_core::block::BlockRngCore>::generate+0x5184>
    73f4:	1400002e 	b	74ac <_<rand_chacha::chacha::ChaCha12Core as rand_core::block::BlockRngCore>::generate+0x516c>
    73f8:	f9468fe8 	ldr	x8, [sp, #3352]
    73fc:	392b3d1f 	strb	wzr, [x8, #2767]
    7400:	3dc28d00 	ldr	q0, [x8, #2608]
    7404:	91401be0 	add	x0, sp, #0x6, lsl #12
    7408:	9100c000 	add	x0, x0, #0x30
    740c:	3d829d00 	str	q0, [x8, #2672]
    7410:	91401be8 	add	x8, sp, #0x6, lsl #12
    7414:	91008108 	add	x8, x8, #0x20
    7418:	90000001 	adrp	x1, d420 <l_alloc_eb8937521ab56b1815db886b021bd11a>
    741c:	91000021 	add	x1, x1, #0x0
    7420:	94000000 	bl	0 <_<T as core::convert::Into<U>>::into>
    7424:	14000001 	b	7428 <_<rand_chacha::chacha::ChaCha12Core as rand_core::block::BlockRngCore>::generate+0x50e8>
    7428:	f9468fe8 	ldr	x8, [sp, #3352]
    742c:	3dc29500 	ldr	q0, [x8, #2640]
    7430:	3d82a100 	str	q0, [x8, #2688]
    7434:	f97023eb 	ldr	x11, [sp, #24640]
    7438:	d2800009 	mov	x9, #0x0                   	// #0
    743c:	f9307feb 	str	x11, [sp, #24824]
    7440:	f97027ea 	ldr	x10, [sp, #24648]
    7444:	f9307bea 	str	x10, [sp, #24816]
    7448:	aa090161 	orr	x1, x11, x9
    744c:	aa0a0122 	orr	x2, x9, x10
    7450:	4e081c20 	mov	v0.d[0], x1
    7454:	4e181c40 	mov	v0.d[1], x2
    7458:	3d82b900 	str	q0, [x8, #2784]
    745c:	3dc29900 	ldr	q0, [x8, #2656]
    7460:	3d82a500 	str	q0, [x8, #2704]
    7464:	f9702beb 	ldr	x11, [sp, #24656]
    7468:	f93087eb 	str	x11, [sp, #24840]
    746c:	f9702fea 	ldr	x10, [sp, #24664]
    7470:	f93083ea 	str	x10, [sp, #24832]
    7474:	aa090163 	orr	x3, x11, x9
    7478:	aa0a0124 	orr	x4, x9, x10
    747c:	4e081c60 	mov	v0.d[0], x3
    7480:	4e181c80 	mov	v0.d[1], x4
    7484:	3d82bd00 	str	q0, [x8, #2800]
    7488:	91401be0 	add	x0, sp, #0x6, lsl #12
    748c:	91003c00 	add	x0, x0, #0xf
    7490:	94000000 	bl	0 <_<ppv_lite86::generic::u32x4_generic as core::ops::bit::BitXor>::bitxor::{{closure}}>
    7494:	f90323e0 	str	x0, [sp, #1600]
    7498:	f90327e1 	str	x1, [sp, #1608]
    749c:	4e081c00 	mov	v0.d[0], x0
    74a0:	4e181c20 	mov	v0.d[1], x1
    74a4:	3d8197e0 	str	q0, [sp, #1616]
    74a8:	14000008 	b	74c8 <_<rand_chacha::chacha::ChaCha12Core as rand_core::block::BlockRngCore>::generate+0x5188>
    74ac:	f9468fe8 	ldr	x8, [sp, #3352]
    74b0:	f9704be9 	ldr	x9, [sp, #24720]
    74b4:	f9031be9 	str	x9, [sp, #1584]
    74b8:	b94ad908 	ldr	w8, [x8, #2776]
    74bc:	b9063fe8 	str	w8, [sp, #1596]
    74c0:	14000015 	b	7514 <_<rand_chacha::chacha::ChaCha12Core as rand_core::block::BlockRngCore>::generate+0x51d4>
    74c4:	17fffffa 	b	74ac <_<rand_chacha::chacha::ChaCha12Core as rand_core::block::BlockRngCore>::generate+0x516c>
    74c8:	f946b7e8 	ldr	x8, [sp, #3432]
    74cc:	f9468fe9 	ldr	x9, [sp, #3352]
    74d0:	f94327ea 	ldr	x10, [sp, #1608]
    74d4:	f94323eb 	ldr	x11, [sp, #1600]
    74d8:	3dc197e0 	ldr	q0, [sp, #1616]
    74dc:	3d82c520 	str	q0, [x9, #2832]
    74e0:	f9303feb 	str	x11, [sp, #24696]
    74e4:	f93043ea 	str	x10, [sp, #24704]
    74e8:	914017ea 	add	x10, sp, #0x5, lsl #12
    74ec:	913de54a 	add	x10, x10, #0xf79
    74f0:	3ccff140 	ldur	q0, [x10, #255]
    74f4:	3d82a920 	str	q0, [x9, #2720]
    74f8:	3dc2a920 	ldr	q0, [x9, #2720]
    74fc:	3d82c120 	str	q0, [x9, #2816]
    7500:	3dc2c120 	ldr	q0, [x9, #2816]
    7504:	3d82c920 	str	q0, [x9, #2848]
    7508:	3dc2c920 	ldr	q0, [x9, #2848]
    750c:	3d861100 	str	q0, [x8, #6208]
    7510:	14000006 	b	7528 <_<rand_chacha::chacha::ChaCha12Core as rand_core::block::BlockRngCore>::generate+0x51e8>
    7514:	b9463fe8 	ldr	w8, [sp, #1596]
    7518:	f9431be9 	ldr	x9, [sp, #1584]
    751c:	f91dbbe9 	str	x9, [sp, #15216]
    7520:	b93b7be8 	str	w8, [sp, #15224]
    7524:	17ffff93 	b	7370 <_<rand_chacha::chacha::ChaCha12Core as rand_core::block::BlockRngCore>::generate+0x5030>
    7528:	f946b7e8 	ldr	x8, [sp, #3432]
    752c:	3dc60500 	ldr	q0, [x8, #6160]
    7530:	91400fe1 	add	x1, sp, #0x3, lsl #12
    7534:	912bc021 	add	x1, x1, #0xaf0
    7538:	3d85f500 	str	q0, [x8, #6096]
    753c:	3dc60900 	ldr	q0, [x8, #6176]
    7540:	3d85f900 	str	q0, [x8, #6112]
    7544:	3dc60d00 	ldr	q0, [x8, #6192]
    7548:	3d85fd00 	str	q0, [x8, #6128]
    754c:	3dc61100 	ldr	q0, [x8, #6208]
    7550:	3d860100 	str	q0, [x8, #6144]
    7554:	91400be0 	add	x0, sp, #0x2, lsl #12
    7558:	912b8000 	add	x0, x0, #0xae0
    755c:	52800808 	mov	w8, #0x40                  	// #64
    7560:	aa0803e2 	mov	x2, x8
    7564:	94000000 	bl	0 <_memcpy>
    7568:	f946b7e9 	ldr	x9, [sp, #3432]
    756c:	f94687e8 	ldr	x8, [sp, #3336]
    7570:	3dc1f120 	ldr	q0, [x9, #1984]
    7574:	3d8d9900 	str	q0, [x8, #13920]
    7578:	3dcd9900 	ldr	q0, [x8, #13920]
    757c:	914027e0 	add	x0, sp, #0x9, lsl #12
    7580:	91348000 	add	x0, x0, #0xd20
    7584:	3d8d9500 	str	q0, [x8, #13904]
    7588:	914027e8 	add	x8, sp, #0x9, lsl #12
    758c:	91354108 	add	x8, x8, #0xd50
    7590:	90000001 	adrp	x1, d3d8 <l_alloc_345ce69d67e2022250dbe2d202815e5b>
    7594:	91000021 	add	x1, x1, #0x0
    7598:	94000000 	bl	0 <_<T as core::convert::Into<U>>::into>
    759c:	14000008 	b	75bc <_<rand_chacha::chacha::ChaCha12Core as rand_core::block::BlockRngCore>::generate+0x527c>
    75a0:	f94687e8 	ldr	x8, [sp, #3336]
    75a4:	f91b6100 	str	x0, [x8, #14016]
    75a8:	aa0103e9 	mov	x9, x1
    75ac:	b936c909 	str	w9, [x8, #14024]
    75b0:	f95b6108 	ldr	x8, [x8, #14016]
    75b4:	f90677e8 	str	x8, [sp, #3304]
    75b8:	140012fb 	b	c1a4 <_<rand_chacha::chacha::ChaCha12Core as rand_core::block::BlockRngCore>::generate+0x9e64>
    75bc:	f94687e8 	ldr	x8, [sp, #3336]
    75c0:	3dcda100 	ldr	q0, [x8, #13952]
    75c4:	3d8da500 	str	q0, [x8, #13968]
    75c8:	b9769101 	ldr	w1, [x8, #13968]
    75cc:	914027e0 	add	x0, sp, #0x9, lsl #12
    75d0:	91353c00 	add	x0, x0, #0xd4f
    75d4:	94000000 	bl	0 <_<ppv_lite86::generic::u32x4_generic as ppv_lite86::types::RotateEachWord32>::rotate_each_word_right16::{{closure}}>
    75d8:	b9062fe0 	str	w0, [sp, #1580]
    75dc:	14000001 	b	75e0 <_<rand_chacha::chacha::ChaCha12Core as rand_core::block::BlockRngCore>::generate+0x52a0>
    75e0:	f94687e8 	ldr	x8, [sp, #3336]
    75e4:	b9769501 	ldr	w1, [x8, #13972]
    75e8:	914027e0 	add	x0, sp, #0x9, lsl #12
    75ec:	91353c00 	add	x0, x0, #0xd4f
    75f0:	94000000 	bl	0 <_<ppv_lite86::generic::u32x4_generic as ppv_lite86::types::RotateEachWord32>::rotate_each_word_right16::{{closure}}>
    75f4:	b9062be0 	str	w0, [sp, #1576]
    75f8:	14000001 	b	75fc <_<rand_chacha::chacha::ChaCha12Core as rand_core::block::BlockRngCore>::generate+0x52bc>
    75fc:	f94687e8 	ldr	x8, [sp, #3336]
    7600:	b9769901 	ldr	w1, [x8, #13976]
    7604:	914027e0 	add	x0, sp, #0x9, lsl #12
    7608:	91353c00 	add	x0, x0, #0xd4f
    760c:	94000000 	bl	0 <_<ppv_lite86::generic::u32x4_generic as ppv_lite86::types::RotateEachWord32>::rotate_each_word_right16::{{closure}}>
    7610:	b90627e0 	str	w0, [sp, #1572]
    7614:	14000001 	b	7618 <_<rand_chacha::chacha::ChaCha12Core as rand_core::block::BlockRngCore>::generate+0x52d8>
    7618:	f94687e8 	ldr	x8, [sp, #3336]
    761c:	b9769d01 	ldr	w1, [x8, #13980]
    7620:	914027e0 	add	x0, sp, #0x9, lsl #12
    7624:	91353c00 	add	x0, x0, #0xd4f
    7628:	94000000 	bl	0 <_<ppv_lite86::generic::u32x4_generic as ppv_lite86::types::RotateEachWord32>::rotate_each_word_right16::{{closure}}>
    762c:	b90623e0 	str	w0, [sp, #1568]
    7630:	14000001 	b	7634 <_<rand_chacha::chacha::ChaCha12Core as rand_core::block::BlockRngCore>::generate+0x52f4>
    7634:	f94687e8 	ldr	x8, [sp, #3336]
    7638:	f946b7e9 	ldr	x9, [sp, #3432]
    763c:	b94623ea 	ldr	w10, [sp, #1568]
    7640:	b94627eb 	ldr	w11, [sp, #1572]
    7644:	b9462bec 	ldr	w12, [sp, #1576]
    7648:	b9462fed 	ldr	w13, [sp, #1580]
    764c:	b936b10d 	str	w13, [x8, #14000]
    7650:	b936b50c 	str	w12, [x8, #14004]
    7654:	b936b90b 	str	w11, [x8, #14008]
    7658:	b936bd0a 	str	w10, [x8, #14012]
    765c:	3dcdad00 	ldr	q0, [x8, #14000]
    7660:	3d8da900 	str	q0, [x8, #13984]
    7664:	3dcda900 	ldr	q0, [x8, #13984]
    7668:	3d8db500 	str	q0, [x8, #14032]
    766c:	3dcdb500 	ldr	q0, [x8, #14032]
    7670:	3d8db900 	str	q0, [x8, #14048]
    7674:	3dcdb900 	ldr	q0, [x8, #14048]
    7678:	3d8acd00 	str	q0, [x8, #11056]
    767c:	3dc1f520 	ldr	q0, [x9, #2000]
    7680:	3d8d7100 	str	q0, [x8, #13760]
    7684:	3dcd7100 	ldr	q0, [x8, #13760]
    7688:	914027e0 	add	x0, sp, #0x9, lsl #12
    768c:	91320000 	add	x0, x0, #0xc80
    7690:	3d8d6d00 	str	q0, [x8, #13744]
    7694:	914027e8 	add	x8, sp, #0x9, lsl #12
    7698:	9132c108 	add	x8, x8, #0xcb0
    769c:	90000001 	adrp	x1, d3d8 <l_alloc_345ce69d67e2022250dbe2d202815e5b>
    76a0:	91000021 	add	x1, x1, #0x0
    76a4:	94000000 	bl	0 <_<T as core::convert::Into<U>>::into>
    76a8:	14000008 	b	76c8 <_<rand_chacha::chacha::ChaCha12Core as rand_core::block::BlockRngCore>::generate+0x5388>
    76ac:	f94687e8 	ldr	x8, [sp, #3336]
    76b0:	f91b1100 	str	x0, [x8, #13856]
    76b4:	aa0103e9 	mov	x9, x1
    76b8:	b9362909 	str	w9, [x8, #13864]
    76bc:	f95b1108 	ldr	x8, [x8, #13856]
    76c0:	f90677e8 	str	x8, [sp, #3304]
    76c4:	140012b8 	b	c1a4 <_<rand_chacha::chacha::ChaCha12Core as rand_core::block::BlockRngCore>::generate+0x9e64>
    76c8:	f94687e8 	ldr	x8, [sp, #3336]
    76cc:	3dcd7900 	ldr	q0, [x8, #13792]
    76d0:	3d8d7d00 	str	q0, [x8, #13808]
    76d4:	b975f101 	ldr	w1, [x8, #13808]
    76d8:	914027e0 	add	x0, sp, #0x9, lsl #12
    76dc:	9132bc00 	add	x0, x0, #0xcaf
    76e0:	94000000 	bl	0 <_<ppv_lite86::generic::u32x4_generic as ppv_lite86::types::RotateEachWord32>::rotate_each_word_right16::{{closure}}>
    76e4:	b9061fe0 	str	w0, [sp, #1564]
    76e8:	14000001 	b	76ec <_<rand_chacha::chacha::ChaCha12Core as rand_core::block::BlockRngCore>::generate+0x53ac>
    76ec:	f94687e8 	ldr	x8, [sp, #3336]
    76f0:	b975f501 	ldr	w1, [x8, #13812]
    76f4:	914027e0 	add	x0, sp, #0x9, lsl #12
    76f8:	9132bc00 	add	x0, x0, #0xcaf
    76fc:	94000000 	bl	0 <_<ppv_lite86::generic::u32x4_generic as ppv_lite86::types::RotateEachWord32>::rotate_each_word_right16::{{closure}}>
    7700:	b9061be0 	str	w0, [sp, #1560]
    7704:	14000001 	b	7708 <_<rand_chacha::chacha::ChaCha12Core as rand_core::block::BlockRngCore>::generate+0x53c8>
    7708:	f94687e8 	ldr	x8, [sp, #3336]
    770c:	b975f901 	ldr	w1, [x8, #13816]
    7710:	914027e0 	add	x0, sp, #0x9, lsl #12
    7714:	9132bc00 	add	x0, x0, #0xcaf
    7718:	94000000 	bl	0 <_<ppv_lite86::generic::u32x4_generic as ppv_lite86::types::RotateEachWord32>::rotate_each_word_right16::{{closure}}>
    771c:	b90617e0 	str	w0, [sp, #1556]
    7720:	14000001 	b	7724 <_<rand_chacha::chacha::ChaCha12Core as rand_core::block::BlockRngCore>::generate+0x53e4>
    7724:	f94687e8 	ldr	x8, [sp, #3336]
    7728:	b975fd01 	ldr	w1, [x8, #13820]
    772c:	914027e0 	add	x0, sp, #0x9, lsl #12
    7730:	9132bc00 	add	x0, x0, #0xcaf
    7734:	94000000 	bl	0 <_<ppv_lite86::generic::u32x4_generic as ppv_lite86::types::RotateEachWord32>::rotate_each_word_right16::{{closure}}>
    7738:	b90613e0 	str	w0, [sp, #1552]
    773c:	14000001 	b	7740 <_<rand_chacha::chacha::ChaCha12Core as rand_core::block::BlockRngCore>::generate+0x5400>
    7740:	f94687e8 	ldr	x8, [sp, #3336]
    7744:	f946b7e9 	ldr	x9, [sp, #3432]
    7748:	b94613ea 	ldr	w10, [sp, #1552]
    774c:	b94617eb 	ldr	w11, [sp, #1556]
    7750:	b9461bec 	ldr	w12, [sp, #1560]
    7754:	b9461fed 	ldr	w13, [sp, #1564]
    7758:	b936110d 	str	w13, [x8, #13840]
    775c:	b936150c 	str	w12, [x8, #13844]
    7760:	b936190b 	str	w11, [x8, #13848]
    7764:	b9361d0a 	str	w10, [x8, #13852]
    7768:	3dcd8500 	ldr	q0, [x8, #13840]
    776c:	3d8d8100 	str	q0, [x8, #13824]
    7770:	3dcd8100 	ldr	q0, [x8, #13824]
    7774:	3d8d8d00 	str	q0, [x8, #13872]
    7778:	3dcd8d00 	ldr	q0, [x8, #13872]
    777c:	3d8d9100 	str	q0, [x8, #13888]
    7780:	3dcd9100 	ldr	q0, [x8, #13888]
    7784:	3d8ad100 	str	q0, [x8, #11072]
    7788:	3dc1f920 	ldr	q0, [x9, #2016]
    778c:	3d8d4900 	str	q0, [x8, #13600]
    7790:	3dcd4900 	ldr	q0, [x8, #13600]
    7794:	914027e0 	add	x0, sp, #0x9, lsl #12
    7798:	912f8000 	add	x0, x0, #0xbe0
    779c:	3d8d4500 	str	q0, [x8, #13584]
    77a0:	914027e8 	add	x8, sp, #0x9, lsl #12
    77a4:	91304108 	add	x8, x8, #0xc10
    77a8:	90000001 	adrp	x1, d3d8 <l_alloc_345ce69d67e2022250dbe2d202815e5b>
    77ac:	91000021 	add	x1, x1, #0x0
    77b0:	94000000 	bl	0 <_<T as core::convert::Into<U>>::into>
    77b4:	14000008 	b	77d4 <_<rand_chacha::chacha::ChaCha12Core as rand_core::block::BlockRngCore>::generate+0x5494>
    77b8:	f94687e8 	ldr	x8, [sp, #3336]
    77bc:	f91ac100 	str	x0, [x8, #13696]
    77c0:	aa0103e9 	mov	x9, x1
    77c4:	b9358909 	str	w9, [x8, #13704]
    77c8:	f95ac108 	ldr	x8, [x8, #13696]
    77cc:	f90677e8 	str	x8, [sp, #3304]
    77d0:	14001275 	b	c1a4 <_<rand_chacha::chacha::ChaCha12Core as rand_core::block::BlockRngCore>::generate+0x9e64>
    77d4:	f94687e8 	ldr	x8, [sp, #3336]
    77d8:	3dcd5100 	ldr	q0, [x8, #13632]
    77dc:	3d8d5500 	str	q0, [x8, #13648]
    77e0:	b9755101 	ldr	w1, [x8, #13648]
    77e4:	914027e0 	add	x0, sp, #0x9, lsl #12
    77e8:	91303c00 	add	x0, x0, #0xc0f
    77ec:	94000000 	bl	0 <_<ppv_lite86::generic::u32x4_generic as ppv_lite86::types::RotateEachWord32>::rotate_each_word_right16::{{closure}}>
    77f0:	b9060fe0 	str	w0, [sp, #1548]
    77f4:	14000001 	b	77f8 <_<rand_chacha::chacha::ChaCha12Core as rand_core::block::BlockRngCore>::generate+0x54b8>
    77f8:	f94687e8 	ldr	x8, [sp, #3336]
    77fc:	b9755501 	ldr	w1, [x8, #13652]
    7800:	914027e0 	add	x0, sp, #0x9, lsl #12
    7804:	91303c00 	add	x0, x0, #0xc0f
    7808:	94000000 	bl	0 <_<ppv_lite86::generic::u32x4_generic as ppv_lite86::types::RotateEachWord32>::rotate_each_word_right16::{{closure}}>
    780c:	b9060be0 	str	w0, [sp, #1544]
    7810:	14000001 	b	7814 <_<rand_chacha::chacha::ChaCha12Core as rand_core::block::BlockRngCore>::generate+0x54d4>
    7814:	f94687e8 	ldr	x8, [sp, #3336]
    7818:	b9755901 	ldr	w1, [x8, #13656]
    781c:	914027e0 	add	x0, sp, #0x9, lsl #12
    7820:	91303c00 	add	x0, x0, #0xc0f
    7824:	94000000 	bl	0 <_<ppv_lite86::generic::u32x4_generic as ppv_lite86::types::RotateEachWord32>::rotate_each_word_right16::{{closure}}>
    7828:	b90607e0 	str	w0, [sp, #1540]
    782c:	14000001 	b	7830 <_<rand_chacha::chacha::ChaCha12Core as rand_core::block::BlockRngCore>::generate+0x54f0>
    7830:	f94687e8 	ldr	x8, [sp, #3336]
    7834:	b9755d01 	ldr	w1, [x8, #13660]
    7838:	914027e0 	add	x0, sp, #0x9, lsl #12
    783c:	91303c00 	add	x0, x0, #0xc0f
    7840:	94000000 	bl	0 <_<ppv_lite86::generic::u32x4_generic as ppv_lite86::types::RotateEachWord32>::rotate_each_word_right16::{{closure}}>
    7844:	b90603e0 	str	w0, [sp, #1536]
    7848:	14000001 	b	784c <_<rand_chacha::chacha::ChaCha12Core as rand_core::block::BlockRngCore>::generate+0x550c>
    784c:	f94687e8 	ldr	x8, [sp, #3336]
    7850:	f946b7e9 	ldr	x9, [sp, #3432]
    7854:	b94603ea 	ldr	w10, [sp, #1536]
    7858:	b94607eb 	ldr	w11, [sp, #1540]
    785c:	b9460bec 	ldr	w12, [sp, #1544]
    7860:	b9460fed 	ldr	w13, [sp, #1548]
    7864:	b935710d 	str	w13, [x8, #13680]
    7868:	b935750c 	str	w12, [x8, #13684]
    786c:	b935790b 	str	w11, [x8, #13688]
    7870:	b9357d0a 	str	w10, [x8, #13692]
    7874:	3dcd5d00 	ldr	q0, [x8, #13680]
    7878:	3d8d5900 	str	q0, [x8, #13664]
    787c:	3dcd5900 	ldr	q0, [x8, #13664]
    7880:	3d8d6500 	str	q0, [x8, #13712]
    7884:	3dcd6500 	ldr	q0, [x8, #13712]
    7888:	3d8d6900 	str	q0, [x8, #13728]
    788c:	3dcd6900 	ldr	q0, [x8, #13728]
    7890:	3d8ad500 	str	q0, [x8, #11088]
    7894:	3dc1fd20 	ldr	q0, [x9, #2032]
    7898:	3d8d2100 	str	q0, [x8, #13440]
    789c:	3dcd2100 	ldr	q0, [x8, #13440]
    78a0:	914027e0 	add	x0, sp, #0x9, lsl #12
    78a4:	912d0000 	add	x0, x0, #0xb40
    78a8:	3d8d1d00 	str	q0, [x8, #13424]
    78ac:	914027e8 	add	x8, sp, #0x9, lsl #12
    78b0:	912dc108 	add	x8, x8, #0xb70
    78b4:	90000001 	adrp	x1, d3d8 <l_alloc_345ce69d67e2022250dbe2d202815e5b>
    78b8:	91000021 	add	x1, x1, #0x0
    78bc:	94000000 	bl	0 <_<T as core::convert::Into<U>>::into>
    78c0:	14000008 	b	78e0 <_<rand_chacha::chacha::ChaCha12Core as rand_core::block::BlockRngCore>::generate+0x55a0>
    78c4:	f94687e8 	ldr	x8, [sp, #3336]
    78c8:	f91a7100 	str	x0, [x8, #13536]
    78cc:	aa0103e9 	mov	x9, x1
    78d0:	b934e909 	str	w9, [x8, #13544]
    78d4:	f95a7108 	ldr	x8, [x8, #13536]
    78d8:	f90677e8 	str	x8, [sp, #3304]
    78dc:	14001232 	b	c1a4 <_<rand_chacha::chacha::ChaCha12Core as rand_core::block::BlockRngCore>::generate+0x9e64>
    78e0:	f94687e8 	ldr	x8, [sp, #3336]
    78e4:	3dcd2900 	ldr	q0, [x8, #13472]
    78e8:	3d8d2d00 	str	q0, [x8, #13488]
    78ec:	b974b101 	ldr	w1, [x8, #13488]
    78f0:	914027e0 	add	x0, sp, #0x9, lsl #12
    78f4:	912dbc00 	add	x0, x0, #0xb6f
    78f8:	94000000 	bl	0 <_<ppv_lite86::generic::u32x4_generic as ppv_lite86::types::RotateEachWord32>::rotate_each_word_right16::{{closure}}>
    78fc:	b905ffe0 	str	w0, [sp, #1532]
    7900:	14000001 	b	7904 <_<rand_chacha::chacha::ChaCha12Core as rand_core::block::BlockRngCore>::generate+0x55c4>
    7904:	f94687e8 	ldr	x8, [sp, #3336]
    7908:	b974b501 	ldr	w1, [x8, #13492]
    790c:	914027e0 	add	x0, sp, #0x9, lsl #12
    7910:	912dbc00 	add	x0, x0, #0xb6f
    7914:	94000000 	bl	0 <_<ppv_lite86::generic::u32x4_generic as ppv_lite86::types::RotateEachWord32>::rotate_each_word_right16::{{closure}}>
    7918:	b905fbe0 	str	w0, [sp, #1528]
    791c:	14000001 	b	7920 <_<rand_chacha::chacha::ChaCha12Core as rand_core::block::BlockRngCore>::generate+0x55e0>
    7920:	f94687e8 	ldr	x8, [sp, #3336]
    7924:	b974b901 	ldr	w1, [x8, #13496]
    7928:	914027e0 	add	x0, sp, #0x9, lsl #12
    792c:	912dbc00 	add	x0, x0, #0xb6f
    7930:	94000000 	bl	0 <_<ppv_lite86::generic::u32x4_generic as ppv_lite86::types::RotateEachWord32>::rotate_each_word_right16::{{closure}}>
    7934:	b905f7e0 	str	w0, [sp, #1524]
    7938:	14000001 	b	793c <_<rand_chacha::chacha::ChaCha12Core as rand_core::block::BlockRngCore>::generate+0x55fc>
    793c:	f94687e8 	ldr	x8, [sp, #3336]
    7940:	b974bd01 	ldr	w1, [x8, #13500]
    7944:	914027e0 	add	x0, sp, #0x9, lsl #12
    7948:	912dbc00 	add	x0, x0, #0xb6f
    794c:	94000000 	bl	0 <_<ppv_lite86::generic::u32x4_generic as ppv_lite86::types::RotateEachWord32>::rotate_each_word_right16::{{closure}}>
    7950:	b905f3e0 	str	w0, [sp, #1520]
    7954:	14000001 	b	7958 <_<rand_chacha::chacha::ChaCha12Core as rand_core::block::BlockRngCore>::generate+0x5618>
    7958:	f94687e8 	ldr	x8, [sp, #3336]
    795c:	b945f3e9 	ldr	w9, [sp, #1520]
    7960:	b945f7ea 	ldr	w10, [sp, #1524]
    7964:	b945fbeb 	ldr	w11, [sp, #1528]
    7968:	b945ffec 	ldr	w12, [sp, #1532]
    796c:	b934d10c 	str	w12, [x8, #13520]
    7970:	b934d50b 	str	w11, [x8, #13524]
    7974:	b934d90a 	str	w10, [x8, #13528]
    7978:	b934dd09 	str	w9, [x8, #13532]
    797c:	3dcd3500 	ldr	q0, [x8, #13520]
    7980:	3d8d3100 	str	q0, [x8, #13504]
    7984:	3dcd3100 	ldr	q0, [x8, #13504]
    7988:	3d8d3d00 	str	q0, [x8, #13552]
    798c:	3dcd3d00 	ldr	q0, [x8, #13552]
    7990:	3d8d4100 	str	q0, [x8, #13568]
    7994:	3dcd4100 	ldr	q0, [x8, #13568]
    7998:	3d8ad900 	str	q0, [x8, #11104]
    799c:	3dcacd00 	ldr	q0, [x8, #11056]
    79a0:	914027e1 	add	x1, sp, #0x9, lsl #12
    79a4:	91070021 	add	x1, x1, #0x1c0
    79a8:	3d8abd00 	str	q0, [x8, #10992]
    79ac:	3dcad100 	ldr	q0, [x8, #11072]
    79b0:	3d8ac100 	str	q0, [x8, #11008]
    79b4:	3dcad500 	ldr	q0, [x8, #11088]
    79b8:	3d8ac500 	str	q0, [x8, #11024]
    79bc:	3dcad900 	ldr	q0, [x8, #11104]
    79c0:	3d8ac900 	str	q0, [x8, #11040]
    79c4:	91400be0 	add	x0, sp, #0x2, lsl #12
    79c8:	912a8000 	add	x0, x0, #0xaa0
    79cc:	f902ebe0 	str	x0, [sp, #1488]
    79d0:	52800808 	mov	w8, #0x40                  	// #64
    79d4:	aa0803e2 	mov	x2, x8
    79d8:	f902f7e2 	str	x2, [sp, #1512]
    79dc:	94000000 	bl	0 <_memcpy>
    79e0:	f942ebe1 	ldr	x1, [sp, #1488]
    79e4:	f942f7e2 	ldr	x2, [sp, #1512]
    79e8:	914007e8 	add	x8, sp, #0x1, lsl #12
    79ec:	91144108 	add	x8, x8, #0x510
    79f0:	f902f3e8 	str	x8, [sp, #1504]
    79f4:	91030100 	add	x0, x8, #0xc0
    79f8:	94000000 	bl	0 <_memcpy>
    79fc:	f942f3e8 	ldr	x8, [sp, #1504]
    7a00:	f942f7e2 	ldr	x2, [sp, #1512]
    7a04:	91020109 	add	x9, x8, #0x80
    7a08:	f902efe9 	str	x9, [sp, #1496]
    7a0c:	91030101 	add	x1, x8, #0xc0
    7a10:	91400be0 	add	x0, sp, #0x2, lsl #12
    7a14:	912e8000 	add	x0, x0, #0xba0
    7a18:	94000000 	bl	0 <_memcpy>
    7a1c:	f942efea 	ldr	x10, [sp, #1496]
    7a20:	f946abe9 	ldr	x9, [sp, #3408]
    7a24:	f946b7eb 	ldr	x11, [sp, #3432]
    7a28:	f94687e8 	ldr	x8, [sp, #3336]
    7a2c:	aa0a03ec 	mov	x12, x10
    7a30:	f93ad7ec 	str	x12, [sp, #30120]
    7a34:	3dc22160 	ldr	q0, [x11, #2176]
    7a38:	3d83a500 	str	q0, [x8, #3728]
    7a3c:	910c03eb 	add	x11, sp, #0x300
    7a40:	f93ffd6a 	str	x10, [x11, #32760]
    7a44:	3dc1e520 	ldr	q0, [x9, #1936]
    7a48:	3d871500 	str	q0, [x8, #7248]
    7a4c:	3dc3a500 	ldr	q0, [x8, #3728]
    7a50:	3d871100 	str	q0, [x8, #7232]
    7a54:	3dc71500 	ldr	q0, [x8, #7248]
    7a58:	914023e0 	add	x0, sp, #0x8, lsl #12
    7a5c:	910c0000 	add	x0, x0, #0x300
    7a60:	3d870d00 	str	q0, [x8, #7216]
    7a64:	3dc71100 	ldr	q0, [x8, #7232]
    7a68:	914023e1 	add	x1, sp, #0x8, lsl #12
    7a6c:	910cc021 	add	x1, x1, #0x330
    7a70:	3d871900 	str	q0, [x8, #7264]
    7a74:	914023e8 	add	x8, sp, #0x8, lsl #12
    7a78:	910ba108 	add	x8, x8, #0x2e8
    7a7c:	94000000 	bl	0 <_ppv_lite86::generic::dmap2>
    7a80:	f946abe9 	ldr	x9, [sp, #3408]
    7a84:	f942f3ea 	ldr	x10, [sp, #1504]
    7a88:	f946b7eb 	ldr	x11, [sp, #3432]
    7a8c:	f94687e8 	ldr	x8, [sp, #3336]
    7a90:	914023ec 	add	x12, sp, #0x8, lsl #12
    7a94:	9107a58c 	add	x12, x12, #0x1e9
    7a98:	3ccff180 	ldur	q0, [x12, #255]
    7a9c:	3d81e520 	str	q0, [x9, #1936]
    7aa0:	9102414a 	add	x10, x10, #0x90
    7aa4:	3dc22560 	ldr	q0, [x11, #2192]
    7aa8:	3d83a900 	str	q0, [x8, #3744]
    7aac:	910a83eb 	add	x11, sp, #0x2a0
    7ab0:	f93ffd6a 	str	x10, [x11, #32760]
    7ab4:	3dc1e920 	ldr	q0, [x9, #1952]
    7ab8:	3d86fd00 	str	q0, [x8, #7152]
    7abc:	3dc3a900 	ldr	q0, [x8, #3744]
    7ac0:	3d86f900 	str	q0, [x8, #7136]
    7ac4:	3dc6fd00 	ldr	q0, [x8, #7152]
    7ac8:	914023e0 	add	x0, sp, #0x8, lsl #12
    7acc:	910a8000 	add	x0, x0, #0x2a0
    7ad0:	3d86f500 	str	q0, [x8, #7120]
    7ad4:	3dc6f900 	ldr	q0, [x8, #7136]
    7ad8:	914023e1 	add	x1, sp, #0x8, lsl #12
    7adc:	910b4021 	add	x1, x1, #0x2d0
    7ae0:	3d870100 	str	q0, [x8, #7168]
    7ae4:	914023e8 	add	x8, sp, #0x8, lsl #12
    7ae8:	910a2108 	add	x8, x8, #0x288
    7aec:	94000000 	bl	0 <_ppv_lite86::generic::dmap2>
    7af0:	f946abe9 	ldr	x9, [sp, #3408]
    7af4:	f942f3ea 	ldr	x10, [sp, #1504]
    7af8:	f946b7eb 	ldr	x11, [sp, #3432]
    7afc:	f94687e8 	ldr	x8, [sp, #3336]
    7b00:	914023ec 	add	x12, sp, #0x8, lsl #12
    7b04:	9106258c 	add	x12, x12, #0x189
    7b08:	3ccff180 	ldur	q0, [x12, #255]
    7b0c:	3d81e920 	str	q0, [x9, #1952]
    7b10:	9102814a 	add	x10, x10, #0xa0
    7b14:	3dc22960 	ldr	q0, [x11, #2208]
    7b18:	3d83ad00 	str	q0, [x8, #3760]
    7b1c:	910903eb 	add	x11, sp, #0x240
    7b20:	f93ffd6a 	str	x10, [x11, #32760]
    7b24:	3dc1ed20 	ldr	q0, [x9, #1968]
    7b28:	3d86e500 	str	q0, [x8, #7056]
    7b2c:	3dc3ad00 	ldr	q0, [x8, #3760]
    7b30:	3d86e100 	str	q0, [x8, #7040]
    7b34:	3dc6e500 	ldr	q0, [x8, #7056]
    7b38:	914023e0 	add	x0, sp, #0x8, lsl #12
    7b3c:	91090000 	add	x0, x0, #0x240
    7b40:	3d86dd00 	str	q0, [x8, #7024]
    7b44:	3dc6e100 	ldr	q0, [x8, #7040]
    7b48:	914023e1 	add	x1, sp, #0x8, lsl #12
    7b4c:	9109c021 	add	x1, x1, #0x270
    7b50:	3d86e900 	str	q0, [x8, #7072]
    7b54:	914023e8 	add	x8, sp, #0x8, lsl #12
    7b58:	9108a108 	add	x8, x8, #0x228
    7b5c:	94000000 	bl	0 <_ppv_lite86::generic::dmap2>
    7b60:	f946abe9 	ldr	x9, [sp, #3408]
    7b64:	f942f3ea 	ldr	x10, [sp, #1504]
    7b68:	f946b7eb 	ldr	x11, [sp, #3432]
    7b6c:	f94687e8 	ldr	x8, [sp, #3336]
    7b70:	914023ec 	add	x12, sp, #0x8, lsl #12
    7b74:	9104a58c 	add	x12, x12, #0x129
    7b78:	3ccff180 	ldur	q0, [x12, #255]
    7b7c:	3d81ed20 	str	q0, [x9, #1968]
    7b80:	9102c14a 	add	x10, x10, #0xb0
    7b84:	3dc22d60 	ldr	q0, [x11, #2224]
    7b88:	3d83b100 	str	q0, [x8, #3776]
    7b8c:	910783eb 	add	x11, sp, #0x1e0
    7b90:	f93ffd6a 	str	x10, [x11, #32760]
    7b94:	3dc1f120 	ldr	q0, [x9, #1984]
    7b98:	3d86cd00 	str	q0, [x8, #6960]
    7b9c:	3dc3b100 	ldr	q0, [x8, #3776]
    7ba0:	3d86c900 	str	q0, [x8, #6944]
    7ba4:	3dc6cd00 	ldr	q0, [x8, #6960]
    7ba8:	914023e0 	add	x0, sp, #0x8, lsl #12
    7bac:	91078000 	add	x0, x0, #0x1e0
    7bb0:	3d86c500 	str	q0, [x8, #6928]
    7bb4:	3dc6c900 	ldr	q0, [x8, #6944]
    7bb8:	914023e1 	add	x1, sp, #0x8, lsl #12
    7bbc:	91084021 	add	x1, x1, #0x210
    7bc0:	3d86d100 	str	q0, [x8, #6976]
    7bc4:	914023e8 	add	x8, sp, #0x8, lsl #12
    7bc8:	91072108 	add	x8, x8, #0x1c8
    7bcc:	94000000 	bl	0 <_ppv_lite86::generic::dmap2>
    7bd0:	f946abe9 	ldr	x9, [sp, #3408]
    7bd4:	f942f3e8 	ldr	x8, [sp, #1504]
    7bd8:	f942f7e2 	ldr	x2, [sp, #1512]
    7bdc:	914023ea 	add	x10, sp, #0x8, lsl #12
    7be0:	9103254a 	add	x10, x10, #0xc9
    7be4:	3ccff140 	ldur	q0, [x10, #255]
    7be8:	3d81f120 	str	q0, [x9, #1984]
    7bec:	91010101 	add	x1, x8, #0x40
    7bf0:	91400be0 	add	x0, sp, #0x2, lsl #12
    7bf4:	91318000 	add	x0, x0, #0xc60
    7bf8:	94000000 	bl	0 <_memcpy>
    7bfc:	f942f3e8 	ldr	x8, [sp, #1504]
    7c00:	f942f7e2 	ldr	x2, [sp, #1512]
    7c04:	91020101 	add	x1, x8, #0x80
    7c08:	91400be0 	add	x0, sp, #0x2, lsl #12
    7c0c:	91328000 	add	x0, x0, #0xca0
    7c10:	94000000 	bl	0 <_memcpy>
    7c14:	f946b7e8 	ldr	x8, [sp, #3432]
    7c18:	f94687e9 	ldr	x9, [sp, #3336]
    7c1c:	3dc25100 	ldr	q0, [x8, #2368]
    7c20:	3d809120 	str	q0, [x9, #576]
    7c24:	3dc26100 	ldr	q0, [x8, #2432]
    7c28:	3d808d20 	str	q0, [x9, #560]
    7c2c:	3dc09120 	ldr	q0, [x9, #576]
    7c30:	91401be0 	add	x0, sp, #0x6, lsl #12
    7c34:	9123c000 	add	x0, x0, #0x8f0
    7c38:	3d808920 	str	q0, [x9, #544]
    7c3c:	3dc08d20 	ldr	q0, [x9, #560]
    7c40:	3d809520 	str	q0, [x9, #592]
    7c44:	390bbd3f 	strb	wzr, [x9, #751]
    7c48:	52800028 	mov	w8, #0x1                   	// #1
    7c4c:	390bbd28 	strb	w8, [x9, #751]
    7c50:	91401be8 	add	x8, sp, #0x6, lsl #12
    7c54:	91250108 	add	x8, x8, #0x940
    7c58:	90000001 	adrp	x1, d408 <l_alloc_d6cd646a032ab5661bff8aa78f551e65>
    7c5c:	91000021 	add	x1, x1, #0x0
    7c60:	94000000 	bl	0 <_<T as core::convert::Into<U>>::into>
    7c64:	14000008 	b	7c84 <_<rand_chacha::chacha::ChaCha12Core as rand_core::block::BlockRngCore>::generate+0x5944>
    7c68:	f94687e8 	ldr	x8, [sp, #3336]
    7c6c:	f934e3e0 	str	x0, [sp, #27072]
    7c70:	aa0103e9 	mov	x9, x1
    7c74:	b902f909 	str	w9, [x8, #760]
    7c78:	394bbd08 	ldrb	w8, [x8, #751]
    7c7c:	37000648 	tbnz	w8, #0, 7d44 <_<rand_chacha::chacha::ChaCha12Core as rand_core::block::BlockRngCore>::generate+0x5a04>
    7c80:	1400002e 	b	7d38 <_<rand_chacha::chacha::ChaCha12Core as rand_core::block::BlockRngCore>::generate+0x59f8>
    7c84:	f94687e8 	ldr	x8, [sp, #3336]
    7c88:	390bbd1f 	strb	wzr, [x8, #751]
    7c8c:	3dc09500 	ldr	q0, [x8, #592]
    7c90:	91401be0 	add	x0, sp, #0x6, lsl #12
    7c94:	91258000 	add	x0, x0, #0x960
    7c98:	3d80a500 	str	q0, [x8, #656]
    7c9c:	91401be8 	add	x8, sp, #0x6, lsl #12
    7ca0:	91254108 	add	x8, x8, #0x950
    7ca4:	90000001 	adrp	x1, d420 <l_alloc_eb8937521ab56b1815db886b021bd11a>
    7ca8:	91000021 	add	x1, x1, #0x0
    7cac:	94000000 	bl	0 <_<T as core::convert::Into<U>>::into>
    7cb0:	14000001 	b	7cb4 <_<rand_chacha::chacha::ChaCha12Core as rand_core::block::BlockRngCore>::generate+0x5974>
    7cb4:	f94687e8 	ldr	x8, [sp, #3336]
    7cb8:	3dc09d00 	ldr	q0, [x8, #624]
    7cbc:	3d80a900 	str	q0, [x8, #672]
    7cc0:	f974bbeb 	ldr	x11, [sp, #26992]
    7cc4:	d2800009 	mov	x9, #0x0                   	// #0
    7cc8:	f93517eb 	str	x11, [sp, #27176]
    7ccc:	f974bfea 	ldr	x10, [sp, #27000]
    7cd0:	f93513ea 	str	x10, [sp, #27168]
    7cd4:	aa090161 	orr	x1, x11, x9
    7cd8:	aa0a0122 	orr	x2, x9, x10
    7cdc:	4e081c20 	mov	v0.d[0], x1
    7ce0:	4e181c40 	mov	v0.d[1], x2
    7ce4:	3d80c100 	str	q0, [x8, #768]
    7ce8:	3dc0a100 	ldr	q0, [x8, #640]
    7cec:	3d80ad00 	str	q0, [x8, #688]
    7cf0:	f974c3eb 	ldr	x11, [sp, #27008]
    7cf4:	f9351feb 	str	x11, [sp, #27192]
    7cf8:	f974c7ea 	ldr	x10, [sp, #27016]
    7cfc:	f9351bea 	str	x10, [sp, #27184]
    7d00:	aa090163 	orr	x3, x11, x9
    7d04:	aa0a0124 	orr	x4, x9, x10
    7d08:	4e081c60 	mov	v0.d[0], x3
    7d0c:	4e181c80 	mov	v0.d[1], x4
    7d10:	3d80c500 	str	q0, [x8, #784]
    7d14:	91401be0 	add	x0, sp, #0x6, lsl #12
    7d18:	9124fc00 	add	x0, x0, #0x93f
    7d1c:	94000000 	bl	0 <_<ppv_lite86::generic::u32x4_generic as core::ops::bit::BitXor>::bitxor::{{closure}}>
    7d20:	f902dbe0 	str	x0, [sp, #1456]
    7d24:	f902dfe1 	str	x1, [sp, #1464]
    7d28:	4e081c00 	mov	v0.d[0], x0
    7d2c:	4e181c20 	mov	v0.d[1], x1
    7d30:	3d8173e0 	str	q0, [sp, #1472]
    7d34:	14000005 	b	7d48 <_<rand_chacha::chacha::ChaCha12Core as rand_core::block::BlockRngCore>::generate+0x5a08>
    7d38:	f974e3e8 	ldr	x8, [sp, #27072]
    7d3c:	f90677e8 	str	x8, [sp, #3304]
    7d40:	14001119 	b	c1a4 <_<rand_chacha::chacha::ChaCha12Core as rand_core::block::BlockRngCore>::generate+0x9e64>
    7d44:	17fffffd 	b	7d38 <_<rand_chacha::chacha::ChaCha12Core as rand_core::block::BlockRngCore>::generate+0x59f8>
    7d48:	f94687e9 	ldr	x9, [sp, #3336]
    7d4c:	f946b7e8 	ldr	x8, [sp, #3432]
    7d50:	f942dfea 	ldr	x10, [sp, #1464]
    7d54:	f942dbeb 	ldr	x11, [sp, #1456]
    7d58:	3dc173e0 	ldr	q0, [sp, #1472]
    7d5c:	3d80cd20 	str	q0, [x9, #816]
    7d60:	f934d7eb 	str	x11, [sp, #27048]
    7d64:	f934dbea 	str	x10, [sp, #27056]
    7d68:	91401bea 	add	x10, sp, #0x6, lsl #12
    7d6c:	9122a54a 	add	x10, x10, #0x8a9
    7d70:	3ccff140 	ldur	q0, [x10, #255]
    7d74:	3d80b120 	str	q0, [x9, #704]
    7d78:	3dc0b120 	ldr	q0, [x9, #704]
    7d7c:	3d80c920 	str	q0, [x9, #800]
    7d80:	3dc0c920 	ldr	q0, [x9, #800]
    7d84:	3d80d120 	str	q0, [x9, #832]
    7d88:	3dc0d120 	ldr	q0, [x9, #832]
    7d8c:	3d85e100 	str	q0, [x8, #6016]
    7d90:	3dc25500 	ldr	q0, [x8, #2384]
    7d94:	3d803d20 	str	q0, [x9, #240]
    7d98:	3dc26500 	ldr	q0, [x8, #2448]
    7d9c:	3d803920 	str	q0, [x9, #224]
    7da0:	3dc03d20 	ldr	q0, [x9, #240]
    7da4:	91401be0 	add	x0, sp, #0x6, lsl #12
    7da8:	911e8000 	add	x0, x0, #0x7a0
    7dac:	3d803520 	str	q0, [x9, #208]
    7db0:	3dc03920 	ldr	q0, [x9, #224]
    7db4:	3d804120 	str	q0, [x9, #256]
    7db8:	39067d3f 	strb	wzr, [x9, #415]
    7dbc:	52800028 	mov	w8, #0x1                   	// #1
    7dc0:	39067d28 	strb	w8, [x9, #415]
    7dc4:	91401be8 	add	x8, sp, #0x6, lsl #12
    7dc8:	911fc108 	add	x8, x8, #0x7f0
    7dcc:	90000001 	adrp	x1, d408 <l_alloc_d6cd646a032ab5661bff8aa78f551e65>
    7dd0:	91000021 	add	x1, x1, #0x0
    7dd4:	94000000 	bl	0 <_<T as core::convert::Into<U>>::into>
    7dd8:	14000008 	b	7df8 <_<rand_chacha::chacha::ChaCha12Core as rand_core::block::BlockRngCore>::generate+0x5ab8>
    7ddc:	f94687e8 	ldr	x8, [sp, #3336]
    7de0:	f9343be0 	str	x0, [sp, #26736]
    7de4:	aa0103e9 	mov	x9, x1
    7de8:	b901a909 	str	w9, [x8, #424]
    7dec:	39467d08 	ldrb	w8, [x8, #415]
    7df0:	370006a8 	tbnz	w8, #0, 7ec4 <_<rand_chacha::chacha::ChaCha12Core as rand_core::block::BlockRngCore>::generate+0x5b84>
    7df4:	1400002e 	b	7eac <_<rand_chacha::chacha::ChaCha12Core as rand_core::block::BlockRngCore>::generate+0x5b6c>
    7df8:	f94687e8 	ldr	x8, [sp, #3336]
    7dfc:	39067d1f 	strb	wzr, [x8, #415]
    7e00:	3dc04100 	ldr	q0, [x8, #256]
    7e04:	91401be0 	add	x0, sp, #0x6, lsl #12
    7e08:	91204000 	add	x0, x0, #0x810
    7e0c:	3d805100 	str	q0, [x8, #320]
    7e10:	91401be8 	add	x8, sp, #0x6, lsl #12
    7e14:	91200108 	add	x8, x8, #0x800
    7e18:	90000001 	adrp	x1, d420 <l_alloc_eb8937521ab56b1815db886b021bd11a>
    7e1c:	91000021 	add	x1, x1, #0x0
    7e20:	94000000 	bl	0 <_<T as core::convert::Into<U>>::into>
    7e24:	14000001 	b	7e28 <_<rand_chacha::chacha::ChaCha12Core as rand_core::block::BlockRngCore>::generate+0x5ae8>
    7e28:	f94687e8 	ldr	x8, [sp, #3336]
    7e2c:	3dc04900 	ldr	q0, [x8, #288]
    7e30:	3d805500 	str	q0, [x8, #336]
    7e34:	f97413eb 	ldr	x11, [sp, #26656]
    7e38:	d2800009 	mov	x9, #0x0                   	// #0
    7e3c:	f9346feb 	str	x11, [sp, #26840]
    7e40:	f97417ea 	ldr	x10, [sp, #26664]
    7e44:	f9346bea 	str	x10, [sp, #26832]
    7e48:	aa090161 	orr	x1, x11, x9
    7e4c:	aa0a0122 	orr	x2, x9, x10
    7e50:	4e081c20 	mov	v0.d[0], x1
    7e54:	4e181c40 	mov	v0.d[1], x2
    7e58:	3d806d00 	str	q0, [x8, #432]
    7e5c:	3dc04d00 	ldr	q0, [x8, #304]
    7e60:	3d805900 	str	q0, [x8, #352]
    7e64:	f9741beb 	ldr	x11, [sp, #26672]
    7e68:	f93477eb 	str	x11, [sp, #26856]
    7e6c:	f9741fea 	ldr	x10, [sp, #26680]
    7e70:	f93473ea 	str	x10, [sp, #26848]
    7e74:	aa090163 	orr	x3, x11, x9
    7e78:	aa0a0124 	orr	x4, x9, x10
    7e7c:	4e081c60 	mov	v0.d[0], x3
    7e80:	4e181c80 	mov	v0.d[1], x4
    7e84:	3d807100 	str	q0, [x8, #448]
    7e88:	91401be0 	add	x0, sp, #0x6, lsl #12
    7e8c:	911fbc00 	add	x0, x0, #0x7ef
    7e90:	94000000 	bl	0 <_<ppv_lite86::generic::u32x4_generic as core::ops::bit::BitXor>::bitxor::{{closure}}>
    7e94:	f902cbe0 	str	x0, [sp, #1424]
    7e98:	f902cfe1 	str	x1, [sp, #1432]
    7e9c:	4e081c00 	mov	v0.d[0], x0
    7ea0:	4e181c20 	mov	v0.d[1], x1
    7ea4:	3d816be0 	str	q0, [sp, #1440]
    7ea8:	14000008 	b	7ec8 <_<rand_chacha::chacha::ChaCha12Core as rand_core::block::BlockRngCore>::generate+0x5b88>
    7eac:	f94687e8 	ldr	x8, [sp, #3336]
    7eb0:	f9743be9 	ldr	x9, [sp, #26736]
    7eb4:	f902c3e9 	str	x9, [sp, #1408]
    7eb8:	b941a908 	ldr	w8, [x8, #424]
    7ebc:	b9058fe8 	str	w8, [sp, #1420]
    7ec0:	14000018 	b	7f20 <_<rand_chacha::chacha::ChaCha12Core as rand_core::block::BlockRngCore>::generate+0x5be0>
    7ec4:	17fffffa 	b	7eac <_<rand_chacha::chacha::ChaCha12Core as rand_core::block::BlockRngCore>::generate+0x5b6c>
    7ec8:	f946b7e8 	ldr	x8, [sp, #3432]
    7ecc:	f94687e9 	ldr	x9, [sp, #3336]
    7ed0:	f942cfea 	ldr	x10, [sp, #1432]
    7ed4:	f942cbeb 	ldr	x11, [sp, #1424]
    7ed8:	3dc16be0 	ldr	q0, [sp, #1440]
    7edc:	3d807920 	str	q0, [x9, #480]
    7ee0:	f9342feb 	str	x11, [sp, #26712]
    7ee4:	f93433ea 	str	x10, [sp, #26720]
    7ee8:	91401bea 	add	x10, sp, #0x6, lsl #12
    7eec:	911d654a 	add	x10, x10, #0x759
    7ef0:	3ccff140 	ldur	q0, [x10, #255]
    7ef4:	3d805d20 	str	q0, [x9, #368]
    7ef8:	3dc05d20 	ldr	q0, [x9, #368]
    7efc:	3d807520 	str	q0, [x9, #464]
    7f00:	3dc07520 	ldr	q0, [x9, #464]
    7f04:	3d807d20 	str	q0, [x9, #496]
    7f08:	3dc07d20 	ldr	q0, [x9, #496]
    7f0c:	3d85e500 	str	q0, [x8, #6032]
    7f10:	14000009 	b	7f34 <_<rand_chacha::chacha::ChaCha12Core as rand_core::block::BlockRngCore>::generate+0x5bf4>
    7f14:	f95d73e8 	ldr	x8, [sp, #15072]
    7f18:	f90677e8 	str	x8, [sp, #3304]
    7f1c:	140010a2 	b	c1a4 <_<rand_chacha::chacha::ChaCha12Core as rand_core::block::BlockRngCore>::generate+0x9e64>
    7f20:	b9458fe8 	ldr	w8, [sp, #1420]
    7f24:	f942c3e9 	ldr	x9, [sp, #1408]
    7f28:	f91d73e9 	str	x9, [sp, #15072]
    7f2c:	b93aebe8 	str	w8, [sp, #15080]
    7f30:	17fffff9 	b	7f14 <_<rand_chacha::chacha::ChaCha12Core as rand_core::block::BlockRngCore>::generate+0x5bd4>
    7f34:	f94687e9 	ldr	x9, [sp, #3336]
    7f38:	f9468be8 	ldr	x8, [sp, #3344]
    7f3c:	f946b7ea 	ldr	x10, [sp, #3432]
    7f40:	3dc25940 	ldr	q0, [x10, #2400]
    7f44:	3c8a1100 	stur	q0, [x8, #161]
    7f48:	3dc26940 	ldr	q0, [x10, #2464]
    7f4c:	3c891100 	stur	q0, [x8, #145]
    7f50:	3cca1100 	ldur	q0, [x8, #161]
    7f54:	91401be0 	add	x0, sp, #0x6, lsl #12
    7f58:	91194000 	add	x0, x0, #0x650
    7f5c:	3c881100 	stur	q0, [x8, #129]
    7f60:	3cc91100 	ldur	q0, [x8, #145]
    7f64:	3c8b1100 	stur	q0, [x8, #177]
    7f68:	39013d3f 	strb	wzr, [x9, #79]
    7f6c:	52800028 	mov	w8, #0x1                   	// #1
    7f70:	39013d28 	strb	w8, [x9, #79]
    7f74:	91401be8 	add	x8, sp, #0x6, lsl #12
    7f78:	911a8108 	add	x8, x8, #0x6a0
    7f7c:	90000001 	adrp	x1, d408 <l_alloc_d6cd646a032ab5661bff8aa78f551e65>
    7f80:	91000021 	add	x1, x1, #0x0
    7f84:	94000000 	bl	0 <_<T as core::convert::Into<U>>::into>
    7f88:	14000008 	b	7fa8 <_<rand_chacha::chacha::ChaCha12Core as rand_core::block::BlockRngCore>::generate+0x5c68>
    7f8c:	f94687e8 	ldr	x8, [sp, #3336]
    7f90:	f93393e0 	str	x0, [sp, #26400]
    7f94:	aa0103e9 	mov	x9, x1
    7f98:	b9005909 	str	w9, [x8, #88]
    7f9c:	39413d08 	ldrb	w8, [x8, #79]
    7fa0:	370006e8 	tbnz	w8, #0, 807c <_<rand_chacha::chacha::ChaCha12Core as rand_core::block::BlockRngCore>::generate+0x5d3c>
    7fa4:	14000030 	b	8064 <_<rand_chacha::chacha::ChaCha12Core as rand_core::block::BlockRngCore>::generate+0x5d24>
    7fa8:	f9468be8 	ldr	x8, [sp, #3344]
    7fac:	f94687e9 	ldr	x9, [sp, #3336]
    7fb0:	39013d3f 	strb	wzr, [x9, #79]
    7fb4:	3ccb1100 	ldur	q0, [x8, #177]
    7fb8:	91401be0 	add	x0, sp, #0x6, lsl #12
    7fbc:	911b0000 	add	x0, x0, #0x6c0
    7fc0:	3c8f1100 	stur	q0, [x8, #241]
    7fc4:	91401be8 	add	x8, sp, #0x6, lsl #12
    7fc8:	911ac108 	add	x8, x8, #0x6b0
    7fcc:	90000001 	adrp	x1, d420 <l_alloc_eb8937521ab56b1815db886b021bd11a>
    7fd0:	91000021 	add	x1, x1, #0x0
    7fd4:	94000000 	bl	0 <_<T as core::convert::Into<U>>::into>
    7fd8:	14000001 	b	7fdc <_<rand_chacha::chacha::ChaCha12Core as rand_core::block::BlockRngCore>::generate+0x5c9c>
    7fdc:	f94687e8 	ldr	x8, [sp, #3336]
    7fe0:	f9468bea 	ldr	x10, [sp, #3344]
    7fe4:	3ccd1140 	ldur	q0, [x10, #209]
    7fe8:	3d800100 	str	q0, [x8]
    7fec:	f9736bec 	ldr	x12, [sp, #26320]
    7ff0:	d2800009 	mov	x9, #0x0                   	// #0
    7ff4:	f933c7ec 	str	x12, [sp, #26504]
    7ff8:	f9736feb 	ldr	x11, [sp, #26328]
    7ffc:	f933c3eb 	str	x11, [sp, #26496]
    8000:	aa090181 	orr	x1, x12, x9
    8004:	aa0b0122 	orr	x2, x9, x11
    8008:	4e081c20 	mov	v0.d[0], x1
    800c:	4e181c40 	mov	v0.d[1], x2
    8010:	3d801900 	str	q0, [x8, #96]
    8014:	3cce1140 	ldur	q0, [x10, #225]
    8018:	3d800500 	str	q0, [x8, #16]
    801c:	f97373eb 	ldr	x11, [sp, #26336]
    8020:	f933cfeb 	str	x11, [sp, #26520]
    8024:	f97377ea 	ldr	x10, [sp, #26344]
    8028:	f933cbea 	str	x10, [sp, #26512]
    802c:	aa090163 	orr	x3, x11, x9
    8030:	aa0a0124 	orr	x4, x9, x10
    8034:	4e081c60 	mov	v0.d[0], x3
    8038:	4e181c80 	mov	v0.d[1], x4
    803c:	3d801d00 	str	q0, [x8, #112]
    8040:	91401be0 	add	x0, sp, #0x6, lsl #12
    8044:	911a7c00 	add	x0, x0, #0x69f
    8048:	94000000 	bl	0 <_<ppv_lite86::generic::u32x4_generic as core::ops::bit::BitXor>::bitxor::{{closure}}>
    804c:	f902b3e0 	str	x0, [sp, #1376]
    8050:	f902b7e1 	str	x1, [sp, #1384]
    8054:	4e081c00 	mov	v0.d[0], x0
    8058:	4e181c20 	mov	v0.d[1], x1
    805c:	3d815fe0 	str	q0, [sp, #1392]
    8060:	14000008 	b	8080 <_<rand_chacha::chacha::ChaCha12Core as rand_core::block::BlockRngCore>::generate+0x5d40>
    8064:	f94687e8 	ldr	x8, [sp, #3336]
    8068:	f97393e9 	ldr	x9, [sp, #26400]
    806c:	f902abe9 	str	x9, [sp, #1360]
    8070:	b9405908 	ldr	w8, [x8, #88]
    8074:	b9055fe8 	str	w8, [sp, #1372]
    8078:	14000016 	b	80d0 <_<rand_chacha::chacha::ChaCha12Core as rand_core::block::BlockRngCore>::generate+0x5d90>
    807c:	17fffffa 	b	8064 <_<rand_chacha::chacha::ChaCha12Core as rand_core::block::BlockRngCore>::generate+0x5d24>
    8080:	f946b7e8 	ldr	x8, [sp, #3432]
    8084:	f94687e9 	ldr	x9, [sp, #3336]
    8088:	f942b7ea 	ldr	x10, [sp, #1384]
    808c:	f942b3eb 	ldr	x11, [sp, #1376]
    8090:	3dc15fe0 	ldr	q0, [sp, #1392]
    8094:	3d802520 	str	q0, [x9, #144]
    8098:	f93387eb 	str	x11, [sp, #26376]
    809c:	f9338bea 	str	x10, [sp, #26384]
    80a0:	91401bea 	add	x10, sp, #0x6, lsl #12
    80a4:	9118254a 	add	x10, x10, #0x609
    80a8:	3ccff140 	ldur	q0, [x10, #255]
    80ac:	3d800920 	str	q0, [x9, #32]
    80b0:	3dc00920 	ldr	q0, [x9, #32]
    80b4:	3d802120 	str	q0, [x9, #128]
    80b8:	3dc02120 	ldr	q0, [x9, #128]
    80bc:	3d802920 	str	q0, [x9, #160]
    80c0:	3dc02920 	ldr	q0, [x9, #160]
    80c4:	3d85e900 	str	q0, [x8, #6048]
    80c8:	14000007 	b	80e4 <_<rand_chacha::chacha::ChaCha12Core as rand_core::block::BlockRngCore>::generate+0x5da4>
    80cc:	17ffff92 	b	7f14 <_<rand_chacha::chacha::ChaCha12Core as rand_core::block::BlockRngCore>::generate+0x5bd4>
    80d0:	b9455fe8 	ldr	w8, [sp, #1372]
    80d4:	f942abe9 	ldr	x9, [sp, #1360]
    80d8:	f91d73e9 	str	x9, [sp, #15072]
    80dc:	b93aebe8 	str	w8, [sp, #15080]
    80e0:	17fffffb 	b	80cc <_<rand_chacha::chacha::ChaCha12Core as rand_core::block::BlockRngCore>::generate+0x5d8c>
    80e4:	f9468be9 	ldr	x9, [sp, #3344]
    80e8:	f9468fe8 	ldr	x8, [sp, #3352]
    80ec:	f946b7ea 	ldr	x10, [sp, #3432]
    80f0:	3dc25d40 	ldr	q0, [x10, #2416]
    80f4:	3d83d900 	str	q0, [x8, #3936]
    80f8:	3dc26d40 	ldr	q0, [x10, #2480]
    80fc:	3d83d500 	str	q0, [x8, #3920]
    8100:	3dc3d900 	ldr	q0, [x8, #3936]
    8104:	91401be0 	add	x0, sp, #0x6, lsl #12
    8108:	91140000 	add	x0, x0, #0x500
    810c:	3d83d100 	str	q0, [x8, #3904]
    8110:	3dc3d500 	ldr	q0, [x8, #3920]
    8114:	3d83dd00 	str	q0, [x8, #3952]
    8118:	3900013f 	strb	wzr, [x9]
    811c:	52800028 	mov	w8, #0x1                   	// #1
    8120:	39000128 	strb	w8, [x9]
    8124:	91401be8 	add	x8, sp, #0x6, lsl #12
    8128:	91154108 	add	x8, x8, #0x550
    812c:	90000001 	adrp	x1, d408 <l_alloc_d6cd646a032ab5661bff8aa78f551e65>
    8130:	91000021 	add	x1, x1, #0x0
    8134:	94000000 	bl	0 <_<T as core::convert::Into<U>>::into>
    8138:	14000008 	b	8158 <_<rand_chacha::chacha::ChaCha12Core as rand_core::block::BlockRngCore>::generate+0x5e18>
    813c:	f9468be8 	ldr	x8, [sp, #3344]
    8140:	f932ebe0 	str	x0, [sp, #26064]
    8144:	aa0103e9 	mov	x9, x1
    8148:	b8009109 	stur	w9, [x8, #9]
    814c:	39400108 	ldrb	w8, [x8]
    8150:	370006e8 	tbnz	w8, #0, 822c <_<rand_chacha::chacha::ChaCha12Core as rand_core::block::BlockRngCore>::generate+0x5eec>
    8154:	14000030 	b	8214 <_<rand_chacha::chacha::ChaCha12Core as rand_core::block::BlockRngCore>::generate+0x5ed4>
    8158:	f9468fe8 	ldr	x8, [sp, #3352]
    815c:	f9468be9 	ldr	x9, [sp, #3344]
    8160:	3900013f 	strb	wzr, [x9]
    8164:	3dc3dd00 	ldr	q0, [x8, #3952]
    8168:	91401be0 	add	x0, sp, #0x6, lsl #12
    816c:	9115c000 	add	x0, x0, #0x570
    8170:	3d83ed00 	str	q0, [x8, #4016]
    8174:	91401be8 	add	x8, sp, #0x6, lsl #12
    8178:	91158108 	add	x8, x8, #0x560
    817c:	90000001 	adrp	x1, d420 <l_alloc_eb8937521ab56b1815db886b021bd11a>
    8180:	91000021 	add	x1, x1, #0x0
    8184:	94000000 	bl	0 <_<T as core::convert::Into<U>>::into>
    8188:	14000001 	b	818c <_<rand_chacha::chacha::ChaCha12Core as rand_core::block::BlockRngCore>::generate+0x5e4c>
    818c:	f9468be8 	ldr	x8, [sp, #3344]
    8190:	f9468fea 	ldr	x10, [sp, #3352]
    8194:	3dc3e540 	ldr	q0, [x10, #3984]
    8198:	3d83f140 	str	q0, [x10, #4032]
    819c:	f972c3ec 	ldr	x12, [sp, #25984]
    81a0:	d2800009 	mov	x9, #0x0                   	// #0
    81a4:	f9331fec 	str	x12, [sp, #26168]
    81a8:	f972c7eb 	ldr	x11, [sp, #25992]
    81ac:	f9331beb 	str	x11, [sp, #26160]
    81b0:	aa090181 	orr	x1, x12, x9
    81b4:	aa0b0122 	orr	x2, x9, x11
    81b8:	4e081c20 	mov	v0.d[0], x1
    81bc:	4e181c40 	mov	v0.d[1], x2
    81c0:	3c811100 	stur	q0, [x8, #17]
    81c4:	3dc3e940 	ldr	q0, [x10, #4000]
    81c8:	3d83f540 	str	q0, [x10, #4048]
    81cc:	f972cbeb 	ldr	x11, [sp, #26000]
    81d0:	f93327eb 	str	x11, [sp, #26184]
    81d4:	f972cfea 	ldr	x10, [sp, #26008]
    81d8:	f93323ea 	str	x10, [sp, #26176]
    81dc:	aa090163 	orr	x3, x11, x9
    81e0:	aa0a0124 	orr	x4, x9, x10
    81e4:	4e081c60 	mov	v0.d[0], x3
    81e8:	4e181c80 	mov	v0.d[1], x4
    81ec:	3c821100 	stur	q0, [x8, #33]
    81f0:	91401be0 	add	x0, sp, #0x6, lsl #12
    81f4:	91153c00 	add	x0, x0, #0x54f
    81f8:	94000000 	bl	0 <_<ppv_lite86::generic::u32x4_generic as core::ops::bit::BitXor>::bitxor::{{closure}}>
    81fc:	f9029be0 	str	x0, [sp, #1328]
    8200:	f9029fe1 	str	x1, [sp, #1336]
    8204:	4e081c00 	mov	v0.d[0], x0
    8208:	4e181c20 	mov	v0.d[1], x1
    820c:	3d8153e0 	str	q0, [sp, #1344]
    8210:	14000008 	b	8230 <_<rand_chacha::chacha::ChaCha12Core as rand_core::block::BlockRngCore>::generate+0x5ef0>
    8214:	f9468be8 	ldr	x8, [sp, #3344]
    8218:	f972ebe9 	ldr	x9, [sp, #26064]
    821c:	f90293e9 	str	x9, [sp, #1312]
    8220:	b8409108 	ldur	w8, [x8, #9]
    8224:	b9052fe8 	str	w8, [sp, #1324]
    8228:	14000016 	b	8280 <_<rand_chacha::chacha::ChaCha12Core as rand_core::block::BlockRngCore>::generate+0x5f40>
    822c:	17fffffa 	b	8214 <_<rand_chacha::chacha::ChaCha12Core as rand_core::block::BlockRngCore>::generate+0x5ed4>
    8230:	f946b7e8 	ldr	x8, [sp, #3432]
    8234:	f9468be9 	ldr	x9, [sp, #3344]
    8238:	f9468fea 	ldr	x10, [sp, #3352]
    823c:	f9429feb 	ldr	x11, [sp, #1336]
    8240:	f9429bec 	ldr	x12, [sp, #1328]
    8244:	3dc153e0 	ldr	q0, [sp, #1344]
    8248:	3c841120 	stur	q0, [x9, #65]
    824c:	f932dfec 	str	x12, [sp, #26040]
    8250:	f932e3eb 	str	x11, [sp, #26048]
    8254:	91401beb 	add	x11, sp, #0x6, lsl #12
    8258:	9112e56b 	add	x11, x11, #0x4b9
    825c:	3ccff160 	ldur	q0, [x11, #255]
    8260:	3d83f940 	str	q0, [x10, #4064]
    8264:	3dc3f940 	ldr	q0, [x10, #4064]
    8268:	3c831120 	stur	q0, [x9, #49]
    826c:	3cc31120 	ldur	q0, [x9, #49]
    8270:	3c851120 	stur	q0, [x9, #81]
    8274:	3cc51120 	ldur	q0, [x9, #81]
    8278:	3d85ed00 	str	q0, [x8, #6064]
    827c:	14000006 	b	8294 <_<rand_chacha::chacha::ChaCha12Core as rand_core::block::BlockRngCore>::generate+0x5f54>
    8280:	b9452fe8 	ldr	w8, [sp, #1324]
    8284:	f94293e9 	ldr	x9, [sp, #1312]
    8288:	f91d73e9 	str	x9, [sp, #15072]
    828c:	b93aebe8 	str	w8, [sp, #15080]
    8290:	17ffff8f 	b	80cc <_<rand_chacha::chacha::ChaCha12Core as rand_core::block::BlockRngCore>::generate+0x5d8c>
    8294:	f946b7e8 	ldr	x8, [sp, #3432]
    8298:	3dc5e100 	ldr	q0, [x8, #6016]
    829c:	91400fe1 	add	x1, sp, #0x3, lsl #12
    82a0:	91298021 	add	x1, x1, #0xa60
    82a4:	3d85d100 	str	q0, [x8, #5952]
    82a8:	3dc5e500 	ldr	q0, [x8, #6032]
    82ac:	3d85d500 	str	q0, [x8, #5968]
    82b0:	3dc5e900 	ldr	q0, [x8, #6048]
    82b4:	3d85d900 	str	q0, [x8, #5984]
    82b8:	3dc5ed00 	ldr	q0, [x8, #6064]
    82bc:	3d85dd00 	str	q0, [x8, #6000]
    82c0:	91400be0 	add	x0, sp, #0x2, lsl #12
    82c4:	91308000 	add	x0, x0, #0xc20
    82c8:	52800808 	mov	w8, #0x40                  	// #64
    82cc:	aa0803e2 	mov	x2, x8
    82d0:	94000000 	bl	0 <_memcpy>
    82d4:	f946b7e9 	ldr	x9, [sp, #3432]
    82d8:	f94687e8 	ldr	x8, [sp, #3336]
    82dc:	3dc24120 	ldr	q0, [x9, #2304]
    82e0:	3d8ed900 	str	q0, [x8, #15200]
    82e4:	3dced900 	ldr	q0, [x8, #15200]
    82e8:	91402be0 	add	x0, sp, #0xa, lsl #12
    82ec:	91088000 	add	x0, x0, #0x220
    82f0:	3d8ed500 	str	q0, [x8, #15184]
    82f4:	91402be8 	add	x8, sp, #0xa, lsl #12
    82f8:	91094108 	add	x8, x8, #0x250
    82fc:	90000001 	adrp	x1, d3d8 <l_alloc_345ce69d67e2022250dbe2d202815e5b>
    8300:	91000021 	add	x1, x1, #0x0
    8304:	94000000 	bl	0 <_<T as core::convert::Into<U>>::into>
    8308:	14000008 	b	8328 <_<rand_chacha::chacha::ChaCha12Core as rand_core::block::BlockRngCore>::generate+0x5fe8>
    830c:	f94687e8 	ldr	x8, [sp, #3336]
    8310:	f91de100 	str	x0, [x8, #15296]
    8314:	aa0103e9 	mov	x9, x1
    8318:	b93bc909 	str	w9, [x8, #15304]
    831c:	f95de108 	ldr	x8, [x8, #15296]
    8320:	f90677e8 	str	x8, [sp, #3304]
    8324:	14000fa0 	b	c1a4 <_<rand_chacha::chacha::ChaCha12Core as rand_core::block::BlockRngCore>::generate+0x9e64>
    8328:	f94687e8 	ldr	x8, [sp, #3336]
    832c:	3dcee100 	ldr	q0, [x8, #15232]
    8330:	3d8ee500 	str	q0, [x8, #15248]
    8334:	b97b9101 	ldr	w1, [x8, #15248]
    8338:	91402be0 	add	x0, sp, #0xa, lsl #12
    833c:	91093c00 	add	x0, x0, #0x24f
    8340:	94000000 	bl	0 <_<ppv_lite86::generic::u32x4_generic as ppv_lite86::types::RotateEachWord32>::rotate_each_word_right20::{{closure}}>
    8344:	b9051fe0 	str	w0, [sp, #1308]
    8348:	14000001 	b	834c <_<rand_chacha::chacha::ChaCha12Core as rand_core::block::BlockRngCore>::generate+0x600c>
    834c:	f94687e8 	ldr	x8, [sp, #3336]
    8350:	b97b9501 	ldr	w1, [x8, #15252]
    8354:	91402be0 	add	x0, sp, #0xa, lsl #12
    8358:	91093c00 	add	x0, x0, #0x24f
    835c:	94000000 	bl	0 <_<ppv_lite86::generic::u32x4_generic as ppv_lite86::types::RotateEachWord32>::rotate_each_word_right20::{{closure}}>
    8360:	b9051be0 	str	w0, [sp, #1304]
    8364:	14000001 	b	8368 <_<rand_chacha::chacha::ChaCha12Core as rand_core::block::BlockRngCore>::generate+0x6028>
    8368:	f94687e8 	ldr	x8, [sp, #3336]
    836c:	b97b9901 	ldr	w1, [x8, #15256]
    8370:	91402be0 	add	x0, sp, #0xa, lsl #12
    8374:	91093c00 	add	x0, x0, #0x24f
    8378:	94000000 	bl	0 <_<ppv_lite86::generic::u32x4_generic as ppv_lite86::types::RotateEachWord32>::rotate_each_word_right20::{{closure}}>
    837c:	b90517e0 	str	w0, [sp, #1300]
    8380:	14000001 	b	8384 <_<rand_chacha::chacha::ChaCha12Core as rand_core::block::BlockRngCore>::generate+0x6044>
    8384:	f94687e8 	ldr	x8, [sp, #3336]
    8388:	b97b9d01 	ldr	w1, [x8, #15260]
    838c:	91402be0 	add	x0, sp, #0xa, lsl #12
    8390:	91093c00 	add	x0, x0, #0x24f
    8394:	94000000 	bl	0 <_<ppv_lite86::generic::u32x4_generic as ppv_lite86::types::RotateEachWord32>::rotate_each_word_right20::{{closure}}>
    8398:	b90513e0 	str	w0, [sp, #1296]
    839c:	14000001 	b	83a0 <_<rand_chacha::chacha::ChaCha12Core as rand_core::block::BlockRngCore>::generate+0x6060>
    83a0:	f94687e8 	ldr	x8, [sp, #3336]
    83a4:	f946b7e9 	ldr	x9, [sp, #3432]
    83a8:	b94513ea 	ldr	w10, [sp, #1296]
    83ac:	b94517eb 	ldr	w11, [sp, #1300]
    83b0:	b9451bec 	ldr	w12, [sp, #1304]
    83b4:	b9451fed 	ldr	w13, [sp, #1308]
    83b8:	b93bb10d 	str	w13, [x8, #15280]
    83bc:	b93bb50c 	str	w12, [x8, #15284]
    83c0:	b93bb90b 	str	w11, [x8, #15288]
    83c4:	b93bbd0a 	str	w10, [x8, #15292]
    83c8:	3dceed00 	ldr	q0, [x8, #15280]
    83cc:	3d8ee900 	str	q0, [x8, #15264]
    83d0:	3dcee900 	ldr	q0, [x8, #15264]
    83d4:	3d8ef500 	str	q0, [x8, #15312]
    83d8:	3dcef500 	ldr	q0, [x8, #15312]
    83dc:	3d8ef900 	str	q0, [x8, #15328]
    83e0:	3dcef900 	ldr	q0, [x8, #15328]
    83e4:	3d8b0d00 	str	q0, [x8, #11312]
    83e8:	3dc24520 	ldr	q0, [x9, #2320]
    83ec:	3d8eb100 	str	q0, [x8, #15040]
    83f0:	3dceb100 	ldr	q0, [x8, #15040]
    83f4:	91402be0 	add	x0, sp, #0xa, lsl #12
    83f8:	91060000 	add	x0, x0, #0x180
    83fc:	3d8ead00 	str	q0, [x8, #15024]
    8400:	91402be8 	add	x8, sp, #0xa, lsl #12
    8404:	9106c108 	add	x8, x8, #0x1b0
    8408:	90000001 	adrp	x1, d3d8 <l_alloc_345ce69d67e2022250dbe2d202815e5b>
    840c:	91000021 	add	x1, x1, #0x0
    8410:	94000000 	bl	0 <_<T as core::convert::Into<U>>::into>
    8414:	14000008 	b	8434 <_<rand_chacha::chacha::ChaCha12Core as rand_core::block::BlockRngCore>::generate+0x60f4>
    8418:	f94687e8 	ldr	x8, [sp, #3336]
    841c:	f91d9100 	str	x0, [x8, #15136]
    8420:	aa0103e9 	mov	x9, x1
    8424:	b93b2909 	str	w9, [x8, #15144]
    8428:	f95d9108 	ldr	x8, [x8, #15136]
    842c:	f90677e8 	str	x8, [sp, #3304]
    8430:	14000f5d 	b	c1a4 <_<rand_chacha::chacha::ChaCha12Core as rand_core::block::BlockRngCore>::generate+0x9e64>
    8434:	f94687e8 	ldr	x8, [sp, #3336]
    8438:	3dceb900 	ldr	q0, [x8, #15072]
    843c:	3d8ebd00 	str	q0, [x8, #15088]
    8440:	b97af101 	ldr	w1, [x8, #15088]
    8444:	91402be0 	add	x0, sp, #0xa, lsl #12
    8448:	9106bc00 	add	x0, x0, #0x1af
    844c:	94000000 	bl	0 <_<ppv_lite86::generic::u32x4_generic as ppv_lite86::types::RotateEachWord32>::rotate_each_word_right20::{{closure}}>
    8450:	b9050fe0 	str	w0, [sp, #1292]
    8454:	14000001 	b	8458 <_<rand_chacha::chacha::ChaCha12Core as rand_core::block::BlockRngCore>::generate+0x6118>
    8458:	f94687e8 	ldr	x8, [sp, #3336]
    845c:	b97af501 	ldr	w1, [x8, #15092]
    8460:	91402be0 	add	x0, sp, #0xa, lsl #12
    8464:	9106bc00 	add	x0, x0, #0x1af
    8468:	94000000 	bl	0 <_<ppv_lite86::generic::u32x4_generic as ppv_lite86::types::RotateEachWord32>::rotate_each_word_right20::{{closure}}>
    846c:	b9050be0 	str	w0, [sp, #1288]
    8470:	14000001 	b	8474 <_<rand_chacha::chacha::ChaCha12Core as rand_core::block::BlockRngCore>::generate+0x6134>
    8474:	f94687e8 	ldr	x8, [sp, #3336]
    8478:	b97af901 	ldr	w1, [x8, #15096]
    847c:	91402be0 	add	x0, sp, #0xa, lsl #12
    8480:	9106bc00 	add	x0, x0, #0x1af
    8484:	94000000 	bl	0 <_<ppv_lite86::generic::u32x4_generic as ppv_lite86::types::RotateEachWord32>::rotate_each_word_right20::{{closure}}>
    8488:	b90507e0 	str	w0, [sp, #1284]
    848c:	14000001 	b	8490 <_<rand_chacha::chacha::ChaCha12Core as rand_core::block::BlockRngCore>::generate+0x6150>
    8490:	f94687e8 	ldr	x8, [sp, #3336]
    8494:	b97afd01 	ldr	w1, [x8, #15100]
    8498:	91402be0 	add	x0, sp, #0xa, lsl #12
    849c:	9106bc00 	add	x0, x0, #0x1af
    84a0:	94000000 	bl	0 <_<ppv_lite86::generic::u32x4_generic as ppv_lite86::types::RotateEachWord32>::rotate_each_word_right20::{{closure}}>
    84a4:	b90503e0 	str	w0, [sp, #1280]
    84a8:	14000001 	b	84ac <_<rand_chacha::chacha::ChaCha12Core as rand_core::block::BlockRngCore>::generate+0x616c>
    84ac:	f94687e8 	ldr	x8, [sp, #3336]
    84b0:	f946b7e9 	ldr	x9, [sp, #3432]
    84b4:	b94503ea 	ldr	w10, [sp, #1280]
    84b8:	b94507eb 	ldr	w11, [sp, #1284]
    84bc:	b9450bec 	ldr	w12, [sp, #1288]
    84c0:	b9450fed 	ldr	w13, [sp, #1292]
    84c4:	b93b110d 	str	w13, [x8, #15120]
    84c8:	b93b150c 	str	w12, [x8, #15124]
    84cc:	b93b190b 	str	w11, [x8, #15128]
    84d0:	b93b1d0a 	str	w10, [x8, #15132]
    84d4:	3dcec500 	ldr	q0, [x8, #15120]
    84d8:	3d8ec100 	str	q0, [x8, #15104]
    84dc:	3dcec100 	ldr	q0, [x8, #15104]
    84e0:	3d8ecd00 	str	q0, [x8, #15152]
    84e4:	3dcecd00 	ldr	q0, [x8, #15152]
    84e8:	3d8ed100 	str	q0, [x8, #15168]
    84ec:	3dced100 	ldr	q0, [x8, #15168]
    84f0:	3d8b1100 	str	q0, [x8, #11328]
    84f4:	3dc24920 	ldr	q0, [x9, #2336]
    84f8:	3d8e8900 	str	q0, [x8, #14880]
    84fc:	3dce8900 	ldr	q0, [x8, #14880]
    8500:	91402be0 	add	x0, sp, #0xa, lsl #12
    8504:	91038000 	add	x0, x0, #0xe0
    8508:	3d8e8500 	str	q0, [x8, #14864]
    850c:	91402be8 	add	x8, sp, #0xa, lsl #12
    8510:	91044108 	add	x8, x8, #0x110
    8514:	90000001 	adrp	x1, d3d8 <l_alloc_345ce69d67e2022250dbe2d202815e5b>
    8518:	91000021 	add	x1, x1, #0x0
    851c:	94000000 	bl	0 <_<T as core::convert::Into<U>>::into>
    8520:	14000008 	b	8540 <_<rand_chacha::chacha::ChaCha12Core as rand_core::block::BlockRngCore>::generate+0x6200>
    8524:	f94687e8 	ldr	x8, [sp, #3336]
    8528:	f91d4100 	str	x0, [x8, #14976]
    852c:	aa0103e9 	mov	x9, x1
    8530:	b93a8909 	str	w9, [x8, #14984]
    8534:	f95d4108 	ldr	x8, [x8, #14976]
    8538:	f90677e8 	str	x8, [sp, #3304]
    853c:	14000f1a 	b	c1a4 <_<rand_chacha::chacha::ChaCha12Core as rand_core::block::BlockRngCore>::generate+0x9e64>
    8540:	f94687e8 	ldr	x8, [sp, #3336]
    8544:	3dce9100 	ldr	q0, [x8, #14912]
    8548:	3d8e9500 	str	q0, [x8, #14928]
    854c:	b97a5101 	ldr	w1, [x8, #14928]
    8550:	91402be0 	add	x0, sp, #0xa, lsl #12
    8554:	91043c00 	add	x0, x0, #0x10f
    8558:	94000000 	bl	0 <_<ppv_lite86::generic::u32x4_generic as ppv_lite86::types::RotateEachWord32>::rotate_each_word_right20::{{closure}}>
    855c:	b904ffe0 	str	w0, [sp, #1276]
    8560:	14000001 	b	8564 <_<rand_chacha::chacha::ChaCha12Core as rand_core::block::BlockRngCore>::generate+0x6224>
    8564:	f94687e8 	ldr	x8, [sp, #3336]
    8568:	b97a5501 	ldr	w1, [x8, #14932]
    856c:	91402be0 	add	x0, sp, #0xa, lsl #12
    8570:	91043c00 	add	x0, x0, #0x10f
    8574:	94000000 	bl	0 <_<ppv_lite86::generic::u32x4_generic as ppv_lite86::types::RotateEachWord32>::rotate_each_word_right20::{{closure}}>
    8578:	b904fbe0 	str	w0, [sp, #1272]
    857c:	14000001 	b	8580 <_<rand_chacha::chacha::ChaCha12Core as rand_core::block::BlockRngCore>::generate+0x6240>
    8580:	f94687e8 	ldr	x8, [sp, #3336]
    8584:	b97a5901 	ldr	w1, [x8, #14936]
    8588:	91402be0 	add	x0, sp, #0xa, lsl #12
    858c:	91043c00 	add	x0, x0, #0x10f
    8590:	94000000 	bl	0 <_<ppv_lite86::generic::u32x4_generic as ppv_lite86::types::RotateEachWord32>::rotate_each_word_right20::{{closure}}>
    8594:	b904f7e0 	str	w0, [sp, #1268]
    8598:	14000001 	b	859c <_<rand_chacha::chacha::ChaCha12Core as rand_core::block::BlockRngCore>::generate+0x625c>
    859c:	f94687e8 	ldr	x8, [sp, #3336]
    85a0:	b97a5d01 	ldr	w1, [x8, #14940]
    85a4:	91402be0 	add	x0, sp, #0xa, lsl #12
    85a8:	91043c00 	add	x0, x0, #0x10f
    85ac:	94000000 	bl	0 <_<ppv_lite86::generic::u32x4_generic as ppv_lite86::types::RotateEachWord32>::rotate_each_word_right20::{{closure}}>
    85b0:	b904f3e0 	str	w0, [sp, #1264]
    85b4:	14000001 	b	85b8 <_<rand_chacha::chacha::ChaCha12Core as rand_core::block::BlockRngCore>::generate+0x6278>
    85b8:	f94687e8 	ldr	x8, [sp, #3336]
    85bc:	f946b7e9 	ldr	x9, [sp, #3432]
    85c0:	b944f3ea 	ldr	w10, [sp, #1264]
    85c4:	b944f7eb 	ldr	w11, [sp, #1268]
    85c8:	b944fbec 	ldr	w12, [sp, #1272]
    85cc:	b944ffed 	ldr	w13, [sp, #1276]
    85d0:	b93a710d 	str	w13, [x8, #14960]
    85d4:	b93a750c 	str	w12, [x8, #14964]
    85d8:	b93a790b 	str	w11, [x8, #14968]
    85dc:	b93a7d0a 	str	w10, [x8, #14972]
    85e0:	3dce9d00 	ldr	q0, [x8, #14960]
    85e4:	3d8e9900 	str	q0, [x8, #14944]
    85e8:	3dce9900 	ldr	q0, [x8, #14944]
    85ec:	3d8ea500 	str	q0, [x8, #14992]
    85f0:	3dcea500 	ldr	q0, [x8, #14992]
    85f4:	3d8ea900 	str	q0, [x8, #15008]
    85f8:	3dcea900 	ldr	q0, [x8, #15008]
    85fc:	3d8b1500 	str	q0, [x8, #11344]
    8600:	3dc24d20 	ldr	q0, [x9, #2352]
    8604:	3d8e6100 	str	q0, [x8, #14720]
    8608:	3dce6100 	ldr	q0, [x8, #14720]
    860c:	91402be0 	add	x0, sp, #0xa, lsl #12
    8610:	91010000 	add	x0, x0, #0x40
    8614:	3d8e5d00 	str	q0, [x8, #14704]
    8618:	91402be8 	add	x8, sp, #0xa, lsl #12
    861c:	9101c108 	add	x8, x8, #0x70
    8620:	90000001 	adrp	x1, d3d8 <l_alloc_345ce69d67e2022250dbe2d202815e5b>
    8624:	91000021 	add	x1, x1, #0x0
    8628:	94000000 	bl	0 <_<T as core::convert::Into<U>>::into>
    862c:	14000008 	b	864c <_<rand_chacha::chacha::ChaCha12Core as rand_core::block::BlockRngCore>::generate+0x630c>
    8630:	f94687e8 	ldr	x8, [sp, #3336]
    8634:	f91cf100 	str	x0, [x8, #14816]
    8638:	aa0103e9 	mov	x9, x1
    863c:	b939e909 	str	w9, [x8, #14824]
    8640:	f95cf108 	ldr	x8, [x8, #14816]
    8644:	f90677e8 	str	x8, [sp, #3304]
    8648:	14000ed7 	b	c1a4 <_<rand_chacha::chacha::ChaCha12Core as rand_core::block::BlockRngCore>::generate+0x9e64>
    864c:	f94687e8 	ldr	x8, [sp, #3336]
    8650:	3dce6900 	ldr	q0, [x8, #14752]
    8654:	3d8e6d00 	str	q0, [x8, #14768]
    8658:	b979b101 	ldr	w1, [x8, #14768]
    865c:	91402be0 	add	x0, sp, #0xa, lsl #12
    8660:	9101bc00 	add	x0, x0, #0x6f
    8664:	94000000 	bl	0 <_<ppv_lite86::generic::u32x4_generic as ppv_lite86::types::RotateEachWord32>::rotate_each_word_right20::{{closure}}>
    8668:	b904efe0 	str	w0, [sp, #1260]
    866c:	14000001 	b	8670 <_<rand_chacha::chacha::ChaCha12Core as rand_core::block::BlockRngCore>::generate+0x6330>
    8670:	f94687e8 	ldr	x8, [sp, #3336]
    8674:	b979b501 	ldr	w1, [x8, #14772]
    8678:	91402be0 	add	x0, sp, #0xa, lsl #12
    867c:	9101bc00 	add	x0, x0, #0x6f
    8680:	94000000 	bl	0 <_<ppv_lite86::generic::u32x4_generic as ppv_lite86::types::RotateEachWord32>::rotate_each_word_right20::{{closure}}>
    8684:	b904ebe0 	str	w0, [sp, #1256]
    8688:	14000001 	b	868c <_<rand_chacha::chacha::ChaCha12Core as rand_core::block::BlockRngCore>::generate+0x634c>
    868c:	f94687e8 	ldr	x8, [sp, #3336]
    8690:	b979b901 	ldr	w1, [x8, #14776]
    8694:	91402be0 	add	x0, sp, #0xa, lsl #12
    8698:	9101bc00 	add	x0, x0, #0x6f
    869c:	94000000 	bl	0 <_<ppv_lite86::generic::u32x4_generic as ppv_lite86::types::RotateEachWord32>::rotate_each_word_right20::{{closure}}>
    86a0:	b904e7e0 	str	w0, [sp, #1252]
    86a4:	14000001 	b	86a8 <_<rand_chacha::chacha::ChaCha12Core as rand_core::block::BlockRngCore>::generate+0x6368>
    86a8:	f94687e8 	ldr	x8, [sp, #3336]
    86ac:	b979bd01 	ldr	w1, [x8, #14780]
    86b0:	91402be0 	add	x0, sp, #0xa, lsl #12
    86b4:	9101bc00 	add	x0, x0, #0x6f
    86b8:	94000000 	bl	0 <_<ppv_lite86::generic::u32x4_generic as ppv_lite86::types::RotateEachWord32>::rotate_each_word_right20::{{closure}}>
    86bc:	b904e3e0 	str	w0, [sp, #1248]
    86c0:	14000001 	b	86c4 <_<rand_chacha::chacha::ChaCha12Core as rand_core::block::BlockRngCore>::generate+0x6384>
    86c4:	f94687e8 	ldr	x8, [sp, #3336]
    86c8:	b944e3e9 	ldr	w9, [sp, #1248]
    86cc:	b944e7ea 	ldr	w10, [sp, #1252]
    86d0:	b944ebeb 	ldr	w11, [sp, #1256]
    86d4:	b944efec 	ldr	w12, [sp, #1260]
    86d8:	b939d10c 	str	w12, [x8, #14800]
    86dc:	b939d50b 	str	w11, [x8, #14804]
    86e0:	b939d90a 	str	w10, [x8, #14808]
    86e4:	b939dd09 	str	w9, [x8, #14812]
    86e8:	3dce7500 	ldr	q0, [x8, #14800]
    86ec:	3d8e7100 	str	q0, [x8, #14784]
    86f0:	3dce7100 	ldr	q0, [x8, #14784]
    86f4:	3d8e7d00 	str	q0, [x8, #14832]
    86f8:	3dce7d00 	ldr	q0, [x8, #14832]
    86fc:	3d8e8100 	str	q0, [x8, #14848]
    8700:	3dce8100 	ldr	q0, [x8, #14848]
    8704:	3d8b1900 	str	q0, [x8, #11360]
    8708:	3dcb0d00 	ldr	q0, [x8, #11312]
    870c:	914027e1 	add	x1, sp, #0x9, lsl #12
    8710:	910b0021 	add	x1, x1, #0x2c0
    8714:	3d8afd00 	str	q0, [x8, #11248]
    8718:	3dcb1100 	ldr	q0, [x8, #11328]
    871c:	3d8b0100 	str	q0, [x8, #11264]
    8720:	3dcb1500 	ldr	q0, [x8, #11344]
    8724:	3d8b0500 	str	q0, [x8, #11280]
    8728:	3dcb1900 	ldr	q0, [x8, #11360]
    872c:	3d8b0900 	str	q0, [x8, #11296]
    8730:	91400be0 	add	x0, sp, #0x2, lsl #12
    8734:	912f8000 	add	x0, x0, #0xbe0
    8738:	f90267e0 	str	x0, [sp, #1224]
    873c:	52800808 	mov	w8, #0x40                  	// #64
    8740:	aa0803e2 	mov	x2, x8
    8744:	f9026fe2 	str	x2, [sp, #1240]
    8748:	94000000 	bl	0 <_memcpy>
    874c:	f94267e1 	ldr	x1, [sp, #1224]
    8750:	f9426fe2 	ldr	x2, [sp, #1240]
    8754:	914007e8 	add	x8, sp, #0x1, lsl #12
    8758:	91144108 	add	x8, x8, #0x510
    875c:	f9026be8 	str	x8, [sp, #1232]
    8760:	91010100 	add	x0, x8, #0x40
    8764:	94000000 	bl	0 <_memcpy>
    8768:	f9426be8 	ldr	x8, [sp, #1232]
    876c:	f9426fe2 	ldr	x2, [sp, #1240]
    8770:	91010101 	add	x1, x8, #0x40
    8774:	91400be0 	add	x0, sp, #0x2, lsl #12
    8778:	91338000 	add	x0, x0, #0xce0
    877c:	94000000 	bl	0 <_memcpy>
    8780:	f946abe9 	ldr	x9, [sp, #3408]
    8784:	f9426bea 	ldr	x10, [sp, #1232]
    8788:	f946b7eb 	ldr	x11, [sp, #3432]
    878c:	f94687e8 	ldr	x8, [sp, #3336]
    8790:	aa0a03ec 	mov	x12, x10
    8794:	f93aafec 	str	x12, [sp, #30040]
    8798:	3dc27160 	ldr	q0, [x11, #2496]
    879c:	3d839100 	str	q0, [x8, #3648]
    87a0:	911203eb 	add	x11, sp, #0x480
    87a4:	f93ffd6a 	str	x10, [x11, #32760]
    87a8:	3dc1c520 	ldr	q0, [x9, #1808]
    87ac:	3d877500 	str	q0, [x8, #7632]
    87b0:	3dc39100 	ldr	q0, [x8, #3648]
    87b4:	3d877100 	str	q0, [x8, #7616]
    87b8:	3dc77500 	ldr	q0, [x8, #7632]
    87bc:	914023e0 	add	x0, sp, #0x8, lsl #12
    87c0:	91120000 	add	x0, x0, #0x480
    87c4:	3d876d00 	str	q0, [x8, #7600]
    87c8:	3dc77100 	ldr	q0, [x8, #7616]
    87cc:	914023e1 	add	x1, sp, #0x8, lsl #12
    87d0:	9112c021 	add	x1, x1, #0x4b0
    87d4:	3d877900 	str	q0, [x8, #7648]
    87d8:	914023e8 	add	x8, sp, #0x8, lsl #12
    87dc:	9111a108 	add	x8, x8, #0x468
    87e0:	94000000 	bl	0 <_ppv_lite86::generic::dmap2>
    87e4:	f946abe9 	ldr	x9, [sp, #3408]
    87e8:	f9426bea 	ldr	x10, [sp, #1232]
    87ec:	f946b7eb 	ldr	x11, [sp, #3432]
    87f0:	f94687e8 	ldr	x8, [sp, #3336]
    87f4:	914023ec 	add	x12, sp, #0x8, lsl #12
    87f8:	910da58c 	add	x12, x12, #0x369
    87fc:	3ccff180 	ldur	q0, [x12, #255]
    8800:	3d81c520 	str	q0, [x9, #1808]
    8804:	9100414a 	add	x10, x10, #0x10
    8808:	3dc27560 	ldr	q0, [x11, #2512]
    880c:	3d839500 	str	q0, [x8, #3664]
    8810:	911083eb 	add	x11, sp, #0x420
    8814:	f93ffd6a 	str	x10, [x11, #32760]
    8818:	3dc1c920 	ldr	q0, [x9, #1824]
    881c:	3d875d00 	str	q0, [x8, #7536]
    8820:	3dc39500 	ldr	q0, [x8, #3664]
    8824:	3d875900 	str	q0, [x8, #7520]
    8828:	3dc75d00 	ldr	q0, [x8, #7536]
    882c:	914023e0 	add	x0, sp, #0x8, lsl #12
    8830:	91108000 	add	x0, x0, #0x420
    8834:	3d875500 	str	q0, [x8, #7504]
    8838:	3dc75900 	ldr	q0, [x8, #7520]
    883c:	914023e1 	add	x1, sp, #0x8, lsl #12
    8840:	91114021 	add	x1, x1, #0x450
    8844:	3d876100 	str	q0, [x8, #7552]
    8848:	914023e8 	add	x8, sp, #0x8, lsl #12
    884c:	91102108 	add	x8, x8, #0x408
    8850:	94000000 	bl	0 <_ppv_lite86::generic::dmap2>
    8854:	f946abe9 	ldr	x9, [sp, #3408]
    8858:	f9426bea 	ldr	x10, [sp, #1232]
    885c:	f946b7eb 	ldr	x11, [sp, #3432]
    8860:	f94687e8 	ldr	x8, [sp, #3336]
    8864:	914023ec 	add	x12, sp, #0x8, lsl #12
    8868:	910c258c 	add	x12, x12, #0x309
    886c:	3ccff180 	ldur	q0, [x12, #255]
    8870:	3d81c920 	str	q0, [x9, #1824]
    8874:	9100814a 	add	x10, x10, #0x20
    8878:	3dc27960 	ldr	q0, [x11, #2528]
    887c:	3d839900 	str	q0, [x8, #3680]
    8880:	910f03eb 	add	x11, sp, #0x3c0
    8884:	f93ffd6a 	str	x10, [x11, #32760]
    8888:	3dc1cd20 	ldr	q0, [x9, #1840]
    888c:	3d874500 	str	q0, [x8, #7440]
    8890:	3dc39900 	ldr	q0, [x8, #3680]
    8894:	3d874100 	str	q0, [x8, #7424]
    8898:	3dc74500 	ldr	q0, [x8, #7440]
    889c:	914023e0 	add	x0, sp, #0x8, lsl #12
    88a0:	910f0000 	add	x0, x0, #0x3c0
    88a4:	3d873d00 	str	q0, [x8, #7408]
    88a8:	3dc74100 	ldr	q0, [x8, #7424]
    88ac:	914023e1 	add	x1, sp, #0x8, lsl #12
    88b0:	910fc021 	add	x1, x1, #0x3f0
    88b4:	3d874900 	str	q0, [x8, #7456]
    88b8:	914023e8 	add	x8, sp, #0x8, lsl #12
    88bc:	910ea108 	add	x8, x8, #0x3a8
    88c0:	94000000 	bl	0 <_ppv_lite86::generic::dmap2>
    88c4:	f946abe9 	ldr	x9, [sp, #3408]
    88c8:	f9426bea 	ldr	x10, [sp, #1232]
    88cc:	f946b7eb 	ldr	x11, [sp, #3432]
    88d0:	f94687e8 	ldr	x8, [sp, #3336]
    88d4:	914023ec 	add	x12, sp, #0x8, lsl #12
    88d8:	910aa58c 	add	x12, x12, #0x2a9
    88dc:	3ccff180 	ldur	q0, [x12, #255]
    88e0:	3d81cd20 	str	q0, [x9, #1840]
    88e4:	9100c14a 	add	x10, x10, #0x30
    88e8:	3dc27d60 	ldr	q0, [x11, #2544]
    88ec:	3d839d00 	str	q0, [x8, #3696]
    88f0:	910d83eb 	add	x11, sp, #0x360
    88f4:	f93ffd6a 	str	x10, [x11, #32760]
    88f8:	3dc1d120 	ldr	q0, [x9, #1856]
    88fc:	3d872d00 	str	q0, [x8, #7344]
    8900:	3dc39d00 	ldr	q0, [x8, #3696]
    8904:	3d872900 	str	q0, [x8, #7328]
    8908:	3dc72d00 	ldr	q0, [x8, #7344]
    890c:	914023e0 	add	x0, sp, #0x8, lsl #12
    8910:	910d8000 	add	x0, x0, #0x360
    8914:	3d872500 	str	q0, [x8, #7312]
    8918:	3dc72900 	ldr	q0, [x8, #7328]
    891c:	914023e1 	add	x1, sp, #0x8, lsl #12
    8920:	910e4021 	add	x1, x1, #0x390
    8924:	3d873100 	str	q0, [x8, #7360]
    8928:	914023e8 	add	x8, sp, #0x8, lsl #12
    892c:	910d2108 	add	x8, x8, #0x348
    8930:	94000000 	bl	0 <_ppv_lite86::generic::dmap2>
    8934:	f946abe9 	ldr	x9, [sp, #3408]
    8938:	f9426be8 	ldr	x8, [sp, #1232]
    893c:	f9426fe2 	ldr	x2, [sp, #1240]
    8940:	914023ea 	add	x10, sp, #0x8, lsl #12
    8944:	9109254a 	add	x10, x10, #0x249
    8948:	3ccff140 	ldur	q0, [x10, #255]
    894c:	3d81d120 	str	q0, [x9, #1856]
    8950:	91030101 	add	x1, x8, #0xc0
    8954:	91400be0 	add	x0, sp, #0x2, lsl #12
    8958:	91368000 	add	x0, x0, #0xda0
    895c:	94000000 	bl	0 <_memcpy>
    8960:	f9426be1 	ldr	x1, [sp, #1232]
    8964:	f9426fe2 	ldr	x2, [sp, #1240]
    8968:	91400be0 	add	x0, sp, #0x2, lsl #12
    896c:	91378000 	add	x0, x0, #0xde0
    8970:	94000000 	bl	0 <_memcpy>
    8974:	f946b7e8 	ldr	x8, [sp, #3432]
    8978:	f94687e9 	ldr	x9, [sp, #3336]
    897c:	3dc2a100 	ldr	q0, [x8, #2688]
    8980:	3d81e120 	str	q0, [x9, #1920]
    8984:	3dc2b100 	ldr	q0, [x8, #2752]
    8988:	3d81dd20 	str	q0, [x9, #1904]
    898c:	3dc1e120 	ldr	q0, [x9, #1920]
    8990:	91401be0 	add	x0, sp, #0x6, lsl #12
    8994:	9138c000 	add	x0, x0, #0xe30
    8998:	3d81d920 	str	q0, [x9, #1888]
    899c:	3dc1dd20 	ldr	q0, [x9, #1904]
    89a0:	3d81e520 	str	q0, [x9, #1936]
    89a4:	3920bd3f 	strb	wzr, [x9, #2095]
    89a8:	52800028 	mov	w8, #0x1                   	// #1
    89ac:	3920bd28 	strb	w8, [x9, #2095]
    89b0:	91401be8 	add	x8, sp, #0x6, lsl #12
    89b4:	913a0108 	add	x8, x8, #0xe80
    89b8:	90000001 	adrp	x1, d408 <l_alloc_d6cd646a032ab5661bff8aa78f551e65>
    89bc:	91000021 	add	x1, x1, #0x0
    89c0:	94000000 	bl	0 <_<T as core::convert::Into<U>>::into>
    89c4:	14000008 	b	89e4 <_<rand_chacha::chacha::ChaCha12Core as rand_core::block::BlockRngCore>::generate+0x66a4>
    89c8:	f94687e8 	ldr	x8, [sp, #3336]
    89cc:	f93783e0 	str	x0, [sp, #28416]
    89d0:	aa0103e9 	mov	x9, x1
    89d4:	b9083909 	str	w9, [x8, #2104]
    89d8:	3960bd08 	ldrb	w8, [x8, #2095]
    89dc:	37000648 	tbnz	w8, #0, 8aa4 <_<rand_chacha::chacha::ChaCha12Core as rand_core::block::BlockRngCore>::generate+0x6764>
    89e0:	1400002e 	b	8a98 <_<rand_chacha::chacha::ChaCha12Core as rand_core::block::BlockRngCore>::generate+0x6758>
    89e4:	f94687e8 	ldr	x8, [sp, #3336]
    89e8:	3920bd1f 	strb	wzr, [x8, #2095]
    89ec:	3dc1e500 	ldr	q0, [x8, #1936]
    89f0:	91401be0 	add	x0, sp, #0x6, lsl #12
    89f4:	913a8000 	add	x0, x0, #0xea0
    89f8:	3d81f500 	str	q0, [x8, #2000]
    89fc:	91401be8 	add	x8, sp, #0x6, lsl #12
    8a00:	913a4108 	add	x8, x8, #0xe90
    8a04:	90000001 	adrp	x1, d420 <l_alloc_eb8937521ab56b1815db886b021bd11a>
    8a08:	91000021 	add	x1, x1, #0x0
    8a0c:	94000000 	bl	0 <_<T as core::convert::Into<U>>::into>
    8a10:	14000001 	b	8a14 <_<rand_chacha::chacha::ChaCha12Core as rand_core::block::BlockRngCore>::generate+0x66d4>
    8a14:	f94687e8 	ldr	x8, [sp, #3336]
    8a18:	3dc1ed00 	ldr	q0, [x8, #1968]
    8a1c:	3d81f900 	str	q0, [x8, #2016]
    8a20:	f9775beb 	ldr	x11, [sp, #28336]
    8a24:	d2800009 	mov	x9, #0x0                   	// #0
    8a28:	f937b7eb 	str	x11, [sp, #28520]
    8a2c:	f9775fea 	ldr	x10, [sp, #28344]
    8a30:	f937b3ea 	str	x10, [sp, #28512]
    8a34:	aa090161 	orr	x1, x11, x9
    8a38:	aa0a0122 	orr	x2, x9, x10
    8a3c:	4e081c20 	mov	v0.d[0], x1
    8a40:	4e181c40 	mov	v0.d[1], x2
    8a44:	3d821100 	str	q0, [x8, #2112]
    8a48:	3dc1f100 	ldr	q0, [x8, #1984]
    8a4c:	3d81fd00 	str	q0, [x8, #2032]
    8a50:	f97763eb 	ldr	x11, [sp, #28352]
    8a54:	f937bfeb 	str	x11, [sp, #28536]
    8a58:	f97767ea 	ldr	x10, [sp, #28360]
    8a5c:	f937bbea 	str	x10, [sp, #28528]
    8a60:	aa090163 	orr	x3, x11, x9
    8a64:	aa0a0124 	orr	x4, x9, x10
    8a68:	4e081c60 	mov	v0.d[0], x3
    8a6c:	4e181c80 	mov	v0.d[1], x4
    8a70:	3d821500 	str	q0, [x8, #2128]
    8a74:	91401be0 	add	x0, sp, #0x6, lsl #12
    8a78:	9139fc00 	add	x0, x0, #0xe7f
    8a7c:	94000000 	bl	0 <_<ppv_lite86::generic::u32x4_generic as core::ops::bit::BitXor>::bitxor::{{closure}}>
    8a80:	f90253e0 	str	x0, [sp, #1184]
    8a84:	f90257e1 	str	x1, [sp, #1192]
    8a88:	4e081c00 	mov	v0.d[0], x0
    8a8c:	4e181c20 	mov	v0.d[1], x1
    8a90:	3d812fe0 	str	q0, [sp, #1200]
    8a94:	14000005 	b	8aa8 <_<rand_chacha::chacha::ChaCha12Core as rand_core::block::BlockRngCore>::generate+0x6768>
    8a98:	f97783e8 	ldr	x8, [sp, #28416]
    8a9c:	f90677e8 	str	x8, [sp, #3304]
    8aa0:	14000dc1 	b	c1a4 <_<rand_chacha::chacha::ChaCha12Core as rand_core::block::BlockRngCore>::generate+0x9e64>
    8aa4:	17fffffd 	b	8a98 <_<rand_chacha::chacha::ChaCha12Core as rand_core::block::BlockRngCore>::generate+0x6758>
    8aa8:	f94687e9 	ldr	x9, [sp, #3336]
    8aac:	f946b7e8 	ldr	x8, [sp, #3432]
    8ab0:	f94257ea 	ldr	x10, [sp, #1192]
    8ab4:	f94253eb 	ldr	x11, [sp, #1184]
    8ab8:	3dc12fe0 	ldr	q0, [sp, #1200]
    8abc:	3d821d20 	str	q0, [x9, #2160]
    8ac0:	f93777eb 	str	x11, [sp, #28392]
    8ac4:	f9377bea 	str	x10, [sp, #28400]
    8ac8:	91401bea 	add	x10, sp, #0x6, lsl #12
    8acc:	9137a54a 	add	x10, x10, #0xde9
    8ad0:	3ccff140 	ldur	q0, [x10, #255]
    8ad4:	3d820120 	str	q0, [x9, #2048]
    8ad8:	3dc20120 	ldr	q0, [x9, #2048]
    8adc:	3d821920 	str	q0, [x9, #2144]
    8ae0:	3dc21920 	ldr	q0, [x9, #2144]
    8ae4:	3d822120 	str	q0, [x9, #2176]
    8ae8:	3dc22120 	ldr	q0, [x9, #2176]
    8aec:	3d85bd00 	str	q0, [x8, #5872]
    8af0:	3dc2a500 	ldr	q0, [x8, #2704]
    8af4:	3d818d20 	str	q0, [x9, #1584]
    8af8:	3dc2b500 	ldr	q0, [x8, #2768]
    8afc:	3d818920 	str	q0, [x9, #1568]
    8b00:	3dc18d20 	ldr	q0, [x9, #1584]
    8b04:	91401be0 	add	x0, sp, #0x6, lsl #12
    8b08:	91338000 	add	x0, x0, #0xce0
    8b0c:	3d818520 	str	q0, [x9, #1552]
    8b10:	3dc18920 	ldr	q0, [x9, #1568]
    8b14:	3d819120 	str	q0, [x9, #1600]
    8b18:	391b7d3f 	strb	wzr, [x9, #1759]
    8b1c:	52800028 	mov	w8, #0x1                   	// #1
    8b20:	391b7d28 	strb	w8, [x9, #1759]
    8b24:	91401be8 	add	x8, sp, #0x6, lsl #12
    8b28:	9134c108 	add	x8, x8, #0xd30
    8b2c:	90000001 	adrp	x1, d408 <l_alloc_d6cd646a032ab5661bff8aa78f551e65>
    8b30:	91000021 	add	x1, x1, #0x0
    8b34:	94000000 	bl	0 <_<T as core::convert::Into<U>>::into>
    8b38:	14000008 	b	8b58 <_<rand_chacha::chacha::ChaCha12Core as rand_core::block::BlockRngCore>::generate+0x6818>
    8b3c:	f94687e8 	ldr	x8, [sp, #3336]
    8b40:	f936dbe0 	str	x0, [sp, #28080]
    8b44:	aa0103e9 	mov	x9, x1
    8b48:	b906e909 	str	w9, [x8, #1768]
    8b4c:	395b7d08 	ldrb	w8, [x8, #1759]
    8b50:	370006a8 	tbnz	w8, #0, 8c24 <_<rand_chacha::chacha::ChaCha12Core as rand_core::block::BlockRngCore>::generate+0x68e4>
    8b54:	1400002e 	b	8c0c <_<rand_chacha::chacha::ChaCha12Core as rand_core::block::BlockRngCore>::generate+0x68cc>
    8b58:	f94687e8 	ldr	x8, [sp, #3336]
    8b5c:	391b7d1f 	strb	wzr, [x8, #1759]
    8b60:	3dc19100 	ldr	q0, [x8, #1600]
    8b64:	91401be0 	add	x0, sp, #0x6, lsl #12
    8b68:	91354000 	add	x0, x0, #0xd50
    8b6c:	3d81a100 	str	q0, [x8, #1664]
    8b70:	91401be8 	add	x8, sp, #0x6, lsl #12
    8b74:	91350108 	add	x8, x8, #0xd40
    8b78:	90000001 	adrp	x1, d420 <l_alloc_eb8937521ab56b1815db886b021bd11a>
    8b7c:	91000021 	add	x1, x1, #0x0
    8b80:	94000000 	bl	0 <_<T as core::convert::Into<U>>::into>
    8b84:	14000001 	b	8b88 <_<rand_chacha::chacha::ChaCha12Core as rand_core::block::BlockRngCore>::generate+0x6848>
    8b88:	f94687e8 	ldr	x8, [sp, #3336]
    8b8c:	3dc19900 	ldr	q0, [x8, #1632]
    8b90:	3d81a500 	str	q0, [x8, #1680]
    8b94:	f976b3eb 	ldr	x11, [sp, #28000]
    8b98:	d2800009 	mov	x9, #0x0                   	// #0
    8b9c:	f9370feb 	str	x11, [sp, #28184]
    8ba0:	f976b7ea 	ldr	x10, [sp, #28008]
    8ba4:	f9370bea 	str	x10, [sp, #28176]
    8ba8:	aa090161 	orr	x1, x11, x9
    8bac:	aa0a0122 	orr	x2, x9, x10
    8bb0:	4e081c20 	mov	v0.d[0], x1
    8bb4:	4e181c40 	mov	v0.d[1], x2
    8bb8:	3d81bd00 	str	q0, [x8, #1776]
    8bbc:	3dc19d00 	ldr	q0, [x8, #1648]
    8bc0:	3d81a900 	str	q0, [x8, #1696]
    8bc4:	f976bbeb 	ldr	x11, [sp, #28016]
    8bc8:	f93717eb 	str	x11, [sp, #28200]
    8bcc:	f976bfea 	ldr	x10, [sp, #28024]
    8bd0:	f93713ea 	str	x10, [sp, #28192]
    8bd4:	aa090163 	orr	x3, x11, x9
    8bd8:	aa0a0124 	orr	x4, x9, x10
    8bdc:	4e081c60 	mov	v0.d[0], x3
    8be0:	4e181c80 	mov	v0.d[1], x4
    8be4:	3d81c100 	str	q0, [x8, #1792]
    8be8:	91401be0 	add	x0, sp, #0x6, lsl #12
    8bec:	9134bc00 	add	x0, x0, #0xd2f
    8bf0:	94000000 	bl	0 <_<ppv_lite86::generic::u32x4_generic as core::ops::bit::BitXor>::bitxor::{{closure}}>
    8bf4:	f90243e0 	str	x0, [sp, #1152]
    8bf8:	f90247e1 	str	x1, [sp, #1160]
    8bfc:	4e081c00 	mov	v0.d[0], x0
    8c00:	4e181c20 	mov	v0.d[1], x1
    8c04:	3d8127e0 	str	q0, [sp, #1168]
    8c08:	14000008 	b	8c28 <_<rand_chacha::chacha::ChaCha12Core as rand_core::block::BlockRngCore>::generate+0x68e8>
    8c0c:	f94687e8 	ldr	x8, [sp, #3336]
    8c10:	f976dbe9 	ldr	x9, [sp, #28080]
    8c14:	f9023be9 	str	x9, [sp, #1136]
    8c18:	b946e908 	ldr	w8, [x8, #1768]
    8c1c:	b9047fe8 	str	w8, [sp, #1148]
    8c20:	14000018 	b	8c80 <_<rand_chacha::chacha::ChaCha12Core as rand_core::block::BlockRngCore>::generate+0x6940>
    8c24:	17fffffa 	b	8c0c <_<rand_chacha::chacha::ChaCha12Core as rand_core::block::BlockRngCore>::generate+0x68cc>
    8c28:	f946b7e8 	ldr	x8, [sp, #3432]
    8c2c:	f94687e9 	ldr	x9, [sp, #3336]
    8c30:	f94247ea 	ldr	x10, [sp, #1160]
    8c34:	f94243eb 	ldr	x11, [sp, #1152]
    8c38:	3dc127e0 	ldr	q0, [sp, #1168]
    8c3c:	3d81c920 	str	q0, [x9, #1824]
    8c40:	f936cfeb 	str	x11, [sp, #28056]
    8c44:	f936d3ea 	str	x10, [sp, #28064]
    8c48:	91401bea 	add	x10, sp, #0x6, lsl #12
    8c4c:	9132654a 	add	x10, x10, #0xc99
    8c50:	3ccff140 	ldur	q0, [x10, #255]
    8c54:	3d81ad20 	str	q0, [x9, #1712]
    8c58:	3dc1ad20 	ldr	q0, [x9, #1712]
    8c5c:	3d81c520 	str	q0, [x9, #1808]
    8c60:	3dc1c520 	ldr	q0, [x9, #1808]
    8c64:	3d81cd20 	str	q0, [x9, #1840]
    8c68:	3dc1cd20 	ldr	q0, [x9, #1840]
    8c6c:	3d85c100 	str	q0, [x8, #5888]
    8c70:	14000009 	b	8c94 <_<rand_chacha::chacha::ChaCha12Core as rand_core::block::BlockRngCore>::generate+0x6954>
    8c74:	f95d2be8 	ldr	x8, [sp, #14928]
    8c78:	f90677e8 	str	x8, [sp, #3304]
    8c7c:	14000d4a 	b	c1a4 <_<rand_chacha::chacha::ChaCha12Core as rand_core::block::BlockRngCore>::generate+0x9e64>
    8c80:	b9447fe8 	ldr	w8, [sp, #1148]
    8c84:	f9423be9 	ldr	x9, [sp, #1136]
    8c88:	f91d2be9 	str	x9, [sp, #14928]
    8c8c:	b93a5be8 	str	w8, [sp, #14936]
    8c90:	17fffff9 	b	8c74 <_<rand_chacha::chacha::ChaCha12Core as rand_core::block::BlockRngCore>::generate+0x6934>
    8c94:	f94687e9 	ldr	x9, [sp, #3336]
    8c98:	f946b7e8 	ldr	x8, [sp, #3432]
    8c9c:	3dc2a900 	ldr	q0, [x8, #2720]
    8ca0:	3d813920 	str	q0, [x9, #1248]
    8ca4:	3dc2b900 	ldr	q0, [x8, #2784]
    8ca8:	3d813520 	str	q0, [x9, #1232]
    8cac:	3dc13920 	ldr	q0, [x9, #1248]
    8cb0:	91401be0 	add	x0, sp, #0x6, lsl #12
    8cb4:	912e4000 	add	x0, x0, #0xb90
    8cb8:	3d813120 	str	q0, [x9, #1216]
    8cbc:	3dc13520 	ldr	q0, [x9, #1232]
    8cc0:	3d813d20 	str	q0, [x9, #1264]
    8cc4:	39163d3f 	strb	wzr, [x9, #1423]
    8cc8:	52800028 	mov	w8, #0x1                   	// #1
    8ccc:	39163d28 	strb	w8, [x9, #1423]
    8cd0:	91401be8 	add	x8, sp, #0x6, lsl #12
    8cd4:	912f8108 	add	x8, x8, #0xbe0
    8cd8:	90000001 	adrp	x1, d408 <l_alloc_d6cd646a032ab5661bff8aa78f551e65>
    8cdc:	91000021 	add	x1, x1, #0x0
    8ce0:	94000000 	bl	0 <_<T as core::convert::Into<U>>::into>
    8ce4:	14000008 	b	8d04 <_<rand_chacha::chacha::ChaCha12Core as rand_core::block::BlockRngCore>::generate+0x69c4>
    8ce8:	f94687e8 	ldr	x8, [sp, #3336]
    8cec:	f93633e0 	str	x0, [sp, #27744]
    8cf0:	aa0103e9 	mov	x9, x1
    8cf4:	b9059909 	str	w9, [x8, #1432]
    8cf8:	39563d08 	ldrb	w8, [x8, #1423]
    8cfc:	370006a8 	tbnz	w8, #0, 8dd0 <_<rand_chacha::chacha::ChaCha12Core as rand_core::block::BlockRngCore>::generate+0x6a90>
    8d00:	1400002e 	b	8db8 <_<rand_chacha::chacha::ChaCha12Core as rand_core::block::BlockRngCore>::generate+0x6a78>
    8d04:	f94687e8 	ldr	x8, [sp, #3336]
    8d08:	39163d1f 	strb	wzr, [x8, #1423]
    8d0c:	3dc13d00 	ldr	q0, [x8, #1264]
    8d10:	91401be0 	add	x0, sp, #0x6, lsl #12
    8d14:	91300000 	add	x0, x0, #0xc00
    8d18:	3d814d00 	str	q0, [x8, #1328]
    8d1c:	91401be8 	add	x8, sp, #0x6, lsl #12
    8d20:	912fc108 	add	x8, x8, #0xbf0
    8d24:	90000001 	adrp	x1, d420 <l_alloc_eb8937521ab56b1815db886b021bd11a>
    8d28:	91000021 	add	x1, x1, #0x0
    8d2c:	94000000 	bl	0 <_<T as core::convert::Into<U>>::into>
    8d30:	14000001 	b	8d34 <_<rand_chacha::chacha::ChaCha12Core as rand_core::block::BlockRngCore>::generate+0x69f4>
    8d34:	f94687e8 	ldr	x8, [sp, #3336]
    8d38:	3dc14500 	ldr	q0, [x8, #1296]
    8d3c:	3d815100 	str	q0, [x8, #1344]
    8d40:	f9760beb 	ldr	x11, [sp, #27664]
    8d44:	d2800009 	mov	x9, #0x0                   	// #0
    8d48:	f93667eb 	str	x11, [sp, #27848]
    8d4c:	f9760fea 	ldr	x10, [sp, #27672]
    8d50:	f93663ea 	str	x10, [sp, #27840]
    8d54:	aa090161 	orr	x1, x11, x9
    8d58:	aa0a0122 	orr	x2, x9, x10
    8d5c:	4e081c20 	mov	v0.d[0], x1
    8d60:	4e181c40 	mov	v0.d[1], x2
    8d64:	3d816900 	str	q0, [x8, #1440]
    8d68:	3dc14900 	ldr	q0, [x8, #1312]
    8d6c:	3d815500 	str	q0, [x8, #1360]
    8d70:	f97613eb 	ldr	x11, [sp, #27680]
    8d74:	f9366feb 	str	x11, [sp, #27864]
    8d78:	f97617ea 	ldr	x10, [sp, #27688]
    8d7c:	f9366bea 	str	x10, [sp, #27856]
    8d80:	aa090163 	orr	x3, x11, x9
    8d84:	aa0a0124 	orr	x4, x9, x10
    8d88:	4e081c60 	mov	v0.d[0], x3
    8d8c:	4e181c80 	mov	v0.d[1], x4
    8d90:	3d816d00 	str	q0, [x8, #1456]
    8d94:	91401be0 	add	x0, sp, #0x6, lsl #12
    8d98:	912f7c00 	add	x0, x0, #0xbdf
    8d9c:	94000000 	bl	0 <_<ppv_lite86::generic::u32x4_generic as core::ops::bit::BitXor>::bitxor::{{closure}}>
    8da0:	f9022be0 	str	x0, [sp, #1104]
    8da4:	f9022fe1 	str	x1, [sp, #1112]
    8da8:	4e081c00 	mov	v0.d[0], x0
    8dac:	4e181c20 	mov	v0.d[1], x1
    8db0:	3d811be0 	str	q0, [sp, #1120]
    8db4:	14000008 	b	8dd4 <_<rand_chacha::chacha::ChaCha12Core as rand_core::block::BlockRngCore>::generate+0x6a94>
    8db8:	f94687e8 	ldr	x8, [sp, #3336]
    8dbc:	f97633e9 	ldr	x9, [sp, #27744]
    8dc0:	f90223e9 	str	x9, [sp, #1088]
    8dc4:	b9459908 	ldr	w8, [x8, #1432]
    8dc8:	b9044fe8 	str	w8, [sp, #1100]
    8dcc:	14000016 	b	8e24 <_<rand_chacha::chacha::ChaCha12Core as rand_core::block::BlockRngCore>::generate+0x6ae4>
    8dd0:	17fffffa 	b	8db8 <_<rand_chacha::chacha::ChaCha12Core as rand_core::block::BlockRngCore>::generate+0x6a78>
    8dd4:	f946b7e8 	ldr	x8, [sp, #3432]
    8dd8:	f94687e9 	ldr	x9, [sp, #3336]
    8ddc:	f9422fea 	ldr	x10, [sp, #1112]
    8de0:	f9422beb 	ldr	x11, [sp, #1104]
    8de4:	3dc11be0 	ldr	q0, [sp, #1120]
    8de8:	3d817520 	str	q0, [x9, #1488]
    8dec:	f93627eb 	str	x11, [sp, #27720]
    8df0:	f9362bea 	str	x10, [sp, #27728]
    8df4:	91401bea 	add	x10, sp, #0x6, lsl #12
    8df8:	912d254a 	add	x10, x10, #0xb49
    8dfc:	3ccff140 	ldur	q0, [x10, #255]
    8e00:	3d815920 	str	q0, [x9, #1376]
    8e04:	3dc15920 	ldr	q0, [x9, #1376]
    8e08:	3d817120 	str	q0, [x9, #1472]
    8e0c:	3dc17120 	ldr	q0, [x9, #1472]
    8e10:	3d817920 	str	q0, [x9, #1504]
    8e14:	3dc17920 	ldr	q0, [x9, #1504]
    8e18:	3d85c500 	str	q0, [x8, #5904]
    8e1c:	14000007 	b	8e38 <_<rand_chacha::chacha::ChaCha12Core as rand_core::block::BlockRngCore>::generate+0x6af8>
    8e20:	17ffff95 	b	8c74 <_<rand_chacha::chacha::ChaCha12Core as rand_core::block::BlockRngCore>::generate+0x6934>
    8e24:	b9444fe8 	ldr	w8, [sp, #1100]
    8e28:	f94223e9 	ldr	x9, [sp, #1088]
    8e2c:	f91d2be9 	str	x9, [sp, #14928]
    8e30:	b93a5be8 	str	w8, [sp, #14936]
    8e34:	17fffffb 	b	8e20 <_<rand_chacha::chacha::ChaCha12Core as rand_core::block::BlockRngCore>::generate+0x6ae0>
    8e38:	f94687e9 	ldr	x9, [sp, #3336]
    8e3c:	f946b7e8 	ldr	x8, [sp, #3432]
    8e40:	3dc2ad00 	ldr	q0, [x8, #2736]
    8e44:	3d80e520 	str	q0, [x9, #912]
    8e48:	3dc2bd00 	ldr	q0, [x8, #2800]
    8e4c:	3d80e120 	str	q0, [x9, #896]
    8e50:	3dc0e520 	ldr	q0, [x9, #912]
    8e54:	91401be0 	add	x0, sp, #0x6, lsl #12
    8e58:	91290000 	add	x0, x0, #0xa40
    8e5c:	3d80dd20 	str	q0, [x9, #880]
    8e60:	3dc0e120 	ldr	q0, [x9, #896]
    8e64:	3d80e920 	str	q0, [x9, #928]
    8e68:	3910fd3f 	strb	wzr, [x9, #1087]
    8e6c:	52800028 	mov	w8, #0x1                   	// #1
    8e70:	3910fd28 	strb	w8, [x9, #1087]
    8e74:	91401be8 	add	x8, sp, #0x6, lsl #12
    8e78:	912a4108 	add	x8, x8, #0xa90
    8e7c:	90000001 	adrp	x1, d408 <l_alloc_d6cd646a032ab5661bff8aa78f551e65>
    8e80:	91000021 	add	x1, x1, #0x0
    8e84:	94000000 	bl	0 <_<T as core::convert::Into<U>>::into>
    8e88:	14000008 	b	8ea8 <_<rand_chacha::chacha::ChaCha12Core as rand_core::block::BlockRngCore>::generate+0x6b68>
    8e8c:	f94687e8 	ldr	x8, [sp, #3336]
    8e90:	f9358be0 	str	x0, [sp, #27408]
    8e94:	aa0103e9 	mov	x9, x1
    8e98:	b9044909 	str	w9, [x8, #1096]
    8e9c:	3950fd08 	ldrb	w8, [x8, #1087]
    8ea0:	370006a8 	tbnz	w8, #0, 8f74 <_<rand_chacha::chacha::ChaCha12Core as rand_core::block::BlockRngCore>::generate+0x6c34>
    8ea4:	1400002e 	b	8f5c <_<rand_chacha::chacha::ChaCha12Core as rand_core::block::BlockRngCore>::generate+0x6c1c>
    8ea8:	f94687e8 	ldr	x8, [sp, #3336]
    8eac:	3910fd1f 	strb	wzr, [x8, #1087]
    8eb0:	3dc0e900 	ldr	q0, [x8, #928]
    8eb4:	91401be0 	add	x0, sp, #0x6, lsl #12
    8eb8:	912ac000 	add	x0, x0, #0xab0
    8ebc:	3d80f900 	str	q0, [x8, #992]
    8ec0:	91401be8 	add	x8, sp, #0x6, lsl #12
    8ec4:	912a8108 	add	x8, x8, #0xaa0
    8ec8:	90000001 	adrp	x1, d420 <l_alloc_eb8937521ab56b1815db886b021bd11a>
    8ecc:	91000021 	add	x1, x1, #0x0
    8ed0:	94000000 	bl	0 <_<T as core::convert::Into<U>>::into>
    8ed4:	14000001 	b	8ed8 <_<rand_chacha::chacha::ChaCha12Core as rand_core::block::BlockRngCore>::generate+0x6b98>
    8ed8:	f94687e8 	ldr	x8, [sp, #3336]
    8edc:	3dc0f100 	ldr	q0, [x8, #960]
    8ee0:	3d80fd00 	str	q0, [x8, #1008]
    8ee4:	f97563eb 	ldr	x11, [sp, #27328]
    8ee8:	d2800009 	mov	x9, #0x0                   	// #0
    8eec:	f935bfeb 	str	x11, [sp, #27512]
    8ef0:	f97567ea 	ldr	x10, [sp, #27336]
    8ef4:	f935bbea 	str	x10, [sp, #27504]
    8ef8:	aa090161 	orr	x1, x11, x9
    8efc:	aa0a0122 	orr	x2, x9, x10
    8f00:	4e081c20 	mov	v0.d[0], x1
    8f04:	4e181c40 	mov	v0.d[1], x2
    8f08:	3d811500 	str	q0, [x8, #1104]
    8f0c:	3dc0f500 	ldr	q0, [x8, #976]
    8f10:	3d810100 	str	q0, [x8, #1024]
    8f14:	f9756beb 	ldr	x11, [sp, #27344]
    8f18:	f935c7eb 	str	x11, [sp, #27528]
    8f1c:	f9756fea 	ldr	x10, [sp, #27352]
    8f20:	f935c3ea 	str	x10, [sp, #27520]
    8f24:	aa090163 	orr	x3, x11, x9
    8f28:	aa0a0124 	orr	x4, x9, x10
    8f2c:	4e081c60 	mov	v0.d[0], x3
    8f30:	4e181c80 	mov	v0.d[1], x4
    8f34:	3d811900 	str	q0, [x8, #1120]
    8f38:	91401be0 	add	x0, sp, #0x6, lsl #12
    8f3c:	912a3c00 	add	x0, x0, #0xa8f
    8f40:	94000000 	bl	0 <_<ppv_lite86::generic::u32x4_generic as core::ops::bit::BitXor>::bitxor::{{closure}}>
    8f44:	f90213e0 	str	x0, [sp, #1056]
    8f48:	f90217e1 	str	x1, [sp, #1064]
    8f4c:	4e081c00 	mov	v0.d[0], x0
    8f50:	4e181c20 	mov	v0.d[1], x1
    8f54:	3d810fe0 	str	q0, [sp, #1072]
    8f58:	14000008 	b	8f78 <_<rand_chacha::chacha::ChaCha12Core as rand_core::block::BlockRngCore>::generate+0x6c38>
    8f5c:	f94687e8 	ldr	x8, [sp, #3336]
    8f60:	f9758be9 	ldr	x9, [sp, #27408]
    8f64:	f9020be9 	str	x9, [sp, #1040]
    8f68:	b9444908 	ldr	w8, [x8, #1096]
    8f6c:	b9041fe8 	str	w8, [sp, #1052]
    8f70:	14000015 	b	8fc4 <_<rand_chacha::chacha::ChaCha12Core as rand_core::block::BlockRngCore>::generate+0x6c84>
    8f74:	17fffffa 	b	8f5c <_<rand_chacha::chacha::ChaCha12Core as rand_core::block::BlockRngCore>::generate+0x6c1c>
    8f78:	f946b7e8 	ldr	x8, [sp, #3432]
    8f7c:	f94687e9 	ldr	x9, [sp, #3336]
    8f80:	f94217ea 	ldr	x10, [sp, #1064]
    8f84:	f94213eb 	ldr	x11, [sp, #1056]
    8f88:	3dc10fe0 	ldr	q0, [sp, #1072]
    8f8c:	3d812120 	str	q0, [x9, #1152]
    8f90:	f9357feb 	str	x11, [sp, #27384]
    8f94:	f93583ea 	str	x10, [sp, #27392]
    8f98:	91401bea 	add	x10, sp, #0x6, lsl #12
    8f9c:	9127e54a 	add	x10, x10, #0x9f9
    8fa0:	3ccff140 	ldur	q0, [x10, #255]
    8fa4:	3d810520 	str	q0, [x9, #1040]
    8fa8:	3dc10520 	ldr	q0, [x9, #1040]
    8fac:	3d811d20 	str	q0, [x9, #1136]
    8fb0:	3dc11d20 	ldr	q0, [x9, #1136]
    8fb4:	3d812520 	str	q0, [x9, #1168]
    8fb8:	3dc12520 	ldr	q0, [x9, #1168]
    8fbc:	3d85c900 	str	q0, [x8, #5920]
    8fc0:	14000006 	b	8fd8 <_<rand_chacha::chacha::ChaCha12Core as rand_core::block::BlockRngCore>::generate+0x6c98>
    8fc4:	b9441fe8 	ldr	w8, [sp, #1052]
    8fc8:	f9420be9 	ldr	x9, [sp, #1040]
    8fcc:	f91d2be9 	str	x9, [sp, #14928]
    8fd0:	b93a5be8 	str	w8, [sp, #14936]
    8fd4:	17ffff93 	b	8e20 <_<rand_chacha::chacha::ChaCha12Core as rand_core::block::BlockRngCore>::generate+0x6ae0>
    8fd8:	f946b7e8 	ldr	x8, [sp, #3432]
    8fdc:	3dc5bd00 	ldr	q0, [x8, #5872]
    8fe0:	91400fe1 	add	x1, sp, #0x3, lsl #12
    8fe4:	91274021 	add	x1, x1, #0x9d0
    8fe8:	3d85ad00 	str	q0, [x8, #5808]
    8fec:	3dc5c100 	ldr	q0, [x8, #5888]
    8ff0:	3d85b100 	str	q0, [x8, #5824]
    8ff4:	3dc5c500 	ldr	q0, [x8, #5904]
    8ff8:	3d85b500 	str	q0, [x8, #5840]
    8ffc:	3dc5c900 	ldr	q0, [x8, #5920]
    9000:	3d85b900 	str	q0, [x8, #5856]
    9004:	91400be0 	add	x0, sp, #0x2, lsl #12
    9008:	91358000 	add	x0, x0, #0xd60
    900c:	52800808 	mov	w8, #0x40                  	// #64
    9010:	aa0803e2 	mov	x2, x8
    9014:	94000000 	bl	0 <_memcpy>
    9018:	f946b7e9 	ldr	x9, [sp, #3432]
    901c:	f94683e8 	ldr	x8, [sp, #3328]
    9020:	3dc29120 	ldr	q0, [x9, #2624]
    9024:	3d801500 	str	q0, [x8, #80]
    9028:	3dc01500 	ldr	q0, [x8, #80]
    902c:	91402be0 	add	x0, sp, #0xa, lsl #12
    9030:	911c8000 	add	x0, x0, #0x720
    9034:	3d801100 	str	q0, [x8, #64]
    9038:	91402be8 	add	x8, sp, #0xa, lsl #12
    903c:	911d4108 	add	x8, x8, #0x750
    9040:	90000001 	adrp	x1, d3d8 <l_alloc_345ce69d67e2022250dbe2d202815e5b>
    9044:	91000021 	add	x1, x1, #0x0
    9048:	94000000 	bl	0 <_<T as core::convert::Into<U>>::into>
    904c:	14000008 	b	906c <_<rand_chacha::chacha::ChaCha12Core as rand_core::block::BlockRngCore>::generate+0x6d2c>
    9050:	f94683e8 	ldr	x8, [sp, #3328]
    9054:	f9005900 	str	x0, [x8, #176]
    9058:	aa0103e9 	mov	x9, x1
    905c:	b900b909 	str	w9, [x8, #184]
    9060:	f9405908 	ldr	x8, [x8, #176]
    9064:	f90677e8 	str	x8, [sp, #3304]
    9068:	14000c4f 	b	c1a4 <_<rand_chacha::chacha::ChaCha12Core as rand_core::block::BlockRngCore>::generate+0x9e64>
    906c:	f94683e8 	ldr	x8, [sp, #3328]
    9070:	3dc01d00 	ldr	q0, [x8, #112]
    9074:	3d802100 	str	q0, [x8, #128]
    9078:	b9408101 	ldr	w1, [x8, #128]
    907c:	91402be0 	add	x0, sp, #0xa, lsl #12
    9080:	911d3c00 	add	x0, x0, #0x74f
    9084:	94000000 	bl	0 <_<ppv_lite86::generic::u32x4_generic as ppv_lite86::types::RotateEachWord32>::rotate_each_word_right24::{{closure}}>
    9088:	b9040fe0 	str	w0, [sp, #1036]
    908c:	14000001 	b	9090 <_<rand_chacha::chacha::ChaCha12Core as rand_core::block::BlockRngCore>::generate+0x6d50>
    9090:	f94683e8 	ldr	x8, [sp, #3328]
    9094:	b9408501 	ldr	w1, [x8, #132]
    9098:	91402be0 	add	x0, sp, #0xa, lsl #12
    909c:	911d3c00 	add	x0, x0, #0x74f
    90a0:	94000000 	bl	0 <_<ppv_lite86::generic::u32x4_generic as ppv_lite86::types::RotateEachWord32>::rotate_each_word_right24::{{closure}}>
    90a4:	b9040be0 	str	w0, [sp, #1032]
    90a8:	14000001 	b	90ac <_<rand_chacha::chacha::ChaCha12Core as rand_core::block::BlockRngCore>::generate+0x6d6c>
    90ac:	f94683e8 	ldr	x8, [sp, #3328]
    90b0:	b9408901 	ldr	w1, [x8, #136]
    90b4:	91402be0 	add	x0, sp, #0xa, lsl #12
    90b8:	911d3c00 	add	x0, x0, #0x74f
    90bc:	94000000 	bl	0 <_<ppv_lite86::generic::u32x4_generic as ppv_lite86::types::RotateEachWord32>::rotate_each_word_right24::{{closure}}>
    90c0:	b90407e0 	str	w0, [sp, #1028]
    90c4:	14000001 	b	90c8 <_<rand_chacha::chacha::ChaCha12Core as rand_core::block::BlockRngCore>::generate+0x6d88>
    90c8:	f94683e8 	ldr	x8, [sp, #3328]
    90cc:	b9408d01 	ldr	w1, [x8, #140]
    90d0:	91402be0 	add	x0, sp, #0xa, lsl #12
    90d4:	911d3c00 	add	x0, x0, #0x74f
    90d8:	94000000 	bl	0 <_<ppv_lite86::generic::u32x4_generic as ppv_lite86::types::RotateEachWord32>::rotate_each_word_right24::{{closure}}>
    90dc:	b90403e0 	str	w0, [sp, #1024]
    90e0:	14000001 	b	90e4 <_<rand_chacha::chacha::ChaCha12Core as rand_core::block::BlockRngCore>::generate+0x6da4>
    90e4:	f94687e8 	ldr	x8, [sp, #3336]
    90e8:	f946b7e9 	ldr	x9, [sp, #3432]
    90ec:	f94683ea 	ldr	x10, [sp, #3328]
    90f0:	b94403eb 	ldr	w11, [sp, #1024]
    90f4:	b94407ec 	ldr	w12, [sp, #1028]
    90f8:	b9440bed 	ldr	w13, [sp, #1032]
    90fc:	b9440fee 	ldr	w14, [sp, #1036]
    9100:	b900a14e 	str	w14, [x10, #160]
    9104:	b900a54d 	str	w13, [x10, #164]
    9108:	b900a94c 	str	w12, [x10, #168]
    910c:	b900ad4b 	str	w11, [x10, #172]
    9110:	3dc02940 	ldr	q0, [x10, #160]
    9114:	3d802540 	str	q0, [x10, #144]
    9118:	3dc02540 	ldr	q0, [x10, #144]
    911c:	3d803140 	str	q0, [x10, #192]
    9120:	3dc03140 	ldr	q0, [x10, #192]
    9124:	3d803540 	str	q0, [x10, #208]
    9128:	3dc03540 	ldr	q0, [x10, #208]
    912c:	3d8b4d00 	str	q0, [x8, #11568]
    9130:	3dc29520 	ldr	q0, [x9, #2640]
    9134:	3d8ff100 	str	q0, [x8, #16320]
    9138:	3dcff100 	ldr	q0, [x8, #16320]
    913c:	91402be0 	add	x0, sp, #0xa, lsl #12
    9140:	911a0000 	add	x0, x0, #0x680
    9144:	3d8fed00 	str	q0, [x8, #16304]
    9148:	91402be8 	add	x8, sp, #0xa, lsl #12
    914c:	911ac108 	add	x8, x8, #0x6b0
    9150:	90000001 	adrp	x1, d3d8 <l_alloc_345ce69d67e2022250dbe2d202815e5b>
    9154:	91000021 	add	x1, x1, #0x0
    9158:	94000000 	bl	0 <_<T as core::convert::Into<U>>::into>
    915c:	14000008 	b	917c <_<rand_chacha::chacha::ChaCha12Core as rand_core::block::BlockRngCore>::generate+0x6e3c>
    9160:	f94683e8 	ldr	x8, [sp, #3328]
    9164:	f9000900 	str	x0, [x8, #16]
    9168:	aa0103e9 	mov	x9, x1
    916c:	b9001909 	str	w9, [x8, #24]
    9170:	f9400908 	ldr	x8, [x8, #16]
    9174:	f90677e8 	str	x8, [sp, #3304]
    9178:	14000c0b 	b	c1a4 <_<rand_chacha::chacha::ChaCha12Core as rand_core::block::BlockRngCore>::generate+0x9e64>
    917c:	f94687e8 	ldr	x8, [sp, #3336]
    9180:	3dcff900 	ldr	q0, [x8, #16352]
    9184:	3d8ffd00 	str	q0, [x8, #16368]
    9188:	b97ff101 	ldr	w1, [x8, #16368]
    918c:	91402be0 	add	x0, sp, #0xa, lsl #12
    9190:	911abc00 	add	x0, x0, #0x6af
    9194:	94000000 	bl	0 <_<ppv_lite86::generic::u32x4_generic as ppv_lite86::types::RotateEachWord32>::rotate_each_word_right24::{{closure}}>
    9198:	b903ffe0 	str	w0, [sp, #1020]
    919c:	14000001 	b	91a0 <_<rand_chacha::chacha::ChaCha12Core as rand_core::block::BlockRngCore>::generate+0x6e60>
    91a0:	f94687e8 	ldr	x8, [sp, #3336]
    91a4:	b97ff501 	ldr	w1, [x8, #16372]
    91a8:	91402be0 	add	x0, sp, #0xa, lsl #12
    91ac:	911abc00 	add	x0, x0, #0x6af
    91b0:	94000000 	bl	0 <_<ppv_lite86::generic::u32x4_generic as ppv_lite86::types::RotateEachWord32>::rotate_each_word_right24::{{closure}}>
    91b4:	b903fbe0 	str	w0, [sp, #1016]
    91b8:	14000001 	b	91bc <_<rand_chacha::chacha::ChaCha12Core as rand_core::block::BlockRngCore>::generate+0x6e7c>
    91bc:	f94687e8 	ldr	x8, [sp, #3336]
    91c0:	b97ff901 	ldr	w1, [x8, #16376]
    91c4:	91402be0 	add	x0, sp, #0xa, lsl #12
    91c8:	911abc00 	add	x0, x0, #0x6af
    91cc:	94000000 	bl	0 <_<ppv_lite86::generic::u32x4_generic as ppv_lite86::types::RotateEachWord32>::rotate_each_word_right24::{{closure}}>
    91d0:	b903f7e0 	str	w0, [sp, #1012]
    91d4:	14000001 	b	91d8 <_<rand_chacha::chacha::ChaCha12Core as rand_core::block::BlockRngCore>::generate+0x6e98>
    91d8:	f94687e8 	ldr	x8, [sp, #3336]
    91dc:	b97ffd01 	ldr	w1, [x8, #16380]
    91e0:	91402be0 	add	x0, sp, #0xa, lsl #12
    91e4:	911abc00 	add	x0, x0, #0x6af
    91e8:	94000000 	bl	0 <_<ppv_lite86::generic::u32x4_generic as ppv_lite86::types::RotateEachWord32>::rotate_each_word_right24::{{closure}}>
    91ec:	b903f3e0 	str	w0, [sp, #1008]
    91f0:	14000001 	b	91f4 <_<rand_chacha::chacha::ChaCha12Core as rand_core::block::BlockRngCore>::generate+0x6eb4>
    91f4:	f94687e8 	ldr	x8, [sp, #3336]
    91f8:	f946b7e9 	ldr	x9, [sp, #3432]
    91fc:	f94683ea 	ldr	x10, [sp, #3328]
    9200:	b943f3eb 	ldr	w11, [sp, #1008]
    9204:	b943f7ec 	ldr	w12, [sp, #1012]
    9208:	b943fbed 	ldr	w13, [sp, #1016]
    920c:	b943ffee 	ldr	w14, [sp, #1020]
    9210:	b900014e 	str	w14, [x10]
    9214:	b900054d 	str	w13, [x10, #4]
    9218:	b900094c 	str	w12, [x10, #8]
    921c:	b9000d4b 	str	w11, [x10, #12]
    9220:	3dc00140 	ldr	q0, [x10]
    9224:	3d900100 	str	q0, [x8, #16384]
    9228:	3dd00100 	ldr	q0, [x8, #16384]
    922c:	3d800940 	str	q0, [x10, #32]
    9230:	3dc00940 	ldr	q0, [x10, #32]
    9234:	3d800d40 	str	q0, [x10, #48]
    9238:	3dc00d40 	ldr	q0, [x10, #48]
    923c:	3d8b5100 	str	q0, [x8, #11584]
    9240:	3dc29920 	ldr	q0, [x9, #2656]
    9244:	3d8fc900 	str	q0, [x8, #16160]
    9248:	3dcfc900 	ldr	q0, [x8, #16160]
    924c:	91402be0 	add	x0, sp, #0xa, lsl #12
    9250:	91178000 	add	x0, x0, #0x5e0
    9254:	3d8fc500 	str	q0, [x8, #16144]
    9258:	91402be8 	add	x8, sp, #0xa, lsl #12
    925c:	91184108 	add	x8, x8, #0x610
    9260:	90000001 	adrp	x1, d3d8 <l_alloc_345ce69d67e2022250dbe2d202815e5b>
    9264:	91000021 	add	x1, x1, #0x0
    9268:	94000000 	bl	0 <_<T as core::convert::Into<U>>::into>
    926c:	14000008 	b	928c <_<rand_chacha::chacha::ChaCha12Core as rand_core::block::BlockRngCore>::generate+0x6f4c>
    9270:	f94687e8 	ldr	x8, [sp, #3336]
    9274:	f91fc100 	str	x0, [x8, #16256]
    9278:	aa0103e9 	mov	x9, x1
    927c:	b93f8909 	str	w9, [x8, #16264]
    9280:	f95fc108 	ldr	x8, [x8, #16256]
    9284:	f90677e8 	str	x8, [sp, #3304]
    9288:	14000bc7 	b	c1a4 <_<rand_chacha::chacha::ChaCha12Core as rand_core::block::BlockRngCore>::generate+0x9e64>
    928c:	f94687e8 	ldr	x8, [sp, #3336]
    9290:	3dcfd100 	ldr	q0, [x8, #16192]
    9294:	3d8fd500 	str	q0, [x8, #16208]
    9298:	b97f5101 	ldr	w1, [x8, #16208]
    929c:	91402be0 	add	x0, sp, #0xa, lsl #12
    92a0:	91183c00 	add	x0, x0, #0x60f
    92a4:	94000000 	bl	0 <_<ppv_lite86::generic::u32x4_generic as ppv_lite86::types::RotateEachWord32>::rotate_each_word_right24::{{closure}}>
    92a8:	b903efe0 	str	w0, [sp, #1004]
    92ac:	14000001 	b	92b0 <_<rand_chacha::chacha::ChaCha12Core as rand_core::block::BlockRngCore>::generate+0x6f70>
    92b0:	f94687e8 	ldr	x8, [sp, #3336]
    92b4:	b97f5501 	ldr	w1, [x8, #16212]
    92b8:	91402be0 	add	x0, sp, #0xa, lsl #12
    92bc:	91183c00 	add	x0, x0, #0x60f
    92c0:	94000000 	bl	0 <_<ppv_lite86::generic::u32x4_generic as ppv_lite86::types::RotateEachWord32>::rotate_each_word_right24::{{closure}}>
    92c4:	b903ebe0 	str	w0, [sp, #1000]
    92c8:	14000001 	b	92cc <_<rand_chacha::chacha::ChaCha12Core as rand_core::block::BlockRngCore>::generate+0x6f8c>
    92cc:	f94687e8 	ldr	x8, [sp, #3336]
    92d0:	b97f5901 	ldr	w1, [x8, #16216]
    92d4:	91402be0 	add	x0, sp, #0xa, lsl #12
    92d8:	91183c00 	add	x0, x0, #0x60f
    92dc:	94000000 	bl	0 <_<ppv_lite86::generic::u32x4_generic as ppv_lite86::types::RotateEachWord32>::rotate_each_word_right24::{{closure}}>
    92e0:	b903e7e0 	str	w0, [sp, #996]
    92e4:	14000001 	b	92e8 <_<rand_chacha::chacha::ChaCha12Core as rand_core::block::BlockRngCore>::generate+0x6fa8>
    92e8:	f94687e8 	ldr	x8, [sp, #3336]
    92ec:	b97f5d01 	ldr	w1, [x8, #16220]
    92f0:	91402be0 	add	x0, sp, #0xa, lsl #12
    92f4:	91183c00 	add	x0, x0, #0x60f
    92f8:	94000000 	bl	0 <_<ppv_lite86::generic::u32x4_generic as ppv_lite86::types::RotateEachWord32>::rotate_each_word_right24::{{closure}}>
    92fc:	b903e3e0 	str	w0, [sp, #992]
    9300:	14000001 	b	9304 <_<rand_chacha::chacha::ChaCha12Core as rand_core::block::BlockRngCore>::generate+0x6fc4>
    9304:	f94687e8 	ldr	x8, [sp, #3336]
    9308:	f946b7e9 	ldr	x9, [sp, #3432]
    930c:	b943e3ea 	ldr	w10, [sp, #992]
    9310:	b943e7eb 	ldr	w11, [sp, #996]
    9314:	b943ebec 	ldr	w12, [sp, #1000]
    9318:	b943efed 	ldr	w13, [sp, #1004]
    931c:	b93f710d 	str	w13, [x8, #16240]
    9320:	b93f750c 	str	w12, [x8, #16244]
    9324:	b93f790b 	str	w11, [x8, #16248]
    9328:	b93f7d0a 	str	w10, [x8, #16252]
    932c:	3dcfdd00 	ldr	q0, [x8, #16240]
    9330:	3d8fd900 	str	q0, [x8, #16224]
    9334:	3dcfd900 	ldr	q0, [x8, #16224]
    9338:	3d8fe500 	str	q0, [x8, #16272]
    933c:	3dcfe500 	ldr	q0, [x8, #16272]
    9340:	3d8fe900 	str	q0, [x8, #16288]
    9344:	3dcfe900 	ldr	q0, [x8, #16288]
    9348:	3d8b5500 	str	q0, [x8, #11600]
    934c:	3dc29d20 	ldr	q0, [x9, #2672]
    9350:	3d8fa100 	str	q0, [x8, #16000]
    9354:	3dcfa100 	ldr	q0, [x8, #16000]
    9358:	91402be0 	add	x0, sp, #0xa, lsl #12
    935c:	91150000 	add	x0, x0, #0x540
    9360:	3d8f9d00 	str	q0, [x8, #15984]
    9364:	91402be8 	add	x8, sp, #0xa, lsl #12
    9368:	9115c108 	add	x8, x8, #0x570
    936c:	90000001 	adrp	x1, d3d8 <l_alloc_345ce69d67e2022250dbe2d202815e5b>
    9370:	91000021 	add	x1, x1, #0x0
    9374:	94000000 	bl	0 <_<T as core::convert::Into<U>>::into>
    9378:	14000008 	b	9398 <_<rand_chacha::chacha::ChaCha12Core as rand_core::block::BlockRngCore>::generate+0x7058>
    937c:	f94687e8 	ldr	x8, [sp, #3336]
    9380:	f91f7100 	str	x0, [x8, #16096]
    9384:	aa0103e9 	mov	x9, x1
    9388:	b93ee909 	str	w9, [x8, #16104]
    938c:	f95f7108 	ldr	x8, [x8, #16096]
    9390:	f90677e8 	str	x8, [sp, #3304]
    9394:	14000b84 	b	c1a4 <_<rand_chacha::chacha::ChaCha12Core as rand_core::block::BlockRngCore>::generate+0x9e64>
    9398:	f94687e8 	ldr	x8, [sp, #3336]
    939c:	3dcfa900 	ldr	q0, [x8, #16032]
    93a0:	3d8fad00 	str	q0, [x8, #16048]
    93a4:	b97eb101 	ldr	w1, [x8, #16048]
    93a8:	91402be0 	add	x0, sp, #0xa, lsl #12
    93ac:	9115bc00 	add	x0, x0, #0x56f
    93b0:	94000000 	bl	0 <_<ppv_lite86::generic::u32x4_generic as ppv_lite86::types::RotateEachWord32>::rotate_each_word_right24::{{closure}}>
    93b4:	b903dfe0 	str	w0, [sp, #988]
    93b8:	14000001 	b	93bc <_<rand_chacha::chacha::ChaCha12Core as rand_core::block::BlockRngCore>::generate+0x707c>
    93bc:	f94687e8 	ldr	x8, [sp, #3336]
    93c0:	b97eb501 	ldr	w1, [x8, #16052]
    93c4:	91402be0 	add	x0, sp, #0xa, lsl #12
    93c8:	9115bc00 	add	x0, x0, #0x56f
    93cc:	94000000 	bl	0 <_<ppv_lite86::generic::u32x4_generic as ppv_lite86::types::RotateEachWord32>::rotate_each_word_right24::{{closure}}>
    93d0:	b903dbe0 	str	w0, [sp, #984]
    93d4:	14000001 	b	93d8 <_<rand_chacha::chacha::ChaCha12Core as rand_core::block::BlockRngCore>::generate+0x7098>
    93d8:	f94687e8 	ldr	x8, [sp, #3336]
    93dc:	b97eb901 	ldr	w1, [x8, #16056]
    93e0:	91402be0 	add	x0, sp, #0xa, lsl #12
    93e4:	9115bc00 	add	x0, x0, #0x56f
    93e8:	94000000 	bl	0 <_<ppv_lite86::generic::u32x4_generic as ppv_lite86::types::RotateEachWord32>::rotate_each_word_right24::{{closure}}>
    93ec:	b903d7e0 	str	w0, [sp, #980]
    93f0:	14000001 	b	93f4 <_<rand_chacha::chacha::ChaCha12Core as rand_core::block::BlockRngCore>::generate+0x70b4>
    93f4:	f94687e8 	ldr	x8, [sp, #3336]
    93f8:	b97ebd01 	ldr	w1, [x8, #16060]
    93fc:	91402be0 	add	x0, sp, #0xa, lsl #12
    9400:	9115bc00 	add	x0, x0, #0x56f
    9404:	94000000 	bl	0 <_<ppv_lite86::generic::u32x4_generic as ppv_lite86::types::RotateEachWord32>::rotate_each_word_right24::{{closure}}>
    9408:	b903d3e0 	str	w0, [sp, #976]
    940c:	14000001 	b	9410 <_<rand_chacha::chacha::ChaCha12Core as rand_core::block::BlockRngCore>::generate+0x70d0>
    9410:	f94687e8 	ldr	x8, [sp, #3336]
    9414:	b943d3e9 	ldr	w9, [sp, #976]
    9418:	b943d7ea 	ldr	w10, [sp, #980]
    941c:	b943dbeb 	ldr	w11, [sp, #984]
    9420:	b943dfec 	ldr	w12, [sp, #988]
    9424:	b93ed10c 	str	w12, [x8, #16080]
    9428:	b93ed50b 	str	w11, [x8, #16084]
    942c:	b93ed90a 	str	w10, [x8, #16088]
    9430:	b93edd09 	str	w9, [x8, #16092]
    9434:	3dcfb500 	ldr	q0, [x8, #16080]
    9438:	3d8fb100 	str	q0, [x8, #16064]
    943c:	3dcfb100 	ldr	q0, [x8, #16064]
    9440:	3d8fbd00 	str	q0, [x8, #16112]
    9444:	3dcfbd00 	ldr	q0, [x8, #16112]
    9448:	3d8fc100 	str	q0, [x8, #16128]
    944c:	3dcfc100 	ldr	q0, [x8, #16128]
    9450:	3d8b5900 	str	q0, [x8, #11616]
    9454:	3dcb4d00 	ldr	q0, [x8, #11568]
    9458:	914027e1 	add	x1, sp, #0x9, lsl #12
    945c:	910f0021 	add	x1, x1, #0x3c0
    9460:	3d8b3d00 	str	q0, [x8, #11504]
    9464:	3dcb5100 	ldr	q0, [x8, #11584]
    9468:	3d8b4100 	str	q0, [x8, #11520]
    946c:	3dcb5500 	ldr	q0, [x8, #11600]
    9470:	3d8b4500 	str	q0, [x8, #11536]
    9474:	3dcb5900 	ldr	q0, [x8, #11616]
    9478:	3d8b4900 	str	q0, [x8, #11552]
    947c:	91400be0 	add	x0, sp, #0x2, lsl #12
    9480:	91348000 	add	x0, x0, #0xd20
    9484:	f901dbe0 	str	x0, [sp, #944]
    9488:	52800808 	mov	w8, #0x40                  	// #64
    948c:	aa0803e2 	mov	x2, x8
    9490:	f901e7e2 	str	x2, [sp, #968]
    9494:	94000000 	bl	0 <_memcpy>
    9498:	f941dbe1 	ldr	x1, [sp, #944]
    949c:	f941e7e2 	ldr	x2, [sp, #968]
    94a0:	914007e8 	add	x8, sp, #0x1, lsl #12
    94a4:	91144108 	add	x8, x8, #0x510
    94a8:	f901e3e8 	str	x8, [sp, #960]
    94ac:	91030100 	add	x0, x8, #0xc0
    94b0:	94000000 	bl	0 <_memcpy>
    94b4:	f941e3e8 	ldr	x8, [sp, #960]
    94b8:	f941e7e2 	ldr	x2, [sp, #968]
    94bc:	91020109 	add	x9, x8, #0x80
    94c0:	f901dfe9 	str	x9, [sp, #952]
    94c4:	91030101 	add	x1, x8, #0xc0
    94c8:	91400be0 	add	x0, sp, #0x2, lsl #12
    94cc:	91388000 	add	x0, x0, #0xe20
    94d0:	94000000 	bl	0 <_memcpy>
    94d4:	f941dfea 	ldr	x10, [sp, #952]
    94d8:	f946abe9 	ldr	x9, [sp, #3408]
    94dc:	f946b7eb 	ldr	x11, [sp, #3432]
    94e0:	f94687e8 	ldr	x8, [sp, #3336]
    94e4:	aa0a03ec 	mov	x12, x10
    94e8:	f93a87ec 	str	x12, [sp, #29960]
    94ec:	3dc2c160 	ldr	q0, [x11, #2816]
    94f0:	3d837d00 	str	q0, [x8, #3568]
    94f4:	911803eb 	add	x11, sp, #0x600
    94f8:	f93ffd6a 	str	x10, [x11, #32760]
    94fc:	3dc1e520 	ldr	q0, [x9, #1936]
    9500:	3d87d500 	str	q0, [x8, #8016]
    9504:	3dc37d00 	ldr	q0, [x8, #3568]
    9508:	3d87d100 	str	q0, [x8, #8000]
    950c:	3dc7d500 	ldr	q0, [x8, #8016]
    9510:	914023e0 	add	x0, sp, #0x8, lsl #12
    9514:	91180000 	add	x0, x0, #0x600
    9518:	3d87cd00 	str	q0, [x8, #7984]
    951c:	3dc7d100 	ldr	q0, [x8, #8000]
    9520:	914023e1 	add	x1, sp, #0x8, lsl #12
    9524:	9118c021 	add	x1, x1, #0x630
    9528:	3d87d900 	str	q0, [x8, #8032]
    952c:	914023e8 	add	x8, sp, #0x8, lsl #12
    9530:	9117a108 	add	x8, x8, #0x5e8
    9534:	94000000 	bl	0 <_ppv_lite86::generic::dmap2>
    9538:	f946abe9 	ldr	x9, [sp, #3408]
    953c:	f941e3ea 	ldr	x10, [sp, #960]
    9540:	f946b7eb 	ldr	x11, [sp, #3432]
    9544:	f94687e8 	ldr	x8, [sp, #3336]
    9548:	914023ec 	add	x12, sp, #0x8, lsl #12
    954c:	9113a58c 	add	x12, x12, #0x4e9
    9550:	3ccff180 	ldur	q0, [x12, #255]
    9554:	3d81e520 	str	q0, [x9, #1936]
    9558:	9102414a 	add	x10, x10, #0x90
    955c:	3dc2c560 	ldr	q0, [x11, #2832]
    9560:	3d838100 	str	q0, [x8, #3584]
    9564:	911683eb 	add	x11, sp, #0x5a0
    9568:	f93ffd6a 	str	x10, [x11, #32760]
    956c:	3dc1e920 	ldr	q0, [x9, #1952]
    9570:	3d87bd00 	str	q0, [x8, #7920]
    9574:	3dc38100 	ldr	q0, [x8, #3584]
    9578:	3d87b900 	str	q0, [x8, #7904]
    957c:	3dc7bd00 	ldr	q0, [x8, #7920]
    9580:	914023e0 	add	x0, sp, #0x8, lsl #12
    9584:	91168000 	add	x0, x0, #0x5a0
    9588:	3d87b500 	str	q0, [x8, #7888]
    958c:	3dc7b900 	ldr	q0, [x8, #7904]
    9590:	914023e1 	add	x1, sp, #0x8, lsl #12
    9594:	91174021 	add	x1, x1, #0x5d0
    9598:	3d87c100 	str	q0, [x8, #7936]
    959c:	914023e8 	add	x8, sp, #0x8, lsl #12
    95a0:	91162108 	add	x8, x8, #0x588
    95a4:	94000000 	bl	0 <_ppv_lite86::generic::dmap2>
    95a8:	f946abe9 	ldr	x9, [sp, #3408]
    95ac:	f941e3ea 	ldr	x10, [sp, #960]
    95b0:	f946b7eb 	ldr	x11, [sp, #3432]
    95b4:	f94687e8 	ldr	x8, [sp, #3336]
    95b8:	914023ec 	add	x12, sp, #0x8, lsl #12
    95bc:	9112258c 	add	x12, x12, #0x489
    95c0:	3ccff180 	ldur	q0, [x12, #255]
    95c4:	3d81e920 	str	q0, [x9, #1952]
    95c8:	9102814a 	add	x10, x10, #0xa0
    95cc:	3dc2c960 	ldr	q0, [x11, #2848]
    95d0:	3d838500 	str	q0, [x8, #3600]
    95d4:	911503eb 	add	x11, sp, #0x540
    95d8:	f93ffd6a 	str	x10, [x11, #32760]
    95dc:	3dc1ed20 	ldr	q0, [x9, #1968]
    95e0:	3d87a500 	str	q0, [x8, #7824]
    95e4:	3dc38500 	ldr	q0, [x8, #3600]
    95e8:	3d87a100 	str	q0, [x8, #7808]
    95ec:	3dc7a500 	ldr	q0, [x8, #7824]
    95f0:	914023e0 	add	x0, sp, #0x8, lsl #12
    95f4:	91150000 	add	x0, x0, #0x540
    95f8:	3d879d00 	str	q0, [x8, #7792]
    95fc:	3dc7a100 	ldr	q0, [x8, #7808]
    9600:	914023e1 	add	x1, sp, #0x8, lsl #12
    9604:	9115c021 	add	x1, x1, #0x570
    9608:	3d87a900 	str	q0, [x8, #7840]
    960c:	914023e8 	add	x8, sp, #0x8, lsl #12
    9610:	9114a108 	add	x8, x8, #0x528
    9614:	94000000 	bl	0 <_ppv_lite86::generic::dmap2>
    9618:	f946abe9 	ldr	x9, [sp, #3408]
    961c:	f941e3ea 	ldr	x10, [sp, #960]
    9620:	f946b7eb 	ldr	x11, [sp, #3432]
    9624:	f94687e8 	ldr	x8, [sp, #3336]
    9628:	914023ec 	add	x12, sp, #0x8, lsl #12
    962c:	9110a58c 	add	x12, x12, #0x429
    9630:	3ccff180 	ldur	q0, [x12, #255]
    9634:	3d81ed20 	str	q0, [x9, #1968]
    9638:	9102c14a 	add	x10, x10, #0xb0
    963c:	3dc2cd60 	ldr	q0, [x11, #2864]
    9640:	3d838900 	str	q0, [x8, #3616]
    9644:	911383eb 	add	x11, sp, #0x4e0
    9648:	f93ffd6a 	str	x10, [x11, #32760]
    964c:	3dc1f120 	ldr	q0, [x9, #1984]
    9650:	3d878d00 	str	q0, [x8, #7728]
    9654:	3dc38900 	ldr	q0, [x8, #3616]
    9658:	3d878900 	str	q0, [x8, #7712]
    965c:	3dc78d00 	ldr	q0, [x8, #7728]
    9660:	914023e0 	add	x0, sp, #0x8, lsl #12
    9664:	91138000 	add	x0, x0, #0x4e0
    9668:	3d878500 	str	q0, [x8, #7696]
    966c:	3dc78900 	ldr	q0, [x8, #7712]
    9670:	914023e1 	add	x1, sp, #0x8, lsl #12
    9674:	91144021 	add	x1, x1, #0x510
    9678:	3d879100 	str	q0, [x8, #7744]
    967c:	914023e8 	add	x8, sp, #0x8, lsl #12
    9680:	91132108 	add	x8, x8, #0x4c8
    9684:	94000000 	bl	0 <_ppv_lite86::generic::dmap2>
    9688:	f946abe9 	ldr	x9, [sp, #3408]
    968c:	f941e3e8 	ldr	x8, [sp, #960]
    9690:	f941e7e2 	ldr	x2, [sp, #968]
    9694:	914023ea 	add	x10, sp, #0x8, lsl #12
    9698:	910f254a 	add	x10, x10, #0x3c9
    969c:	3ccff140 	ldur	q0, [x10, #255]
    96a0:	3d81f120 	str	q0, [x9, #1984]
    96a4:	91010101 	add	x1, x8, #0x40
    96a8:	91400be0 	add	x0, sp, #0x2, lsl #12
    96ac:	913b8000 	add	x0, x0, #0xee0
    96b0:	94000000 	bl	0 <_memcpy>
    96b4:	f941e3e8 	ldr	x8, [sp, #960]
    96b8:	f941e7e2 	ldr	x2, [sp, #968]
    96bc:	91020101 	add	x1, x8, #0x80
    96c0:	91400be0 	add	x0, sp, #0x2, lsl #12
    96c4:	913c8000 	add	x0, x0, #0xf20
    96c8:	94000000 	bl	0 <_memcpy>
    96cc:	f946b7e8 	ldr	x8, [sp, #3432]
    96d0:	f94687e9 	ldr	x9, [sp, #3336]
    96d4:	3dc2f100 	ldr	q0, [x8, #3008]
    96d8:	3d833120 	str	q0, [x9, #3264]
    96dc:	3dc30100 	ldr	q0, [x8, #3072]
    96e0:	3d832d20 	str	q0, [x9, #3248]
    96e4:	3dc33120 	ldr	q0, [x9, #3264]
    96e8:	91401fe0 	add	x0, sp, #0x7, lsl #12
    96ec:	910dc000 	add	x0, x0, #0x370
    96f0:	3d832920 	str	q0, [x9, #3232]
    96f4:	3dc32d20 	ldr	q0, [x9, #3248]
    96f8:	3d833520 	str	q0, [x9, #3280]
    96fc:	3935bd3f 	strb	wzr, [x9, #3439]
    9700:	52800028 	mov	w8, #0x1                   	// #1
    9704:	3935bd28 	strb	w8, [x9, #3439]
    9708:	91401fe8 	add	x8, sp, #0x7, lsl #12
    970c:	910f0108 	add	x8, x8, #0x3c0
    9710:	90000001 	adrp	x1, d408 <l_alloc_d6cd646a032ab5661bff8aa78f551e65>
    9714:	91000021 	add	x1, x1, #0x0
    9718:	94000000 	bl	0 <_<T as core::convert::Into<U>>::into>
    971c:	14000008 	b	973c <_<rand_chacha::chacha::ChaCha12Core as rand_core::block::BlockRngCore>::generate+0x73fc>
    9720:	f94687e8 	ldr	x8, [sp, #3336]
    9724:	f93a23e0 	str	x0, [sp, #29760]
    9728:	aa0103e9 	mov	x9, x1
    972c:	b90d7909 	str	w9, [x8, #3448]
    9730:	3975bd08 	ldrb	w8, [x8, #3439]
    9734:	37000648 	tbnz	w8, #0, 97fc <_<rand_chacha::chacha::ChaCha12Core as rand_core::block::BlockRngCore>::generate+0x74bc>
    9738:	1400002e 	b	97f0 <_<rand_chacha::chacha::ChaCha12Core as rand_core::block::BlockRngCore>::generate+0x74b0>
    973c:	f94687e8 	ldr	x8, [sp, #3336]
    9740:	3935bd1f 	strb	wzr, [x8, #3439]
    9744:	3dc33500 	ldr	q0, [x8, #3280]
    9748:	91401fe0 	add	x0, sp, #0x7, lsl #12
    974c:	910f8000 	add	x0, x0, #0x3e0
    9750:	3d834500 	str	q0, [x8, #3344]
    9754:	91401fe8 	add	x8, sp, #0x7, lsl #12
    9758:	910f4108 	add	x8, x8, #0x3d0
    975c:	90000001 	adrp	x1, d420 <l_alloc_eb8937521ab56b1815db886b021bd11a>
    9760:	91000021 	add	x1, x1, #0x0
    9764:	94000000 	bl	0 <_<T as core::convert::Into<U>>::into>
    9768:	14000001 	b	976c <_<rand_chacha::chacha::ChaCha12Core as rand_core::block::BlockRngCore>::generate+0x742c>
    976c:	f94687e8 	ldr	x8, [sp, #3336]
    9770:	3dc33d00 	ldr	q0, [x8, #3312]
    9774:	3d834900 	str	q0, [x8, #3360]
    9778:	f979fbeb 	ldr	x11, [sp, #29680]
    977c:	d2800009 	mov	x9, #0x0                   	// #0
    9780:	f93a57eb 	str	x11, [sp, #29864]
    9784:	f979ffea 	ldr	x10, [sp, #29688]
    9788:	f93a53ea 	str	x10, [sp, #29856]
    978c:	aa090161 	orr	x1, x11, x9
    9790:	aa0a0122 	orr	x2, x9, x10
    9794:	4e081c20 	mov	v0.d[0], x1
    9798:	4e181c40 	mov	v0.d[1], x2
    979c:	3d836100 	str	q0, [x8, #3456]
    97a0:	3dc34100 	ldr	q0, [x8, #3328]
    97a4:	3d834d00 	str	q0, [x8, #3376]
    97a8:	f97a03eb 	ldr	x11, [sp, #29696]
    97ac:	f93a5feb 	str	x11, [sp, #29880]
    97b0:	f97a07ea 	ldr	x10, [sp, #29704]
    97b4:	f93a5bea 	str	x10, [sp, #29872]
    97b8:	aa090163 	orr	x3, x11, x9
    97bc:	aa0a0124 	orr	x4, x9, x10
    97c0:	4e081c60 	mov	v0.d[0], x3
    97c4:	4e181c80 	mov	v0.d[1], x4
    97c8:	3d836500 	str	q0, [x8, #3472]
    97cc:	91401fe0 	add	x0, sp, #0x7, lsl #12
    97d0:	910efc00 	add	x0, x0, #0x3bf
    97d4:	94000000 	bl	0 <_<ppv_lite86::generic::u32x4_generic as core::ops::bit::BitXor>::bitxor::{{closure}}>
    97d8:	f901cbe0 	str	x0, [sp, #912]
    97dc:	f901cfe1 	str	x1, [sp, #920]
    97e0:	4e081c00 	mov	v0.d[0], x0
    97e4:	4e181c20 	mov	v0.d[1], x1
    97e8:	3d80ebe0 	str	q0, [sp, #928]
    97ec:	14000005 	b	9800 <_<rand_chacha::chacha::ChaCha12Core as rand_core::block::BlockRngCore>::generate+0x74c0>
    97f0:	f97a23e8 	ldr	x8, [sp, #29760]
    97f4:	f90677e8 	str	x8, [sp, #3304]
    97f8:	14000a6b 	b	c1a4 <_<rand_chacha::chacha::ChaCha12Core as rand_core::block::BlockRngCore>::generate+0x9e64>
    97fc:	17fffffd 	b	97f0 <_<rand_chacha::chacha::ChaCha12Core as rand_core::block::BlockRngCore>::generate+0x74b0>
    9800:	f94687e9 	ldr	x9, [sp, #3336]
    9804:	f946b7e8 	ldr	x8, [sp, #3432]
    9808:	f941cfea 	ldr	x10, [sp, #920]
    980c:	f941cbeb 	ldr	x11, [sp, #912]
    9810:	3dc0ebe0 	ldr	q0, [sp, #928]
    9814:	3d836d20 	str	q0, [x9, #3504]
    9818:	f93a17eb 	str	x11, [sp, #29736]
    981c:	f93a1bea 	str	x10, [sp, #29744]
    9820:	91401fea 	add	x10, sp, #0x7, lsl #12
    9824:	910ca54a 	add	x10, x10, #0x329
    9828:	3ccff140 	ldur	q0, [x10, #255]
    982c:	3d835120 	str	q0, [x9, #3392]
    9830:	3dc35120 	ldr	q0, [x9, #3392]
    9834:	3d836920 	str	q0, [x9, #3488]
    9838:	3dc36920 	ldr	q0, [x9, #3488]
    983c:	3d837120 	str	q0, [x9, #3520]
    9840:	3dc37120 	ldr	q0, [x9, #3520]
    9844:	3d859900 	str	q0, [x8, #5728]
    9848:	3dc2f500 	ldr	q0, [x8, #3024]
    984c:	3d82dd20 	str	q0, [x9, #2928]
    9850:	3dc30500 	ldr	q0, [x8, #3088]
    9854:	3d82d920 	str	q0, [x9, #2912]
    9858:	3dc2dd20 	ldr	q0, [x9, #2928]
    985c:	91401fe0 	add	x0, sp, #0x7, lsl #12
    9860:	91088000 	add	x0, x0, #0x220
    9864:	3d82d520 	str	q0, [x9, #2896]
    9868:	3dc2d920 	ldr	q0, [x9, #2912]
    986c:	3d82e120 	str	q0, [x9, #2944]
    9870:	39307d3f 	strb	wzr, [x9, #3103]
    9874:	52800028 	mov	w8, #0x1                   	// #1
    9878:	39307d28 	strb	w8, [x9, #3103]
    987c:	91401fe8 	add	x8, sp, #0x7, lsl #12
    9880:	9109c108 	add	x8, x8, #0x270
    9884:	90000001 	adrp	x1, d408 <l_alloc_d6cd646a032ab5661bff8aa78f551e65>
    9888:	91000021 	add	x1, x1, #0x0
    988c:	94000000 	bl	0 <_<T as core::convert::Into<U>>::into>
    9890:	14000008 	b	98b0 <_<rand_chacha::chacha::ChaCha12Core as rand_core::block::BlockRngCore>::generate+0x7570>
    9894:	f94687e8 	ldr	x8, [sp, #3336]
    9898:	f9397be0 	str	x0, [sp, #29424]
    989c:	aa0103e9 	mov	x9, x1
    98a0:	b90c2909 	str	w9, [x8, #3112]
    98a4:	39707d08 	ldrb	w8, [x8, #3103]
    98a8:	370006a8 	tbnz	w8, #0, 997c <_<rand_chacha::chacha::ChaCha12Core as rand_core::block::BlockRngCore>::generate+0x763c>
    98ac:	1400002e 	b	9964 <_<rand_chacha::chacha::ChaCha12Core as rand_core::block::BlockRngCore>::generate+0x7624>
    98b0:	f94687e8 	ldr	x8, [sp, #3336]
    98b4:	39307d1f 	strb	wzr, [x8, #3103]
    98b8:	3dc2e100 	ldr	q0, [x8, #2944]
    98bc:	91401fe0 	add	x0, sp, #0x7, lsl #12
    98c0:	910a4000 	add	x0, x0, #0x290
    98c4:	3d82f100 	str	q0, [x8, #3008]
    98c8:	91401fe8 	add	x8, sp, #0x7, lsl #12
    98cc:	910a0108 	add	x8, x8, #0x280
    98d0:	90000001 	adrp	x1, d420 <l_alloc_eb8937521ab56b1815db886b021bd11a>
    98d4:	91000021 	add	x1, x1, #0x0
    98d8:	94000000 	bl	0 <_<T as core::convert::Into<U>>::into>
    98dc:	14000001 	b	98e0 <_<rand_chacha::chacha::ChaCha12Core as rand_core::block::BlockRngCore>::generate+0x75a0>
    98e0:	f94687e8 	ldr	x8, [sp, #3336]
    98e4:	3dc2e900 	ldr	q0, [x8, #2976]
    98e8:	3d82f500 	str	q0, [x8, #3024]
    98ec:	f97953eb 	ldr	x11, [sp, #29344]
    98f0:	d2800009 	mov	x9, #0x0                   	// #0
    98f4:	f939afeb 	str	x11, [sp, #29528]
    98f8:	f97957ea 	ldr	x10, [sp, #29352]
    98fc:	f939abea 	str	x10, [sp, #29520]
    9900:	aa090161 	orr	x1, x11, x9
    9904:	aa0a0122 	orr	x2, x9, x10
    9908:	4e081c20 	mov	v0.d[0], x1
    990c:	4e181c40 	mov	v0.d[1], x2
    9910:	3d830d00 	str	q0, [x8, #3120]
    9914:	3dc2ed00 	ldr	q0, [x8, #2992]
    9918:	3d82f900 	str	q0, [x8, #3040]
    991c:	f9795beb 	ldr	x11, [sp, #29360]
    9920:	f939b7eb 	str	x11, [sp, #29544]
    9924:	f9795fea 	ldr	x10, [sp, #29368]
    9928:	f939b3ea 	str	x10, [sp, #29536]
    992c:	aa090163 	orr	x3, x11, x9
    9930:	aa0a0124 	orr	x4, x9, x10
    9934:	4e081c60 	mov	v0.d[0], x3
    9938:	4e181c80 	mov	v0.d[1], x4
    993c:	3d831100 	str	q0, [x8, #3136]
    9940:	91401fe0 	add	x0, sp, #0x7, lsl #12
    9944:	9109bc00 	add	x0, x0, #0x26f
    9948:	94000000 	bl	0 <_<ppv_lite86::generic::u32x4_generic as core::ops::bit::BitXor>::bitxor::{{closure}}>
    994c:	f901bbe0 	str	x0, [sp, #880]
    9950:	f901bfe1 	str	x1, [sp, #888]
    9954:	4e081c00 	mov	v0.d[0], x0
    9958:	4e181c20 	mov	v0.d[1], x1
    995c:	3d80e3e0 	str	q0, [sp, #896]
    9960:	14000008 	b	9980 <_<rand_chacha::chacha::ChaCha12Core as rand_core::block::BlockRngCore>::generate+0x7640>
    9964:	f94687e8 	ldr	x8, [sp, #3336]
    9968:	f9797be9 	ldr	x9, [sp, #29424]
    996c:	f901b3e9 	str	x9, [sp, #864]
    9970:	b94c2908 	ldr	w8, [x8, #3112]
    9974:	b9036fe8 	str	w8, [sp, #876]
    9978:	14000018 	b	99d8 <_<rand_chacha::chacha::ChaCha12Core as rand_core::block::BlockRngCore>::generate+0x7698>
    997c:	17fffffa 	b	9964 <_<rand_chacha::chacha::ChaCha12Core as rand_core::block::BlockRngCore>::generate+0x7624>
    9980:	f946b7e8 	ldr	x8, [sp, #3432]
    9984:	f94687e9 	ldr	x9, [sp, #3336]
    9988:	f941bfea 	ldr	x10, [sp, #888]
    998c:	f941bbeb 	ldr	x11, [sp, #880]
    9990:	3dc0e3e0 	ldr	q0, [sp, #896]
    9994:	3d831920 	str	q0, [x9, #3168]
    9998:	f9396feb 	str	x11, [sp, #29400]
    999c:	f93973ea 	str	x10, [sp, #29408]
    99a0:	91401fea 	add	x10, sp, #0x7, lsl #12
    99a4:	9107654a 	add	x10, x10, #0x1d9
    99a8:	3ccff140 	ldur	q0, [x10, #255]
    99ac:	3d82fd20 	str	q0, [x9, #3056]
    99b0:	3dc2fd20 	ldr	q0, [x9, #3056]
    99b4:	3d831520 	str	q0, [x9, #3152]
    99b8:	3dc31520 	ldr	q0, [x9, #3152]
    99bc:	3d831d20 	str	q0, [x9, #3184]
    99c0:	3dc31d20 	ldr	q0, [x9, #3184]
    99c4:	3d859d00 	str	q0, [x8, #5744]
    99c8:	14000009 	b	99ec <_<rand_chacha::chacha::ChaCha12Core as rand_core::block::BlockRngCore>::generate+0x76ac>
    99cc:	f95ce3e8 	ldr	x8, [sp, #14784]
    99d0:	f90677e8 	str	x8, [sp, #3304]
    99d4:	140009f4 	b	c1a4 <_<rand_chacha::chacha::ChaCha12Core as rand_core::block::BlockRngCore>::generate+0x9e64>
    99d8:	b9436fe8 	ldr	w8, [sp, #876]
    99dc:	f941b3e9 	ldr	x9, [sp, #864]
    99e0:	f91ce3e9 	str	x9, [sp, #14784]
    99e4:	b939cbe8 	str	w8, [sp, #14792]
    99e8:	17fffff9 	b	99cc <_<rand_chacha::chacha::ChaCha12Core as rand_core::block::BlockRngCore>::generate+0x768c>
    99ec:	f94687e9 	ldr	x9, [sp, #3336]
    99f0:	f946b7e8 	ldr	x8, [sp, #3432]
    99f4:	3dc2f900 	ldr	q0, [x8, #3040]
    99f8:	3d828920 	str	q0, [x9, #2592]
    99fc:	3dc30900 	ldr	q0, [x8, #3104]
    9a00:	3d828520 	str	q0, [x9, #2576]
    9a04:	3dc28920 	ldr	q0, [x9, #2592]
    9a08:	91401fe0 	add	x0, sp, #0x7, lsl #12
    9a0c:	91034000 	add	x0, x0, #0xd0
    9a10:	3d828120 	str	q0, [x9, #2560]
    9a14:	3dc28520 	ldr	q0, [x9, #2576]
    9a18:	3d828d20 	str	q0, [x9, #2608]
    9a1c:	392b3d3f 	strb	wzr, [x9, #2767]
    9a20:	52800028 	mov	w8, #0x1                   	// #1
    9a24:	392b3d28 	strb	w8, [x9, #2767]
    9a28:	91401fe8 	add	x8, sp, #0x7, lsl #12
    9a2c:	91048108 	add	x8, x8, #0x120
    9a30:	90000001 	adrp	x1, d408 <l_alloc_d6cd646a032ab5661bff8aa78f551e65>
    9a34:	91000021 	add	x1, x1, #0x0
    9a38:	94000000 	bl	0 <_<T as core::convert::Into<U>>::into>
    9a3c:	14000008 	b	9a5c <_<rand_chacha::chacha::ChaCha12Core as rand_core::block::BlockRngCore>::generate+0x771c>
    9a40:	f94687e8 	ldr	x8, [sp, #3336]
    9a44:	f938d3e0 	str	x0, [sp, #29088]
    9a48:	aa0103e9 	mov	x9, x1
    9a4c:	b90ad909 	str	w9, [x8, #2776]
    9a50:	396b3d08 	ldrb	w8, [x8, #2767]
    9a54:	370006a8 	tbnz	w8, #0, 9b28 <_<rand_chacha::chacha::ChaCha12Core as rand_core::block::BlockRngCore>::generate+0x77e8>
    9a58:	1400002e 	b	9b10 <_<rand_chacha::chacha::ChaCha12Core as rand_core::block::BlockRngCore>::generate+0x77d0>
    9a5c:	f94687e8 	ldr	x8, [sp, #3336]
    9a60:	392b3d1f 	strb	wzr, [x8, #2767]
    9a64:	3dc28d00 	ldr	q0, [x8, #2608]
    9a68:	91401fe0 	add	x0, sp, #0x7, lsl #12
    9a6c:	91050000 	add	x0, x0, #0x140
    9a70:	3d829d00 	str	q0, [x8, #2672]
    9a74:	91401fe8 	add	x8, sp, #0x7, lsl #12
    9a78:	9104c108 	add	x8, x8, #0x130
    9a7c:	90000001 	adrp	x1, d420 <l_alloc_eb8937521ab56b1815db886b021bd11a>
    9a80:	91000021 	add	x1, x1, #0x0
    9a84:	94000000 	bl	0 <_<T as core::convert::Into<U>>::into>
    9a88:	14000001 	b	9a8c <_<rand_chacha::chacha::ChaCha12Core as rand_core::block::BlockRngCore>::generate+0x774c>
    9a8c:	f94687e8 	ldr	x8, [sp, #3336]
    9a90:	3dc29500 	ldr	q0, [x8, #2640]
    9a94:	3d82a100 	str	q0, [x8, #2688]
    9a98:	f978abeb 	ldr	x11, [sp, #29008]
    9a9c:	d2800009 	mov	x9, #0x0                   	// #0
    9aa0:	f93907eb 	str	x11, [sp, #29192]
    9aa4:	f978afea 	ldr	x10, [sp, #29016]
    9aa8:	f93903ea 	str	x10, [sp, #29184]
    9aac:	aa090161 	orr	x1, x11, x9
    9ab0:	aa0a0122 	orr	x2, x9, x10
    9ab4:	4e081c20 	mov	v0.d[0], x1
    9ab8:	4e181c40 	mov	v0.d[1], x2
    9abc:	3d82b900 	str	q0, [x8, #2784]
    9ac0:	3dc29900 	ldr	q0, [x8, #2656]
    9ac4:	3d82a500 	str	q0, [x8, #2704]
    9ac8:	f978b3eb 	ldr	x11, [sp, #29024]
    9acc:	f9390feb 	str	x11, [sp, #29208]
    9ad0:	f978b7ea 	ldr	x10, [sp, #29032]
    9ad4:	f9390bea 	str	x10, [sp, #29200]
    9ad8:	aa090163 	orr	x3, x11, x9
    9adc:	aa0a0124 	orr	x4, x9, x10
    9ae0:	4e081c60 	mov	v0.d[0], x3
    9ae4:	4e181c80 	mov	v0.d[1], x4
    9ae8:	3d82bd00 	str	q0, [x8, #2800]
    9aec:	91401fe0 	add	x0, sp, #0x7, lsl #12
    9af0:	91047c00 	add	x0, x0, #0x11f
    9af4:	94000000 	bl	0 <_<ppv_lite86::generic::u32x4_generic as core::ops::bit::BitXor>::bitxor::{{closure}}>
    9af8:	f901a3e0 	str	x0, [sp, #832]
    9afc:	f901a7e1 	str	x1, [sp, #840]
    9b00:	4e081c00 	mov	v0.d[0], x0
    9b04:	4e181c20 	mov	v0.d[1], x1
    9b08:	3d80d7e0 	str	q0, [sp, #848]
    9b0c:	14000008 	b	9b2c <_<rand_chacha::chacha::ChaCha12Core as rand_core::block::BlockRngCore>::generate+0x77ec>
    9b10:	f94687e8 	ldr	x8, [sp, #3336]
    9b14:	f978d3e9 	ldr	x9, [sp, #29088]
    9b18:	f9019be9 	str	x9, [sp, #816]
    9b1c:	b94ad908 	ldr	w8, [x8, #2776]
    9b20:	b9033fe8 	str	w8, [sp, #828]
    9b24:	14000016 	b	9b7c <_<rand_chacha::chacha::ChaCha12Core as rand_core::block::BlockRngCore>::generate+0x783c>
    9b28:	17fffffa 	b	9b10 <_<rand_chacha::chacha::ChaCha12Core as rand_core::block::BlockRngCore>::generate+0x77d0>
    9b2c:	f946b7e8 	ldr	x8, [sp, #3432]
    9b30:	f94687e9 	ldr	x9, [sp, #3336]
    9b34:	f941a7ea 	ldr	x10, [sp, #840]
    9b38:	f941a3eb 	ldr	x11, [sp, #832]
    9b3c:	3dc0d7e0 	ldr	q0, [sp, #848]
    9b40:	3d82c520 	str	q0, [x9, #2832]
    9b44:	f938c7eb 	str	x11, [sp, #29064]
    9b48:	f938cbea 	str	x10, [sp, #29072]
    9b4c:	91401fea 	add	x10, sp, #0x7, lsl #12
    9b50:	9102254a 	add	x10, x10, #0x89
    9b54:	3ccff140 	ldur	q0, [x10, #255]
    9b58:	3d82a920 	str	q0, [x9, #2720]
    9b5c:	3dc2a920 	ldr	q0, [x9, #2720]
    9b60:	3d82c120 	str	q0, [x9, #2816]
    9b64:	3dc2c120 	ldr	q0, [x9, #2816]
    9b68:	3d82c920 	str	q0, [x9, #2848]
    9b6c:	3dc2c920 	ldr	q0, [x9, #2848]
    9b70:	3d85a100 	str	q0, [x8, #5760]
    9b74:	14000007 	b	9b90 <_<rand_chacha::chacha::ChaCha12Core as rand_core::block::BlockRngCore>::generate+0x7850>
    9b78:	17ffff95 	b	99cc <_<rand_chacha::chacha::ChaCha12Core as rand_core::block::BlockRngCore>::generate+0x768c>
    9b7c:	b9433fe8 	ldr	w8, [sp, #828]
    9b80:	f9419be9 	ldr	x9, [sp, #816]
    9b84:	f91ce3e9 	str	x9, [sp, #14784]
    9b88:	b939cbe8 	str	w8, [sp, #14792]
    9b8c:	17fffffb 	b	9b78 <_<rand_chacha::chacha::ChaCha12Core as rand_core::block::BlockRngCore>::generate+0x7838>
    9b90:	f94687e9 	ldr	x9, [sp, #3336]
    9b94:	f946b7e8 	ldr	x8, [sp, #3432]
    9b98:	3dc2fd00 	ldr	q0, [x8, #3056]
    9b9c:	3d823520 	str	q0, [x9, #2256]
    9ba0:	3dc30d00 	ldr	q0, [x8, #3120]
    9ba4:	3d823120 	str	q0, [x9, #2240]
    9ba8:	3dc23520 	ldr	q0, [x9, #2256]
    9bac:	91401be0 	add	x0, sp, #0x6, lsl #12
    9bb0:	913e0000 	add	x0, x0, #0xf80
    9bb4:	3d822d20 	str	q0, [x9, #2224]
    9bb8:	3dc23120 	ldr	q0, [x9, #2240]
    9bbc:	3d823920 	str	q0, [x9, #2272]
    9bc0:	3925fd3f 	strb	wzr, [x9, #2431]
    9bc4:	52800028 	mov	w8, #0x1                   	// #1
    9bc8:	3925fd28 	strb	w8, [x9, #2431]
    9bcc:	91401be8 	add	x8, sp, #0x6, lsl #12
    9bd0:	913f4108 	add	x8, x8, #0xfd0
    9bd4:	90000001 	adrp	x1, d408 <l_alloc_d6cd646a032ab5661bff8aa78f551e65>
    9bd8:	91000021 	add	x1, x1, #0x0
    9bdc:	94000000 	bl	0 <_<T as core::convert::Into<U>>::into>
    9be0:	14000008 	b	9c00 <_<rand_chacha::chacha::ChaCha12Core as rand_core::block::BlockRngCore>::generate+0x78c0>
    9be4:	f94687e8 	ldr	x8, [sp, #3336]
    9be8:	f9382be0 	str	x0, [sp, #28752]
    9bec:	aa0103e9 	mov	x9, x1
    9bf0:	b9098909 	str	w9, [x8, #2440]
    9bf4:	3965fd08 	ldrb	w8, [x8, #2431]
    9bf8:	370006a8 	tbnz	w8, #0, 9ccc <_<rand_chacha::chacha::ChaCha12Core as rand_core::block::BlockRngCore>::generate+0x798c>
    9bfc:	1400002e 	b	9cb4 <_<rand_chacha::chacha::ChaCha12Core as rand_core::block::BlockRngCore>::generate+0x7974>
    9c00:	f94687e8 	ldr	x8, [sp, #3336]
    9c04:	3925fd1f 	strb	wzr, [x8, #2431]
    9c08:	3dc23900 	ldr	q0, [x8, #2272]
    9c0c:	91401be0 	add	x0, sp, #0x6, lsl #12
    9c10:	913fc000 	add	x0, x0, #0xff0
    9c14:	3d824900 	str	q0, [x8, #2336]
    9c18:	91401be8 	add	x8, sp, #0x6, lsl #12
    9c1c:	913f8108 	add	x8, x8, #0xfe0
    9c20:	90000001 	adrp	x1, d420 <l_alloc_eb8937521ab56b1815db886b021bd11a>
    9c24:	91000021 	add	x1, x1, #0x0
    9c28:	94000000 	bl	0 <_<T as core::convert::Into<U>>::into>
    9c2c:	14000001 	b	9c30 <_<rand_chacha::chacha::ChaCha12Core as rand_core::block::BlockRngCore>::generate+0x78f0>
    9c30:	f94687e8 	ldr	x8, [sp, #3336]
    9c34:	3dc24100 	ldr	q0, [x8, #2304]
    9c38:	3d824d00 	str	q0, [x8, #2352]
    9c3c:	f97803eb 	ldr	x11, [sp, #28672]
    9c40:	d2800009 	mov	x9, #0x0                   	// #0
    9c44:	f9385feb 	str	x11, [sp, #28856]
    9c48:	f97807ea 	ldr	x10, [sp, #28680]
    9c4c:	f9385bea 	str	x10, [sp, #28848]
    9c50:	aa090161 	orr	x1, x11, x9
    9c54:	aa0a0122 	orr	x2, x9, x10
    9c58:	4e081c20 	mov	v0.d[0], x1
    9c5c:	4e181c40 	mov	v0.d[1], x2
    9c60:	3d826500 	str	q0, [x8, #2448]
    9c64:	3dc24500 	ldr	q0, [x8, #2320]
    9c68:	3d825100 	str	q0, [x8, #2368]
    9c6c:	f9780beb 	ldr	x11, [sp, #28688]
    9c70:	f93867eb 	str	x11, [sp, #28872]
    9c74:	f9780fea 	ldr	x10, [sp, #28696]
    9c78:	f93863ea 	str	x10, [sp, #28864]
    9c7c:	aa090163 	orr	x3, x11, x9
    9c80:	aa0a0124 	orr	x4, x9, x10
    9c84:	4e081c60 	mov	v0.d[0], x3
    9c88:	4e181c80 	mov	v0.d[1], x4
    9c8c:	3d826900 	str	q0, [x8, #2464]
    9c90:	91401be0 	add	x0, sp, #0x6, lsl #12
    9c94:	913f3c00 	add	x0, x0, #0xfcf
    9c98:	94000000 	bl	0 <_<ppv_lite86::generic::u32x4_generic as core::ops::bit::BitXor>::bitxor::{{closure}}>
    9c9c:	f9018be0 	str	x0, [sp, #784]
    9ca0:	f9018fe1 	str	x1, [sp, #792]
    9ca4:	4e081c00 	mov	v0.d[0], x0
    9ca8:	4e181c20 	mov	v0.d[1], x1
    9cac:	3d80cbe0 	str	q0, [sp, #800]
    9cb0:	14000008 	b	9cd0 <_<rand_chacha::chacha::ChaCha12Core as rand_core::block::BlockRngCore>::generate+0x7990>
    9cb4:	f94687e8 	ldr	x8, [sp, #3336]
    9cb8:	f9782be9 	ldr	x9, [sp, #28752]
    9cbc:	f90183e9 	str	x9, [sp, #768]
    9cc0:	b9498908 	ldr	w8, [x8, #2440]
    9cc4:	b9030fe8 	str	w8, [sp, #780]
    9cc8:	14000015 	b	9d1c <_<rand_chacha::chacha::ChaCha12Core as rand_core::block::BlockRngCore>::generate+0x79dc>
    9ccc:	17fffffa 	b	9cb4 <_<rand_chacha::chacha::ChaCha12Core as rand_core::block::BlockRngCore>::generate+0x7974>
    9cd0:	f946b7e8 	ldr	x8, [sp, #3432]
    9cd4:	f94687e9 	ldr	x9, [sp, #3336]
    9cd8:	f9418fea 	ldr	x10, [sp, #792]
    9cdc:	f9418beb 	ldr	x11, [sp, #784]
    9ce0:	3dc0cbe0 	ldr	q0, [sp, #800]
    9ce4:	3d827120 	str	q0, [x9, #2496]
    9ce8:	f9381feb 	str	x11, [sp, #28728]
    9cec:	f93823ea 	str	x10, [sp, #28736]
    9cf0:	91401bea 	add	x10, sp, #0x6, lsl #12
    9cf4:	913ce54a 	add	x10, x10, #0xf39
    9cf8:	3ccff140 	ldur	q0, [x10, #255]
    9cfc:	3d825520 	str	q0, [x9, #2384]
    9d00:	3dc25520 	ldr	q0, [x9, #2384]
    9d04:	3d826d20 	str	q0, [x9, #2480]
    9d08:	3dc26d20 	ldr	q0, [x9, #2480]
    9d0c:	3d827520 	str	q0, [x9, #2512]
    9d10:	3dc27520 	ldr	q0, [x9, #2512]
    9d14:	3d85a500 	str	q0, [x8, #5776]
    9d18:	14000006 	b	9d30 <_<rand_chacha::chacha::ChaCha12Core as rand_core::block::BlockRngCore>::generate+0x79f0>
    9d1c:	b9430fe8 	ldr	w8, [sp, #780]
    9d20:	f94183e9 	ldr	x9, [sp, #768]
    9d24:	f91ce3e9 	str	x9, [sp, #14784]
    9d28:	b939cbe8 	str	w8, [sp, #14792]
    9d2c:	17ffff93 	b	9b78 <_<rand_chacha::chacha::ChaCha12Core as rand_core::block::BlockRngCore>::generate+0x7838>
    9d30:	f946b7e8 	ldr	x8, [sp, #3432]
    9d34:	3dc59900 	ldr	q0, [x8, #5728]
    9d38:	91400fe1 	add	x1, sp, #0x3, lsl #12
    9d3c:	91250021 	add	x1, x1, #0x940
    9d40:	3d858900 	str	q0, [x8, #5664]
    9d44:	3dc59d00 	ldr	q0, [x8, #5744]
    9d48:	3d858d00 	str	q0, [x8, #5680]
    9d4c:	3dc5a100 	ldr	q0, [x8, #5760]
    9d50:	3d859100 	str	q0, [x8, #5696]
    9d54:	3dc5a500 	ldr	q0, [x8, #5776]
    9d58:	3d859500 	str	q0, [x8, #5712]
    9d5c:	91400be0 	add	x0, sp, #0x2, lsl #12
    9d60:	913a8000 	add	x0, x0, #0xea0
    9d64:	52800808 	mov	w8, #0x40                  	// #64
    9d68:	aa0803e2 	mov	x2, x8
    9d6c:	94000000 	bl	0 <_memcpy>
    9d70:	f946b7e9 	ldr	x9, [sp, #3432]
    9d74:	f94683e8 	ldr	x8, [sp, #3328]
    9d78:	3dc2e120 	ldr	q0, [x9, #2944]
    9d7c:	3d815500 	str	q0, [x8, #1360]
    9d80:	3dc15500 	ldr	q0, [x8, #1360]
    9d84:	d102c3a0 	sub	x0, x29, #0xb0
    9d88:	3d815100 	str	q0, [x8, #1344]
    9d8c:	d10203a8 	sub	x8, x29, #0x80
    9d90:	90000001 	adrp	x1, d3d8 <l_alloc_345ce69d67e2022250dbe2d202815e5b>
    9d94:	91000021 	add	x1, x1, #0x0
    9d98:	94000000 	bl	0 <_<T as core::convert::Into<U>>::into>
    9d9c:	14000008 	b	9dbc <_<rand_chacha::chacha::ChaCha12Core as rand_core::block::BlockRngCore>::generate+0x7a7c>
    9da0:	f94683e8 	ldr	x8, [sp, #3328]
    9da4:	f902d900 	str	x0, [x8, #1456]
    9da8:	aa0103e9 	mov	x9, x1
    9dac:	b905b909 	str	w9, [x8, #1464]
    9db0:	f942d908 	ldr	x8, [x8, #1456]
    9db4:	f90677e8 	str	x8, [sp, #3304]
    9db8:	140008fb 	b	c1a4 <_<rand_chacha::chacha::ChaCha12Core as rand_core::block::BlockRngCore>::generate+0x9e64>
    9dbc:	f94683e8 	ldr	x8, [sp, #3328]
    9dc0:	3dc15d00 	ldr	q0, [x8, #1392]
    9dc4:	3d816100 	str	q0, [x8, #1408]
    9dc8:	b9458101 	ldr	w1, [x8, #1408]
    9dcc:	d10207a0 	sub	x0, x29, #0x81
    9dd0:	94000000 	bl	0 <_<ppv_lite86::generic::u32x4_generic as ppv_lite86::types::RotateEachWord32>::rotate_each_word_right25::{{closure}}>
    9dd4:	b902ffe0 	str	w0, [sp, #764]
    9dd8:	14000001 	b	9ddc <_<rand_chacha::chacha::ChaCha12Core as rand_core::block::BlockRngCore>::generate+0x7a9c>
    9ddc:	f94683e8 	ldr	x8, [sp, #3328]
    9de0:	b9458501 	ldr	w1, [x8, #1412]
    9de4:	d10207a0 	sub	x0, x29, #0x81
    9de8:	94000000 	bl	0 <_<ppv_lite86::generic::u32x4_generic as ppv_lite86::types::RotateEachWord32>::rotate_each_word_right25::{{closure}}>
    9dec:	b902fbe0 	str	w0, [sp, #760]
    9df0:	14000001 	b	9df4 <_<rand_chacha::chacha::ChaCha12Core as rand_core::block::BlockRngCore>::generate+0x7ab4>
    9df4:	f94683e8 	ldr	x8, [sp, #3328]
    9df8:	b9458901 	ldr	w1, [x8, #1416]
    9dfc:	d10207a0 	sub	x0, x29, #0x81
    9e00:	94000000 	bl	0 <_<ppv_lite86::generic::u32x4_generic as ppv_lite86::types::RotateEachWord32>::rotate_each_word_right25::{{closure}}>
    9e04:	b902f7e0 	str	w0, [sp, #756]
    9e08:	14000001 	b	9e0c <_<rand_chacha::chacha::ChaCha12Core as rand_core::block::BlockRngCore>::generate+0x7acc>
    9e0c:	f94683e8 	ldr	x8, [sp, #3328]
    9e10:	b9458d01 	ldr	w1, [x8, #1420]
    9e14:	d10207a0 	sub	x0, x29, #0x81
    9e18:	94000000 	bl	0 <_<ppv_lite86::generic::u32x4_generic as ppv_lite86::types::RotateEachWord32>::rotate_each_word_right25::{{closure}}>
    9e1c:	b902f3e0 	str	w0, [sp, #752]
    9e20:	14000001 	b	9e24 <_<rand_chacha::chacha::ChaCha12Core as rand_core::block::BlockRngCore>::generate+0x7ae4>
    9e24:	f94683e8 	ldr	x8, [sp, #3328]
    9e28:	f946b7e9 	ldr	x9, [sp, #3432]
    9e2c:	f94687ea 	ldr	x10, [sp, #3336]
    9e30:	b942f3eb 	ldr	w11, [sp, #752]
    9e34:	b942f7ec 	ldr	w12, [sp, #756]
    9e38:	b942fbed 	ldr	w13, [sp, #760]
    9e3c:	b942ffee 	ldr	w14, [sp, #764]
    9e40:	b905a10e 	str	w14, [x8, #1440]
    9e44:	b905a50d 	str	w13, [x8, #1444]
    9e48:	b905a90c 	str	w12, [x8, #1448]
    9e4c:	b905ad0b 	str	w11, [x8, #1452]
    9e50:	3dc16900 	ldr	q0, [x8, #1440]
    9e54:	3d816500 	str	q0, [x8, #1424]
    9e58:	3dc16500 	ldr	q0, [x8, #1424]
    9e5c:	3d817100 	str	q0, [x8, #1472]
    9e60:	3dc17100 	ldr	q0, [x8, #1472]
    9e64:	3d817500 	str	q0, [x8, #1488]
    9e68:	3dc17500 	ldr	q0, [x8, #1488]
    9e6c:	3d8b8d40 	str	q0, [x10, #11824]
    9e70:	3dc2e520 	ldr	q0, [x9, #2960]
    9e74:	3d812d00 	str	q0, [x8, #1200]
    9e78:	3dc12d00 	ldr	q0, [x8, #1200]
    9e7c:	91402be0 	add	x0, sp, #0xa, lsl #12
    9e80:	912e0000 	add	x0, x0, #0xb80
    9e84:	3d812900 	str	q0, [x8, #1184]
    9e88:	91402be8 	add	x8, sp, #0xa, lsl #12
    9e8c:	912ec108 	add	x8, x8, #0xbb0
    9e90:	90000001 	adrp	x1, d3d8 <l_alloc_345ce69d67e2022250dbe2d202815e5b>
    9e94:	91000021 	add	x1, x1, #0x0
    9e98:	94000000 	bl	0 <_<T as core::convert::Into<U>>::into>
    9e9c:	14000008 	b	9ebc <_<rand_chacha::chacha::ChaCha12Core as rand_core::block::BlockRngCore>::generate+0x7b7c>
    9ea0:	f94683e8 	ldr	x8, [sp, #3328]
    9ea4:	f9028900 	str	x0, [x8, #1296]
    9ea8:	aa0103e9 	mov	x9, x1
    9eac:	b9051909 	str	w9, [x8, #1304]
    9eb0:	f9428908 	ldr	x8, [x8, #1296]
    9eb4:	f90677e8 	str	x8, [sp, #3304]
    9eb8:	140008bb 	b	c1a4 <_<rand_chacha::chacha::ChaCha12Core as rand_core::block::BlockRngCore>::generate+0x9e64>
    9ebc:	f94683e8 	ldr	x8, [sp, #3328]
    9ec0:	3dc13500 	ldr	q0, [x8, #1232]
    9ec4:	3d813900 	str	q0, [x8, #1248]
    9ec8:	b944e101 	ldr	w1, [x8, #1248]
    9ecc:	91402be0 	add	x0, sp, #0xa, lsl #12
    9ed0:	912ebc00 	add	x0, x0, #0xbaf
    9ed4:	94000000 	bl	0 <_<ppv_lite86::generic::u32x4_generic as ppv_lite86::types::RotateEachWord32>::rotate_each_word_right25::{{closure}}>
    9ed8:	b902efe0 	str	w0, [sp, #748]
    9edc:	14000001 	b	9ee0 <_<rand_chacha::chacha::ChaCha12Core as rand_core::block::BlockRngCore>::generate+0x7ba0>
    9ee0:	f94683e8 	ldr	x8, [sp, #3328]
    9ee4:	b944e501 	ldr	w1, [x8, #1252]
    9ee8:	91402be0 	add	x0, sp, #0xa, lsl #12
    9eec:	912ebc00 	add	x0, x0, #0xbaf
    9ef0:	94000000 	bl	0 <_<ppv_lite86::generic::u32x4_generic as ppv_lite86::types::RotateEachWord32>::rotate_each_word_right25::{{closure}}>
    9ef4:	b902ebe0 	str	w0, [sp, #744]
    9ef8:	14000001 	b	9efc <_<rand_chacha::chacha::ChaCha12Core as rand_core::block::BlockRngCore>::generate+0x7bbc>
    9efc:	f94683e8 	ldr	x8, [sp, #3328]
    9f00:	b944e901 	ldr	w1, [x8, #1256]
    9f04:	91402be0 	add	x0, sp, #0xa, lsl #12
    9f08:	912ebc00 	add	x0, x0, #0xbaf
    9f0c:	94000000 	bl	0 <_<ppv_lite86::generic::u32x4_generic as ppv_lite86::types::RotateEachWord32>::rotate_each_word_right25::{{closure}}>
    9f10:	b902e7e0 	str	w0, [sp, #740]
    9f14:	14000001 	b	9f18 <_<rand_chacha::chacha::ChaCha12Core as rand_core::block::BlockRngCore>::generate+0x7bd8>
    9f18:	f94683e8 	ldr	x8, [sp, #3328]
    9f1c:	b944ed01 	ldr	w1, [x8, #1260]
    9f20:	91402be0 	add	x0, sp, #0xa, lsl #12
    9f24:	912ebc00 	add	x0, x0, #0xbaf
    9f28:	94000000 	bl	0 <_<ppv_lite86::generic::u32x4_generic as ppv_lite86::types::RotateEachWord32>::rotate_each_word_right25::{{closure}}>
    9f2c:	b902e3e0 	str	w0, [sp, #736]
    9f30:	14000001 	b	9f34 <_<rand_chacha::chacha::ChaCha12Core as rand_core::block::BlockRngCore>::generate+0x7bf4>
    9f34:	f94683e8 	ldr	x8, [sp, #3328]
    9f38:	f946b7e9 	ldr	x9, [sp, #3432]
    9f3c:	f94687ea 	ldr	x10, [sp, #3336]
    9f40:	b942e3eb 	ldr	w11, [sp, #736]
    9f44:	b942e7ec 	ldr	w12, [sp, #740]
    9f48:	b942ebed 	ldr	w13, [sp, #744]
    9f4c:	b942efee 	ldr	w14, [sp, #748]
    9f50:	b905010e 	str	w14, [x8, #1280]
    9f54:	b905050d 	str	w13, [x8, #1284]
    9f58:	b905090c 	str	w12, [x8, #1288]
    9f5c:	b9050d0b 	str	w11, [x8, #1292]
    9f60:	3dc14100 	ldr	q0, [x8, #1280]
    9f64:	3d813d00 	str	q0, [x8, #1264]
    9f68:	3dc13d00 	ldr	q0, [x8, #1264]
    9f6c:	3d814900 	str	q0, [x8, #1312]
    9f70:	3dc14900 	ldr	q0, [x8, #1312]
    9f74:	3d814d00 	str	q0, [x8, #1328]
    9f78:	3dc14d00 	ldr	q0, [x8, #1328]
    9f7c:	3d8b9140 	str	q0, [x10, #11840]
    9f80:	3dc2e920 	ldr	q0, [x9, #2976]
    9f84:	3d810500 	str	q0, [x8, #1040]
    9f88:	3dc10500 	ldr	q0, [x8, #1040]
    9f8c:	91402be0 	add	x0, sp, #0xa, lsl #12
    9f90:	912b8000 	add	x0, x0, #0xae0
    9f94:	3d810100 	str	q0, [x8, #1024]
    9f98:	91402be8 	add	x8, sp, #0xa, lsl #12
    9f9c:	912c4108 	add	x8, x8, #0xb10
    9fa0:	90000001 	adrp	x1, d3d8 <l_alloc_345ce69d67e2022250dbe2d202815e5b>
    9fa4:	91000021 	add	x1, x1, #0x0
    9fa8:	94000000 	bl	0 <_<T as core::convert::Into<U>>::into>
    9fac:	14000008 	b	9fcc <_<rand_chacha::chacha::ChaCha12Core as rand_core::block::BlockRngCore>::generate+0x7c8c>
    9fb0:	f94683e8 	ldr	x8, [sp, #3328]
    9fb4:	f9023900 	str	x0, [x8, #1136]
    9fb8:	aa0103e9 	mov	x9, x1
    9fbc:	b9047909 	str	w9, [x8, #1144]
    9fc0:	f9423908 	ldr	x8, [x8, #1136]
    9fc4:	f90677e8 	str	x8, [sp, #3304]
    9fc8:	14000877 	b	c1a4 <_<rand_chacha::chacha::ChaCha12Core as rand_core::block::BlockRngCore>::generate+0x9e64>
    9fcc:	f94683e8 	ldr	x8, [sp, #3328]
    9fd0:	3dc10d00 	ldr	q0, [x8, #1072]
    9fd4:	3d811100 	str	q0, [x8, #1088]
    9fd8:	b9444101 	ldr	w1, [x8, #1088]
    9fdc:	91402be0 	add	x0, sp, #0xa, lsl #12
    9fe0:	912c3c00 	add	x0, x0, #0xb0f
    9fe4:	94000000 	bl	0 <_<ppv_lite86::generic::u32x4_generic as ppv_lite86::types::RotateEachWord32>::rotate_each_word_right25::{{closure}}>
    9fe8:	b902dfe0 	str	w0, [sp, #732]
    9fec:	14000001 	b	9ff0 <_<rand_chacha::chacha::ChaCha12Core as rand_core::block::BlockRngCore>::generate+0x7cb0>
    9ff0:	f94683e8 	ldr	x8, [sp, #3328]
    9ff4:	b9444501 	ldr	w1, [x8, #1092]
    9ff8:	91402be0 	add	x0, sp, #0xa, lsl #12
    9ffc:	912c3c00 	add	x0, x0, #0xb0f
    a000:	94000000 	bl	0 <_<ppv_lite86::generic::u32x4_generic as ppv_lite86::types::RotateEachWord32>::rotate_each_word_right25::{{closure}}>
    a004:	b902dbe0 	str	w0, [sp, #728]
    a008:	14000001 	b	a00c <_<rand_chacha::chacha::ChaCha12Core as rand_core::block::BlockRngCore>::generate+0x7ccc>
    a00c:	f94683e8 	ldr	x8, [sp, #3328]
    a010:	b9444901 	ldr	w1, [x8, #1096]
    a014:	91402be0 	add	x0, sp, #0xa, lsl #12
    a018:	912c3c00 	add	x0, x0, #0xb0f
    a01c:	94000000 	bl	0 <_<ppv_lite86::generic::u32x4_generic as ppv_lite86::types::RotateEachWord32>::rotate_each_word_right25::{{closure}}>
    a020:	b902d7e0 	str	w0, [sp, #724]
    a024:	14000001 	b	a028 <_<rand_chacha::chacha::ChaCha12Core as rand_core::block::BlockRngCore>::generate+0x7ce8>
    a028:	f94683e8 	ldr	x8, [sp, #3328]
    a02c:	b9444d01 	ldr	w1, [x8, #1100]
    a030:	91402be0 	add	x0, sp, #0xa, lsl #12
    a034:	912c3c00 	add	x0, x0, #0xb0f
    a038:	94000000 	bl	0 <_<ppv_lite86::generic::u32x4_generic as ppv_lite86::types::RotateEachWord32>::rotate_each_word_right25::{{closure}}>
    a03c:	b902d3e0 	str	w0, [sp, #720]
    a040:	14000001 	b	a044 <_<rand_chacha::chacha::ChaCha12Core as rand_core::block::BlockRngCore>::generate+0x7d04>
    a044:	f94683e8 	ldr	x8, [sp, #3328]
    a048:	f946b7e9 	ldr	x9, [sp, #3432]
    a04c:	f94687ea 	ldr	x10, [sp, #3336]
    a050:	b942d3eb 	ldr	w11, [sp, #720]
    a054:	b942d7ec 	ldr	w12, [sp, #724]
    a058:	b942dbed 	ldr	w13, [sp, #728]
    a05c:	b942dfee 	ldr	w14, [sp, #732]
    a060:	b904610e 	str	w14, [x8, #1120]
    a064:	b904650d 	str	w13, [x8, #1124]
    a068:	b904690c 	str	w12, [x8, #1128]
    a06c:	b9046d0b 	str	w11, [x8, #1132]
    a070:	3dc11900 	ldr	q0, [x8, #1120]
    a074:	3d811500 	str	q0, [x8, #1104]
    a078:	3dc11500 	ldr	q0, [x8, #1104]
    a07c:	3d812100 	str	q0, [x8, #1152]
    a080:	3dc12100 	ldr	q0, [x8, #1152]
    a084:	3d812500 	str	q0, [x8, #1168]
    a088:	3dc12500 	ldr	q0, [x8, #1168]
    a08c:	3d8b9540 	str	q0, [x10, #11856]
    a090:	3dc2ed20 	ldr	q0, [x9, #2992]
    a094:	3d80dd00 	str	q0, [x8, #880]
    a098:	3dc0dd00 	ldr	q0, [x8, #880]
    a09c:	91402be0 	add	x0, sp, #0xa, lsl #12
    a0a0:	91290000 	add	x0, x0, #0xa40
    a0a4:	3d80d900 	str	q0, [x8, #864]
    a0a8:	91402be8 	add	x8, sp, #0xa, lsl #12
    a0ac:	9129c108 	add	x8, x8, #0xa70
    a0b0:	90000001 	adrp	x1, d3d8 <l_alloc_345ce69d67e2022250dbe2d202815e5b>
    a0b4:	91000021 	add	x1, x1, #0x0
    a0b8:	94000000 	bl	0 <_<T as core::convert::Into<U>>::into>
    a0bc:	14000008 	b	a0dc <_<rand_chacha::chacha::ChaCha12Core as rand_core::block::BlockRngCore>::generate+0x7d9c>
    a0c0:	f94683e8 	ldr	x8, [sp, #3328]
    a0c4:	f901e900 	str	x0, [x8, #976]
    a0c8:	aa0103e9 	mov	x9, x1
    a0cc:	b903d909 	str	w9, [x8, #984]
    a0d0:	f941e908 	ldr	x8, [x8, #976]
    a0d4:	f90677e8 	str	x8, [sp, #3304]
    a0d8:	14000833 	b	c1a4 <_<rand_chacha::chacha::ChaCha12Core as rand_core::block::BlockRngCore>::generate+0x9e64>
    a0dc:	f94683e8 	ldr	x8, [sp, #3328]
    a0e0:	3dc0e500 	ldr	q0, [x8, #912]
    a0e4:	3d80e900 	str	q0, [x8, #928]
    a0e8:	b943a101 	ldr	w1, [x8, #928]
    a0ec:	91402be0 	add	x0, sp, #0xa, lsl #12
    a0f0:	9129bc00 	add	x0, x0, #0xa6f
    a0f4:	94000000 	bl	0 <_<ppv_lite86::generic::u32x4_generic as ppv_lite86::types::RotateEachWord32>::rotate_each_word_right25::{{closure}}>
    a0f8:	b902cfe0 	str	w0, [sp, #716]
    a0fc:	14000001 	b	a100 <_<rand_chacha::chacha::ChaCha12Core as rand_core::block::BlockRngCore>::generate+0x7dc0>
    a100:	f94683e8 	ldr	x8, [sp, #3328]
    a104:	b943a501 	ldr	w1, [x8, #932]
    a108:	91402be0 	add	x0, sp, #0xa, lsl #12
    a10c:	9129bc00 	add	x0, x0, #0xa6f
    a110:	94000000 	bl	0 <_<ppv_lite86::generic::u32x4_generic as ppv_lite86::types::RotateEachWord32>::rotate_each_word_right25::{{closure}}>
    a114:	b902cbe0 	str	w0, [sp, #712]
    a118:	14000001 	b	a11c <_<rand_chacha::chacha::ChaCha12Core as rand_core::block::BlockRngCore>::generate+0x7ddc>
    a11c:	f94683e8 	ldr	x8, [sp, #3328]
    a120:	b943a901 	ldr	w1, [x8, #936]
    a124:	91402be0 	add	x0, sp, #0xa, lsl #12
    a128:	9129bc00 	add	x0, x0, #0xa6f
    a12c:	94000000 	bl	0 <_<ppv_lite86::generic::u32x4_generic as ppv_lite86::types::RotateEachWord32>::rotate_each_word_right25::{{closure}}>
    a130:	b902c7e0 	str	w0, [sp, #708]
    a134:	14000001 	b	a138 <_<rand_chacha::chacha::ChaCha12Core as rand_core::block::BlockRngCore>::generate+0x7df8>
    a138:	f94683e8 	ldr	x8, [sp, #3328]
    a13c:	b943ad01 	ldr	w1, [x8, #940]
    a140:	91402be0 	add	x0, sp, #0xa, lsl #12
    a144:	9129bc00 	add	x0, x0, #0xa6f
    a148:	94000000 	bl	0 <_<ppv_lite86::generic::u32x4_generic as ppv_lite86::types::RotateEachWord32>::rotate_each_word_right25::{{closure}}>
    a14c:	b902c3e0 	str	w0, [sp, #704]
    a150:	14000001 	b	a154 <_<rand_chacha::chacha::ChaCha12Core as rand_core::block::BlockRngCore>::generate+0x7e14>
    a154:	f94687e8 	ldr	x8, [sp, #3336]
    a158:	f94683e9 	ldr	x9, [sp, #3328]
    a15c:	b942c3ea 	ldr	w10, [sp, #704]
    a160:	b942c7eb 	ldr	w11, [sp, #708]
    a164:	b942cbec 	ldr	w12, [sp, #712]
    a168:	b942cfed 	ldr	w13, [sp, #716]
    a16c:	b903c12d 	str	w13, [x9, #960]
    a170:	b903c52c 	str	w12, [x9, #964]
    a174:	b903c92b 	str	w11, [x9, #968]
    a178:	b903cd2a 	str	w10, [x9, #972]
    a17c:	3dc0f120 	ldr	q0, [x9, #960]
    a180:	3d80ed20 	str	q0, [x9, #944]
    a184:	3dc0ed20 	ldr	q0, [x9, #944]
    a188:	3d80f920 	str	q0, [x9, #992]
    a18c:	3dc0f920 	ldr	q0, [x9, #992]
    a190:	3d80fd20 	str	q0, [x9, #1008]
    a194:	3dc0fd20 	ldr	q0, [x9, #1008]
    a198:	3d8b9900 	str	q0, [x8, #11872]
    a19c:	3dcb8d00 	ldr	q0, [x8, #11824]
    a1a0:	914027e1 	add	x1, sp, #0x9, lsl #12
    a1a4:	91130021 	add	x1, x1, #0x4c0
    a1a8:	3d8b7d00 	str	q0, [x8, #11760]
    a1ac:	3dcb9100 	ldr	q0, [x8, #11840]
    a1b0:	3d8b8100 	str	q0, [x8, #11776]
    a1b4:	3dcb9500 	ldr	q0, [x8, #11856]
    a1b8:	3d8b8500 	str	q0, [x8, #11792]
    a1bc:	3dcb9900 	ldr	q0, [x8, #11872]
    a1c0:	3d8b8900 	str	q0, [x8, #11808]
    a1c4:	91400be0 	add	x0, sp, #0x2, lsl #12
    a1c8:	91398000 	add	x0, x0, #0xe60
    a1cc:	f90153e0 	str	x0, [sp, #672]
    a1d0:	52800808 	mov	w8, #0x40                  	// #64
    a1d4:	aa0803e2 	mov	x2, x8
    a1d8:	f9015fe2 	str	x2, [sp, #696]
    a1dc:	94000000 	bl	0 <_memcpy>
    a1e0:	f94153e1 	ldr	x1, [sp, #672]
    a1e4:	f9415fe2 	ldr	x2, [sp, #696]
    a1e8:	914007e8 	add	x8, sp, #0x1, lsl #12
    a1ec:	91144108 	add	x8, x8, #0x510
    a1f0:	f90157e8 	str	x8, [sp, #680]
    a1f4:	91010100 	add	x0, x8, #0x40
    a1f8:	94000000 	bl	0 <_memcpy>
    a1fc:	f94157e1 	ldr	x1, [sp, #680]
    a200:	914007e0 	add	x0, sp, #0x1, lsl #12
    a204:	91104000 	add	x0, x0, #0x410
    a208:	f9015be0 	str	x0, [sp, #688]
    a20c:	52802008 	mov	w8, #0x100                 	// #256
    a210:	aa0803e2 	mov	x2, x8
    a214:	94000000 	bl	0 <_memcpy>
    a218:	f9415be8 	ldr	x8, [sp, #688]
    a21c:	f9415fe2 	ldr	x2, [sp, #696]
    a220:	f9469be9 	ldr	x9, [sp, #3376]
    a224:	39050d3f 	strb	wzr, [x9, #323]
    a228:	3905093f 	strb	wzr, [x9, #322]
    a22c:	3905053f 	strb	wzr, [x9, #321]
    a230:	5280002a 	mov	w10, #0x1                   	// #1
    a234:	3905052a 	strb	w10, [x9, #321]
    a238:	3905092a 	strb	w10, [x9, #322]
    a23c:	39050d2a 	strb	w10, [x9, #323]
    a240:	39050d3f 	strb	wzr, [x9, #323]
    a244:	91010101 	add	x1, x8, #0x40
    a248:	91400be0 	add	x0, sp, #0x2, lsl #12
    a24c:	91073000 	add	x0, x0, #0x1cc
    a250:	94000000 	bl	0 <_memcpy>
    a254:	f9469be9 	ldr	x9, [sp, #3376]
    a258:	f94687e8 	ldr	x8, [sp, #3336]
    a25c:	3dc00120 	ldr	q0, [x9]
    a260:	3d885100 	str	q0, [x8, #8512]
    a264:	3dc85100 	ldr	q0, [x8, #8512]
    a268:	3d884d00 	str	q0, [x8, #8496]
    a26c:	3dc84d00 	ldr	q0, [x8, #8496]
    a270:	3d885500 	str	q0, [x8, #8528]
    a274:	b9615d0c 	ldr	w12, [x8, #8540]
    a278:	b961510b 	ldr	w11, [x8, #8528]
    a27c:	b961550a 	ldr	w10, [x8, #8532]
    a280:	b9615909 	ldr	w9, [x8, #8536]
    a284:	b921610c 	str	w12, [x8, #8544]
    a288:	b921650b 	str	w11, [x8, #8548]
    a28c:	b921690a 	str	w10, [x8, #8552]
    a290:	b9216d09 	str	w9, [x8, #8556]
    a294:	3dc85900 	ldr	q0, [x8, #8544]
    a298:	3d842d00 	str	q0, [x8, #4272]
    a29c:	14000001 	b	a2a0 <_<rand_chacha::chacha::ChaCha12Core as rand_core::block::BlockRngCore>::generate+0x7f60>
    a2a0:	f94687e8 	ldr	x8, [sp, #3336]
    a2a4:	f9469be9 	ldr	x9, [sp, #3376]
    a2a8:	3dc00520 	ldr	q0, [x9, #16]
    a2ac:	3d884100 	str	q0, [x8, #8448]
    a2b0:	3dc84100 	ldr	q0, [x8, #8448]
    a2b4:	3d883d00 	str	q0, [x8, #8432]
    a2b8:	3dc83d00 	ldr	q0, [x8, #8432]
    a2bc:	3d884500 	str	q0, [x8, #8464]
    a2c0:	b9611d0c 	ldr	w12, [x8, #8476]
    a2c4:	b961110b 	ldr	w11, [x8, #8464]
    a2c8:	b961150a 	ldr	w10, [x8, #8468]
    a2cc:	b9611909 	ldr	w9, [x8, #8472]
    a2d0:	b921210c 	str	w12, [x8, #8480]
    a2d4:	b921250b 	str	w11, [x8, #8484]
    a2d8:	b921290a 	str	w10, [x8, #8488]
    a2dc:	b9212d09 	str	w9, [x8, #8492]
    a2e0:	3dc84900 	ldr	q0, [x8, #8480]
    a2e4:	3d843100 	str	q0, [x8, #4288]
    a2e8:	14000001 	b	a2ec <_<rand_chacha::chacha::ChaCha12Core as rand_core::block::BlockRngCore>::generate+0x7fac>
    a2ec:	f94687e8 	ldr	x8, [sp, #3336]
    a2f0:	f9469be9 	ldr	x9, [sp, #3376]
    a2f4:	3dc00920 	ldr	q0, [x9, #32]
    a2f8:	3d883100 	str	q0, [x8, #8384]
    a2fc:	3dc83100 	ldr	q0, [x8, #8384]
    a300:	3d882d00 	str	q0, [x8, #8368]
    a304:	3dc82d00 	ldr	q0, [x8, #8368]
    a308:	3d883500 	str	q0, [x8, #8400]
    a30c:	b960dd0c 	ldr	w12, [x8, #8412]
    a310:	b960d10b 	ldr	w11, [x8, #8400]
    a314:	b960d50a 	ldr	w10, [x8, #8404]
    a318:	b960d909 	ldr	w9, [x8, #8408]
    a31c:	b920e10c 	str	w12, [x8, #8416]
    a320:	b920e50b 	str	w11, [x8, #8420]
    a324:	b920e90a 	str	w10, [x8, #8424]
    a328:	b920ed09 	str	w9, [x8, #8428]
    a32c:	3dc83900 	ldr	q0, [x8, #8416]
    a330:	3d843500 	str	q0, [x8, #4304]
    a334:	14000001 	b	a338 <_<rand_chacha::chacha::ChaCha12Core as rand_core::block::BlockRngCore>::generate+0x7ff8>
    a338:	f94687e8 	ldr	x8, [sp, #3336]
    a33c:	f9469be9 	ldr	x9, [sp, #3376]
    a340:	3dc00d20 	ldr	q0, [x9, #48]
    a344:	3d882100 	str	q0, [x8, #8320]
    a348:	3dc82100 	ldr	q0, [x8, #8320]
    a34c:	3d881d00 	str	q0, [x8, #8304]
    a350:	3dc81d00 	ldr	q0, [x8, #8304]
    a354:	3d882500 	str	q0, [x8, #8336]
    a358:	b9609d0c 	ldr	w12, [x8, #8348]
    a35c:	b960910b 	ldr	w11, [x8, #8336]
    a360:	b960950a 	ldr	w10, [x8, #8340]
    a364:	b9609909 	ldr	w9, [x8, #8344]
    a368:	b920a10c 	str	w12, [x8, #8352]
    a36c:	b920a50b 	str	w11, [x8, #8356]
    a370:	b920a90a 	str	w10, [x8, #8360]
    a374:	b920ad09 	str	w9, [x8, #8364]
    a378:	3dc82900 	ldr	q0, [x8, #8352]
    a37c:	3d843900 	str	q0, [x8, #4320]
    a380:	14000001 	b	a384 <_<rand_chacha::chacha::ChaCha12Core as rand_core::block::BlockRngCore>::generate+0x8044>
    a384:	f94687e8 	ldr	x8, [sp, #3336]
    a388:	3dc42d00 	ldr	q0, [x8, #4272]
    a38c:	91401fe1 	add	x1, sp, #0x7, lsl #12
    a390:	911d0021 	add	x1, x1, #0x740
    a394:	3d841d00 	str	q0, [x8, #4208]
    a398:	3dc43100 	ldr	q0, [x8, #4288]
    a39c:	3d842100 	str	q0, [x8, #4224]
    a3a0:	3dc43500 	ldr	q0, [x8, #4304]
    a3a4:	3d842500 	str	q0, [x8, #4240]
    a3a8:	3dc43900 	ldr	q0, [x8, #4320]
    a3ac:	3d842900 	str	q0, [x8, #4256]
    a3b0:	91400be0 	add	x0, sp, #0x2, lsl #12
    a3b4:	91063000 	add	x0, x0, #0x18c
    a3b8:	52800808 	mov	w8, #0x40                  	// #64
    a3bc:	aa0803e2 	mov	x2, x8
    a3c0:	94000000 	bl	0 <_memcpy>
    a3c4:	14000018 	b	a424 <_<rand_chacha::chacha::ChaCha12Core as rand_core::block::BlockRngCore>::generate+0x80e4>
    a3c8:	b9428fe8 	ldr	w8, [sp, #652]
    a3cc:	f94143e9 	ldr	x9, [sp, #640]
    a3d0:	f9014be9 	str	x9, [sp, #656]
    a3d4:	b9029fe8 	str	w8, [sp, #668]
    a3d8:	14000001 	b	a3dc <_<rand_chacha::chacha::ChaCha12Core as rand_core::block::BlockRngCore>::generate+0x809c>
    a3dc:	f9414be9 	ldr	x9, [sp, #656]
    a3e0:	b9429fe8 	ldr	w8, [sp, #668]
    a3e4:	f9013be9 	str	x9, [sp, #624]
    a3e8:	b9027fe8 	str	w8, [sp, #636]
    a3ec:	14000001 	b	a3f0 <_<rand_chacha::chacha::ChaCha12Core as rand_core::block::BlockRngCore>::generate+0x80b0>
    a3f0:	f9413be9 	ldr	x9, [sp, #624]
    a3f4:	b9427fe8 	ldr	w8, [sp, #636]
    a3f8:	f90133e9 	str	x9, [sp, #608]
    a3fc:	b9026fe8 	str	w8, [sp, #620]
    a400:	14000001 	b	a404 <_<rand_chacha::chacha::ChaCha12Core as rand_core::block::BlockRngCore>::generate+0x80c4>
    a404:	f9469be8 	ldr	x8, [sp, #3376]
    a408:	f94133ea 	ldr	x10, [sp, #608]
    a40c:	b9426fe9 	ldr	w9, [sp, #620]
    a410:	f9118bea 	str	x10, [sp, #8976]
    a414:	b9231be9 	str	w9, [sp, #8984]
    a418:	39450d08 	ldrb	w8, [x8, #323]
    a41c:	37003548 	tbnz	w8, #0, aac4 <_<rand_chacha::chacha::ChaCha12Core as rand_core::block::BlockRngCore>::generate+0x8784>
    a420:	140001a5 	b	aab4 <_<rand_chacha::chacha::ChaCha12Core as rand_core::block::BlockRngCore>::generate+0x8774>
    a424:	f9469be9 	ldr	x9, [sp, #3376]
    a428:	52800028 	mov	w8, #0x1                   	// #1
    a42c:	39050d28 	strb	w8, [x9, #323]
    a430:	914007e8 	add	x8, sp, #0x1, lsl #12
    a434:	91104108 	add	x8, x8, #0x410
    a438:	f9012be8 	str	x8, [sp, #592]
    a43c:	91010100 	add	x0, x8, #0x40
    a440:	91400be1 	add	x1, sp, #0x2, lsl #12
    a444:	91063021 	add	x1, x1, #0x18c
    a448:	52800808 	mov	w8, #0x40                  	// #64
    a44c:	aa0803e2 	mov	x2, x8
    a450:	f9012fe2 	str	x2, [sp, #600]
    a454:	94000000 	bl	0 <_memcpy>
    a458:	f9412be8 	ldr	x8, [sp, #592]
    a45c:	f9412fe2 	ldr	x2, [sp, #600]
    a460:	f9469be9 	ldr	x9, [sp, #3376]
    a464:	3905093f 	strb	wzr, [x9, #322]
    a468:	91020101 	add	x1, x8, #0x80
    a46c:	91400be0 	add	x0, sp, #0x2, lsl #12
    a470:	91093000 	add	x0, x0, #0x24c
    a474:	94000000 	bl	0 <_memcpy>
    a478:	f9469be9 	ldr	x9, [sp, #3376]
    a47c:	f94687e8 	ldr	x8, [sp, #3336]
    a480:	3dc02120 	ldr	q0, [x9, #128]
    a484:	3d8a0100 	str	q0, [x8, #10240]
    a488:	3dca0100 	ldr	q0, [x8, #10240]
    a48c:	3d8a0500 	str	q0, [x8, #10256]
    a490:	3dca0500 	ldr	q0, [x8, #10256]
    a494:	3d8a0d00 	str	q0, [x8, #10288]
    a498:	3dca0d00 	ldr	q0, [x8, #10288]
    a49c:	914023e0 	add	x0, sp, #0x8, lsl #12
    a4a0:	913bc000 	add	x0, x0, #0xef0
    a4a4:	3d8a0900 	str	q0, [x8, #10272]
    a4a8:	914023e8 	add	x8, sp, #0x8, lsl #12
    a4ac:	913c8108 	add	x8, x8, #0xf20
    a4b0:	90000001 	adrp	x1, d3f0 <l_alloc_b67bf84b64957410b9640b67558ad03c>
    a4b4:	91000021 	add	x1, x1, #0x0
    a4b8:	94000000 	bl	0 <_<T as core::convert::Into<U>>::into>
    a4bc:	1400000a 	b	a4e4 <_<rand_chacha::chacha::ChaCha12Core as rand_core::block::BlockRngCore>::generate+0x81a4>
    a4c0:	f94687e8 	ldr	x8, [sp, #3336]
    a4c4:	f9144900 	str	x0, [x8, #10384]
    a4c8:	aa0103e9 	mov	x9, x1
    a4cc:	b9289909 	str	w9, [x8, #10392]
    a4d0:	f9544909 	ldr	x9, [x8, #10384]
    a4d4:	f90143e9 	str	x9, [sp, #640]
    a4d8:	b9689908 	ldr	w8, [x8, #10392]
    a4dc:	b9028fe8 	str	w8, [sp, #652]
    a4e0:	17ffffba 	b	a3c8 <_<rand_chacha::chacha::ChaCha12Core as rand_core::block::BlockRngCore>::generate+0x8088>
    a4e4:	f94687e8 	ldr	x8, [sp, #3336]
    a4e8:	3dca1500 	ldr	q0, [x8, #10320]
    a4ec:	3d8a1900 	str	q0, [x8, #10336]
    a4f0:	f954310b 	ldr	x11, [x8, #10336]
    a4f4:	d2800009 	mov	x9, #0x0                   	// #0
    a4f8:	f914750b 	str	x11, [x8, #10472]
    a4fc:	f954350a 	ldr	x10, [x8, #10344]
    a500:	f914710a 	str	x10, [x8, #10464]
    a504:	aa090161 	orr	x1, x11, x9
    a508:	aa0a0122 	orr	x2, x9, x10
    a50c:	4e081c20 	mov	v0.d[0], x1
    a510:	4e181c40 	mov	v0.d[1], x2
    a514:	3d8a2900 	str	q0, [x8, #10400]
    a518:	914023e0 	add	x0, sp, #0x8, lsl #12
    a51c:	913c7c00 	add	x0, x0, #0xf1f
    a520:	94000000 	bl	0 <_<ppv_lite86::generic::u32x4_generic as ppv_lite86::types::Swap64>::swap64::{{closure}}>
    a524:	f9011be0 	str	x0, [sp, #560]
    a528:	f9011fe1 	str	x1, [sp, #568]
    a52c:	4e081c00 	mov	v0.d[0], x0
    a530:	4e181c20 	mov	v0.d[1], x1
    a534:	3d8093e0 	str	q0, [sp, #576]
    a538:	14000001 	b	a53c <_<rand_chacha::chacha::ChaCha12Core as rand_core::block::BlockRngCore>::generate+0x81fc>
    a53c:	f94687e8 	ldr	x8, [sp, #3336]
    a540:	f9411fe9 	ldr	x9, [sp, #568]
    a544:	f9411bea 	ldr	x10, [sp, #560]
    a548:	3dc093e0 	ldr	q0, [sp, #576]
    a54c:	3d8a3100 	str	q0, [x8, #10432]
    a550:	f914410a 	str	x10, [x8, #10368]
    a554:	f9144509 	str	x9, [x8, #10376]
    a558:	3dca2100 	ldr	q0, [x8, #10368]
    a55c:	3d8a1d00 	str	q0, [x8, #10352]
    a560:	3dca1d00 	ldr	q0, [x8, #10352]
    a564:	3d8a2d00 	str	q0, [x8, #10416]
    a568:	3dca2d00 	ldr	q0, [x8, #10416]
    a56c:	3d8a3500 	str	q0, [x8, #10448]
    a570:	3dca3500 	ldr	q0, [x8, #10448]
    a574:	3d846d00 	str	q0, [x8, #4528]
    a578:	14000001 	b	a57c <_<rand_chacha::chacha::ChaCha12Core as rand_core::block::BlockRngCore>::generate+0x823c>
    a57c:	f94687e8 	ldr	x8, [sp, #3336]
    a580:	f9469be9 	ldr	x9, [sp, #3376]
    a584:	3dc02520 	ldr	q0, [x9, #144]
    a588:	3d89c500 	str	q0, [x8, #10000]
    a58c:	3dc9c500 	ldr	q0, [x8, #10000]
    a590:	3d89c900 	str	q0, [x8, #10016]
    a594:	3dc9c900 	ldr	q0, [x8, #10016]
    a598:	3d89d100 	str	q0, [x8, #10048]
    a59c:	3dc9d100 	ldr	q0, [x8, #10048]
    a5a0:	914023e0 	add	x0, sp, #0x8, lsl #12
    a5a4:	91380000 	add	x0, x0, #0xe00
    a5a8:	3d89cd00 	str	q0, [x8, #10032]
    a5ac:	914023e8 	add	x8, sp, #0x8, lsl #12
    a5b0:	9138c108 	add	x8, x8, #0xe30
    a5b4:	90000001 	adrp	x1, d3f0 <l_alloc_b67bf84b64957410b9640b67558ad03c>
    a5b8:	91000021 	add	x1, x1, #0x0
    a5bc:	94000000 	bl	0 <_<T as core::convert::Into<U>>::into>
    a5c0:	1400000a 	b	a5e8 <_<rand_chacha::chacha::ChaCha12Core as rand_core::block::BlockRngCore>::generate+0x82a8>
    a5c4:	f94687e8 	ldr	x8, [sp, #3336]
    a5c8:	f913d100 	str	x0, [x8, #10144]
    a5cc:	aa0103e9 	mov	x9, x1
    a5d0:	b927a909 	str	w9, [x8, #10152]
    a5d4:	f953d109 	ldr	x9, [x8, #10144]
    a5d8:	b967a908 	ldr	w8, [x8, #10152]
    a5dc:	f9014be9 	str	x9, [sp, #656]
    a5e0:	b9029fe8 	str	w8, [sp, #668]
    a5e4:	17ffff7e 	b	a3dc <_<rand_chacha::chacha::ChaCha12Core as rand_core::block::BlockRngCore>::generate+0x809c>
    a5e8:	f94687e8 	ldr	x8, [sp, #3336]
    a5ec:	3dc9d900 	ldr	q0, [x8, #10080]
    a5f0:	3d89dd00 	str	q0, [x8, #10096]
    a5f4:	f953b90b 	ldr	x11, [x8, #10096]
    a5f8:	d2800009 	mov	x9, #0x0                   	// #0
    a5fc:	f913fd0b 	str	x11, [x8, #10232]
    a600:	f953bd0a 	ldr	x10, [x8, #10104]
    a604:	f913f90a 	str	x10, [x8, #10224]
    a608:	aa090161 	orr	x1, x11, x9
    a60c:	aa0a0122 	orr	x2, x9, x10
    a610:	4e081c20 	mov	v0.d[0], x1
    a614:	4e181c40 	mov	v0.d[1], x2
    a618:	3d89ed00 	str	q0, [x8, #10160]
    a61c:	914023e0 	add	x0, sp, #0x8, lsl #12
    a620:	9138bc00 	add	x0, x0, #0xe2f
    a624:	94000000 	bl	0 <_<ppv_lite86::generic::u32x4_generic as ppv_lite86::types::Swap64>::swap64::{{closure}}>
    a628:	f9010be0 	str	x0, [sp, #528]
    a62c:	f9010fe1 	str	x1, [sp, #536]
    a630:	4e081c00 	mov	v0.d[0], x0
    a634:	4e181c20 	mov	v0.d[1], x1
    a638:	3d808be0 	str	q0, [sp, #544]
    a63c:	14000001 	b	a640 <_<rand_chacha::chacha::ChaCha12Core as rand_core::block::BlockRngCore>::generate+0x8300>
    a640:	f94687e8 	ldr	x8, [sp, #3336]
    a644:	f9410fe9 	ldr	x9, [sp, #536]
    a648:	f9410bea 	ldr	x10, [sp, #528]
    a64c:	3dc08be0 	ldr	q0, [sp, #544]
    a650:	3d89f500 	str	q0, [x8, #10192]
    a654:	f913c90a 	str	x10, [x8, #10128]
    a658:	f913cd09 	str	x9, [x8, #10136]
    a65c:	3dc9e500 	ldr	q0, [x8, #10128]
    a660:	3d89e100 	str	q0, [x8, #10112]
    a664:	3dc9e100 	ldr	q0, [x8, #10112]
    a668:	3d89f100 	str	q0, [x8, #10176]
    a66c:	3dc9f100 	ldr	q0, [x8, #10176]
    a670:	3d89f900 	str	q0, [x8, #10208]
    a674:	3dc9f900 	ldr	q0, [x8, #10208]
    a678:	3d847100 	str	q0, [x8, #4544]
    a67c:	14000001 	b	a680 <_<rand_chacha::chacha::ChaCha12Core as rand_core::block::BlockRngCore>::generate+0x8340>
    a680:	f94687e8 	ldr	x8, [sp, #3336]
    a684:	f9469be9 	ldr	x9, [sp, #3376]
    a688:	3dc02920 	ldr	q0, [x9, #160]
    a68c:	3d898900 	str	q0, [x8, #9760]
    a690:	3dc98900 	ldr	q0, [x8, #9760]
    a694:	3d898d00 	str	q0, [x8, #9776]
    a698:	3dc98d00 	ldr	q0, [x8, #9776]
    a69c:	3d899500 	str	q0, [x8, #9808]
    a6a0:	3dc99500 	ldr	q0, [x8, #9808]
    a6a4:	914023e0 	add	x0, sp, #0x8, lsl #12
    a6a8:	91344000 	add	x0, x0, #0xd10
    a6ac:	3d899100 	str	q0, [x8, #9792]
    a6b0:	914023e8 	add	x8, sp, #0x8, lsl #12
    a6b4:	91350108 	add	x8, x8, #0xd40
    a6b8:	90000001 	adrp	x1, d3f0 <l_alloc_b67bf84b64957410b9640b67558ad03c>
    a6bc:	91000021 	add	x1, x1, #0x0
    a6c0:	94000000 	bl	0 <_<T as core::convert::Into<U>>::into>
    a6c4:	1400000a 	b	a6ec <_<rand_chacha::chacha::ChaCha12Core as rand_core::block::BlockRngCore>::generate+0x83ac>
    a6c8:	f94687e8 	ldr	x8, [sp, #3336]
    a6cc:	f9135900 	str	x0, [x8, #9904]
    a6d0:	aa0103e9 	mov	x9, x1
    a6d4:	b926b909 	str	w9, [x8, #9912]
    a6d8:	f9535909 	ldr	x9, [x8, #9904]
    a6dc:	b966b908 	ldr	w8, [x8, #9912]
    a6e0:	f9013be9 	str	x9, [sp, #624]
    a6e4:	b9027fe8 	str	w8, [sp, #636]
    a6e8:	17ffff42 	b	a3f0 <_<rand_chacha::chacha::ChaCha12Core as rand_core::block::BlockRngCore>::generate+0x80b0>
    a6ec:	f94687e8 	ldr	x8, [sp, #3336]
    a6f0:	3dc99d00 	ldr	q0, [x8, #9840]
    a6f4:	3d89a100 	str	q0, [x8, #9856]
    a6f8:	f953410b 	ldr	x11, [x8, #9856]
    a6fc:	d2800009 	mov	x9, #0x0                   	// #0
    a700:	f913850b 	str	x11, [x8, #9992]
    a704:	f953450a 	ldr	x10, [x8, #9864]
    a708:	f913810a 	str	x10, [x8, #9984]
    a70c:	aa090161 	orr	x1, x11, x9
    a710:	aa0a0122 	orr	x2, x9, x10
    a714:	4e081c20 	mov	v0.d[0], x1
    a718:	4e181c40 	mov	v0.d[1], x2
    a71c:	3d89b100 	str	q0, [x8, #9920]
    a720:	914023e0 	add	x0, sp, #0x8, lsl #12
    a724:	9134fc00 	add	x0, x0, #0xd3f
    a728:	94000000 	bl	0 <_<ppv_lite86::generic::u32x4_generic as ppv_lite86::types::Swap64>::swap64::{{closure}}>
    a72c:	f900fbe0 	str	x0, [sp, #496]
    a730:	f900ffe1 	str	x1, [sp, #504]
    a734:	4e081c00 	mov	v0.d[0], x0
    a738:	4e181c20 	mov	v0.d[1], x1
    a73c:	3d8083e0 	str	q0, [sp, #512]
    a740:	14000001 	b	a744 <_<rand_chacha::chacha::ChaCha12Core as rand_core::block::BlockRngCore>::generate+0x8404>
    a744:	f94687e8 	ldr	x8, [sp, #3336]
    a748:	f940ffe9 	ldr	x9, [sp, #504]
    a74c:	f940fbea 	ldr	x10, [sp, #496]
    a750:	3dc083e0 	ldr	q0, [sp, #512]
    a754:	3d89b900 	str	q0, [x8, #9952]
    a758:	f913510a 	str	x10, [x8, #9888]
    a75c:	f9135509 	str	x9, [x8, #9896]
    a760:	3dc9a900 	ldr	q0, [x8, #9888]
    a764:	3d89a500 	str	q0, [x8, #9872]
    a768:	3dc9a500 	ldr	q0, [x8, #9872]
    a76c:	3d89b500 	str	q0, [x8, #9936]
    a770:	3dc9b500 	ldr	q0, [x8, #9936]
    a774:	3d89bd00 	str	q0, [x8, #9968]
    a778:	3dc9bd00 	ldr	q0, [x8, #9968]
    a77c:	3d847500 	str	q0, [x8, #4560]
    a780:	14000001 	b	a784 <_<rand_chacha::chacha::ChaCha12Core as rand_core::block::BlockRngCore>::generate+0x8444>
    a784:	f94687e8 	ldr	x8, [sp, #3336]
    a788:	f9469be9 	ldr	x9, [sp, #3376]
    a78c:	3dc02d20 	ldr	q0, [x9, #176]
    a790:	3d894d00 	str	q0, [x8, #9520]
    a794:	3dc94d00 	ldr	q0, [x8, #9520]
    a798:	3d895100 	str	q0, [x8, #9536]
    a79c:	3dc95100 	ldr	q0, [x8, #9536]
    a7a0:	3d895900 	str	q0, [x8, #9568]
    a7a4:	3dc95900 	ldr	q0, [x8, #9568]
    a7a8:	914023e0 	add	x0, sp, #0x8, lsl #12
    a7ac:	91308000 	add	x0, x0, #0xc20
    a7b0:	3d895500 	str	q0, [x8, #9552]
    a7b4:	914023e8 	add	x8, sp, #0x8, lsl #12
    a7b8:	91314108 	add	x8, x8, #0xc50
    a7bc:	90000001 	adrp	x1, d3f0 <l_alloc_b67bf84b64957410b9640b67558ad03c>
    a7c0:	91000021 	add	x1, x1, #0x0
    a7c4:	94000000 	bl	0 <_<T as core::convert::Into<U>>::into>
    a7c8:	1400000c 	b	a7f8 <_<rand_chacha::chacha::ChaCha12Core as rand_core::block::BlockRngCore>::generate+0x84b8>
    a7cc:	f94687e8 	ldr	x8, [sp, #3336]
    a7d0:	913263e9 	add	x9, sp, #0xc98
    a7d4:	f93ffd20 	str	x0, [x9, #32760]
    a7d8:	aa0103e9 	mov	x9, x1
    a7dc:	b925c909 	str	w9, [x8, #9672]
    a7e0:	913263e9 	add	x9, sp, #0xc98
    a7e4:	f97ffd29 	ldr	x9, [x9, #32760]
    a7e8:	b965c908 	ldr	w8, [x8, #9672]
    a7ec:	f90133e9 	str	x9, [sp, #608]
    a7f0:	b9026fe8 	str	w8, [sp, #620]
    a7f4:	17ffff04 	b	a404 <_<rand_chacha::chacha::ChaCha12Core as rand_core::block::BlockRngCore>::generate+0x80c4>
    a7f8:	f94687e8 	ldr	x8, [sp, #3336]
    a7fc:	3dc96100 	ldr	q0, [x8, #9600]
    a800:	3d896500 	str	q0, [x8, #9616]
    a804:	9131a3e9 	add	x9, sp, #0xc68
    a808:	f97ffd2b 	ldr	x11, [x9, #32760]
    a80c:	d2800009 	mov	x9, #0x0                   	// #0
    a810:	9133c3ea 	add	x10, sp, #0xcf0
    a814:	f93ffd4b 	str	x11, [x10, #32760]
    a818:	9131c3ea 	add	x10, sp, #0xc70
    a81c:	f97ffd4a 	ldr	x10, [x10, #32760]
    a820:	9133a3ec 	add	x12, sp, #0xce8
    a824:	f93ffd8a 	str	x10, [x12, #32760]
    a828:	aa090161 	orr	x1, x11, x9
    a82c:	aa0a0122 	orr	x2, x9, x10
    a830:	4e081c20 	mov	v0.d[0], x1
    a834:	4e181c40 	mov	v0.d[1], x2
    a838:	3d897500 	str	q0, [x8, #9680]
    a83c:	914023e0 	add	x0, sp, #0x8, lsl #12
    a840:	91313c00 	add	x0, x0, #0xc4f
    a844:	94000000 	bl	0 <_<ppv_lite86::generic::u32x4_generic as ppv_lite86::types::Swap64>::swap64::{{closure}}>
    a848:	f900ebe0 	str	x0, [sp, #464]
    a84c:	f900efe1 	str	x1, [sp, #472]
    a850:	4e081c00 	mov	v0.d[0], x0
    a854:	4e181c20 	mov	v0.d[1], x1
    a858:	3d807be0 	str	q0, [sp, #480]
    a85c:	14000001 	b	a860 <_<rand_chacha::chacha::ChaCha12Core as rand_core::block::BlockRngCore>::generate+0x8520>
    a860:	f94687e8 	ldr	x8, [sp, #3336]
    a864:	f940efe9 	ldr	x9, [sp, #472]
    a868:	f940ebea 	ldr	x10, [sp, #464]
    a86c:	3dc07be0 	ldr	q0, [sp, #480]
    a870:	3d897d00 	str	q0, [x8, #9712]
    a874:	913223eb 	add	x11, sp, #0xc88
    a878:	f93ffd6a 	str	x10, [x11, #32760]
    a87c:	913243ea 	add	x10, sp, #0xc90
    a880:	f93ffd49 	str	x9, [x10, #32760]
    a884:	3dc96d00 	ldr	q0, [x8, #9648]
    a888:	3d896900 	str	q0, [x8, #9632]
    a88c:	3dc96900 	ldr	q0, [x8, #9632]
    a890:	3d897900 	str	q0, [x8, #9696]
    a894:	3dc97900 	ldr	q0, [x8, #9696]
    a898:	3d898100 	str	q0, [x8, #9728]
    a89c:	3dc98100 	ldr	q0, [x8, #9728]
    a8a0:	3d847900 	str	q0, [x8, #4576]
    a8a4:	14000001 	b	a8a8 <_<rand_chacha::chacha::ChaCha12Core as rand_core::block::BlockRngCore>::generate+0x8568>
    a8a8:	f94687e8 	ldr	x8, [sp, #3336]
    a8ac:	3dc46d00 	ldr	q0, [x8, #4528]
    a8b0:	91401fe1 	add	x1, sp, #0x7, lsl #12
    a8b4:	91210021 	add	x1, x1, #0x840
    a8b8:	3d845d00 	str	q0, [x8, #4464]
    a8bc:	3dc47100 	ldr	q0, [x8, #4544]
    a8c0:	3d846100 	str	q0, [x8, #4480]
    a8c4:	3dc47500 	ldr	q0, [x8, #4560]
    a8c8:	3d846500 	str	q0, [x8, #4496]
    a8cc:	3dc47900 	ldr	q0, [x8, #4576]
    a8d0:	3d846900 	str	q0, [x8, #4512]
    a8d4:	91400be0 	add	x0, sp, #0x2, lsl #12
    a8d8:	91083000 	add	x0, x0, #0x20c
    a8dc:	52800808 	mov	w8, #0x40                  	// #64
    a8e0:	aa0803e2 	mov	x2, x8
    a8e4:	94000000 	bl	0 <_memcpy>
    a8e8:	14000001 	b	a8ec <_<rand_chacha::chacha::ChaCha12Core as rand_core::block::BlockRngCore>::generate+0x85ac>
    a8ec:	f9469be9 	ldr	x9, [sp, #3376]
    a8f0:	52800028 	mov	w8, #0x1                   	// #1
    a8f4:	39050928 	strb	w8, [x9, #322]
    a8f8:	914007e8 	add	x8, sp, #0x1, lsl #12
    a8fc:	91104108 	add	x8, x8, #0x410
    a900:	f900e3e8 	str	x8, [sp, #448]
    a904:	91020100 	add	x0, x8, #0x80
    a908:	91400be1 	add	x1, sp, #0x2, lsl #12
    a90c:	91083021 	add	x1, x1, #0x20c
    a910:	52800808 	mov	w8, #0x40                  	// #64
    a914:	aa0803e2 	mov	x2, x8
    a918:	f900e7e2 	str	x2, [sp, #456]
    a91c:	94000000 	bl	0 <_memcpy>
    a920:	f940e3e8 	ldr	x8, [sp, #448]
    a924:	f940e7e2 	ldr	x2, [sp, #456]
    a928:	f9469be9 	ldr	x9, [sp, #3376]
    a92c:	3905053f 	strb	wzr, [x9, #321]
    a930:	91030101 	add	x1, x8, #0xc0
    a934:	91400be0 	add	x0, sp, #0x2, lsl #12
    a938:	910b3000 	add	x0, x0, #0x2cc
    a93c:	94000000 	bl	0 <_memcpy>
    a940:	f9469be9 	ldr	x9, [sp, #3376]
    a944:	f94687e8 	ldr	x8, [sp, #3336]
    a948:	3dc04120 	ldr	q0, [x9, #256]
    a94c:	3d8ab100 	str	q0, [x8, #10944]
    a950:	3dcab100 	ldr	q0, [x8, #10944]
    a954:	3d8aad00 	str	q0, [x8, #10928]
    a958:	3dcaad00 	ldr	q0, [x8, #10928]
    a95c:	3d8ab500 	str	q0, [x8, #10960]
    a960:	b96ad50c 	ldr	w12, [x8, #10964]
    a964:	b96ad90b 	ldr	w11, [x8, #10968]
    a968:	b96add0a 	ldr	w10, [x8, #10972]
    a96c:	b96ad109 	ldr	w9, [x8, #10960]
    a970:	b92ae10c 	str	w12, [x8, #10976]
    a974:	b92ae50b 	str	w11, [x8, #10980]
    a978:	b92ae90a 	str	w10, [x8, #10984]
    a97c:	b92aed09 	str	w9, [x8, #10988]
    a980:	3dcab900 	ldr	q0, [x8, #10976]
    a984:	3d84ad00 	str	q0, [x8, #4784]
    a988:	14000001 	b	a98c <_<rand_chacha::chacha::ChaCha12Core as rand_core::block::BlockRngCore>::generate+0x864c>
    a98c:	f94687e8 	ldr	x8, [sp, #3336]
    a990:	f9469be9 	ldr	x9, [sp, #3376]
    a994:	3dc04520 	ldr	q0, [x9, #272]
    a998:	3d8aa100 	str	q0, [x8, #10880]
    a99c:	3dcaa100 	ldr	q0, [x8, #10880]
    a9a0:	3d8a9d00 	str	q0, [x8, #10864]
    a9a4:	3dca9d00 	ldr	q0, [x8, #10864]
    a9a8:	3d8aa500 	str	q0, [x8, #10896]
    a9ac:	b96a950c 	ldr	w12, [x8, #10900]
    a9b0:	b96a990b 	ldr	w11, [x8, #10904]
    a9b4:	b96a9d0a 	ldr	w10, [x8, #10908]
    a9b8:	b96a9109 	ldr	w9, [x8, #10896]
    a9bc:	b92aa10c 	str	w12, [x8, #10912]
    a9c0:	b92aa50b 	str	w11, [x8, #10916]
    a9c4:	b92aa90a 	str	w10, [x8, #10920]
    a9c8:	b92aad09 	str	w9, [x8, #10924]
    a9cc:	3dcaa900 	ldr	q0, [x8, #10912]
    a9d0:	3d84b100 	str	q0, [x8, #4800]
    a9d4:	14000001 	b	a9d8 <_<rand_chacha::chacha::ChaCha12Core as rand_core::block::BlockRngCore>::generate+0x8698>
    a9d8:	f94687e8 	ldr	x8, [sp, #3336]
    a9dc:	f9469be9 	ldr	x9, [sp, #3376]
    a9e0:	3dc04920 	ldr	q0, [x9, #288]
    a9e4:	3d8a9100 	str	q0, [x8, #10816]
    a9e8:	3dca9100 	ldr	q0, [x8, #10816]
    a9ec:	3d8a8d00 	str	q0, [x8, #10800]
    a9f0:	3dca8d00 	ldr	q0, [x8, #10800]
    a9f4:	3d8a9500 	str	q0, [x8, #10832]
    a9f8:	b96a550c 	ldr	w12, [x8, #10836]
    a9fc:	b96a590b 	ldr	w11, [x8, #10840]
    aa00:	b96a5d0a 	ldr	w10, [x8, #10844]
    aa04:	b96a5109 	ldr	w9, [x8, #10832]
    aa08:	b92a610c 	str	w12, [x8, #10848]
    aa0c:	b92a650b 	str	w11, [x8, #10852]
    aa10:	b92a690a 	str	w10, [x8, #10856]
    aa14:	b92a6d09 	str	w9, [x8, #10860]
    aa18:	3dca9900 	ldr	q0, [x8, #10848]
    aa1c:	3d84b500 	str	q0, [x8, #4816]
    aa20:	14000001 	b	aa24 <_<rand_chacha::chacha::ChaCha12Core as rand_core::block::BlockRngCore>::generate+0x86e4>
    aa24:	f94687e8 	ldr	x8, [sp, #3336]
    aa28:	f9469be9 	ldr	x9, [sp, #3376]
    aa2c:	3dc04d20 	ldr	q0, [x9, #304]
    aa30:	3d8a8100 	str	q0, [x8, #10752]
    aa34:	3dca8100 	ldr	q0, [x8, #10752]
    aa38:	3d8a7d00 	str	q0, [x8, #10736]
    aa3c:	3dca7d00 	ldr	q0, [x8, #10736]
    aa40:	3d8a8500 	str	q0, [x8, #10768]
    aa44:	b96a150c 	ldr	w12, [x8, #10772]
    aa48:	b96a190b 	ldr	w11, [x8, #10776]
    aa4c:	b96a1d0a 	ldr	w10, [x8, #10780]
    aa50:	b96a1109 	ldr	w9, [x8, #10768]
    aa54:	b92a210c 	str	w12, [x8, #10784]
    aa58:	b92a250b 	str	w11, [x8, #10788]
    aa5c:	b92a290a 	str	w10, [x8, #10792]
    aa60:	b92a2d09 	str	w9, [x8, #10796]
    aa64:	3dca8900 	ldr	q0, [x8, #10784]
    aa68:	3d84b900 	str	q0, [x8, #4832]
    aa6c:	14000001 	b	aa70 <_<rand_chacha::chacha::ChaCha12Core as rand_core::block::BlockRngCore>::generate+0x8730>
    aa70:	f94687e8 	ldr	x8, [sp, #3336]
    aa74:	3dc4ad00 	ldr	q0, [x8, #4784]
    aa78:	91401fe1 	add	x1, sp, #0x7, lsl #12
    aa7c:	91250021 	add	x1, x1, #0x940
    aa80:	3d849d00 	str	q0, [x8, #4720]
    aa84:	3dc4b100 	ldr	q0, [x8, #4800]
    aa88:	3d84a100 	str	q0, [x8, #4736]
    aa8c:	3dc4b500 	ldr	q0, [x8, #4816]
    aa90:	3d84a500 	str	q0, [x8, #4752]
    aa94:	3dc4b900 	ldr	q0, [x8, #4832]
    aa98:	3d84a900 	str	q0, [x8, #4768]
    aa9c:	91400be0 	add	x0, sp, #0x2, lsl #12
    aaa0:	910a3000 	add	x0, x0, #0x28c
    aaa4:	52800808 	mov	w8, #0x40                  	// #64
    aaa8:	aa0803e2 	mov	x2, x8
    aaac:	94000000 	bl	0 <_memcpy>
    aab0:	1400000f 	b	aaec <_<rand_chacha::chacha::ChaCha12Core as rand_core::block::BlockRngCore>::generate+0x87ac>
    aab4:	f9469be8 	ldr	x8, [sp, #3376]
    aab8:	39450908 	ldrb	w8, [x8, #322]
    aabc:	370000e8 	tbnz	w8, #0, aad8 <_<rand_chacha::chacha::ChaCha12Core as rand_core::block::BlockRngCore>::generate+0x8798>
    aac0:	14000002 	b	aac8 <_<rand_chacha::chacha::ChaCha12Core as rand_core::block::BlockRngCore>::generate+0x8788>
    aac4:	17fffffc 	b	aab4 <_<rand_chacha::chacha::ChaCha12Core as rand_core::block::BlockRngCore>::generate+0x8774>
    aac8:	f9469be8 	ldr	x8, [sp, #3376]
    aacc:	39450508 	ldrb	w8, [x8, #321]
    aad0:	370000c8 	tbnz	w8, #0, aae8 <_<rand_chacha::chacha::ChaCha12Core as rand_core::block::BlockRngCore>::generate+0x87a8>
    aad4:	14000002 	b	aadc <_<rand_chacha::chacha::ChaCha12Core as rand_core::block::BlockRngCore>::generate+0x879c>
    aad8:	17fffffc 	b	aac8 <_<rand_chacha::chacha::ChaCha12Core as rand_core::block::BlockRngCore>::generate+0x8788>
    aadc:	f9518be8 	ldr	x8, [sp, #8976]
    aae0:	f90677e8 	str	x8, [sp, #3304]
    aae4:	140005b0 	b	c1a4 <_<rand_chacha::chacha::ChaCha12Core as rand_core::block::BlockRngCore>::generate+0x9e64>
    aae8:	17fffffd 	b	aadc <_<rand_chacha::chacha::ChaCha12Core as rand_core::block::BlockRngCore>::generate+0x879c>
    aaec:	f9469be9 	ldr	x9, [sp, #3376]
    aaf0:	52800028 	mov	w8, #0x1                   	// #1
    aaf4:	39050528 	strb	w8, [x9, #321]
    aaf8:	914007e8 	add	x8, sp, #0x1, lsl #12
    aafc:	91104108 	add	x8, x8, #0x410
    ab00:	f900d7e8 	str	x8, [sp, #424]
    ab04:	91030100 	add	x0, x8, #0xc0
    ab08:	91400be1 	add	x1, sp, #0x2, lsl #12
    ab0c:	910a3021 	add	x1, x1, #0x28c
    ab10:	52800808 	mov	w8, #0x40                  	// #64
    ab14:	aa0803e2 	mov	x2, x8
    ab18:	94000000 	bl	0 <_memcpy>
    ab1c:	f9469be8 	ldr	x8, [sp, #3376]
    ab20:	f940d7e1 	ldr	x1, [sp, #424]
    ab24:	3905051f 	strb	wzr, [x8, #321]
    ab28:	3905091f 	strb	wzr, [x8, #322]
    ab2c:	39050d1f 	strb	wzr, [x8, #323]
    ab30:	914007e0 	add	x0, sp, #0x1, lsl #12
    ab34:	910c4000 	add	x0, x0, #0x310
    ab38:	f900dbe0 	str	x0, [sp, #432]
    ab3c:	52802008 	mov	w8, #0x100                 	// #256
    ab40:	aa0803e2 	mov	x2, x8
    ab44:	f900dfe2 	str	x2, [sp, #440]
    ab48:	94000000 	bl	0 <_memcpy>
    ab4c:	f940dbe1 	ldr	x1, [sp, #432]
    ab50:	f940dfe2 	ldr	x2, [sp, #440]
    ab54:	9138c3e0 	add	x0, sp, #0xe30
    ab58:	94000000 	bl	0 <_memcpy>
    ab5c:	17ffe088 	b	2d7c <_<rand_chacha::chacha::ChaCha12Core as rand_core::block::BlockRngCore>::generate+0xa3c>
    ab60:	f946abe8 	ldr	x8, [sp, #3408]
    ab64:	3dc377e0 	ldr	q0, [sp, #3536]
    ab68:	914007e1 	add	x1, sp, #0x1, lsl #12
    ab6c:	911d4021 	add	x1, x1, #0x750
    ab70:	3d825500 	str	q0, [x8, #2384]
    ab74:	3dc377e0 	ldr	q0, [sp, #3536]
    ab78:	3d825900 	str	q0, [x8, #2400]
    ab7c:	3dc377e0 	ldr	q0, [sp, #3536]
    ab80:	3d825d00 	str	q0, [x8, #2416]
    ab84:	3dc377e0 	ldr	q0, [sp, #3536]
    ab88:	3d826100 	str	q0, [x8, #2432]
    ab8c:	914007e0 	add	x0, sp, #0x1, lsl #12
    ab90:	911c4000 	add	x0, x0, #0x710
    ab94:	52800808 	mov	w8, #0x40                  	// #64
    ab98:	aa0803e2 	mov	x2, x8
    ab9c:	f900d3e2 	str	x2, [sp, #416]
    aba0:	94000000 	bl	0 <_memcpy>
    aba4:	f946a7ea 	ldr	x10, [sp, #3400]
    aba8:	f946abe8 	ldr	x8, [sp, #3408]
    abac:	f940d3e2 	ldr	x2, [sp, #416]
    abb0:	f946b7e9 	ldr	x9, [sp, #3432]
    abb4:	3dc00140 	ldr	q0, [x10]
    abb8:	3d826900 	str	q0, [x8, #2464]
    abbc:	3dc26900 	ldr	q0, [x8, #2464]
    abc0:	3d848920 	str	q0, [x9, #4640]
    abc4:	3dc48920 	ldr	q0, [x9, #4640]
    abc8:	3d826500 	str	q0, [x8, #2448]
    abcc:	3dc26500 	ldr	q0, [x8, #2448]
    abd0:	914007e1 	add	x1, sp, #0x1, lsl #12
    abd4:	911fc021 	add	x1, x1, #0x7f0
    abd8:	3d827d00 	str	q0, [x8, #2544]
    abdc:	3dc26500 	ldr	q0, [x8, #2448]
    abe0:	3d828100 	str	q0, [x8, #2560]
    abe4:	3dc26500 	ldr	q0, [x8, #2448]
    abe8:	3d828500 	str	q0, [x8, #2576]
    abec:	3dc26500 	ldr	q0, [x8, #2448]
    abf0:	3d828900 	str	q0, [x8, #2592]
    abf4:	914007e0 	add	x0, sp, #0x1, lsl #12
    abf8:	911ec000 	add	x0, x0, #0x7b0
    abfc:	94000000 	bl	0 <_memcpy>
    ac00:	f946a7ea 	ldr	x10, [sp, #3400]
    ac04:	f946abe8 	ldr	x8, [sp, #3408]
    ac08:	f940d3e2 	ldr	x2, [sp, #416]
    ac0c:	f946b7e9 	ldr	x9, [sp, #3432]
    ac10:	3dc00540 	ldr	q0, [x10, #16]
    ac14:	3d829100 	str	q0, [x8, #2624]
    ac18:	3dc29100 	ldr	q0, [x8, #2624]
    ac1c:	3d848520 	str	q0, [x9, #4624]
    ac20:	3dc48520 	ldr	q0, [x9, #4624]
    ac24:	3d828d00 	str	q0, [x8, #2608]
    ac28:	3dc28d00 	ldr	q0, [x8, #2608]
    ac2c:	914007e1 	add	x1, sp, #0x1, lsl #12
    ac30:	91224021 	add	x1, x1, #0x890
    ac34:	3d82a500 	str	q0, [x8, #2704]
    ac38:	3dc28d00 	ldr	q0, [x8, #2608]
    ac3c:	3d82a900 	str	q0, [x8, #2720]
    ac40:	3dc28d00 	ldr	q0, [x8, #2608]
    ac44:	3d82ad00 	str	q0, [x8, #2736]
    ac48:	3dc28d00 	ldr	q0, [x8, #2608]
    ac4c:	3d82b100 	str	q0, [x8, #2752]
    ac50:	914007e0 	add	x0, sp, #0x1, lsl #12
    ac54:	91214000 	add	x0, x0, #0x850
    ac58:	94000000 	bl	0 <_memcpy>
    ac5c:	f946a7ea 	ldr	x10, [sp, #3400]
    ac60:	f946abe9 	ldr	x9, [sp, #3408]
    ac64:	f940d3e2 	ldr	x2, [sp, #416]
    ac68:	f946b7e8 	ldr	x8, [sp, #3432]
    ac6c:	3dc00940 	ldr	q0, [x10, #32]
    ac70:	3d82c520 	str	q0, [x9, #2832]
    ac74:	3dc2c520 	ldr	q0, [x9, #2832]
    ac78:	3d808500 	str	q0, [x8, #528]
    ac7c:	3dc08500 	ldr	q0, [x8, #528]
    ac80:	3d84a900 	str	q0, [x8, #4768]
    ac84:	3dc4a900 	ldr	q0, [x8, #4768]
    ac88:	3d800100 	str	q0, [x8]
    ac8c:	f911e3ff 	str	xzr, [sp, #9152]
    ac90:	f911e7ff 	str	xzr, [sp, #9160]
    ac94:	3dc02900 	ldr	q0, [x8, #160]
    ac98:	3d802500 	str	q0, [x8, #144]
    ac9c:	52800029 	mov	w9, #0x1                   	// #1
    aca0:	f911f3e9 	str	x9, [sp, #9184]
    aca4:	f911f7ff 	str	xzr, [sp, #9192]
    aca8:	3dc03100 	ldr	q0, [x8, #192]
    acac:	3d802d00 	str	q0, [x8, #176]
    acb0:	52800049 	mov	w9, #0x2                   	// #2
    acb4:	f91203e9 	str	x9, [sp, #9216]
    acb8:	f91207ff 	str	xzr, [sp, #9224]
    acbc:	3dc03900 	ldr	q0, [x8, #224]
    acc0:	3d803500 	str	q0, [x8, #208]
    acc4:	52800069 	mov	w9, #0x3                   	// #3
    acc8:	f91213e9 	str	x9, [sp, #9248]
    accc:	f91217ff 	str	xzr, [sp, #9256]
    acd0:	3dc04100 	ldr	q0, [x8, #256]
    acd4:	3d803d00 	str	q0, [x8, #240]
    acd8:	3dc02500 	ldr	q0, [x8, #144]
    acdc:	91400be1 	add	x1, sp, #0x2, lsl #12
    ace0:	910dc021 	add	x1, x1, #0x370
    ace4:	3d801500 	str	q0, [x8, #80]
    ace8:	3dc02d00 	ldr	q0, [x8, #176]
    acec:	3d801900 	str	q0, [x8, #96]
    acf0:	3dc03500 	ldr	q0, [x8, #208]
    acf4:	3d801d00 	str	q0, [x8, #112]
    acf8:	3dc03d00 	ldr	q0, [x8, #240]
    acfc:	3d802100 	str	q0, [x8, #128]
    ad00:	91400be0 	add	x0, sp, #0x2, lsl #12
    ad04:	910cc000 	add	x0, x0, #0x330
    ad08:	f900cfe0 	str	x0, [sp, #408]
    ad0c:	94000000 	bl	0 <_memcpy>
    ad10:	f940d3e2 	ldr	x2, [sp, #416]
    ad14:	f946b7e8 	ldr	x8, [sp, #3432]
    ad18:	3dc00100 	ldr	q0, [x8]
    ad1c:	91400be1 	add	x1, sp, #0x2, lsl #12
    ad20:	9113c021 	add	x1, x1, #0x4f0
    ad24:	3d807500 	str	q0, [x8, #464]
    ad28:	3dc00100 	ldr	q0, [x8]
    ad2c:	3d807900 	str	q0, [x8, #480]
    ad30:	3dc00100 	ldr	q0, [x8]
    ad34:	3d807d00 	str	q0, [x8, #496]
    ad38:	3dc00100 	ldr	q0, [x8]
    ad3c:	3d808100 	str	q0, [x8, #512]
    ad40:	91400be0 	add	x0, sp, #0x2, lsl #12
    ad44:	9112c000 	add	x0, x0, #0x4b0
    ad48:	94000000 	bl	0 <_memcpy>
    ad4c:	f940cfe1 	ldr	x1, [sp, #408]
    ad50:	f940d3e2 	ldr	x2, [sp, #416]
    ad54:	91400be0 	add	x0, sp, #0x2, lsl #12
    ad58:	91150000 	add	x0, x0, #0x540
    ad5c:	94000000 	bl	0 <_memcpy>
    ad60:	f946b7e8 	ldr	x8, [sp, #3432]
    ad64:	f946bbe9 	ldr	x9, [sp, #3440]
    ad68:	3dc06500 	ldr	q0, [x8, #400]
    ad6c:	3d815120 	str	q0, [x9, #1344]
    ad70:	3dc08900 	ldr	q0, [x8, #544]
    ad74:	3d814d20 	str	q0, [x9, #1328]
    ad78:	3dc15120 	ldr	q0, [x9, #1344]
    ad7c:	914013e0 	add	x0, sp, #0x4, lsl #12
    ad80:	91230000 	add	x0, x0, #0x8c0
    ad84:	3d814920 	str	q0, [x9, #1312]
    ad88:	3dc14d20 	ldr	q0, [x9, #1328]
    ad8c:	3d815520 	str	q0, [x9, #1360]
    ad90:	3917bd3f 	strb	wzr, [x9, #1519]
    ad94:	52800028 	mov	w8, #0x1                   	// #1
    ad98:	3917bd28 	strb	w8, [x9, #1519]
    ad9c:	914013e8 	add	x8, sp, #0x4, lsl #12
    ada0:	91244108 	add	x8, x8, #0x910
    ada4:	90000001 	adrp	x1, d438 <l_alloc_8993d95a2b5eb1e10afdc3dee81c8c60>
    ada8:	91000021 	add	x1, x1, #0x0
    adac:	94000000 	bl	0 <_<T as core::convert::Into<U>>::into>
    adb0:	14000009 	b	add4 <_<rand_chacha::chacha::ChaCha12Core as rand_core::block::BlockRngCore>::generate+0x8a94>
    adb4:	f946bbe8 	ldr	x8, [sp, #3440]
    adb8:	f924cbe0 	str	x0, [sp, #18832]
    adbc:	aa0103e9 	mov	x9, x1
    adc0:	912673ea 	add	x10, sp, #0x99c
    adc4:	b93ffd49 	str	w9, [x10, #16380]
    adc8:	3957bd08 	ldrb	w8, [x8, #1519]
    adcc:	37000488 	tbnz	w8, #0, ae5c <_<rand_chacha::chacha::ChaCha12Core as rand_core::block::BlockRngCore>::generate+0x8b1c>
    add0:	14000020 	b	ae50 <_<rand_chacha::chacha::ChaCha12Core as rand_core::block::BlockRngCore>::generate+0x8b10>
    add4:	f946bbe8 	ldr	x8, [sp, #3440]
    add8:	3917bd1f 	strb	wzr, [x8, #1519]
    addc:	3dc15500 	ldr	q0, [x8, #1360]
    ade0:	914013e0 	add	x0, sp, #0x4, lsl #12
    ade4:	9124c000 	add	x0, x0, #0x930
    ade8:	3d816500 	str	q0, [x8, #1424]
    adec:	914013e8 	add	x8, sp, #0x4, lsl #12
    adf0:	91248108 	add	x8, x8, #0x920
    adf4:	90000001 	adrp	x1, d450 <l_alloc_77ee8835248a1929d048736225bc495f>
    adf8:	91000021 	add	x1, x1, #0x0
    adfc:	94000000 	bl	0 <_<T as core::convert::Into<U>>::into>
    ae00:	14000001 	b	ae04 <_<rand_chacha::chacha::ChaCha12Core as rand_core::block::BlockRngCore>::generate+0x8ac4>
    ae04:	f946bbe8 	ldr	x8, [sp, #3440]
    ae08:	3dc15d00 	ldr	q0, [x8, #1392]
    ae0c:	3d816900 	str	q0, [x8, #1440]
    ae10:	3dc16100 	ldr	q0, [x8, #1408]
    ae14:	3d816d00 	str	q0, [x8, #1456]
    ae18:	f964a3e1 	ldr	x1, [sp, #18752]
    ae1c:	f964abe2 	ldr	x2, [sp, #18768]
    ae20:	914013e0 	add	x0, sp, #0x4, lsl #12
    ae24:	91243c00 	add	x0, x0, #0x90f
    ae28:	94000000 	bl	0 <_<ppv_lite86::generic::u64x2_generic as core::ops::arith::Add>::add::{{closure}}>
    ae2c:	f900cbe0 	str	x0, [sp, #400]
    ae30:	14000001 	b	ae34 <_<rand_chacha::chacha::ChaCha12Core as rand_core::block::BlockRngCore>::generate+0x8af4>
    ae34:	f964a7e1 	ldr	x1, [sp, #18760]
    ae38:	f964afe2 	ldr	x2, [sp, #18776]
    ae3c:	914013e0 	add	x0, sp, #0x4, lsl #12
    ae40:	91243c00 	add	x0, x0, #0x90f
    ae44:	94000000 	bl	0 <_<ppv_lite86::generic::u64x2_generic as core::ops::arith::Add>::add::{{closure}}>
    ae48:	f900c7e0 	str	x0, [sp, #392]
    ae4c:	14000005 	b	ae60 <_<rand_chacha::chacha::ChaCha12Core as rand_core::block::BlockRngCore>::generate+0x8b20>
    ae50:	f964cbe8 	ldr	x8, [sp, #18832]
    ae54:	f90677e8 	str	x8, [sp, #3304]
    ae58:	140004d3 	b	c1a4 <_<rand_chacha::chacha::ChaCha12Core as rand_core::block::BlockRngCore>::generate+0x9e64>
    ae5c:	17fffffd 	b	ae50 <_<rand_chacha::chacha::ChaCha12Core as rand_core::block::BlockRngCore>::generate+0x8b10>
    ae60:	f946bbe9 	ldr	x9, [sp, #3440]
    ae64:	f946b7e8 	ldr	x8, [sp, #3432]
    ae68:	f940c7ea 	ldr	x10, [sp, #392]
    ae6c:	f940cbeb 	ldr	x11, [sp, #400]
    ae70:	f924bfeb 	str	x11, [sp, #18808]
    ae74:	f924c3ea 	str	x10, [sp, #18816]
    ae78:	914013ea 	add	x10, sp, #0x4, lsl #12
    ae7c:	9121e54a 	add	x10, x10, #0x879
    ae80:	3ccff140 	ldur	q0, [x10, #255]
    ae84:	3d817120 	str	q0, [x9, #1472]
    ae88:	3dc17120 	ldr	q0, [x9, #1472]
    ae8c:	3d818120 	str	q0, [x9, #1536]
    ae90:	3dc18120 	ldr	q0, [x9, #1536]
    ae94:	3d818520 	str	q0, [x9, #1552]
    ae98:	3dc18520 	ldr	q0, [x9, #1552]
    ae9c:	3d855100 	str	q0, [x8, #5440]
    aea0:	3dc06900 	ldr	q0, [x8, #416]
    aea4:	3d811120 	str	q0, [x9, #1088]
    aea8:	3dc08d00 	ldr	q0, [x8, #560]
    aeac:	3d810d20 	str	q0, [x9, #1072]
    aeb0:	3dc11120 	ldr	q0, [x9, #1088]
    aeb4:	914013e0 	add	x0, sp, #0x4, lsl #12
    aeb8:	911f0000 	add	x0, x0, #0x7c0
    aebc:	3d810920 	str	q0, [x9, #1056]
    aec0:	3dc10d20 	ldr	q0, [x9, #1072]
    aec4:	3d811520 	str	q0, [x9, #1104]
    aec8:	3913bd3f 	strb	wzr, [x9, #1263]
    aecc:	52800028 	mov	w8, #0x1                   	// #1
    aed0:	3913bd28 	strb	w8, [x9, #1263]
    aed4:	914013e8 	add	x8, sp, #0x4, lsl #12
    aed8:	91204108 	add	x8, x8, #0x810
    aedc:	90000001 	adrp	x1, d438 <l_alloc_8993d95a2b5eb1e10afdc3dee81c8c60>
    aee0:	91000021 	add	x1, x1, #0x0
    aee4:	94000000 	bl	0 <_<T as core::convert::Into<U>>::into>
    aee8:	14000009 	b	af0c <_<rand_chacha::chacha::ChaCha12Core as rand_core::block::BlockRngCore>::generate+0x8bcc>
    aeec:	f946bbe8 	ldr	x8, [sp, #3440]
    aef0:	f9244be0 	str	x0, [sp, #18576]
    aef4:	aa0103e9 	mov	x9, x1
    aef8:	912273ea 	add	x10, sp, #0x89c
    aefc:	b93ffd49 	str	w9, [x10, #16380]
    af00:	3953bd08 	ldrb	w8, [x8, #1263]
    af04:	370004e8 	tbnz	w8, #0, afa0 <_<rand_chacha::chacha::ChaCha12Core as rand_core::block::BlockRngCore>::generate+0x8c60>
    af08:	14000020 	b	af88 <_<rand_chacha::chacha::ChaCha12Core as rand_core::block::BlockRngCore>::generate+0x8c48>
    af0c:	f946bbe8 	ldr	x8, [sp, #3440]
    af10:	3913bd1f 	strb	wzr, [x8, #1263]
    af14:	3dc11500 	ldr	q0, [x8, #1104]
    af18:	914013e0 	add	x0, sp, #0x4, lsl #12
    af1c:	9120c000 	add	x0, x0, #0x830
    af20:	3d812500 	str	q0, [x8, #1168]
    af24:	914013e8 	add	x8, sp, #0x4, lsl #12
    af28:	91208108 	add	x8, x8, #0x820
    af2c:	90000001 	adrp	x1, d450 <l_alloc_77ee8835248a1929d048736225bc495f>
    af30:	91000021 	add	x1, x1, #0x0
    af34:	94000000 	bl	0 <_<T as core::convert::Into<U>>::into>
    af38:	14000001 	b	af3c <_<rand_chacha::chacha::ChaCha12Core as rand_core::block::BlockRngCore>::generate+0x8bfc>
    af3c:	f946bbe8 	ldr	x8, [sp, #3440]
    af40:	3dc11d00 	ldr	q0, [x8, #1136]
    af44:	3d812900 	str	q0, [x8, #1184]
    af48:	3dc12100 	ldr	q0, [x8, #1152]
    af4c:	3d812d00 	str	q0, [x8, #1200]
    af50:	f96423e1 	ldr	x1, [sp, #18496]
    af54:	f9642be2 	ldr	x2, [sp, #18512]
    af58:	914013e0 	add	x0, sp, #0x4, lsl #12
    af5c:	91203c00 	add	x0, x0, #0x80f
    af60:	94000000 	bl	0 <_<ppv_lite86::generic::u64x2_generic as core::ops::arith::Add>::add::{{closure}}>
    af64:	f900c3e0 	str	x0, [sp, #384]
    af68:	14000001 	b	af6c <_<rand_chacha::chacha::ChaCha12Core as rand_core::block::BlockRngCore>::generate+0x8c2c>
    af6c:	f96427e1 	ldr	x1, [sp, #18504]
    af70:	f9642fe2 	ldr	x2, [sp, #18520]
    af74:	914013e0 	add	x0, sp, #0x4, lsl #12
    af78:	91203c00 	add	x0, x0, #0x80f
    af7c:	94000000 	bl	0 <_<ppv_lite86::generic::u64x2_generic as core::ops::arith::Add>::add::{{closure}}>
    af80:	f900bfe0 	str	x0, [sp, #376]
    af84:	14000008 	b	afa4 <_<rand_chacha::chacha::ChaCha12Core as rand_core::block::BlockRngCore>::generate+0x8c64>
    af88:	f9644be8 	ldr	x8, [sp, #18576]
    af8c:	f900b7e8 	str	x8, [sp, #360]
    af90:	912273e8 	add	x8, sp, #0x89c
    af94:	b97ffd08 	ldr	w8, [x8, #16380]
    af98:	b90177e8 	str	w8, [sp, #372]
    af9c:	14000016 	b	aff4 <_<rand_chacha::chacha::ChaCha12Core as rand_core::block::BlockRngCore>::generate+0x8cb4>
    afa0:	17fffffa 	b	af88 <_<rand_chacha::chacha::ChaCha12Core as rand_core::block::BlockRngCore>::generate+0x8c48>
    afa4:	f946b7e8 	ldr	x8, [sp, #3432]
    afa8:	f946bbe9 	ldr	x9, [sp, #3440]
    afac:	f940bfea 	ldr	x10, [sp, #376]
    afb0:	f940c3eb 	ldr	x11, [sp, #384]
    afb4:	f9243feb 	str	x11, [sp, #18552]
    afb8:	f92443ea 	str	x10, [sp, #18560]
    afbc:	914013ea 	add	x10, sp, #0x4, lsl #12
    afc0:	911de54a 	add	x10, x10, #0x779
    afc4:	3ccff140 	ldur	q0, [x10, #255]
    afc8:	3d813120 	str	q0, [x9, #1216]
    afcc:	3dc13120 	ldr	q0, [x9, #1216]
    afd0:	3d814120 	str	q0, [x9, #1280]
    afd4:	3dc14120 	ldr	q0, [x9, #1280]
    afd8:	3d814520 	str	q0, [x9, #1296]
    afdc:	3dc14520 	ldr	q0, [x9, #1296]
    afe0:	3d855500 	str	q0, [x8, #5456]
    afe4:	14000009 	b	b008 <_<rand_chacha::chacha::ChaCha12Core as rand_core::block::BlockRngCore>::generate+0x8cc8>
    afe8:	f95c53e8 	ldr	x8, [sp, #14496]
    afec:	f90677e8 	str	x8, [sp, #3304]
    aff0:	1400046d 	b	c1a4 <_<rand_chacha::chacha::ChaCha12Core as rand_core::block::BlockRngCore>::generate+0x9e64>
    aff4:	b94177e8 	ldr	w8, [sp, #372]
    aff8:	f940b7e9 	ldr	x9, [sp, #360]
    affc:	f91c53e9 	str	x9, [sp, #14496]
    b000:	b938abe8 	str	w8, [sp, #14504]
    b004:	17fffff9 	b	afe8 <_<rand_chacha::chacha::ChaCha12Core as rand_core::block::BlockRngCore>::generate+0x8ca8>
    b008:	f946bbe9 	ldr	x9, [sp, #3440]
    b00c:	f946b7e8 	ldr	x8, [sp, #3432]
    b010:	3dc06d00 	ldr	q0, [x8, #432]
    b014:	3d80d120 	str	q0, [x9, #832]
    b018:	3dc09100 	ldr	q0, [x8, #576]
    b01c:	3d80cd20 	str	q0, [x9, #816]
    b020:	3dc0d120 	ldr	q0, [x9, #832]
    b024:	914013e0 	add	x0, sp, #0x4, lsl #12
    b028:	911b0000 	add	x0, x0, #0x6c0
    b02c:	3d80c920 	str	q0, [x9, #800]
    b030:	3dc0cd20 	ldr	q0, [x9, #816]
    b034:	3d80d520 	str	q0, [x9, #848]
    b038:	390fbd3f 	strb	wzr, [x9, #1007]
    b03c:	52800028 	mov	w8, #0x1                   	// #1
    b040:	390fbd28 	strb	w8, [x9, #1007]
    b044:	914013e8 	add	x8, sp, #0x4, lsl #12
    b048:	911c4108 	add	x8, x8, #0x710
    b04c:	90000001 	adrp	x1, d438 <l_alloc_8993d95a2b5eb1e10afdc3dee81c8c60>
    b050:	91000021 	add	x1, x1, #0x0
    b054:	94000000 	bl	0 <_<T as core::convert::Into<U>>::into>
    b058:	14000009 	b	b07c <_<rand_chacha::chacha::ChaCha12Core as rand_core::block::BlockRngCore>::generate+0x8d3c>
    b05c:	f946bbe8 	ldr	x8, [sp, #3440]
    b060:	f923cbe0 	str	x0, [sp, #18320]
    b064:	aa0103e9 	mov	x9, x1
    b068:	911e73ea 	add	x10, sp, #0x79c
    b06c:	b93ffd49 	str	w9, [x10, #16380]
    b070:	394fbd08 	ldrb	w8, [x8, #1007]
    b074:	370004e8 	tbnz	w8, #0, b110 <_<rand_chacha::chacha::ChaCha12Core as rand_core::block::BlockRngCore>::generate+0x8dd0>
    b078:	14000020 	b	b0f8 <_<rand_chacha::chacha::ChaCha12Core as rand_core::block::BlockRngCore>::generate+0x8db8>
    b07c:	f946bbe8 	ldr	x8, [sp, #3440]
    b080:	390fbd1f 	strb	wzr, [x8, #1007]
    b084:	3dc0d500 	ldr	q0, [x8, #848]
    b088:	914013e0 	add	x0, sp, #0x4, lsl #12
    b08c:	911cc000 	add	x0, x0, #0x730
    b090:	3d80e500 	str	q0, [x8, #912]
    b094:	914013e8 	add	x8, sp, #0x4, lsl #12
    b098:	911c8108 	add	x8, x8, #0x720
    b09c:	90000001 	adrp	x1, d450 <l_alloc_77ee8835248a1929d048736225bc495f>
    b0a0:	91000021 	add	x1, x1, #0x0
    b0a4:	94000000 	bl	0 <_<T as core::convert::Into<U>>::into>
    b0a8:	14000001 	b	b0ac <_<rand_chacha::chacha::ChaCha12Core as rand_core::block::BlockRngCore>::generate+0x8d6c>
    b0ac:	f946bbe8 	ldr	x8, [sp, #3440]
    b0b0:	3dc0dd00 	ldr	q0, [x8, #880]
    b0b4:	3d80e900 	str	q0, [x8, #928]
    b0b8:	3dc0e100 	ldr	q0, [x8, #896]
    b0bc:	3d80ed00 	str	q0, [x8, #944]
    b0c0:	f963a3e1 	ldr	x1, [sp, #18240]
    b0c4:	f963abe2 	ldr	x2, [sp, #18256]
    b0c8:	914013e0 	add	x0, sp, #0x4, lsl #12
    b0cc:	911c3c00 	add	x0, x0, #0x70f
    b0d0:	94000000 	bl	0 <_<ppv_lite86::generic::u64x2_generic as core::ops::arith::Add>::add::{{closure}}>
    b0d4:	f900b3e0 	str	x0, [sp, #352]
    b0d8:	14000001 	b	b0dc <_<rand_chacha::chacha::ChaCha12Core as rand_core::block::BlockRngCore>::generate+0x8d9c>
    b0dc:	f963a7e1 	ldr	x1, [sp, #18248]
    b0e0:	f963afe2 	ldr	x2, [sp, #18264]
    b0e4:	914013e0 	add	x0, sp, #0x4, lsl #12
    b0e8:	911c3c00 	add	x0, x0, #0x70f
    b0ec:	94000000 	bl	0 <_<ppv_lite86::generic::u64x2_generic as core::ops::arith::Add>::add::{{closure}}>
    b0f0:	f900afe0 	str	x0, [sp, #344]
    b0f4:	14000008 	b	b114 <_<rand_chacha::chacha::ChaCha12Core as rand_core::block::BlockRngCore>::generate+0x8dd4>
    b0f8:	f963cbe8 	ldr	x8, [sp, #18320]
    b0fc:	f900a7e8 	str	x8, [sp, #328]
    b100:	911e73e8 	add	x8, sp, #0x79c
    b104:	b97ffd08 	ldr	w8, [x8, #16380]
    b108:	b90157e8 	str	w8, [sp, #340]
    b10c:	14000014 	b	b15c <_<rand_chacha::chacha::ChaCha12Core as rand_core::block::BlockRngCore>::generate+0x8e1c>
    b110:	17fffffa 	b	b0f8 <_<rand_chacha::chacha::ChaCha12Core as rand_core::block::BlockRngCore>::generate+0x8db8>
    b114:	f946b7e8 	ldr	x8, [sp, #3432]
    b118:	f946bbe9 	ldr	x9, [sp, #3440]
    b11c:	f940afea 	ldr	x10, [sp, #344]
    b120:	f940b3eb 	ldr	x11, [sp, #352]
    b124:	f923bfeb 	str	x11, [sp, #18296]
    b128:	f923c3ea 	str	x10, [sp, #18304]
    b12c:	914013ea 	add	x10, sp, #0x4, lsl #12
    b130:	9119e54a 	add	x10, x10, #0x679
    b134:	3ccff140 	ldur	q0, [x10, #255]
    b138:	3d80f120 	str	q0, [x9, #960]
    b13c:	3dc0f120 	ldr	q0, [x9, #960]
    b140:	3d810120 	str	q0, [x9, #1024]
    b144:	3dc10120 	ldr	q0, [x9, #1024]
    b148:	3d810520 	str	q0, [x9, #1040]
    b14c:	3dc10520 	ldr	q0, [x9, #1040]
    b150:	3d855900 	str	q0, [x8, #5472]
    b154:	14000007 	b	b170 <_<rand_chacha::chacha::ChaCha12Core as rand_core::block::BlockRngCore>::generate+0x8e30>
    b158:	17ffffa4 	b	afe8 <_<rand_chacha::chacha::ChaCha12Core as rand_core::block::BlockRngCore>::generate+0x8ca8>
    b15c:	b94157e8 	ldr	w8, [sp, #340]
    b160:	f940a7e9 	ldr	x9, [sp, #328]
    b164:	f91c53e9 	str	x9, [sp, #14496]
    b168:	b938abe8 	str	w8, [sp, #14504]
    b16c:	17fffffb 	b	b158 <_<rand_chacha::chacha::ChaCha12Core as rand_core::block::BlockRngCore>::generate+0x8e18>
    b170:	f946bbe9 	ldr	x9, [sp, #3440]
    b174:	f946b7e8 	ldr	x8, [sp, #3432]
    b178:	3dc07100 	ldr	q0, [x8, #448]
    b17c:	3d809120 	str	q0, [x9, #576]
    b180:	3dc09500 	ldr	q0, [x8, #592]
    b184:	3d808d20 	str	q0, [x9, #560]
    b188:	3dc09120 	ldr	q0, [x9, #576]
    b18c:	914013e0 	add	x0, sp, #0x4, lsl #12
    b190:	91170000 	add	x0, x0, #0x5c0
    b194:	3d808920 	str	q0, [x9, #544]
    b198:	3dc08d20 	ldr	q0, [x9, #560]
    b19c:	3d809520 	str	q0, [x9, #592]
    b1a0:	390bbd3f 	strb	wzr, [x9, #751]
    b1a4:	52800028 	mov	w8, #0x1                   	// #1
    b1a8:	390bbd28 	strb	w8, [x9, #751]
    b1ac:	914013e8 	add	x8, sp, #0x4, lsl #12
    b1b0:	91184108 	add	x8, x8, #0x610
    b1b4:	90000001 	adrp	x1, d438 <l_alloc_8993d95a2b5eb1e10afdc3dee81c8c60>
    b1b8:	91000021 	add	x1, x1, #0x0
    b1bc:	94000000 	bl	0 <_<T as core::convert::Into<U>>::into>
    b1c0:	14000009 	b	b1e4 <_<rand_chacha::chacha::ChaCha12Core as rand_core::block::BlockRngCore>::generate+0x8ea4>
    b1c4:	f946bbe8 	ldr	x8, [sp, #3440]
    b1c8:	f9234be0 	str	x0, [sp, #18064]
    b1cc:	aa0103e9 	mov	x9, x1
    b1d0:	911a73ea 	add	x10, sp, #0x69c
    b1d4:	b93ffd49 	str	w9, [x10, #16380]
    b1d8:	394bbd08 	ldrb	w8, [x8, #751]
    b1dc:	370004e8 	tbnz	w8, #0, b278 <_<rand_chacha::chacha::ChaCha12Core as rand_core::block::BlockRngCore>::generate+0x8f38>
    b1e0:	14000020 	b	b260 <_<rand_chacha::chacha::ChaCha12Core as rand_core::block::BlockRngCore>::generate+0x8f20>
    b1e4:	f946bbe8 	ldr	x8, [sp, #3440]
    b1e8:	390bbd1f 	strb	wzr, [x8, #751]
    b1ec:	3dc09500 	ldr	q0, [x8, #592]
    b1f0:	914013e0 	add	x0, sp, #0x4, lsl #12
    b1f4:	9118c000 	add	x0, x0, #0x630
    b1f8:	3d80a500 	str	q0, [x8, #656]
    b1fc:	914013e8 	add	x8, sp, #0x4, lsl #12
    b200:	91188108 	add	x8, x8, #0x620
    b204:	90000001 	adrp	x1, d450 <l_alloc_77ee8835248a1929d048736225bc495f>
    b208:	91000021 	add	x1, x1, #0x0
    b20c:	94000000 	bl	0 <_<T as core::convert::Into<U>>::into>
    b210:	14000001 	b	b214 <_<rand_chacha::chacha::ChaCha12Core as rand_core::block::BlockRngCore>::generate+0x8ed4>
    b214:	f946bbe8 	ldr	x8, [sp, #3440]
    b218:	3dc09d00 	ldr	q0, [x8, #624]
    b21c:	3d80a900 	str	q0, [x8, #672]
    b220:	3dc0a100 	ldr	q0, [x8, #640]
    b224:	3d80ad00 	str	q0, [x8, #688]
    b228:	f96323e1 	ldr	x1, [sp, #17984]
    b22c:	f9632be2 	ldr	x2, [sp, #18000]
    b230:	914013e0 	add	x0, sp, #0x4, lsl #12
    b234:	91183c00 	add	x0, x0, #0x60f
    b238:	94000000 	bl	0 <_<ppv_lite86::generic::u64x2_generic as core::ops::arith::Add>::add::{{closure}}>
    b23c:	f900a3e0 	str	x0, [sp, #320]
    b240:	14000001 	b	b244 <_<rand_chacha::chacha::ChaCha12Core as rand_core::block::BlockRngCore>::generate+0x8f04>
    b244:	f96327e1 	ldr	x1, [sp, #17992]
    b248:	f9632fe2 	ldr	x2, [sp, #18008]
    b24c:	914013e0 	add	x0, sp, #0x4, lsl #12
    b250:	91183c00 	add	x0, x0, #0x60f
    b254:	94000000 	bl	0 <_<ppv_lite86::generic::u64x2_generic as core::ops::arith::Add>::add::{{closure}}>
    b258:	f9009fe0 	str	x0, [sp, #312]
    b25c:	14000008 	b	b27c <_<rand_chacha::chacha::ChaCha12Core as rand_core::block::BlockRngCore>::generate+0x8f3c>
    b260:	f9634be8 	ldr	x8, [sp, #18064]
    b264:	f90097e8 	str	x8, [sp, #296]
    b268:	911a73e8 	add	x8, sp, #0x69c
    b26c:	b97ffd08 	ldr	w8, [x8, #16380]
    b270:	b90137e8 	str	w8, [sp, #308]
    b274:	14000013 	b	b2c0 <_<rand_chacha::chacha::ChaCha12Core as rand_core::block::BlockRngCore>::generate+0x8f80>
    b278:	17fffffa 	b	b260 <_<rand_chacha::chacha::ChaCha12Core as rand_core::block::BlockRngCore>::generate+0x8f20>
    b27c:	f946b7e8 	ldr	x8, [sp, #3432]
    b280:	f946bbe9 	ldr	x9, [sp, #3440]
    b284:	f9409fea 	ldr	x10, [sp, #312]
    b288:	f940a3eb 	ldr	x11, [sp, #320]
    b28c:	f9233feb 	str	x11, [sp, #18040]
    b290:	f92343ea 	str	x10, [sp, #18048]
    b294:	914013ea 	add	x10, sp, #0x4, lsl #12
    b298:	9115e54a 	add	x10, x10, #0x579
    b29c:	3ccff140 	ldur	q0, [x10, #255]
    b2a0:	3d80b120 	str	q0, [x9, #704]
    b2a4:	3dc0b120 	ldr	q0, [x9, #704]
    b2a8:	3d80c120 	str	q0, [x9, #768]
    b2ac:	3dc0c120 	ldr	q0, [x9, #768]
    b2b0:	3d80c520 	str	q0, [x9, #784]
    b2b4:	3dc0c520 	ldr	q0, [x9, #784]
    b2b8:	3d855d00 	str	q0, [x8, #5488]
    b2bc:	14000006 	b	b2d4 <_<rand_chacha::chacha::ChaCha12Core as rand_core::block::BlockRngCore>::generate+0x8f94>
    b2c0:	b94137e8 	ldr	w8, [sp, #308]
    b2c4:	f94097e9 	ldr	x9, [sp, #296]
    b2c8:	f91c53e9 	str	x9, [sp, #14496]
    b2cc:	b938abe8 	str	w8, [sp, #14504]
    b2d0:	17ffffa2 	b	b158 <_<rand_chacha::chacha::ChaCha12Core as rand_core::block::BlockRngCore>::generate+0x8e18>
    b2d4:	f946b7e8 	ldr	x8, [sp, #3432]
    b2d8:	3dc55100 	ldr	q0, [x8, #5440]
    b2dc:	91400fe1 	add	x1, sp, #0x3, lsl #12
    b2e0:	91208021 	add	x1, x1, #0x820
    b2e4:	3d854100 	str	q0, [x8, #5376]
    b2e8:	3dc55500 	ldr	q0, [x8, #5456]
    b2ec:	3d854500 	str	q0, [x8, #5392]
    b2f0:	3dc55900 	ldr	q0, [x8, #5472]
    b2f4:	3d854900 	str	q0, [x8, #5408]
    b2f8:	3dc55d00 	ldr	q0, [x8, #5488]
    b2fc:	3d854d00 	str	q0, [x8, #5424]
    b300:	91400be0 	add	x0, sp, #0x2, lsl #12
    b304:	9111c000 	add	x0, x0, #0x470
    b308:	f90087e0 	str	x0, [sp, #264]
    b30c:	52800808 	mov	w8, #0x40                  	// #64
    b310:	aa0803e2 	mov	x2, x8
    b314:	f90093e2 	str	x2, [sp, #288]
    b318:	94000000 	bl	0 <_memcpy>
    b31c:	f94087e0 	ldr	x0, [sp, #264]
    b320:	91400be8 	add	x8, sp, #0x2, lsl #12
    b324:	9110c108 	add	x8, x8, #0x430
    b328:	f9008be8 	str	x8, [sp, #272]
    b32c:	90000001 	adrp	x1, d568 <l_alloc_e32af199185f4c8353045deb01caf697>
    b330:	91000021 	add	x1, x1, #0x0
    b334:	94000000 	bl	0 <_<T as core::convert::Into<U>>::into>
    b338:	f9408be1 	ldr	x1, [sp, #272]
    b33c:	f94093e2 	ldr	x2, [sp, #288]
    b340:	91400be0 	add	x0, sp, #0x2, lsl #12
    b344:	911a0000 	add	x0, x0, #0x680
    b348:	f9008fe0 	str	x0, [sp, #280]
    b34c:	94000000 	bl	0 <_memcpy>
    b350:	f9408fe1 	ldr	x1, [sp, #280]
    b354:	f94093e2 	ldr	x2, [sp, #288]
    b358:	91400be0 	add	x0, sp, #0x2, lsl #12
    b35c:	91160000 	add	x0, x0, #0x580
    b360:	94000000 	bl	0 <_memcpy>
    b364:	f94093e2 	ldr	x2, [sp, #288]
    b368:	f946b7e8 	ldr	x8, [sp, #3432]
    b36c:	3dc09900 	ldr	q0, [x8, #608]
    b370:	3d80bd00 	str	q0, [x8, #752]
    b374:	3dc0bd00 	ldr	q0, [x8, #752]
    b378:	3d848100 	str	q0, [x8, #4608]
    b37c:	3dc48100 	ldr	q0, [x8, #4608]
    b380:	3d80b900 	str	q0, [x8, #736]
    b384:	3dc09d00 	ldr	q0, [x8, #624]
    b388:	3d80c500 	str	q0, [x8, #784]
    b38c:	3dc0c500 	ldr	q0, [x8, #784]
    b390:	3d847d00 	str	q0, [x8, #4592]
    b394:	3dc47d00 	ldr	q0, [x8, #4592]
    b398:	3d80c100 	str	q0, [x8, #768]
    b39c:	3dc0a100 	ldr	q0, [x8, #640]
    b3a0:	3d80cd00 	str	q0, [x8, #816]
    b3a4:	3dc0cd00 	ldr	q0, [x8, #816]
    b3a8:	3d847900 	str	q0, [x8, #4576]
    b3ac:	3dc47900 	ldr	q0, [x8, #4576]
    b3b0:	3d80c900 	str	q0, [x8, #800]
    b3b4:	3dc0a500 	ldr	q0, [x8, #656]
    b3b8:	3d80d500 	str	q0, [x8, #848]
    b3bc:	3dc0d500 	ldr	q0, [x8, #848]
    b3c0:	3d847500 	str	q0, [x8, #4560]
    b3c4:	3dc47500 	ldr	q0, [x8, #4560]
    b3c8:	3d80d100 	str	q0, [x8, #832]
    b3cc:	3dc0b900 	ldr	q0, [x8, #736]
    b3d0:	91400be1 	add	x1, sp, #0x2, lsl #12
    b3d4:	91170021 	add	x1, x1, #0x5c0
    b3d8:	3d80a900 	str	q0, [x8, #672]
    b3dc:	3dc0c100 	ldr	q0, [x8, #768]
    b3e0:	3d80ad00 	str	q0, [x8, #688]
    b3e4:	3dc0c900 	ldr	q0, [x8, #800]
    b3e8:	3d80b100 	str	q0, [x8, #704]
    b3ec:	3dc0d100 	ldr	q0, [x8, #832]
    b3f0:	3d80b500 	str	q0, [x8, #720]
    b3f4:	914007e0 	add	x0, sp, #0x1, lsl #12
    b3f8:	91234000 	add	x0, x0, #0x8d0
    b3fc:	94000000 	bl	0 <_memcpy>
    b400:	f94093e2 	ldr	x2, [sp, #288]
    b404:	9138c3e1 	add	x1, sp, #0xe30
    b408:	914007e0 	add	x0, sp, #0x1, lsl #12
    b40c:	91298000 	add	x0, x0, #0xa60
    b410:	94000000 	bl	0 <_memcpy>
    b414:	f94093e2 	ldr	x2, [sp, #288]
    b418:	914007e1 	add	x1, sp, #0x1, lsl #12
    b41c:	911c4021 	add	x1, x1, #0x710
    b420:	914007e0 	add	x0, sp, #0x1, lsl #12
    b424:	913ad000 	add	x0, x0, #0xeb4
    b428:	94000000 	bl	0 <_memcpy>
    b42c:	f946abea 	ldr	x10, [sp, #3408]
    b430:	f9469fe9 	ldr	x9, [sp, #3384]
    b434:	f946b7e8 	ldr	x8, [sp, #3432]
    b438:	3dc31940 	ldr	q0, [x10, #3168]
    b43c:	3d86e100 	str	q0, [x8, #7040]
    b440:	3dc00120 	ldr	q0, [x9]
    b444:	3d86dd00 	str	q0, [x8, #7024]
    b448:	3dc6e100 	ldr	q0, [x8, #7040]
    b44c:	91400fe0 	add	x0, sp, #0x3, lsl #12
    b450:	913a0000 	add	x0, x0, #0xe80
    b454:	3d86d900 	str	q0, [x8, #7008]
    b458:	3dc6dd00 	ldr	q0, [x8, #7024]
    b45c:	91400fe1 	add	x1, sp, #0x3, lsl #12
    b460:	913ac021 	add	x1, x1, #0xeb0
    b464:	3d86e500 	str	q0, [x8, #7056]
    b468:	91400fe8 	add	x8, sp, #0x3, lsl #12
    b46c:	911f4108 	add	x8, x8, #0x7d0
    b470:	94000000 	bl	0 <_ppv_lite86::generic::dmap2>
    b474:	f946abea 	ldr	x10, [sp, #3408]
    b478:	f9469fe9 	ldr	x9, [sp, #3384]
    b47c:	f946b7e8 	ldr	x8, [sp, #3432]
    b480:	3dc31d40 	ldr	q0, [x10, #3184]
    b484:	3d86d100 	str	q0, [x8, #6976]
    b488:	3dc00520 	ldr	q0, [x9, #16]
    b48c:	3d86cd00 	str	q0, [x8, #6960]
    b490:	3dc6d100 	ldr	q0, [x8, #6976]
    b494:	91400fe0 	add	x0, sp, #0x3, lsl #12
    b498:	91390000 	add	x0, x0, #0xe40
    b49c:	3d86c900 	str	q0, [x8, #6944]
    b4a0:	3dc6cd00 	ldr	q0, [x8, #6960]
    b4a4:	91400fe1 	add	x1, sp, #0x3, lsl #12
    b4a8:	9139c021 	add	x1, x1, #0xe70
    b4ac:	3d86d500 	str	q0, [x8, #6992]
    b4b0:	91400fe8 	add	x8, sp, #0x3, lsl #12
    b4b4:	911f8108 	add	x8, x8, #0x7e0
    b4b8:	94000000 	bl	0 <_ppv_lite86::generic::dmap2>
    b4bc:	14000001 	b	b4c0 <_<rand_chacha::chacha::ChaCha12Core as rand_core::block::BlockRngCore>::generate+0x9180>
    b4c0:	14000008 	b	b4e0 <_<rand_chacha::chacha::ChaCha12Core as rand_core::block::BlockRngCore>::generate+0x91a0>
    b4c4:	f95c0be8 	ldr	x8, [sp, #14352]
    b4c8:	f90677e8 	str	x8, [sp, #3304]
    b4cc:	14000336 	b	c1a4 <_<rand_chacha::chacha::ChaCha12Core as rand_core::block::BlockRngCore>::generate+0x9e64>
    b4d0:	f91c0be0 	str	x0, [sp, #14352]
    b4d4:	aa0103e8 	mov	x8, x1
    b4d8:	b9381be8 	str	w8, [sp, #14360]
    b4dc:	17fffffa 	b	b4c4 <_<rand_chacha::chacha::ChaCha12Core as rand_core::block::BlockRngCore>::generate+0x9184>
    b4e0:	f946b7e8 	ldr	x8, [sp, #3432]
    b4e4:	f9469fe9 	ldr	x9, [sp, #3384]
    b4e8:	f946abea 	ldr	x10, [sp, #3408]
    b4ec:	3dc32140 	ldr	q0, [x10, #3200]
    b4f0:	3d86c100 	str	q0, [x8, #6912]
    b4f4:	3dc00920 	ldr	q0, [x9, #32]
    b4f8:	3d86bd00 	str	q0, [x8, #6896]
    b4fc:	3dc6c100 	ldr	q0, [x8, #6912]
    b500:	91400fe0 	add	x0, sp, #0x3, lsl #12
    b504:	91380000 	add	x0, x0, #0xe00
    b508:	3d86b900 	str	q0, [x8, #6880]
    b50c:	3dc6bd00 	ldr	q0, [x8, #6896]
    b510:	91400fe1 	add	x1, sp, #0x3, lsl #12
    b514:	9138c021 	add	x1, x1, #0xe30
    b518:	3d86c500 	str	q0, [x8, #6928]
    b51c:	91400fe8 	add	x8, sp, #0x3, lsl #12
    b520:	911fc108 	add	x8, x8, #0x7f0
    b524:	94000000 	bl	0 <_ppv_lite86::generic::dmap2>
    b528:	14000001 	b	b52c <_<rand_chacha::chacha::ChaCha12Core as rand_core::block::BlockRngCore>::generate+0x91ec>
    b52c:	14000006 	b	b544 <_<rand_chacha::chacha::ChaCha12Core as rand_core::block::BlockRngCore>::generate+0x9204>
    b530:	17ffffe5 	b	b4c4 <_<rand_chacha::chacha::ChaCha12Core as rand_core::block::BlockRngCore>::generate+0x9184>
    b534:	f91c0be0 	str	x0, [sp, #14352]
    b538:	aa0103e8 	mov	x8, x1
    b53c:	b9381be8 	str	w8, [sp, #14360]
    b540:	17fffffc 	b	b530 <_<rand_chacha::chacha::ChaCha12Core as rand_core::block::BlockRngCore>::generate+0x91f0>
    b544:	f946b7e8 	ldr	x8, [sp, #3432]
    b548:	f9469fe9 	ldr	x9, [sp, #3384]
    b54c:	f946abea 	ldr	x10, [sp, #3408]
    b550:	3dc32540 	ldr	q0, [x10, #3216]
    b554:	3d86b100 	str	q0, [x8, #6848]
    b558:	3dc00d20 	ldr	q0, [x9, #48]
    b55c:	3d86ad00 	str	q0, [x8, #6832]
    b560:	3dc6b100 	ldr	q0, [x8, #6848]
    b564:	91400fe0 	add	x0, sp, #0x3, lsl #12
    b568:	91370000 	add	x0, x0, #0xdc0
    b56c:	3d86a900 	str	q0, [x8, #6816]
    b570:	3dc6ad00 	ldr	q0, [x8, #6832]
    b574:	91400fe1 	add	x1, sp, #0x3, lsl #12
    b578:	9137c021 	add	x1, x1, #0xdf0
    b57c:	3d86b500 	str	q0, [x8, #6864]
    b580:	91400fe8 	add	x8, sp, #0x3, lsl #12
    b584:	91200108 	add	x8, x8, #0x800
    b588:	94000000 	bl	0 <_ppv_lite86::generic::dmap2>
    b58c:	14000001 	b	b590 <_<rand_chacha::chacha::ChaCha12Core as rand_core::block::BlockRngCore>::generate+0x9250>
    b590:	14000005 	b	b5a4 <_<rand_chacha::chacha::ChaCha12Core as rand_core::block::BlockRngCore>::generate+0x9264>
    b594:	f91c0be0 	str	x0, [sp, #14352]
    b598:	aa0103e8 	mov	x8, x1
    b59c:	b9381be8 	str	w8, [sp, #14360]
    b5a0:	17ffffe4 	b	b530 <_<rand_chacha::chacha::ChaCha12Core as rand_core::block::BlockRngCore>::generate+0x91f0>
    b5a4:	f946b7e8 	ldr	x8, [sp, #3432]
    b5a8:	3dc52d00 	ldr	q0, [x8, #5296]
    b5ac:	91400fe1 	add	x1, sp, #0x3, lsl #12
    b5b0:	911e4021 	add	x1, x1, #0x790
    b5b4:	3d851d00 	str	q0, [x8, #5232]
    b5b8:	3dc53100 	ldr	q0, [x8, #5312]
    b5bc:	3d852100 	str	q0, [x8, #5248]
    b5c0:	3dc53500 	ldr	q0, [x8, #5328]
    b5c4:	3d852500 	str	q0, [x8, #5264]
    b5c8:	3dc53900 	ldr	q0, [x8, #5344]
    b5cc:	3d852900 	str	q0, [x8, #5280]
    b5d0:	914007e0 	add	x0, sp, #0x1, lsl #12
    b5d4:	91288000 	add	x0, x0, #0xa20
    b5d8:	52800808 	mov	w8, #0x40                  	// #64
    b5dc:	aa0803e2 	mov	x2, x8
    b5e0:	f90083e2 	str	x2, [sp, #256]
    b5e4:	94000000 	bl	0 <_memcpy>
    b5e8:	f94083e2 	ldr	x2, [sp, #256]
    b5ec:	9138c3e8 	add	x8, sp, #0xe30
    b5f0:	91010101 	add	x1, x8, #0x40
    b5f4:	914007e0 	add	x0, sp, #0x1, lsl #12
    b5f8:	912b8000 	add	x0, x0, #0xae0
    b5fc:	94000000 	bl	0 <_memcpy>
    b600:	f94083e2 	ldr	x2, [sp, #256]
    b604:	914007e1 	add	x1, sp, #0x1, lsl #12
    b608:	911ec021 	add	x1, x1, #0x7b0
    b60c:	914007e0 	add	x0, sp, #0x1, lsl #12
    b610:	913bd000 	add	x0, x0, #0xef4
    b614:	94000000 	bl	0 <_memcpy>
    b618:	f946abea 	ldr	x10, [sp, #3408]
    b61c:	f9469fe9 	ldr	x9, [sp, #3384]
    b620:	f946b7e8 	ldr	x8, [sp, #3432]
    b624:	3dc33940 	ldr	q0, [x10, #3296]
    b628:	3d872100 	str	q0, [x8, #7296]
    b62c:	3dc01120 	ldr	q0, [x9, #64]
    b630:	3d871d00 	str	q0, [x8, #7280]
    b634:	3dc72100 	ldr	q0, [x8, #7296]
    b638:	91400fe0 	add	x0, sp, #0x3, lsl #12
    b63c:	913e0000 	add	x0, x0, #0xf80
    b640:	3d871900 	str	q0, [x8, #7264]
    b644:	3dc71d00 	ldr	q0, [x8, #7280]
    b648:	91400fe1 	add	x1, sp, #0x3, lsl #12
    b64c:	913ec021 	add	x1, x1, #0xfb0
    b650:	3d872500 	str	q0, [x8, #7312]
    b654:	91400fe8 	add	x8, sp, #0x3, lsl #12
    b658:	911d0108 	add	x8, x8, #0x740
    b65c:	94000000 	bl	0 <_ppv_lite86::generic::dmap2>
    b660:	f946abea 	ldr	x10, [sp, #3408]
    b664:	f9469fe9 	ldr	x9, [sp, #3384]
    b668:	f946b7e8 	ldr	x8, [sp, #3432]
    b66c:	3dc33d40 	ldr	q0, [x10, #3312]
    b670:	3d871100 	str	q0, [x8, #7232]
    b674:	3dc01520 	ldr	q0, [x9, #80]
    b678:	3d870d00 	str	q0, [x8, #7216]
    b67c:	3dc71100 	ldr	q0, [x8, #7232]
    b680:	91400fe0 	add	x0, sp, #0x3, lsl #12
    b684:	913d0000 	add	x0, x0, #0xf40
    b688:	3d870900 	str	q0, [x8, #7200]
    b68c:	3dc70d00 	ldr	q0, [x8, #7216]
    b690:	91400fe1 	add	x1, sp, #0x3, lsl #12
    b694:	913dc021 	add	x1, x1, #0xf70
    b698:	3d871500 	str	q0, [x8, #7248]
    b69c:	91400fe8 	add	x8, sp, #0x3, lsl #12
    b6a0:	911d4108 	add	x8, x8, #0x750
    b6a4:	94000000 	bl	0 <_ppv_lite86::generic::dmap2>
    b6a8:	14000001 	b	b6ac <_<rand_chacha::chacha::ChaCha12Core as rand_core::block::BlockRngCore>::generate+0x936c>
    b6ac:	14000008 	b	b6cc <_<rand_chacha::chacha::ChaCha12Core as rand_core::block::BlockRngCore>::generate+0x938c>
    b6b0:	f95bc3e8 	ldr	x8, [sp, #14208]
    b6b4:	f90677e8 	str	x8, [sp, #3304]
    b6b8:	140002bb 	b	c1a4 <_<rand_chacha::chacha::ChaCha12Core as rand_core::block::BlockRngCore>::generate+0x9e64>
    b6bc:	f91bc3e0 	str	x0, [sp, #14208]
    b6c0:	aa0103e8 	mov	x8, x1
    b6c4:	b9378be8 	str	w8, [sp, #14216]
    b6c8:	17fffffa 	b	b6b0 <_<rand_chacha::chacha::ChaCha12Core as rand_core::block::BlockRngCore>::generate+0x9370>
    b6cc:	f946b7e8 	ldr	x8, [sp, #3432]
    b6d0:	f9469fe9 	ldr	x9, [sp, #3384]
    b6d4:	f946abea 	ldr	x10, [sp, #3408]
    b6d8:	3dc34140 	ldr	q0, [x10, #3328]
    b6dc:	3d870100 	str	q0, [x8, #7168]
    b6e0:	3dc01920 	ldr	q0, [x9, #96]
    b6e4:	3d86fd00 	str	q0, [x8, #7152]
    b6e8:	3dc70100 	ldr	q0, [x8, #7168]
    b6ec:	91400fe0 	add	x0, sp, #0x3, lsl #12
    b6f0:	913c0000 	add	x0, x0, #0xf00
    b6f4:	3d86f900 	str	q0, [x8, #7136]
    b6f8:	3dc6fd00 	ldr	q0, [x8, #7152]
    b6fc:	91400fe1 	add	x1, sp, #0x3, lsl #12
    b700:	913cc021 	add	x1, x1, #0xf30
    b704:	3d870500 	str	q0, [x8, #7184]
    b708:	91400fe8 	add	x8, sp, #0x3, lsl #12
    b70c:	911d8108 	add	x8, x8, #0x760
    b710:	94000000 	bl	0 <_ppv_lite86::generic::dmap2>
    b714:	14000001 	b	b718 <_<rand_chacha::chacha::ChaCha12Core as rand_core::block::BlockRngCore>::generate+0x93d8>
    b718:	14000006 	b	b730 <_<rand_chacha::chacha::ChaCha12Core as rand_core::block::BlockRngCore>::generate+0x93f0>
    b71c:	17ffffe5 	b	b6b0 <_<rand_chacha::chacha::ChaCha12Core as rand_core::block::BlockRngCore>::generate+0x9370>
    b720:	f91bc3e0 	str	x0, [sp, #14208]
    b724:	aa0103e8 	mov	x8, x1
    b728:	b9378be8 	str	w8, [sp, #14216]
    b72c:	17fffffc 	b	b71c <_<rand_chacha::chacha::ChaCha12Core as rand_core::block::BlockRngCore>::generate+0x93dc>
    b730:	f946b7e8 	ldr	x8, [sp, #3432]
    b734:	f9469fe9 	ldr	x9, [sp, #3384]
    b738:	f946abea 	ldr	x10, [sp, #3408]
    b73c:	3dc34540 	ldr	q0, [x10, #3344]
    b740:	3d86f100 	str	q0, [x8, #7104]
    b744:	3dc01d20 	ldr	q0, [x9, #112]
    b748:	3d86ed00 	str	q0, [x8, #7088]
    b74c:	3dc6f100 	ldr	q0, [x8, #7104]
    b750:	91400fe0 	add	x0, sp, #0x3, lsl #12
    b754:	913b0000 	add	x0, x0, #0xec0
    b758:	3d86e900 	str	q0, [x8, #7072]
    b75c:	3dc6ed00 	ldr	q0, [x8, #7088]
    b760:	91400fe1 	add	x1, sp, #0x3, lsl #12
    b764:	913bc021 	add	x1, x1, #0xef0
    b768:	3d86f500 	str	q0, [x8, #7120]
    b76c:	91400fe8 	add	x8, sp, #0x3, lsl #12
    b770:	911dc108 	add	x8, x8, #0x770
    b774:	94000000 	bl	0 <_ppv_lite86::generic::dmap2>
    b778:	14000001 	b	b77c <_<rand_chacha::chacha::ChaCha12Core as rand_core::block::BlockRngCore>::generate+0x943c>
    b77c:	14000005 	b	b790 <_<rand_chacha::chacha::ChaCha12Core as rand_core::block::BlockRngCore>::generate+0x9450>
    b780:	f91bc3e0 	str	x0, [sp, #14208]
    b784:	aa0103e8 	mov	x8, x1
    b788:	b9378be8 	str	w8, [sp, #14216]
    b78c:	17ffffe4 	b	b71c <_<rand_chacha::chacha::ChaCha12Core as rand_core::block::BlockRngCore>::generate+0x93dc>
    b790:	f946b7e8 	ldr	x8, [sp, #3432]
    b794:	3dc50900 	ldr	q0, [x8, #5152]
    b798:	91400fe1 	add	x1, sp, #0x3, lsl #12
    b79c:	911c0021 	add	x1, x1, #0x700
    b7a0:	3d84f900 	str	q0, [x8, #5088]
    b7a4:	3dc50d00 	ldr	q0, [x8, #5168]
    b7a8:	3d84fd00 	str	q0, [x8, #5104]
    b7ac:	3dc51100 	ldr	q0, [x8, #5184]
    b7b0:	3d850100 	str	q0, [x8, #5120]
    b7b4:	3dc51500 	ldr	q0, [x8, #5200]
    b7b8:	3d850500 	str	q0, [x8, #5136]
    b7bc:	914007e0 	add	x0, sp, #0x1, lsl #12
    b7c0:	912a8000 	add	x0, x0, #0xaa0
    b7c4:	52800808 	mov	w8, #0x40                  	// #64
    b7c8:	aa0803e2 	mov	x2, x8
    b7cc:	f9007fe2 	str	x2, [sp, #248]
    b7d0:	94000000 	bl	0 <_memcpy>
    b7d4:	f9407fe2 	ldr	x2, [sp, #248]
    b7d8:	9138c3e8 	add	x8, sp, #0xe30
    b7dc:	91020101 	add	x1, x8, #0x80
    b7e0:	914007e0 	add	x0, sp, #0x1, lsl #12
    b7e4:	912d8000 	add	x0, x0, #0xb60
    b7e8:	94000000 	bl	0 <_memcpy>
    b7ec:	f9407fe2 	ldr	x2, [sp, #248]
    b7f0:	914007e1 	add	x1, sp, #0x1, lsl #12
    b7f4:	91214021 	add	x1, x1, #0x850
    b7f8:	914007e0 	add	x0, sp, #0x1, lsl #12
    b7fc:	913cd000 	add	x0, x0, #0xf34
    b800:	94000000 	bl	0 <_memcpy>
    b804:	f946abea 	ldr	x10, [sp, #3408]
    b808:	f9469fe9 	ldr	x9, [sp, #3384]
    b80c:	f946b7e8 	ldr	x8, [sp, #3432]
    b810:	3dc35940 	ldr	q0, [x10, #3424]
    b814:	3d876100 	str	q0, [x8, #7552]
    b818:	3dc02120 	ldr	q0, [x9, #128]
    b81c:	3d875d00 	str	q0, [x8, #7536]
    b820:	3dc76100 	ldr	q0, [x8, #7552]
    b824:	914013e0 	add	x0, sp, #0x4, lsl #12
    b828:	91020000 	add	x0, x0, #0x80
    b82c:	3d875900 	str	q0, [x8, #7520]
    b830:	3dc75d00 	ldr	q0, [x8, #7536]
    b834:	914013e1 	add	x1, sp, #0x4, lsl #12
    b838:	9102c021 	add	x1, x1, #0xb0
    b83c:	3d876500 	str	q0, [x8, #7568]
    b840:	91400fe8 	add	x8, sp, #0x3, lsl #12
    b844:	911ac108 	add	x8, x8, #0x6b0
    b848:	94000000 	bl	0 <_ppv_lite86::generic::dmap2>
    b84c:	f946abea 	ldr	x10, [sp, #3408]
    b850:	f9469fe9 	ldr	x9, [sp, #3384]
    b854:	f946b7e8 	ldr	x8, [sp, #3432]
    b858:	3dc35d40 	ldr	q0, [x10, #3440]
    b85c:	3d875100 	str	q0, [x8, #7488]
    b860:	3dc02520 	ldr	q0, [x9, #144]
    b864:	3d874d00 	str	q0, [x8, #7472]
    b868:	3dc75100 	ldr	q0, [x8, #7488]
    b86c:	914013e0 	add	x0, sp, #0x4, lsl #12
    b870:	91010000 	add	x0, x0, #0x40
    b874:	3d874900 	str	q0, [x8, #7456]
    b878:	3dc74d00 	ldr	q0, [x8, #7472]
    b87c:	914013e1 	add	x1, sp, #0x4, lsl #12
    b880:	9101c021 	add	x1, x1, #0x70
    b884:	3d875500 	str	q0, [x8, #7504]
    b888:	91400fe8 	add	x8, sp, #0x3, lsl #12
    b88c:	911b0108 	add	x8, x8, #0x6c0
    b890:	94000000 	bl	0 <_ppv_lite86::generic::dmap2>
    b894:	14000001 	b	b898 <_<rand_chacha::chacha::ChaCha12Core as rand_core::block::BlockRngCore>::generate+0x9558>
    b898:	14000008 	b	b8b8 <_<rand_chacha::chacha::ChaCha12Core as rand_core::block::BlockRngCore>::generate+0x9578>
    b89c:	f95b7be8 	ldr	x8, [sp, #14064]
    b8a0:	f90677e8 	str	x8, [sp, #3304]
    b8a4:	14000240 	b	c1a4 <_<rand_chacha::chacha::ChaCha12Core as rand_core::block::BlockRngCore>::generate+0x9e64>
    b8a8:	f91b7be0 	str	x0, [sp, #14064]
    b8ac:	aa0103e8 	mov	x8, x1
    b8b0:	b936fbe8 	str	w8, [sp, #14072]
    b8b4:	17fffffa 	b	b89c <_<rand_chacha::chacha::ChaCha12Core as rand_core::block::BlockRngCore>::generate+0x955c>
    b8b8:	f946b7e8 	ldr	x8, [sp, #3432]
    b8bc:	f9469fe9 	ldr	x9, [sp, #3384]
    b8c0:	f946abea 	ldr	x10, [sp, #3408]
    b8c4:	3dc36140 	ldr	q0, [x10, #3456]
    b8c8:	3d874100 	str	q0, [x8, #7424]
    b8cc:	3dc02920 	ldr	q0, [x9, #160]
    b8d0:	3d873d00 	str	q0, [x8, #7408]
    b8d4:	3dc74100 	ldr	q0, [x8, #7424]
    b8d8:	914013e0 	add	x0, sp, #0x4, lsl #12
    b8dc:	3d873900 	str	q0, [x8, #7392]
    b8e0:	3dc73d00 	ldr	q0, [x8, #7408]
    b8e4:	914013e1 	add	x1, sp, #0x4, lsl #12
    b8e8:	9100c021 	add	x1, x1, #0x30
    b8ec:	3d874500 	str	q0, [x8, #7440]
    b8f0:	91400fe8 	add	x8, sp, #0x3, lsl #12
    b8f4:	911b4108 	add	x8, x8, #0x6d0
    b8f8:	94000000 	bl	0 <_ppv_lite86::generic::dmap2>
    b8fc:	14000001 	b	b900 <_<rand_chacha::chacha::ChaCha12Core as rand_core::block::BlockRngCore>::generate+0x95c0>
    b900:	14000006 	b	b918 <_<rand_chacha::chacha::ChaCha12Core as rand_core::block::BlockRngCore>::generate+0x95d8>
    b904:	17ffffe6 	b	b89c <_<rand_chacha::chacha::ChaCha12Core as rand_core::block::BlockRngCore>::generate+0x955c>
    b908:	f91b7be0 	str	x0, [sp, #14064]
    b90c:	aa0103e8 	mov	x8, x1
    b910:	b936fbe8 	str	w8, [sp, #14072]
    b914:	17fffffc 	b	b904 <_<rand_chacha::chacha::ChaCha12Core as rand_core::block::BlockRngCore>::generate+0x95c4>
    b918:	f946b7e8 	ldr	x8, [sp, #3432]
    b91c:	f9469fe9 	ldr	x9, [sp, #3384]
    b920:	f946abea 	ldr	x10, [sp, #3408]
    b924:	3dc36540 	ldr	q0, [x10, #3472]
    b928:	3d873100 	str	q0, [x8, #7360]
    b92c:	3dc02d20 	ldr	q0, [x9, #176]
    b930:	3d872d00 	str	q0, [x8, #7344]
    b934:	3dc73100 	ldr	q0, [x8, #7360]
    b938:	91400fe0 	add	x0, sp, #0x3, lsl #12
    b93c:	913f0000 	add	x0, x0, #0xfc0
    b940:	3d872900 	str	q0, [x8, #7328]
    b944:	3dc72d00 	ldr	q0, [x8, #7344]
    b948:	91400fe1 	add	x1, sp, #0x3, lsl #12
    b94c:	913fc021 	add	x1, x1, #0xff0
    b950:	3d873500 	str	q0, [x8, #7376]
    b954:	91400fe8 	add	x8, sp, #0x3, lsl #12
    b958:	911b8108 	add	x8, x8, #0x6e0
    b95c:	94000000 	bl	0 <_ppv_lite86::generic::dmap2>
    b960:	14000001 	b	b964 <_<rand_chacha::chacha::ChaCha12Core as rand_core::block::BlockRngCore>::generate+0x9624>
    b964:	14000005 	b	b978 <_<rand_chacha::chacha::ChaCha12Core as rand_core::block::BlockRngCore>::generate+0x9638>
    b968:	f91b7be0 	str	x0, [sp, #14064]
    b96c:	aa0103e8 	mov	x8, x1
    b970:	b936fbe8 	str	w8, [sp, #14072]
    b974:	17ffffe4 	b	b904 <_<rand_chacha::chacha::ChaCha12Core as rand_core::block::BlockRngCore>::generate+0x95c4>
    b978:	f946b7e8 	ldr	x8, [sp, #3432]
    b97c:	3dc4e500 	ldr	q0, [x8, #5008]
    b980:	91400fe1 	add	x1, sp, #0x3, lsl #12
    b984:	9119c021 	add	x1, x1, #0x670
    b988:	3d84d500 	str	q0, [x8, #4944]
    b98c:	3dc4e900 	ldr	q0, [x8, #5024]
    b990:	3d84d900 	str	q0, [x8, #4960]
    b994:	3dc4ed00 	ldr	q0, [x8, #5040]
    b998:	3d84dd00 	str	q0, [x8, #4976]
    b99c:	3dc4f100 	ldr	q0, [x8, #5056]
    b9a0:	3d84e100 	str	q0, [x8, #4992]
    b9a4:	914007e0 	add	x0, sp, #0x1, lsl #12
    b9a8:	912c8000 	add	x0, x0, #0xb20
    b9ac:	52800808 	mov	w8, #0x40                  	// #64
    b9b0:	aa0803e2 	mov	x2, x8
    b9b4:	f9007be2 	str	x2, [sp, #240]
    b9b8:	94000000 	bl	0 <_memcpy>
    b9bc:	f9407be2 	ldr	x2, [sp, #240]
    b9c0:	9138c3e8 	add	x8, sp, #0xe30
    b9c4:	91030101 	add	x1, x8, #0xc0
    b9c8:	914007e0 	add	x0, sp, #0x1, lsl #12
    b9cc:	912f8000 	add	x0, x0, #0xbe0
    b9d0:	94000000 	bl	0 <_memcpy>
    b9d4:	f9407be2 	ldr	x2, [sp, #240]
    b9d8:	914007e1 	add	x1, sp, #0x1, lsl #12
    b9dc:	91234021 	add	x1, x1, #0x8d0
    b9e0:	914007e0 	add	x0, sp, #0x1, lsl #12
    b9e4:	913dd000 	add	x0, x0, #0xf74
    b9e8:	94000000 	bl	0 <_memcpy>
    b9ec:	f946abea 	ldr	x10, [sp, #3408]
    b9f0:	f9469fe9 	ldr	x9, [sp, #3384]
    b9f4:	f946b7e8 	ldr	x8, [sp, #3432]
    b9f8:	3dc37940 	ldr	q0, [x10, #3552]
    b9fc:	3d87a100 	str	q0, [x8, #7808]
    ba00:	3dc03120 	ldr	q0, [x9, #192]
    ba04:	3d879d00 	str	q0, [x8, #7792]
    ba08:	3dc7a100 	ldr	q0, [x8, #7808]
    ba0c:	914013e0 	add	x0, sp, #0x4, lsl #12
    ba10:	91060000 	add	x0, x0, #0x180
    ba14:	3d879900 	str	q0, [x8, #7776]
    ba18:	3dc79d00 	ldr	q0, [x8, #7792]
    ba1c:	914013e1 	add	x1, sp, #0x4, lsl #12
    ba20:	9106c021 	add	x1, x1, #0x1b0
    ba24:	3d87a500 	str	q0, [x8, #7824]
    ba28:	91400fe8 	add	x8, sp, #0x3, lsl #12
    ba2c:	91188108 	add	x8, x8, #0x620
    ba30:	94000000 	bl	0 <_ppv_lite86::generic::dmap2>
    ba34:	f946abea 	ldr	x10, [sp, #3408]
    ba38:	f9469fe9 	ldr	x9, [sp, #3384]
    ba3c:	f946b7e8 	ldr	x8, [sp, #3432]
    ba40:	3dc37d40 	ldr	q0, [x10, #3568]
    ba44:	3d879100 	str	q0, [x8, #7744]
    ba48:	3dc03520 	ldr	q0, [x9, #208]
    ba4c:	3d878d00 	str	q0, [x8, #7728]
    ba50:	3dc79100 	ldr	q0, [x8, #7744]
    ba54:	914013e0 	add	x0, sp, #0x4, lsl #12
    ba58:	91050000 	add	x0, x0, #0x140
    ba5c:	3d878900 	str	q0, [x8, #7712]
    ba60:	3dc78d00 	ldr	q0, [x8, #7728]
    ba64:	914013e1 	add	x1, sp, #0x4, lsl #12
    ba68:	9105c021 	add	x1, x1, #0x170
    ba6c:	3d879500 	str	q0, [x8, #7760]
    ba70:	91400fe8 	add	x8, sp, #0x3, lsl #12
    ba74:	9118c108 	add	x8, x8, #0x630
    ba78:	94000000 	bl	0 <_ppv_lite86::generic::dmap2>
    ba7c:	14000001 	b	ba80 <_<rand_chacha::chacha::ChaCha12Core as rand_core::block::BlockRngCore>::generate+0x9740>
    ba80:	14000008 	b	baa0 <_<rand_chacha::chacha::ChaCha12Core as rand_core::block::BlockRngCore>::generate+0x9760>
    ba84:	f95b33e8 	ldr	x8, [sp, #13920]
    ba88:	f90677e8 	str	x8, [sp, #3304]
    ba8c:	140001c6 	b	c1a4 <_<rand_chacha::chacha::ChaCha12Core as rand_core::block::BlockRngCore>::generate+0x9e64>
    ba90:	f91b33e0 	str	x0, [sp, #13920]
    ba94:	aa0103e8 	mov	x8, x1
    ba98:	b9366be8 	str	w8, [sp, #13928]
    ba9c:	17fffffa 	b	ba84 <_<rand_chacha::chacha::ChaCha12Core as rand_core::block::BlockRngCore>::generate+0x9744>
    baa0:	f946b7e8 	ldr	x8, [sp, #3432]
    baa4:	f9469fe9 	ldr	x9, [sp, #3384]
    baa8:	f946abea 	ldr	x10, [sp, #3408]
    baac:	3dc38140 	ldr	q0, [x10, #3584]
    bab0:	3d878100 	str	q0, [x8, #7680]
    bab4:	3dc03920 	ldr	q0, [x9, #224]
    bab8:	3d877d00 	str	q0, [x8, #7664]
    babc:	3dc78100 	ldr	q0, [x8, #7680]
    bac0:	914013e0 	add	x0, sp, #0x4, lsl #12
    bac4:	91040000 	add	x0, x0, #0x100
    bac8:	3d877900 	str	q0, [x8, #7648]
    bacc:	3dc77d00 	ldr	q0, [x8, #7664]
    bad0:	914013e1 	add	x1, sp, #0x4, lsl #12
    bad4:	9104c021 	add	x1, x1, #0x130
    bad8:	3d878500 	str	q0, [x8, #7696]
    badc:	91400fe8 	add	x8, sp, #0x3, lsl #12
    bae0:	91190108 	add	x8, x8, #0x640
    bae4:	94000000 	bl	0 <_ppv_lite86::generic::dmap2>
    bae8:	14000001 	b	baec <_<rand_chacha::chacha::ChaCha12Core as rand_core::block::BlockRngCore>::generate+0x97ac>
    baec:	14000006 	b	bb04 <_<rand_chacha::chacha::ChaCha12Core as rand_core::block::BlockRngCore>::generate+0x97c4>
    baf0:	17ffffe5 	b	ba84 <_<rand_chacha::chacha::ChaCha12Core as rand_core::block::BlockRngCore>::generate+0x9744>
    baf4:	f91b33e0 	str	x0, [sp, #13920]
    baf8:	aa0103e8 	mov	x8, x1
    bafc:	b9366be8 	str	w8, [sp, #13928]
    bb00:	17fffffc 	b	baf0 <_<rand_chacha::chacha::ChaCha12Core as rand_core::block::BlockRngCore>::generate+0x97b0>
    bb04:	f946b7e8 	ldr	x8, [sp, #3432]
    bb08:	f9469fe9 	ldr	x9, [sp, #3384]
    bb0c:	f946abea 	ldr	x10, [sp, #3408]
    bb10:	3dc38540 	ldr	q0, [x10, #3600]
    bb14:	3d877100 	str	q0, [x8, #7616]
    bb18:	3dc03d20 	ldr	q0, [x9, #240]
    bb1c:	3d876d00 	str	q0, [x8, #7600]
    bb20:	3dc77100 	ldr	q0, [x8, #7616]
    bb24:	914013e0 	add	x0, sp, #0x4, lsl #12
    bb28:	91030000 	add	x0, x0, #0xc0
    bb2c:	3d876900 	str	q0, [x8, #7584]
    bb30:	3dc76d00 	ldr	q0, [x8, #7600]
    bb34:	914013e1 	add	x1, sp, #0x4, lsl #12
    bb38:	9103c021 	add	x1, x1, #0xf0
    bb3c:	3d877500 	str	q0, [x8, #7632]
    bb40:	91400fe8 	add	x8, sp, #0x3, lsl #12
    bb44:	91194108 	add	x8, x8, #0x650
    bb48:	94000000 	bl	0 <_ppv_lite86::generic::dmap2>
    bb4c:	14000001 	b	bb50 <_<rand_chacha::chacha::ChaCha12Core as rand_core::block::BlockRngCore>::generate+0x9810>
    bb50:	14000005 	b	bb64 <_<rand_chacha::chacha::ChaCha12Core as rand_core::block::BlockRngCore>::generate+0x9824>
    bb54:	f91b33e0 	str	x0, [sp, #13920]
    bb58:	aa0103e8 	mov	x8, x1
    bb5c:	b9366be8 	str	w8, [sp, #13928]
    bb60:	17ffffe4 	b	baf0 <_<rand_chacha::chacha::ChaCha12Core as rand_core::block::BlockRngCore>::generate+0x97b0>
    bb64:	f946b7e8 	ldr	x8, [sp, #3432]
    bb68:	3dc4c100 	ldr	q0, [x8, #4864]
    bb6c:	91400fe1 	add	x1, sp, #0x3, lsl #12
    bb70:	91178021 	add	x1, x1, #0x5e0
    bb74:	3d84b100 	str	q0, [x8, #4800]
    bb78:	3dc4c500 	ldr	q0, [x8, #4880]
    bb7c:	3d84b500 	str	q0, [x8, #4816]
    bb80:	3dc4c900 	ldr	q0, [x8, #4896]
    bb84:	3d84b900 	str	q0, [x8, #4832]
    bb88:	3dc4cd00 	ldr	q0, [x8, #4912]
    bb8c:	3d84bd00 	str	q0, [x8, #4848]
    bb90:	914007e0 	add	x0, sp, #0x1, lsl #12
    bb94:	912e8000 	add	x0, x0, #0xba0
    bb98:	52800808 	mov	w8, #0x40                  	// #64
    bb9c:	aa0803e2 	mov	x2, x8
    bba0:	f90073e2 	str	x2, [sp, #224]
    bba4:	94000000 	bl	0 <_memcpy>
    bba8:	f94687e8 	ldr	x8, [sp, #3336]
    bbac:	f94073e2 	ldr	x2, [sp, #224]
    bbb0:	f946abe9 	ldr	x9, [sp, #3408]
    bbb4:	3dc30920 	ldr	q0, [x9, #3104]
    bbb8:	3d8bdd00 	str	q0, [x8, #12144]
    bbbc:	3dc32920 	ldr	q0, [x9, #3232]
    bbc0:	3d8be100 	str	q0, [x8, #12160]
    bbc4:	3dc34920 	ldr	q0, [x9, #3360]
    bbc8:	3d8be500 	str	q0, [x8, #12176]
    bbcc:	3dc36920 	ldr	q0, [x9, #3488]
    bbd0:	3d8be900 	str	q0, [x8, #12192]
    bbd4:	3dcbdd00 	ldr	q0, [x8, #12144]
    bbd8:	914027e1 	add	x1, sp, #0x9, lsl #12
    bbdc:	91180021 	add	x1, x1, #0x600
    bbe0:	3d8bcd00 	str	q0, [x8, #12080]
    bbe4:	3dcbe100 	ldr	q0, [x8, #12160]
    bbe8:	3d8bd100 	str	q0, [x8, #12096]
    bbec:	3dcbe500 	ldr	q0, [x8, #12176]
    bbf0:	3d8bd500 	str	q0, [x8, #12112]
    bbf4:	3dcbe900 	ldr	q0, [x8, #12192]
    bbf8:	3d8bd900 	str	q0, [x8, #12128]
    bbfc:	914027e0 	add	x0, sp, #0x9, lsl #12
    bc00:	91170000 	add	x0, x0, #0x5c0
    bc04:	f9000fe0 	str	x0, [sp, #24]
    bc08:	94000000 	bl	0 <_memcpy>
    bc0c:	f94687e8 	ldr	x8, [sp, #3336]
    bc10:	f94073e2 	ldr	x2, [sp, #224]
    bc14:	f946abe9 	ldr	x9, [sp, #3408]
    bc18:	3dc30d20 	ldr	q0, [x9, #3120]
    bc1c:	3d8c0d00 	str	q0, [x8, #12336]
    bc20:	3dc32d20 	ldr	q0, [x9, #3248]
    bc24:	3d8c1100 	str	q0, [x8, #12352]
    bc28:	3dc34d20 	ldr	q0, [x9, #3376]
    bc2c:	3d8c1500 	str	q0, [x8, #12368]
    bc30:	3dc36d20 	ldr	q0, [x9, #3504]
    bc34:	3d8c1900 	str	q0, [x8, #12384]
    bc38:	3dcc0d00 	ldr	q0, [x8, #12336]
    bc3c:	914027e1 	add	x1, sp, #0x9, lsl #12
    bc40:	911b0021 	add	x1, x1, #0x6c0
    bc44:	3d8bfd00 	str	q0, [x8, #12272]
    bc48:	3dcc1100 	ldr	q0, [x8, #12352]
    bc4c:	3d8c0100 	str	q0, [x8, #12288]
    bc50:	3dcc1500 	ldr	q0, [x8, #12368]
    bc54:	3d8c0500 	str	q0, [x8, #12304]
    bc58:	3dcc1900 	ldr	q0, [x8, #12384]
    bc5c:	3d8c0900 	str	q0, [x8, #12320]
    bc60:	914027e0 	add	x0, sp, #0x9, lsl #12
    bc64:	911a0000 	add	x0, x0, #0x680
    bc68:	f90013e0 	str	x0, [sp, #32]
    bc6c:	94000000 	bl	0 <_memcpy>
    bc70:	f94687e8 	ldr	x8, [sp, #3336]
    bc74:	f94073e2 	ldr	x2, [sp, #224]
    bc78:	f946abe9 	ldr	x9, [sp, #3408]
    bc7c:	3dc31120 	ldr	q0, [x9, #3136]
    bc80:	3d8c3d00 	str	q0, [x8, #12528]
    bc84:	3dc33120 	ldr	q0, [x9, #3264]
    bc88:	3d8c4100 	str	q0, [x8, #12544]
    bc8c:	3dc35120 	ldr	q0, [x9, #3392]
    bc90:	3d8c4500 	str	q0, [x8, #12560]
    bc94:	3dc37120 	ldr	q0, [x9, #3520]
    bc98:	3d8c4900 	str	q0, [x8, #12576]
    bc9c:	3dcc3d00 	ldr	q0, [x8, #12528]
    bca0:	914027e1 	add	x1, sp, #0x9, lsl #12
    bca4:	911e0021 	add	x1, x1, #0x780
    bca8:	3d8c2d00 	str	q0, [x8, #12464]
    bcac:	3dcc4100 	ldr	q0, [x8, #12544]
    bcb0:	3d8c3100 	str	q0, [x8, #12480]
    bcb4:	3dcc4500 	ldr	q0, [x8, #12560]
    bcb8:	3d8c3500 	str	q0, [x8, #12496]
    bcbc:	3dcc4900 	ldr	q0, [x8, #12576]
    bcc0:	3d8c3900 	str	q0, [x8, #12512]
    bcc4:	914027e0 	add	x0, sp, #0x9, lsl #12
    bcc8:	911d0000 	add	x0, x0, #0x740
    bccc:	f90017e0 	str	x0, [sp, #40]
    bcd0:	94000000 	bl	0 <_memcpy>
    bcd4:	f94687e8 	ldr	x8, [sp, #3336]
    bcd8:	f94073e2 	ldr	x2, [sp, #224]
    bcdc:	f946abe9 	ldr	x9, [sp, #3408]
    bce0:	3dc31520 	ldr	q0, [x9, #3152]
    bce4:	3d8c6d00 	str	q0, [x8, #12720]
    bce8:	3dc33520 	ldr	q0, [x9, #3280]
    bcec:	3d8c7100 	str	q0, [x8, #12736]
    bcf0:	3dc35520 	ldr	q0, [x9, #3408]
    bcf4:	3d8c7500 	str	q0, [x8, #12752]
    bcf8:	3dc37520 	ldr	q0, [x9, #3536]
    bcfc:	3d8c7900 	str	q0, [x8, #12768]
    bd00:	3dcc6d00 	ldr	q0, [x8, #12720]
    bd04:	914027e1 	add	x1, sp, #0x9, lsl #12
    bd08:	91210021 	add	x1, x1, #0x840
    bd0c:	3d8c5d00 	str	q0, [x8, #12656]
    bd10:	3dcc7100 	ldr	q0, [x8, #12736]
    bd14:	3d8c6100 	str	q0, [x8, #12672]
    bd18:	3dcc7500 	ldr	q0, [x8, #12752]
    bd1c:	3d8c6500 	str	q0, [x8, #12688]
    bd20:	3dcc7900 	ldr	q0, [x8, #12768]
    bd24:	3d8c6900 	str	q0, [x8, #12704]
    bd28:	914027e0 	add	x0, sp, #0x9, lsl #12
    bd2c:	91200000 	add	x0, x0, #0x800
    bd30:	f9001be0 	str	x0, [sp, #48]
    bd34:	94000000 	bl	0 <_memcpy>
    bd38:	f9400fe1 	ldr	x1, [sp, #24]
    bd3c:	f94073e2 	ldr	x2, [sp, #224]
    bd40:	914007e0 	add	x0, sp, #0x1, lsl #12
    bd44:	91248000 	add	x0, x0, #0x920
    bd48:	f90057e0 	str	x0, [sp, #168]
    bd4c:	94000000 	bl	0 <_memcpy>
    bd50:	f94013e1 	ldr	x1, [sp, #32]
    bd54:	f94057e8 	ldr	x8, [sp, #168]
    bd58:	f94073e2 	ldr	x2, [sp, #224]
    bd5c:	91010100 	add	x0, x8, #0x40
    bd60:	94000000 	bl	0 <_memcpy>
    bd64:	f94017e1 	ldr	x1, [sp, #40]
    bd68:	f94057e8 	ldr	x8, [sp, #168]
    bd6c:	f94073e2 	ldr	x2, [sp, #224]
    bd70:	91020100 	add	x0, x8, #0x80
    bd74:	94000000 	bl	0 <_memcpy>
    bd78:	f9401be1 	ldr	x1, [sp, #48]
    bd7c:	f94057e8 	ldr	x8, [sp, #168]
    bd80:	f94073e2 	ldr	x2, [sp, #224]
    bd84:	91030100 	add	x0, x8, #0xc0
    bd88:	94000000 	bl	0 <_memcpy>
    bd8c:	f946a3e0 	ldr	x0, [sp, #3392]
    bd90:	d2800001 	mov	x1, #0x0                   	// #0
    bd94:	52800208 	mov	w8, #0x10                  	// #16
    bd98:	aa0803e2 	mov	x2, x8
    bd9c:	f9006be2 	str	x2, [sp, #208]
    bda0:	90000003 	adrp	x3, d490 <l_alloc_a16ae175c6f9053fa6874bb731c20ce9>
    bda4:	91000063 	add	x3, x3, #0x0
    bda8:	94000000 	bl	0 <_core::array::<impl core::ops::index::IndexMut<I> for [T; N]>::index_mut>
    bdac:	f94073e2 	ldr	x2, [sp, #224]
    bdb0:	f90023e0 	str	x0, [sp, #64]
    bdb4:	aa0103e0 	mov	x0, x1
    bdb8:	f94057e1 	ldr	x1, [sp, #168]
    bdbc:	f90027e0 	str	x0, [sp, #72]
    bdc0:	914007e0 	add	x0, sp, #0x1, lsl #12
    bdc4:	91318000 	add	x0, x0, #0xc60
    bdc8:	f9001fe0 	str	x0, [sp, #56]
    bdcc:	94000000 	bl	0 <_memcpy>
    bdd0:	f9401fe0 	ldr	x0, [sp, #56]
    bdd4:	914007e8 	add	x8, sp, #0x1, lsl #12
    bdd8:	91308108 	add	x8, x8, #0xc20
    bddc:	f9002be8 	str	x8, [sp, #80]
    bde0:	94000000 	bl	0 <_ppv_lite86::generic::<impl ppv_lite86::types::Vector<[u32; 16]> for ppv_lite86::soft::x4<ppv_lite86::generic::u32x4_generic>>::to_scalars>
    bde4:	f94023e0 	ldr	x0, [sp, #64]
    bde8:	f94027e1 	ldr	x1, [sp, #72]
    bdec:	f9402be2 	ldr	x2, [sp, #80]
    bdf0:	f9406be3 	ldr	x3, [sp, #208]
    bdf4:	90000004 	adrp	x4, d4a8 <l_alloc_5f2a070de190fd1327b426a26dc01f81>
    bdf8:	91000084 	add	x4, x4, #0x0
    bdfc:	94000000 	bl	0 <_core::slice::<impl [T]>::copy_from_slice>
    be00:	f946a3e0 	ldr	x0, [sp, #3392]
    be04:	f9406be1 	ldr	x1, [sp, #208]
    be08:	52800408 	mov	w8, #0x20                  	// #32
    be0c:	aa0803e2 	mov	x2, x8
    be10:	f9003fe2 	str	x2, [sp, #120]
    be14:	90000003 	adrp	x3, d4c0 <l_alloc_33f3cb219299db3114a5b62f4ab99122>
    be18:	91000063 	add	x3, x3, #0x0
    be1c:	94000000 	bl	0 <_core::array::<impl core::ops::index::IndexMut<I> for [T; N]>::index_mut>
    be20:	f94057e8 	ldr	x8, [sp, #168]
    be24:	f94073e2 	ldr	x2, [sp, #224]
    be28:	f90033e0 	str	x0, [sp, #96]
    be2c:	f90037e1 	str	x1, [sp, #104]
    be30:	91010101 	add	x1, x8, #0x40
    be34:	914007e0 	add	x0, sp, #0x1, lsl #12
    be38:	91338000 	add	x0, x0, #0xce0
    be3c:	f9002fe0 	str	x0, [sp, #88]
    be40:	94000000 	bl	0 <_memcpy>
    be44:	f9402fe0 	ldr	x0, [sp, #88]
    be48:	914007e8 	add	x8, sp, #0x1, lsl #12
    be4c:	91328108 	add	x8, x8, #0xca0
    be50:	f9003be8 	str	x8, [sp, #112]
    be54:	94000000 	bl	0 <_ppv_lite86::generic::<impl ppv_lite86::types::Vector<[u32; 16]> for ppv_lite86::soft::x4<ppv_lite86::generic::u32x4_generic>>::to_scalars>
    be58:	f94033e0 	ldr	x0, [sp, #96]
    be5c:	f94037e1 	ldr	x1, [sp, #104]
    be60:	f9403be2 	ldr	x2, [sp, #112]
    be64:	f9406be3 	ldr	x3, [sp, #208]
    be68:	90000004 	adrp	x4, d4d8 <l_alloc_29c6ed83d62d866d1d738563bccd6bdf>
    be6c:	91000084 	add	x4, x4, #0x0
    be70:	94000000 	bl	0 <_core::slice::<impl [T]>::copy_from_slice>
    be74:	f9403fe1 	ldr	x1, [sp, #120]
    be78:	f946a3e0 	ldr	x0, [sp, #3392]
    be7c:	52800608 	mov	w8, #0x30                  	// #48
    be80:	aa0803e2 	mov	x2, x8
    be84:	f90053e2 	str	x2, [sp, #160]
    be88:	90000003 	adrp	x3, d4f0 <l_alloc_9dbcec12027e74fd248c5033972dc845>
    be8c:	91000063 	add	x3, x3, #0x0
    be90:	94000000 	bl	0 <_core::array::<impl core::ops::index::IndexMut<I> for [T; N]>::index_mut>
    be94:	f94057e8 	ldr	x8, [sp, #168]
    be98:	f94073e2 	ldr	x2, [sp, #224]
    be9c:	f90047e0 	str	x0, [sp, #136]
    bea0:	f9004be1 	str	x1, [sp, #144]
    bea4:	91020101 	add	x1, x8, #0x80
    bea8:	914007e0 	add	x0, sp, #0x1, lsl #12
    beac:	91358000 	add	x0, x0, #0xd60
    beb0:	f90043e0 	str	x0, [sp, #128]
    beb4:	94000000 	bl	0 <_memcpy>
    beb8:	f94043e0 	ldr	x0, [sp, #128]
    bebc:	914007e8 	add	x8, sp, #0x1, lsl #12
    bec0:	91348108 	add	x8, x8, #0xd20
    bec4:	f9004fe8 	str	x8, [sp, #152]
    bec8:	94000000 	bl	0 <_ppv_lite86::generic::<impl ppv_lite86::types::Vector<[u32; 16]> for ppv_lite86::soft::x4<ppv_lite86::generic::u32x4_generic>>::to_scalars>
    becc:	f94047e0 	ldr	x0, [sp, #136]
    bed0:	f9404be1 	ldr	x1, [sp, #144]
    bed4:	f9404fe2 	ldr	x2, [sp, #152]
    bed8:	f9406be3 	ldr	x3, [sp, #208]
    bedc:	90000004 	adrp	x4, d508 <l_alloc_e3e9f18703829dd5603e5542e6da7876>
    bee0:	91000084 	add	x4, x4, #0x0
    bee4:	94000000 	bl	0 <_core::slice::<impl [T]>::copy_from_slice>
    bee8:	f946a3e0 	ldr	x0, [sp, #3392]
    beec:	f94053e1 	ldr	x1, [sp, #160]
    bef0:	f94073e2 	ldr	x2, [sp, #224]
    bef4:	90000003 	adrp	x3, d520 <l_alloc_357125ced0da2c7c97623d2522d5e1a0>
    bef8:	91000063 	add	x3, x3, #0x0
    befc:	94000000 	bl	0 <_core::array::<impl core::ops::index::IndexMut<I> for [T; N]>::index_mut>
    bf00:	f94057e8 	ldr	x8, [sp, #168]
    bf04:	f94073e2 	ldr	x2, [sp, #224]
    bf08:	f9005fe0 	str	x0, [sp, #184]
    bf0c:	f90063e1 	str	x1, [sp, #192]
    bf10:	91030101 	add	x1, x8, #0xc0
    bf14:	914007e0 	add	x0, sp, #0x1, lsl #12
    bf18:	91378000 	add	x0, x0, #0xde0
    bf1c:	f9005be0 	str	x0, [sp, #176]
    bf20:	94000000 	bl	0 <_memcpy>
    bf24:	f9405be0 	ldr	x0, [sp, #176]
    bf28:	914007e8 	add	x8, sp, #0x1, lsl #12
    bf2c:	91368108 	add	x8, x8, #0xda0
    bf30:	f90067e8 	str	x8, [sp, #200]
    bf34:	94000000 	bl	0 <_ppv_lite86::generic::<impl ppv_lite86::types::Vector<[u32; 16]> for ppv_lite86::soft::x4<ppv_lite86::generic::u32x4_generic>>::to_scalars>
    bf38:	f9405fe0 	ldr	x0, [sp, #184]
    bf3c:	f94063e1 	ldr	x1, [sp, #192]
    bf40:	f94067e2 	ldr	x2, [sp, #200]
    bf44:	f9406be3 	ldr	x3, [sp, #208]
    bf48:	90000004 	adrp	x4, d538 <l_alloc_95a0b80e48affe78af9d39e663ae8af0>
    bf4c:	91000084 	add	x4, x4, #0x0
    bf50:	94000000 	bl	0 <_core::slice::<impl [T]>::copy_from_slice>
    bf54:	f94073e2 	ldr	x2, [sp, #224]
    bf58:	914007e1 	add	x1, sp, #0x1, lsl #12
    bf5c:	91234021 	add	x1, x1, #0x8d0
    bf60:	914007e0 	add	x0, sp, #0x1, lsl #12
    bf64:	913ed000 	add	x0, x0, #0xfb4
    bf68:	f9006fe0 	str	x0, [sp, #216]
    bf6c:	94000000 	bl	0 <_memcpy>
    bf70:	f9406fe1 	ldr	x1, [sp, #216]
    bf74:	f94073e2 	ldr	x2, [sp, #224]
    bf78:	914007e0 	add	x0, sp, #0x1, lsl #12
    bf7c:	91396000 	add	x0, x0, #0xe58
    bf80:	94000000 	bl	0 <_memcpy>
    bf84:	f946abe9 	ldr	x9, [sp, #3408]
    bf88:	f946b7e8 	ldr	x8, [sp, #3432]
    bf8c:	914007ea 	add	x10, sp, #0x1, lsl #12
    bf90:	9135654a 	add	x10, x10, #0xd59
    bf94:	3ccff140 	ldur	q0, [x10, #255]
    bf98:	3d841120 	str	q0, [x9, #4160]
    bf9c:	5280008a 	mov	w10, #0x4                   	// #4
    bfa0:	f90077ea 	str	x10, [sp, #232]
    bfa4:	f91a67ea 	str	x10, [sp, #13512]
    bfa8:	3dc41120 	ldr	q0, [x9, #4160]
    bfac:	91400fe0 	add	x0, sp, #0x3, lsl #12
    bfb0:	91134000 	add	x0, x0, #0x4d0
    bfb4:	3d846d00 	str	q0, [x8, #4528]
    bfb8:	91400fe8 	add	x8, sp, #0x3, lsl #12
    bfbc:	9111c108 	add	x8, x8, #0x470
    bfc0:	90000001 	adrp	x1, d580 <l_alloc_f102b0511ec88d3416d58755a6827e66>
    bfc4:	91000021 	add	x1, x1, #0x0
    bfc8:	94000000 	bl	0 <_<T as core::convert::Into<U>>::into>
    bfcc:	f94077ea 	ldr	x10, [sp, #232]
    bfd0:	f946b7e8 	ldr	x8, [sp, #3432]
    bfd4:	f946bbe9 	ldr	x9, [sp, #3440]
    bfd8:	3dc45500 	ldr	q0, [x8, #4432]
    bfdc:	3d84a500 	str	q0, [x8, #4752]
    bfe0:	3dc4a500 	ldr	q0, [x8, #4752]
    bfe4:	3d845100 	str	q0, [x8, #4416]
    bfe8:	f91a4bea 	str	x10, [sp, #13456]
    bfec:	f91a4fff 	str	xzr, [sp, #13464]
    bff0:	3dc45d00 	ldr	q0, [x8, #4464]
    bff4:	3d845900 	str	q0, [x8, #4448]
    bff8:	3dc45100 	ldr	q0, [x8, #4416]
    bffc:	3d819120 	str	q0, [x9, #1600]
    c000:	3dc45900 	ldr	q0, [x8, #4448]
    c004:	3d818d20 	str	q0, [x9, #1584]
    c008:	3dc19120 	ldr	q0, [x9, #1600]
    c00c:	914013e0 	add	x0, sp, #0x4, lsl #12
    c010:	91270000 	add	x0, x0, #0x9c0
    c014:	3d818920 	str	q0, [x9, #1568]
    c018:	3dc18d20 	ldr	q0, [x9, #1584]
    c01c:	3d819520 	str	q0, [x9, #1616]
    c020:	391bbd3f 	strb	wzr, [x9, #1775]
    c024:	52800028 	mov	w8, #0x1                   	// #1
    c028:	391bbd28 	strb	w8, [x9, #1775]
    c02c:	914013e8 	add	x8, sp, #0x4, lsl #12
    c030:	91284108 	add	x8, x8, #0xa10
    c034:	90000001 	adrp	x1, d438 <l_alloc_8993d95a2b5eb1e10afdc3dee81c8c60>
    c038:	91000021 	add	x1, x1, #0x0
    c03c:	94000000 	bl	0 <_<T as core::convert::Into<U>>::into>
    c040:	14000009 	b	c064 <_<rand_chacha::chacha::ChaCha12Core as rand_core::block::BlockRngCore>::generate+0x9d24>
    c044:	f946bbe8 	ldr	x8, [sp, #3440]
    c048:	f9254be0 	str	x0, [sp, #19088]
    c04c:	aa0103e9 	mov	x9, x1
    c050:	912a73ea 	add	x10, sp, #0xa9c
    c054:	b93ffd49 	str	w9, [x10, #16380]
    c058:	395bbd08 	ldrb	w8, [x8, #1775]
    c05c:	37000488 	tbnz	w8, #0, c0ec <_<rand_chacha::chacha::ChaCha12Core as rand_core::block::BlockRngCore>::generate+0x9dac>
    c060:	14000020 	b	c0e0 <_<rand_chacha::chacha::ChaCha12Core as rand_core::block::BlockRngCore>::generate+0x9da0>
    c064:	f946bbe8 	ldr	x8, [sp, #3440]
    c068:	391bbd1f 	strb	wzr, [x8, #1775]
    c06c:	3dc19500 	ldr	q0, [x8, #1616]
    c070:	914013e0 	add	x0, sp, #0x4, lsl #12
    c074:	9128c000 	add	x0, x0, #0xa30
    c078:	3d81a500 	str	q0, [x8, #1680]
    c07c:	914013e8 	add	x8, sp, #0x4, lsl #12
    c080:	91288108 	add	x8, x8, #0xa20
    c084:	90000001 	adrp	x1, d450 <l_alloc_77ee8835248a1929d048736225bc495f>
    c088:	91000021 	add	x1, x1, #0x0
    c08c:	94000000 	bl	0 <_<T as core::convert::Into<U>>::into>
    c090:	14000001 	b	c094 <_<rand_chacha::chacha::ChaCha12Core as rand_core::block::BlockRngCore>::generate+0x9d54>
    c094:	f946bbe8 	ldr	x8, [sp, #3440]
    c098:	3dc19d00 	ldr	q0, [x8, #1648]
    c09c:	3d81a900 	str	q0, [x8, #1696]
    c0a0:	3dc1a100 	ldr	q0, [x8, #1664]
    c0a4:	3d81ad00 	str	q0, [x8, #1712]
    c0a8:	f96523e1 	ldr	x1, [sp, #19008]
    c0ac:	f9652be2 	ldr	x2, [sp, #19024]
    c0b0:	914013e0 	add	x0, sp, #0x4, lsl #12
    c0b4:	91283c00 	add	x0, x0, #0xa0f
    c0b8:	94000000 	bl	0 <_<ppv_lite86::generic::u64x2_generic as core::ops::arith::Add>::add::{{closure}}>
    c0bc:	f9000be0 	str	x0, [sp, #16]
    c0c0:	14000001 	b	c0c4 <_<rand_chacha::chacha::ChaCha12Core as rand_core::block::BlockRngCore>::generate+0x9d84>
    c0c4:	f96527e1 	ldr	x1, [sp, #19016]
    c0c8:	f9652fe2 	ldr	x2, [sp, #19032]
    c0cc:	914013e0 	add	x0, sp, #0x4, lsl #12
    c0d0:	91283c00 	add	x0, x0, #0xa0f
    c0d4:	94000000 	bl	0 <_<ppv_lite86::generic::u64x2_generic as core::ops::arith::Add>::add::{{closure}}>
    c0d8:	f90007e0 	str	x0, [sp, #8]
    c0dc:	14000005 	b	c0f0 <_<rand_chacha::chacha::ChaCha12Core as rand_core::block::BlockRngCore>::generate+0x9db0>
    c0e0:	f9654be8 	ldr	x8, [sp, #19088]
    c0e4:	f90677e8 	str	x8, [sp, #3304]
    c0e8:	1400002f 	b	c1a4 <_<rand_chacha::chacha::ChaCha12Core as rand_core::block::BlockRngCore>::generate+0x9e64>
    c0ec:	17fffffd 	b	c0e0 <_<rand_chacha::chacha::ChaCha12Core as rand_core::block::BlockRngCore>::generate+0x9da0>
    c0f0:	f946b7e8 	ldr	x8, [sp, #3432]
    c0f4:	f946bbe9 	ldr	x9, [sp, #3440]
    c0f8:	f94007ea 	ldr	x10, [sp, #8]
    c0fc:	f9400beb 	ldr	x11, [sp, #16]
    c100:	f9253feb 	str	x11, [sp, #19064]
    c104:	f92543ea 	str	x10, [sp, #19072]
    c108:	914013ea 	add	x10, sp, #0x4, lsl #12
    c10c:	9125e54a 	add	x10, x10, #0x979
    c110:	3ccff140 	ldur	q0, [x10, #255]
    c114:	3d81b120 	str	q0, [x9, #1728]
    c118:	3dc1b120 	ldr	q0, [x9, #1728]
    c11c:	3d81c120 	str	q0, [x9, #1792]
    c120:	3dc1c120 	ldr	q0, [x9, #1792]
    c124:	3d81c520 	str	q0, [x9, #1808]
    c128:	3dc1c520 	ldr	q0, [x9, #1808]
    c12c:	91400fe0 	add	x0, sp, #0x3, lsl #12
    c130:	9112c000 	add	x0, x0, #0x4b0
    c134:	3d846500 	str	q0, [x8, #4496]
    c138:	91400fe8 	add	x8, sp, #0x3, lsl #12
    c13c:	91128108 	add	x8, x8, #0x4a0
    c140:	90000001 	adrp	x1, d598 <l_alloc_e38d1d7172cc3497574df3c7f71449d7>
    c144:	91000021 	add	x1, x1, #0x0
    c148:	94000000 	bl	0 <_<T as core::convert::Into<U>>::into>
    c14c:	f946b7e9 	ldr	x9, [sp, #3432]
    c150:	f946abe8 	ldr	x8, [sp, #3408]
    c154:	3dc46120 	ldr	q0, [x9, #4480]
    c158:	3d847120 	str	q0, [x9, #4544]
    c15c:	3dc47120 	ldr	q0, [x9, #4544]
    c160:	914007e0 	add	x0, sp, #0x1, lsl #12
    c164:	9138c000 	add	x0, x0, #0xe30
    c168:	3d840d00 	str	q0, [x8, #4144]
    c16c:	914007e8 	add	x8, sp, #0x1, lsl #12
    c170:	91388108 	add	x8, x8, #0xe20
    c174:	90000001 	adrp	x1, d550 <l_alloc_0beec4c47b131271a233f0886bd2cc5d>
    c178:	91000021 	add	x1, x1, #0x0
    c17c:	94000000 	bl	0 <_<T as core::convert::Into<U>>::into>
    c180:	f946abe9 	ldr	x9, [sp, #3408]
    c184:	f946a7e8 	ldr	x8, [sp, #3400]
    c188:	3dc40920 	ldr	q0, [x9, #4128]
    c18c:	3d800900 	str	q0, [x8, #32]
    c190:	91402bff 	add	sp, sp, #0xa, lsl #12
    c194:	913303ff 	add	sp, sp, #0xcc0
    c198:	a9417bfd 	ldp	x29, x30, [sp, #16]
    c19c:	a8c26ffc 	ldp	x28, x27, [sp], #32
    c1a0:	d65f03c0 	ret
    c1a4:	f94677e0 	ldr	x0, [sp, #3304]
    c1a8:	94000000 	bl	0 <__Unwind_Resume>

000000000000c1ac <_<core::ops::range::Range<T> as core::iter::range::RangeIteratorImpl>::spec_next>:
    c1ac:	d10143ff 	sub	sp, sp, #0x50
    c1b0:	a9047bfd 	stp	x29, x30, [sp, #64]
    c1b4:	910103fd 	add	x29, sp, #0x40
    c1b8:	f9000be0 	str	x0, [sp, #16]
    c1bc:	aa0003e8 	mov	x8, x0
    c1c0:	f90013e8 	str	x8, [sp, #32]
    c1c4:	aa0003e8 	mov	x8, x0
    c1c8:	f81f03a8 	stur	x8, [x29, #-16]
    c1cc:	91001008 	add	x8, x0, #0x4
    c1d0:	f81f83a8 	stur	x8, [x29, #-8]
    c1d4:	b9400008 	ldr	w8, [x0]
    c1d8:	b9400409 	ldr	w9, [x0, #4]
    c1dc:	6b090108 	subs	w8, w8, w9
    c1e0:	5400008b 	b.lt	c1f0 <_<core::ops::range::Range<T> as core::iter::range::RangeIteratorImpl>::spec_next+0x44>  // b.tstop
    c1e4:	14000001 	b	c1e8 <_<core::ops::range::Range<T> as core::iter::range::RangeIteratorImpl>::spec_next+0x3c>
    c1e8:	b9001bff 	str	wzr, [sp, #24]
    c1ec:	1400000f 	b	c228 <_<core::ops::range::Range<T> as core::iter::range::RangeIteratorImpl>::spec_next+0x7c>
    c1f0:	f9400be8 	ldr	x8, [sp, #16]
    c1f4:	b9400100 	ldr	w0, [x8]
    c1f8:	b9000fe0 	str	w0, [sp, #12]
    c1fc:	b81ec3a0 	stur	w0, [x29, #-20]
    c200:	52800028 	mov	w8, #0x1                   	// #1
    c204:	aa0803e1 	mov	x1, x8
    c208:	94000000 	bl	d18 <_<i32 as core::iter::range::Step>::forward_unchecked>
    c20c:	f9400be9 	ldr	x9, [sp, #16]
    c210:	b9400fe8 	ldr	w8, [sp, #12]
    c214:	b9000120 	str	w0, [x9]
    c218:	b9001fe8 	str	w8, [sp, #28]
    c21c:	52800028 	mov	w8, #0x1                   	// #1
    c220:	b9001be8 	str	w8, [sp, #24]
    c224:	14000001 	b	c228 <_<core::ops::range::Range<T> as core::iter::range::RangeIteratorImpl>::spec_next+0x7c>
    c228:	b9401be0 	ldr	w0, [sp, #24]
    c22c:	b9401fe1 	ldr	w1, [sp, #28]
    c230:	a9447bfd 	ldp	x29, x30, [sp, #64]
    c234:	910143ff 	add	sp, sp, #0x50
    c238:	d65f03c0 	ret

000000000000c23c <_<core::slice::iter::Iter<T> as core::iter::traits::iterator::Iterator>::next>:
    c23c:	d10203ff 	sub	sp, sp, #0x80
    c240:	f90007e0 	str	x0, [sp, #8]
    c244:	f9001be0 	str	x0, [sp, #48]
    c248:	52800028 	mov	w8, #0x1                   	// #1
    c24c:	f9001fe8 	str	x8, [sp, #56]
    c250:	f90023e8 	str	x8, [sp, #64]
    c254:	14000001 	b	c258 <_<core::slice::iter::Iter<T> as core::iter::traits::iterator::Iterator>::next+0x1c>
    c258:	f94007e8 	ldr	x8, [sp, #8]
    c25c:	91002109 	add	x9, x8, #0x8
    c260:	f90027e9 	str	x9, [sp, #72]
    c264:	f940050a 	ldr	x10, [x8, #8]
    c268:	910083e9 	add	x9, sp, #0x20
    c26c:	f90013ea 	str	x10, [sp, #32]
    c270:	aa0803ea 	mov	x10, x8
    c274:	f9002bea 	str	x10, [sp, #80]
    c278:	f9002fe9 	str	x9, [sp, #88]
    c27c:	f9400108 	ldr	x8, [x8]
    c280:	f94013e9 	ldr	x9, [sp, #32]
    c284:	eb090108 	subs	x8, x8, x9
    c288:	1a9f17e8 	cset	w8, eq	// eq = none
    c28c:	39007fe8 	strb	w8, [sp, #31]
    c290:	14000001 	b	c294 <_<core::slice::iter::Iter<T> as core::iter::traits::iterator::Iterator>::next+0x58>
    c294:	39407fe8 	ldrb	w8, [sp, #31]
    c298:	370000c8 	tbnz	w8, #0, c2b0 <_<core::slice::iter::Iter<T> as core::iter::traits::iterator::Iterator>::next+0x74>
    c29c:	14000001 	b	c2a0 <_<core::slice::iter::Iter<T> as core::iter::traits::iterator::Iterator>::next+0x64>
    c2a0:	f94007e8 	ldr	x8, [sp, #8]
    c2a4:	f9400108 	ldr	x8, [x8]
    c2a8:	f90017e8 	str	x8, [sp, #40]
    c2ac:	14000003 	b	c2b8 <_<core::slice::iter::Iter<T> as core::iter::traits::iterator::Iterator>::next+0x7c>
    c2b0:	f9000bff 	str	xzr, [sp, #16]
    c2b4:	14000010 	b	c2f4 <_<core::slice::iter::Iter<T> as core::iter::traits::iterator::Iterator>::next+0xb8>
    c2b8:	f94007e9 	ldr	x9, [sp, #8]
    c2bc:	91002128 	add	x8, x9, #0x8
    c2c0:	aa0803ea 	mov	x10, x8
    c2c4:	f90033ea 	str	x10, [sp, #96]
    c2c8:	f90037e8 	str	x8, [sp, #104]
    c2cc:	f9400128 	ldr	x8, [x9]
    c2d0:	f9003be8 	str	x8, [sp, #112]
    c2d4:	91002108 	add	x8, x8, #0x8
    c2d8:	f9000128 	str	x8, [x9]
    c2dc:	14000001 	b	c2e0 <_<core::slice::iter::Iter<T> as core::iter::traits::iterator::Iterator>::next+0xa4>
    c2e0:	9100a3e8 	add	x8, sp, #0x28
    c2e4:	f9003fe8 	str	x8, [sp, #120]
    c2e8:	f94017e8 	ldr	x8, [sp, #40]
    c2ec:	f9000be8 	str	x8, [sp, #16]
    c2f0:	14000001 	b	c2f4 <_<core::slice::iter::Iter<T> as core::iter::traits::iterator::Iterator>::next+0xb8>
    c2f4:	f9400be0 	ldr	x0, [sp, #16]
    c2f8:	910203ff 	add	sp, sp, #0x80
    c2fc:	d65f03c0 	ret

000000000000c300 <_<alloc::vec::Vec<T> as core::iter::traits::collect::FromIterator<T>>::from_iter>:
    c300:	d100c3ff 	sub	sp, sp, #0x30
    c304:	a9027bfd 	stp	x29, x30, [sp, #32]
    c308:	910083fd 	add	x29, sp, #0x20
    c30c:	f90007e8 	str	x8, [sp, #8]
    c310:	f9000be2 	str	x2, [sp, #16]
    c314:	b81f83a0 	stur	w0, [x29, #-8]
    c318:	b81fc3a1 	stur	w1, [x29, #-4]
    c31c:	94000000 	bl	1dc8 <_<I as core::iter::traits::collect::IntoIterator>::into_iter>
    c320:	f94007e8 	ldr	x8, [sp, #8]
    c324:	f9400be2 	ldr	x2, [sp, #16]
    c328:	94000000 	bl	c4cc <_<alloc::vec::Vec<T> as alloc::vec::spec_from_iter::SpecFromIter<T,I>>::from_iter>
    c32c:	a9427bfd 	ldp	x29, x30, [sp, #32]
    c330:	9100c3ff 	add	sp, sp, #0x30
    c334:	d65f03c0 	ret

000000000000c338 <_<rand::distr::uniform::int::UniformUsize as rand::distr::uniform::UniformSampler>::sample_single>:
    c338:	d102c3ff 	sub	sp, sp, #0xb0
    c33c:	a90a7bfd 	stp	x29, x30, [sp, #160]
    c340:	910283fd 	add	x29, sp, #0xa0
    c344:	f9000fe8 	str	x8, [sp, #24]
    c348:	f90013e2 	str	x2, [sp, #32]
    c34c:	9100a3e8 	add	x8, sp, #0x28
    c350:	f90017e0 	str	x0, [sp, #40]
    c354:	f9001be1 	str	x1, [sp, #48]
    c358:	f81b83a2 	stur	x2, [x29, #-72]
    c35c:	f81f83a8 	stur	x8, [x29, #-8]
    c360:	14000006 	b	c378 <_<rand::distr::uniform::int::UniformUsize as rand::distr::uniform::UniformSampler>::sample_single+0x40>
    c364:	14000043 	b	c470 <_<rand::distr::uniform::int::UniformUsize as rand::distr::uniform::UniformSampler>::sample_single+0x138>
    c368:	f81c03a0 	stur	x0, [x29, #-64]
    c36c:	aa0103e8 	mov	x8, x1
    c370:	b81c83a8 	stur	w8, [x29, #-56]
    c374:	17fffffc 	b	c364 <_<rand::distr::uniform::int::UniformUsize as rand::distr::uniform::UniformSampler>::sample_single+0x2c>
    c378:	f94017e8 	ldr	x8, [sp, #40]
    c37c:	f9000be8 	str	x8, [sp, #16]
    c380:	f81d03a8 	stur	x8, [x29, #-48]
    c384:	9100c3e8 	add	x8, sp, #0x30
    c388:	f81f03a8 	stur	x8, [x29, #-16]
    c38c:	14000001 	b	c390 <_<rand::distr::uniform::int::UniformUsize as rand::distr::uniform::UniformSampler>::sample_single+0x58>
    c390:	f9400be8 	ldr	x8, [sp, #16]
    c394:	f9401be9 	ldr	x9, [sp, #48]
    c398:	f90007e9 	str	x9, [sp, #8]
    c39c:	f81d83a9 	stur	x9, [x29, #-40]
    c3a0:	eb090108 	subs	x8, x8, x9
    c3a4:	54000143 	b.cc	c3cc <_<rand::distr::uniform::int::UniformUsize as rand::distr::uniform::UniformSampler>::sample_single+0x94>  // b.lo, b.ul, b.last
    c3a8:	14000001 	b	c3ac <_<rand::distr::uniform::int::UniformUsize as rand::distr::uniform::UniformSampler>::sample_single+0x74>
    c3ac:	f9400fe9 	ldr	x9, [sp, #24]
    c3b0:	3900ffff 	strb	wzr, [sp, #63]
    c3b4:	3940ffea 	ldrb	w10, [sp, #63]
    c3b8:	52800028 	mov	w8, #0x1                   	// #1
    c3bc:	1200014a 	and	w10, w10, #0x1
    c3c0:	3900052a 	strb	w10, [x9, #1]
    c3c4:	39000128 	strb	w8, [x9]
    c3c8:	14000006 	b	c3e0 <_<rand::distr::uniform::int::UniformUsize as rand::distr::uniform::UniformSampler>::sample_single+0xa8>
    c3cc:	f94007e8 	ldr	x8, [sp, #8]
    c3d0:	12800009 	mov	w9, #0xffffffff            	// #-1
    c3d4:	eb090108 	subs	x8, x8, x9
    c3d8:	54000168 	b.hi	c404 <_<rand::distr::uniform::int::UniformUsize as rand::distr::uniform::UniformSampler>::sample_single+0xcc>  // b.pmore
    c3dc:	14000002 	b	c3e4 <_<rand::distr::uniform::int::UniformUsize as rand::distr::uniform::UniformSampler>::sample_single+0xac>
    c3e0:	14000023 	b	c46c <_<rand::distr::uniform::int::UniformUsize as rand::distr::uniform::UniformSampler>::sample_single+0x134>
    c3e4:	f94013e2 	ldr	x2, [sp, #32]
    c3e8:	f94007e8 	ldr	x8, [sp, #8]
    c3ec:	f9400be9 	ldr	x9, [sp, #16]
    c3f0:	aa0903e0 	mov	x0, x9
    c3f4:	aa0803e1 	mov	x1, x8
    c3f8:	94000000 	bl	f4 <_<rand::distr::uniform::int::UniformInt<u32> as rand::distr::uniform::UniformSampler>::sample_single>
    c3fc:	f90003e0 	str	x0, [sp]
    c400:	14000007 	b	c41c <_<rand::distr::uniform::int::UniformUsize as rand::distr::uniform::UniformSampler>::sample_single+0xe4>
    c404:	f94013e2 	ldr	x2, [sp, #32]
    c408:	f94007e1 	ldr	x1, [sp, #8]
    c40c:	f9400be0 	ldr	x0, [sp, #16]
    c410:	910103e8 	add	x8, sp, #0x40
    c414:	94000000 	bl	4e0 <_<rand::distr::uniform::int::UniformInt<u64> as rand::distr::uniform::UniformSampler>::sample_single>
    c418:	14000010 	b	c458 <_<rand::distr::uniform::int::UniformUsize as rand::distr::uniform::UniformSampler>::sample_single+0x120>
    c41c:	f9400fe8 	ldr	x8, [sp, #24]
    c420:	f94003e9 	ldr	x9, [sp]
    c424:	f81e03a9 	stur	x9, [x29, #-32]
    c428:	f85e03a9 	ldur	x9, [x29, #-32]
    c42c:	f9002be9 	str	x9, [sp, #80]
    c430:	f9402be9 	ldr	x9, [sp, #80]
    c434:	f81e83a9 	stur	x9, [x29, #-24]
    c438:	f85e83a0 	ldur	x0, [x29, #-24]
    c43c:	94000000 	bl	1528 <_core::result::Result<T,E>::map>
    c440:	14000001 	b	c444 <_<rand::distr::uniform::int::UniformUsize as rand::distr::uniform::UniformSampler>::sample_single+0x10c>
    c444:	14000001 	b	c448 <_<rand::distr::uniform::int::UniformUsize as rand::distr::uniform::UniformSampler>::sample_single+0x110>
    c448:	14000001 	b	c44c <_<rand::distr::uniform::int::UniformUsize as rand::distr::uniform::UniformSampler>::sample_single+0x114>
    c44c:	a94a7bfd 	ldp	x29, x30, [sp, #160]
    c450:	9102c3ff 	add	sp, sp, #0xb0
    c454:	d65f03c0 	ret
    c458:	f9400fe8 	ldr	x8, [sp, #24]
    c45c:	910103e0 	add	x0, sp, #0x40
    c460:	94000000 	bl	14b0 <_core::result::Result<T,E>::map>
    c464:	14000001 	b	c468 <_<rand::distr::uniform::int::UniformUsize as rand::distr::uniform::UniformSampler>::sample_single+0x130>
    c468:	17ffffde 	b	c3e0 <_<rand::distr::uniform::int::UniformUsize as rand::distr::uniform::UniformSampler>::sample_single+0xa8>
    c46c:	17fffff8 	b	c44c <_<rand::distr::uniform::int::UniformUsize as rand::distr::uniform::UniformSampler>::sample_single+0x114>
    c470:	f85c03a0 	ldur	x0, [x29, #-64]
    c474:	94000000 	bl	0 <__Unwind_Resume>

000000000000c478 <_<rand::distr::uniform::int::UniformUsize as rand::distr::uniform::UniformSampler>::sample_single::{{closure}}>:
    c478:	d10043ff 	sub	sp, sp, #0x10
    c47c:	f90007e0 	str	x0, [sp, #8]
    c480:	910043ff 	add	sp, sp, #0x10
    c484:	d65f03c0 	ret

000000000000c488 <_<rand::distr::uniform::int::UniformUsize as rand::distr::uniform::UniformSampler>::sample_single::{{closure}}>:
    c488:	d10043ff 	sub	sp, sp, #0x10
    c48c:	b9000fe0 	str	w0, [sp, #12]
    c490:	2a0003e8 	mov	w8, w0
    c494:	aa0803e0 	mov	x0, x8
    c498:	910043ff 	add	sp, sp, #0x10
    c49c:	d65f03c0 	ret

000000000000c4a0 <_<alloc::vec::Vec<T,A> as alloc::vec::spec_extend::SpecExtend<T,I>>::spec_extend>:
    c4a0:	d10083ff 	sub	sp, sp, #0x20
    c4a4:	a9017bfd 	stp	x29, x30, [sp, #16]
    c4a8:	910043fd 	add	x29, sp, #0x10
    c4ac:	aa0003e8 	mov	x8, x0
    c4b0:	f90003e8 	str	x8, [sp]
    c4b4:	b9000be1 	str	w1, [sp, #8]
    c4b8:	b9000fe2 	str	w2, [sp, #12]
    c4bc:	94000000 	bl	19ac <_alloc::vec::Vec<T,A>::extend_trusted>
    c4c0:	a9417bfd 	ldp	x29, x30, [sp, #16]
    c4c4:	910083ff 	add	sp, sp, #0x20
    c4c8:	d65f03c0 	ret

000000000000c4cc <_<alloc::vec::Vec<T> as alloc::vec::spec_from_iter::SpecFromIter<T,I>>::from_iter>:
    c4cc:	d10083ff 	sub	sp, sp, #0x20
    c4d0:	a9017bfd 	stp	x29, x30, [sp, #16]
    c4d4:	910043fd 	add	x29, sp, #0x10
    c4d8:	b9000be0 	str	w0, [sp, #8]
    c4dc:	b9000fe1 	str	w1, [sp, #12]
    c4e0:	94000000 	bl	9c4 <_<alloc::vec::Vec<T> as alloc::vec::spec_from_iter_nested::SpecFromIterNested<T,I>>::from_iter>
    c4e4:	a9417bfd 	ldp	x29, x30, [sp, #16]
    c4e8:	910083ff 	add	sp, sp, #0x20
    c4ec:	d65f03c0 	ret

000000000000c4f0 <_rand_core::block::BlockRng<R>::generate_and_set>:
    c4f0:	d100c3ff 	sub	sp, sp, #0x30
    c4f4:	a9027bfd 	stp	x29, x30, [sp, #32]
    c4f8:	910083fd 	add	x29, sp, #0x20
    c4fc:	f90003e0 	str	x0, [sp]
    c500:	f90007e1 	str	x1, [sp, #8]
    c504:	aa0003e8 	mov	x8, x0
    c508:	f9000be8 	str	x8, [sp, #16]
    c50c:	f81f83a1 	stur	x1, [x29, #-8]
    c510:	94000000 	bl	0 <_<rand_chacha::chacha::Array64<T> as core::convert::AsRef<[T]>>::as_ref>
    c514:	aa0103e8 	mov	x8, x1
    c518:	f94007e1 	ldr	x1, [sp, #8]
    c51c:	eb080028 	subs	x8, x1, x8
    c520:	54000123 	b.cc	c544 <_rand_core::block::BlockRng<R>::generate_and_set+0x54>  // b.lo, b.ul, b.last
    c524:	14000001 	b	c528 <_rand_core::block::BlockRng<R>::generate_and_set+0x38>
    c528:	90000000 	adrp	x0, d33e <l_alloc_b5ecac47f1e18ea8d6fd4b5387a95943>
    c52c:	91000000 	add	x0, x0, #0x0
    c530:	528006a8 	mov	w8, #0x35                  	// #53
    c534:	aa0803e1 	mov	x1, x8
    c538:	90000002 	adrp	x2, d7c8 <l_alloc_260adfef389aa38bd2b127d54f3ff432>
    c53c:	91000042 	add	x2, x2, #0x0
    c540:	94000000 	bl	0 <_core::panicking::panic>
    c544:	f94003e1 	ldr	x1, [sp]
    c548:	91040020 	add	x0, x1, #0x100
    c54c:	94000000 	bl	0 <_<rand::rngs::reseeding::ReseedingCore<R,Rsdr> as rand_core::block::BlockRngCore>::generate>
    c550:	f94003e9 	ldr	x9, [sp]
    c554:	f94007e8 	ldr	x8, [sp, #8]
    c558:	f900a128 	str	x8, [x9, #320]
    c55c:	a9427bfd 	ldp	x29, x30, [sp, #32]
    c560:	9100c3ff 	add	sp, sp, #0x30
    c564:	d65f03c0 	ret

000000000000c568 <_flux_assume::Array::new>:
    c568:	d10083ff 	sub	sp, sp, #0x20
    c56c:	aa0803e9 	mov	x9, x8
    c570:	52800048 	mov	w8, #0x2                   	// #2
    c574:	f90007e8 	str	x8, [sp, #8]
    c578:	52800028 	mov	w8, #0x1                   	// #1
    c57c:	f9000be8 	str	x8, [sp, #16]
    c580:	f9000fff 	str	xzr, [sp, #24]
    c584:	3cc083e0 	ldur	q0, [sp, #8]
    c588:	3d800120 	str	q0, [x9]
    c58c:	f9400fe8 	ldr	x8, [sp, #24]
    c590:	f9000928 	str	x8, [x9, #16]
    c594:	910083ff 	add	sp, sp, #0x20
    c598:	d65f03c0 	ret

000000000000c59c <_flux_assume::Array::get_idx>:
    c59c:	d10503ff 	sub	sp, sp, #0x140
    c5a0:	a9126ffc 	stp	x28, x27, [sp, #288]
    c5a4:	a9137bfd 	stp	x29, x30, [sp, #304]
    c5a8:	9104c3fd 	add	x29, sp, #0x130
    c5ac:	f90033e0 	str	x0, [sp, #96]
    c5b0:	f81b83a0 	stur	x0, [x29, #-72]
    c5b4:	94000000 	bl	0 <_rand::rngs::thread::rng>
    c5b8:	f9003be0 	str	x0, [sp, #112]
    c5bc:	9101e3e8 	add	x8, sp, #0x78
    c5c0:	52800020 	mov	w0, #0x1                   	// #1
    c5c4:	52800041 	mov	w1, #0x2                   	// #2
    c5c8:	94000000 	bl	11d8 <_core::iter::traits::iterator::Iterator::collect>
    c5cc:	14000008 	b	c5ec <_flux_assume::Array::get_idx+0x50>
    c5d0:	9101c3e0 	add	x0, sp, #0x70
    c5d4:	94000000 	bl	f8c <_core::ptr::drop_in_place<rand::rngs::thread::ThreadRng>>
    c5d8:	14000072 	b	c7a0 <_flux_assume::Array::get_idx+0x204>
    c5dc:	f81c03a0 	stur	x0, [x29, #-64]
    c5e0:	aa0103e8 	mov	x8, x1
    c5e4:	b81c83a8 	stur	w8, [x29, #-56]
    c5e8:	17fffffa 	b	c5d0 <_flux_assume::Array::get_idx+0x34>
    c5ec:	f94033e0 	ldr	x0, [sp, #96]
    c5f0:	52800068 	mov	w8, #0x3                   	// #3
    c5f4:	aa0803e1 	mov	x1, x8
    c5f8:	94000000 	bl	1290 <_core::slice::<impl [T]>::iter>
    c5fc:	f9002be0 	str	x0, [sp, #80]
    c600:	f9002fe1 	str	x1, [sp, #88]
    c604:	14000011 	b	c648 <_flux_assume::Array::get_idx+0xac>
    c608:	9101e3e0 	add	x0, sp, #0x78
    c60c:	94000000 	bl	f20 <_core::ptr::drop_in_place<alloc::vec::Vec<i32>>>
    c610:	17fffff0 	b	c5d0 <_flux_assume::Array::get_idx+0x34>
    c614:	aa0103e8 	mov	x8, x1
    c618:	f90023e0 	str	x0, [sp, #64]
    c61c:	b9004fe8 	str	w8, [sp, #76]
    c620:	14000005 	b	c634 <_flux_assume::Array::get_idx+0x98>
    c624:	aa0103e8 	mov	x8, x1
    c628:	f90023e0 	str	x0, [sp, #64]
    c62c:	b9004fe8 	str	w8, [sp, #76]
    c630:	14000001 	b	c634 <_flux_assume::Array::get_idx+0x98>
    c634:	f94023e9 	ldr	x9, [sp, #64]
    c638:	b9404fe8 	ldr	w8, [sp, #76]
    c63c:	f81c03a9 	stur	x9, [x29, #-64]
    c640:	b81c83a8 	stur	w8, [x29, #-56]
    c644:	17fffff1 	b	c608 <_flux_assume::Array::get_idx+0x6c>
    c648:	f9402fe1 	ldr	x1, [sp, #88]
    c64c:	f9402be0 	ldr	x0, [sp, #80]
    c650:	d10223a8 	sub	x8, x29, #0x88
    c654:	94000000 	bl	1268 <_core::iter::traits::iterator::Iterator::enumerate>
    c658:	14000001 	b	c65c <_flux_assume::Array::get_idx+0xc0>
    c65c:	910243e8 	add	x8, sp, #0x90
    c660:	d10223a0 	sub	x0, x29, #0x88
    c664:	94000000 	bl	1db0 <_<I as core::iter::traits::collect::IntoIterator>::into_iter>
    c668:	14000001 	b	c66c <_flux_assume::Array::get_idx+0xd0>
    c66c:	3dc027e0 	ldr	q0, [sp, #144]
    c670:	3c9903a0 	stur	q0, [x29, #-112]
    c674:	f94053e8 	ldr	x8, [sp, #160]
    c678:	f81a03a8 	stur	x8, [x29, #-96]
    c67c:	14000001 	b	c680 <_flux_assume::Array::get_idx+0xe4>
    c680:	d101c3a0 	sub	x0, x29, #0x70
    c684:	94000000 	bl	8e4 <_<core::iter::adapters::enumerate::Enumerate<I> as core::iter::traits::iterator::Iterator>::next>
    c688:	f9001be0 	str	x0, [sp, #48]
    c68c:	f9001fe1 	str	x1, [sp, #56]
    c690:	14000001 	b	c694 <_flux_assume::Array::get_idx+0xf8>
    c694:	f9401fe8 	ldr	x8, [sp, #56]
    c698:	f9401be9 	ldr	x9, [sp, #48]
    c69c:	f81a83a9 	stur	x9, [x29, #-88]
    c6a0:	f81b03a8 	stur	x8, [x29, #-80]
    c6a4:	f85b03a8 	ldur	x8, [x29, #-80]
    c6a8:	f1000108 	subs	x8, x8, #0x0
    c6ac:	9a9f07e8 	cset	x8, ne	// ne = any
    c6b0:	b50000c8 	cbnz	x8, c6c8 <_flux_assume::Array::get_idx+0x12c>
    c6b4:	14000001 	b	c6b8 <_flux_assume::Array::get_idx+0x11c>
    c6b8:	f90037ff 	str	xzr, [sp, #104]
    c6bc:	9101e3e0 	add	x0, sp, #0x78
    c6c0:	94000000 	bl	f20 <_core::ptr::drop_in_place<alloc::vec::Vec<i32>>>
    c6c4:	14000009 	b	c6e8 <_flux_assume::Array::get_idx+0x14c>
    c6c8:	f85a83a8 	ldur	x8, [x29, #-88]
    c6cc:	f9000fe8 	str	x8, [sp, #24]
    c6d0:	f81d03a8 	stur	x8, [x29, #-48]
    c6d4:	9101e3e0 	add	x0, sp, #0x78
    c6d8:	94000000 	bl	1e74 <_<alloc::vec::Vec<T,A> as core::ops::deref::Deref>::deref>
    c6dc:	f90013e0 	str	x0, [sp, #32]
    c6e0:	f90017e1 	str	x1, [sp, #40]
    c6e4:	14000009 	b	c708 <_flux_assume::Array::get_idx+0x16c>
    c6e8:	9101c3e0 	add	x0, sp, #0x70
    c6ec:	94000000 	bl	f8c <_core::ptr::drop_in_place<rand::rngs::thread::ThreadRng>>
    c6f0:	14000001 	b	c6f4 <_flux_assume::Array::get_idx+0x158>
    c6f4:	f94037e0 	ldr	x0, [sp, #104]
    c6f8:	a9537bfd 	ldp	x29, x30, [sp, #304]
    c6fc:	a9526ffc 	ldp	x28, x27, [sp, #288]
    c700:	910503ff 	add	sp, sp, #0x140
    c704:	d65f03c0 	ret
    c708:	f94017e1 	ldr	x1, [sp, #40]
    c70c:	f94013e0 	ldr	x0, [sp, #32]
    c710:	9101c3e2 	add	x2, sp, #0x70
    c714:	94000000 	bl	1748 <_rand::seq::slice::IndexedRandom::choose>
    c718:	f9000be0 	str	x0, [sp, #16]
    c71c:	14000001 	b	c720 <_flux_assume::Array::get_idx+0x184>
    c720:	f9400be8 	ldr	x8, [sp, #16]
    c724:	f81e03a8 	stur	x8, [x29, #-32]
    c728:	f85e03a8 	ldur	x8, [x29, #-32]
    c72c:	b50000e8 	cbnz	x8, c748 <_flux_assume::Array::get_idx+0x1ac>
    c730:	14000001 	b	c734 <_flux_assume::Array::get_idx+0x198>
    c734:	90000000 	adrp	x0, d7e0 <l_alloc_16ddf21ddc60f39d13c89c92b068d794>
    c738:	91000000 	add	x0, x0, #0x0
    c73c:	94000000 	bl	0 <_core::option::unwrap_failed>
    c740:	14000001 	b	c744 <_flux_assume::Array::get_idx+0x1a8>
    c744:	d4200020 	brk	#0x1
    c748:	f85e03a8 	ldur	x8, [x29, #-32]
    c74c:	f90007e8 	str	x8, [sp, #8]
    c750:	f81e83a8 	stur	x8, [x29, #-24]
    c754:	14000001 	b	c758 <_flux_assume::Array::get_idx+0x1bc>
    c758:	f9400fe8 	ldr	x8, [sp, #24]
    c75c:	f94007e9 	ldr	x9, [sp, #8]
    c760:	aa0903ea 	mov	x10, x9
    c764:	f81d83aa 	stur	x10, [x29, #-40]
    c768:	b9400129 	ldr	w9, [x9]
    c76c:	71000929 	subs	w9, w9, #0x2
    c770:	f90003e8 	str	x8, [sp]
    c774:	54fff860 	b.eq	c680 <_flux_assume::Array::get_idx+0xe4>  // b.none
    c778:	14000001 	b	c77c <_flux_assume::Array::get_idx+0x1e0>
    c77c:	f94003e8 	ldr	x8, [sp]
    c780:	f90037e8 	str	x8, [sp, #104]
    c784:	9101e3e0 	add	x0, sp, #0x78
    c788:	94000000 	bl	f20 <_core::ptr::drop_in_place<alloc::vec::Vec<i32>>>
    c78c:	14000001 	b	c790 <_flux_assume::Array::get_idx+0x1f4>
    c790:	9101c3e0 	add	x0, sp, #0x70
    c794:	94000000 	bl	f8c <_core::ptr::drop_in_place<rand::rngs::thread::ThreadRng>>
    c798:	17ffffd7 	b	c6f4 <_flux_assume::Array::get_idx+0x158>
    c79c:	94000000 	bl	0 <_core::panicking::panic_in_cleanup>
    c7a0:	f85c03a0 	ldur	x0, [x29, #-64]
    c7a4:	94000000 	bl	0 <__Unwind_Resume>

000000000000c7a8 <_flux_assume::Array::get>:
    c7a8:	d100c3ff 	sub	sp, sp, #0x30
    c7ac:	a9027bfd 	stp	x29, x30, [sp, #32]
    c7b0:	910083fd 	add	x29, sp, #0x20
    c7b4:	f90003e0 	str	x0, [sp]
    c7b8:	aa0003e8 	mov	x8, x0
    c7bc:	f9000be8 	str	x8, [sp, #16]
    c7c0:	94000000 	bl	c59c <_flux_assume::Array::get_idx>
    c7c4:	f90007e0 	str	x0, [sp, #8]
    c7c8:	f81f83a0 	stur	x0, [x29, #-8]
    c7cc:	f1000c08 	subs	x8, x0, #0x3
    c7d0:	54000102 	b.cs	c7f0 <_flux_assume::Array::get+0x48>  // b.hs, b.nlast
    c7d4:	14000001 	b	c7d8 <_flux_assume::Array::get+0x30>
    c7d8:	f94003e8 	ldr	x8, [sp]
    c7dc:	f94007e9 	ldr	x9, [sp, #8]
    c7e0:	f8697900 	ldr	x0, [x8, x9, lsl #3]
    c7e4:	a9427bfd 	ldp	x29, x30, [sp, #32]
    c7e8:	9100c3ff 	add	sp, sp, #0x30
    c7ec:	d65f03c0 	ret
    c7f0:	f94007e0 	ldr	x0, [sp, #8]
    c7f4:	52800068 	mov	w8, #0x3                   	// #3
    c7f8:	aa0803e1 	mov	x1, x8
    c7fc:	90000002 	adrp	x2, d7f8 <l_alloc_d14f88869bde24d75b5daa5ca13a560c>
    c800:	91000042 	add	x2, x2, #0x0
    c804:	94000000 	bl	0 <_core::panicking::panic_bounds_check>

000000000000c808 <_flux_assume::assume>:
    c808:	d10143ff 	sub	sp, sp, #0x50
    c80c:	a9047bfd 	stp	x29, x30, [sp, #64]
    c810:	910103fd 	add	x29, sp, #0x40
    c814:	381ff3a0 	sturb	w0, [x29, #-1]
    c818:	37000160 	tbnz	w0, #0, c844 <_flux_assume::assume+0x3c>
    c81c:	14000001 	b	c820 <_flux_assume::assume+0x18>
    c820:	910023e8 	add	x8, sp, #0x8
    c824:	f90003e8 	str	x8, [sp]
    c828:	90000000 	adrp	x0, d810 <l_alloc_6efaf9086fc4386509cf206b7eb41b35>
    c82c:	91000000 	add	x0, x0, #0x0
    c830:	94000000 	bl	0 <_core::fmt::Arguments::new_const>
    c834:	f94003e0 	ldr	x0, [sp]
    c838:	90000001 	adrp	x1, d820 <l_alloc_55bf99ed0e9d7b53b04feeab7aa9f264>
    c83c:	91000021 	add	x1, x1, #0x0
    c840:	94000000 	bl	0 <_core::panicking::panic_fmt>
    c844:	a9447bfd 	ldp	x29, x30, [sp, #64]
    c848:	910143ff 	add	sp, sp, #0x50
    c84c:	d65f03c0 	ret

Disassembly of section __TEXT.__gcc_except_tab:

000000000000c850 <GCC_except_table3>:
    c850:	0a01ffff 	.inst	0x0a01ffff ; undefined
    c854:	2c2401b8 	stnp	s24, s0, [x13, #-224]
    c858:	2801dc00 	stnp	w0, w23, [x0, #12]
    c85c:	00000000 	udf	#0

000000000000c860 <GCC_except_table4>:
    c860:	0b01ffff 	.inst	0x0b01ffff ; undefined
    c864:	03e801dc 	.inst	0x03e801dc ; undefined
    c868:	05c40030 	.inst	0x05c40030 ; undefined
    c86c:	00000024 	udf	#36

000000000000c870 <GCC_except_table5>:
    c870:	0a01ffff 	.inst	0x0a01ffff ; undefined
    c874:	302401bc 	adr	x28, 548a9 <ltmp8+0x26479>
    c878:	1801e000 	ldr	w0, 10478 <l___unnamed_2+0x2c20>
    c87c:	00000000 	udf	#0

000000000000c880 <GCC_except_table6>:
    c880:	0b01ffff 	.inst	0x0b01ffff ; undefined
    c884:	03f001f0 	.inst	0x03f001f0 ; undefined
    c888:	05e00034 	.inst	0x05e00034 ; undefined
    c88c:	0000002c 	udf	#44

000000000000c890 <GCC_except_table7>:
    c890:	1001ffff 	adr	xzr, 1088c <l___unnamed_2+0x3034>
    c894:	0001b400 	.inst	0x0001b400 ; undefined
    c898:	0c01b400 	.inst	0x0c01b400 ; undefined
    c89c:	c00001cc 	mov	za0h.b[w12, 12], p0/m, z14.b
    c8a0:	00002001 	udf	#8193

000000000000c8a4 <GCC_except_table8>:
    c8a4:	011d9bff 	.inst	0x011d9bff ; undefined
    c8a8:	01a83816 	.inst	0x01a83816 ; undefined
    c8ac:	028c0050 	.inst	0x028c0050 ; undefined
    c8b0:	0002a004 	.inst	0x0002a004 ; undefined
    c8b4:	d0080294 	adrp	x20, 1005e000 <ltmp8+0x1002fbd0>
    c8b8:	029c0102 	.inst	0x029c0102 ; undefined
    c8bc:	7f000048 	.inst	0x7f000048 ; undefined
	...

000000000000c8c8 <GCC_except_table19>:
    c8c8:	01119bff 	.inst	0x01119bff ; undefined
    c8cc:	2c04180c 	stnp	s12, s6, [x0, #32]
    c8d0:	50082000 	adr	x0, 1ccd2 <ltmp6+0x1783>
    c8d4:	00342801 	.inst	0x00342801 ; NYI
    c8d8:	00007f00 	udf	#32512
    c8dc:	00000000 	udf	#0

000000000000c8e0 <GCC_except_table28>:
    c8e0:	01199bff 	.inst	0x01199bff ; undefined
    c8e4:	44642415 	.inst	0x44642415 ; undefined
    c8e8:	08019c00 	stlxrb	w1, w0, [x0]
    c8ec:	a40001b0 	ld1rqb	{z16.b}, p0/z, [x13, x0]
    c8f0:	00002801 	udf	#10241
    c8f4:	dc0801cc 	.inst	0xdc0801cc ; undefined
    c8f8:	007f0101 	.inst	0x007f0101 ; undefined
    c8fc:	00000000 	udf	#0

000000000000c900 <GCC_except_table34>:
    c900:	010d9bff 	.inst	0x010d9bff ; undefined
    c904:	7c01bc06 	str	h6, [x0, #27]!
    c908:	7f0102bc 	.inst	0x7f0102bc ; undefined
	...

000000000000c914 <GCC_except_table40>:
    c914:	1401ffff 	b	8c910 <ltmp8+0x5e4e0>
    c918:	00487030 	.inst	0x00487030 ; undefined
    c91c:	e41c01c4 	.inst	0xe41c01c4 ; undefined
    c920:	02a80001 	.inst	0x02a80001 ; undefined
    c924:	b400480c 	cbz	x12, d224 <l_alloc_06000146b4df4b1d77f12131d8a2209a+0x38>
    c928:	00001402 	udf	#5122

000000000000c92c <GCC_except_table48>:
    c92c:	0a01ffff 	.inst	0x0a01ffff ; undefined
    c930:	6801fc50 	.inst	0x6801fc50 ; undefined
    c934:	2402cc00 	cmphs	p0.b, p3/z, z0.b, z2.d
    c938:	00000000 	udf	#0

000000000000c93c <GCC_except_table66>:
    c93c:	9c01ffff 	ldr	q31, 10938 <l___unnamed_2+0x30e0>
    c940:	06e00007 	.inst	0x06e00007 ; undefined
    c944:	06e00000 	.inst	0x06e00000 ; undefined
    c948:	06f801b0 	.inst	0x06f801b0 ; undefined
    c94c:	b0099800 	adrp	x0, 1330d000 <ltmp8+0x132debd0>
    c950:	0009b001 	.inst	0x0009b001 ; undefined
    c954:	01b00c88 	.inst	0x01b00c88 ; undefined
    c958:	f4000ca0 	.inst	0xf4000ca0 ; undefined
    c95c:	8c01b40e 	.inst	0x8c01b40e ; undefined
    c960:	10a8000f 	adr	x15, fffffffffff5c960 <ltmp8+0xfffffffffff2e530>
    c964:	00000990 	udf	#2448
    c968:	01e419b8 	.inst	0x01e419b8 ; undefined
    c96c:	ac0019d0 	stnp	q16, q6, [x14]
    c970:	c401e41c 	.inst	0xc401e41c ; undefined
    c974:	1fd8001c 	fmadd	h28, h0, h24, h0
    c978:	1ff001e8 	fnmadd	h8, h15, h16, h0
    c97c:	e8238000 	.inst	0xe8238000 ; undefined
    c980:	00239801 	.inst	0x00239801 ; NYI
    c984:	01e024e8 	.inst	0x01e024e8 ; undefined
    c988:	26c80000 	.inst	0x26c80000 ; undefined
    c98c:	26e001a8 	.inst	0x26e001a8 ; undefined
    c990:	a828d400 	stnp	x0, x21, [x0, #-376]
    c994:	0028ec01 	.inst	0x0028ec01 ; NYI
    c998:	01a82ae0 	.inst	0x01a82ae0 ; undefined
    c99c:	ec002af8 	.inst	0xec002af8 ; undefined
    c9a0:	8401a82c 	ldnt1b	{z12.s}, p2/z, [z1.s, x1]
    c9a4:	2e94002d 	.inst	0x2e94002d ; undefined
    c9a8:	000005f0 	udf	#1520
    c9ac:	01ec3484 	.inst	0x01ec3484 ; undefined
    c9b0:	8400349c 	ldff1sb	{z28.s}, p5/z, [x4, z0.s, uxtw]
    c9b4:	9c01e437 	ldr	q23, 10638 <l___unnamed_2+0x2de0>
    c9b8:	3ab00037 	.inst	0x3ab00037 ; undefined
    c9bc:	3ac801e4 	.inst	0x3ac801e4 ; undefined
    c9c0:	e43dd000 	.inst	0xe43dd000 ; undefined
    c9c4:	003de801 	.inst	0x003de801 ; NYI
    c9c8:	01e03fb4 	.inst	0x01e03fb4 ; undefined
    c9cc:	41940000 	.inst	0x41940000 ; undefined
    c9d0:	41ac01a8 	.inst	0x41ac01a8 ; undefined
    c9d4:	a843a000 	ldnp	x0, x8, [x0, #56]
    c9d8:	0043b801 	.inst	0x0043b801 ; undefined
    c9dc:	01a845ac 	.inst	0x01a845ac ; undefined
    c9e0:	b80045c4 	str	w4, [x14], #4
    c9e4:	d001a847 	adrp	x7, 3516000 <ltmp8+0x34e7bd0>
    c9e8:	48e00047 	.inst	0x48e00047 ; undefined
    c9ec:	000005e0 	udf	#1504
    c9f0:	01e44ec0 	.inst	0x01e44ec0 ; undefined
    c9f4:	b4004ed8 	cbz	x24, d3cc <l_alloc_b7bef978aede28df3b19e88fa8cc4254+0xc>
    c9f8:	cc01e451 	.inst	0xcc01e451 ; undefined
    c9fc:	54e00051 	bc.ne	fffffffffffcca04 <ltmp8+0xfffffffffff9e5d4>  // bc.any
    ca00:	54f801e4 	b.mi	ffffffffffffca3c <ltmp8+0xfffffffffffce60c>  // b.first
    ca04:	ec588800 	.inst	0xec588800 ; undefined
    ca08:	0058a001 	.inst	0x0058a001 ; undefined
    ca0c:	01e059f4 	.inst	0x01e059f4 ; undefined
    ca10:	5bd40000 	.inst	0x5bd40000 ; undefined
    ca14:	5bec01a8 	.inst	0x5bec01a8 ; undefined
    ca18:	a85de000 	ldnp	x0, x24, [x0, #472]
    ca1c:	005df801 	.inst	0x005df801 ; undefined
    ca20:	01a85fec 	.inst	0x01a85fec ; undefined
    ca24:	f8006084 	stur	x4, [x4, #6]
    ca28:	9001a861 	adrp	x1, 3518000 <ltmp8+0x34e9bd0>
    ca2c:	63a00062 	.inst	0x63a00062 ; undefined
    ca30:	000005e8 	udf	#1512
    ca34:	01e46988 	.inst	0x01e46988 ; undefined
    ca38:	fc0069a0 	.inst	0xfc0069a0 ; undefined
    ca3c:	9401e46b 	bl	85be8 <ltmp8+0x577b8>
    ca40:	6fa8006c 	mla	v12.4s, v3.4s, v8.s[1]
    ca44:	6fc001e4 	.inst	0x6fc001e4 ; undefined
    ca48:	e472cc00 	.inst	0xe472cc00 ; undefined
    ca4c:	0072e401 	.inst	0x0072e401 ; undefined
    ca50:	01e074b0 	.inst	0x01e074b0 ; undefined
    ca54:	76900000 	.inst	0x76900000 ; undefined
    ca58:	76a801a8 	.inst	0x76a801a8 ; undefined
    ca5c:	a878a000 	ldnp	x0, x8, [x0, #-120]
    ca60:	0078b801 	.inst	0x0078b801 ; undefined
    ca64:	01a87ab0 	.inst	0x01a87ab0 ; undefined
    ca68:	c0007ac8 	mov	za0h.b[w15, 8], p6/m, z22.b
    ca6c:	d801a87c 	prfm	#0x1c, ff78 <l___unnamed_2+0x2720>
    ca70:	7de8007c 	.inst	0x7de8007c ; undefined
    ca74:	00000788 	udf	#1928
    ca78:	a80184f0 	stnp	x16, x1, [x7, #24]
    ca7c:	01858801 	.inst	0x01858801 ; undefined
    ca80:	01879400 	.inst	0x01879400 ; undefined
    ca84:	87ac01a8 	.inst	0x87ac01a8 ; undefined
    ca88:	89b80001 	.inst	0x89b80001 ; undefined
    ca8c:	d001a801 	adrp	x1, 350e000 <ltmp8+0x34dfbd0>
    ca90:	dc000189 	.inst	0xdc000189 ; undefined
    ca94:	01a8018b 	.inst	0x01a8018b ; undefined
    ca98:	00018bf4 	.inst	0x00018bf4 ; undefined
    ca9c:	bc018d84 	str	s4, [x12, #24]!
    caa0:	c000000a 	mov	za0h.b[w12, 10], p0/m, z0.b
    caa4:	01e40197 	.inst	0x01e40197 ; undefined
    caa8:	000197d8 	.inst	0x000197d8 ; undefined
    caac:	e4019ab4 	st1b	{z20.d}, p6, [x21, z1.d, uxtw]
    cab0:	019acc01 	.inst	0x019acc01 ; undefined
    cab4:	019de000 	.inst	0x019de000 ; undefined
    cab8:	9df801e4 	.inst	0x9df801e4 ; undefined
    cabc:	a1840001 	usmopa	za1.s, p0/m, p0/m, z0.b, z4.b
    cac0:	9c01e401 	ldr	q1, 10740 <l___unnamed_2+0x2ee8>
    cac4:	e80001a1 	.inst	0xe80001a1 ; undefined
    cac8:	01e001a2 	.inst	0x01e001a2 ; undefined
    cacc:	a4c80000 	.inst	0xa4c80000 ; undefined
    cad0:	e001a801 	ld1b	{za0v.b[w13, 1]}, p2/z, [x0, x1]
    cad4:	d40001a4 	.inst	0xd40001a4 ; undefined
    cad8:	01a801a6 	.inst	0x01a801a6 ; undefined
    cadc:	0001a6ec 	.inst	0x0001a6ec ; undefined
    cae0:	a801a8e0 	stnp	x0, x10, [x7, #24]
    cae4:	01a8f801 	.inst	0x01a8f801 ; undefined
    cae8:	01aaec00 	.inst	0x01aaec00 ; undefined
    caec:	ab8401a8 	adds	x8, x13, x4, asr #0
    caf0:	ac940001 	stp	q1, q0, [x0], #640
    caf4:	0005fc01 	.inst	0x0005fc01 ; undefined
    caf8:	01b29000 	.inst	0x01b29000 ; undefined
    cafc:	b2a801e4 	.inst	0xb2a801e4 ; undefined
    cb00:	b5840001 	cbnz	x1, fffffffffff14b00 <ltmp8+0xffffffffffee66d0>
    cb04:	9c01e401 	ldr	q1, 10784 <l___unnamed_2+0x2f2c>
    cb08:	b40001b5 	cbz	x21, cb3c <GCC_except_table66+0x200>
    cb0c:	01ec01b8 	.inst	0x01ec01b8 ; undefined
    cb10:	0001b8cc 	.inst	0x0001b8cc ; undefined
    cb14:	ec01bbe4 	.inst	0xec01bbe4 ; undefined
    cb18:	01bbfc01 	.inst	0x01bbfc01 ; undefined
    cb1c:	01bdd000 	.inst	0x01bdd000 ; undefined
    cb20:	000001e4 	udf	#484
    cb24:	a801bfb4 	stnp	x20, x15, [x29, #24]
    cb28:	01bfcc01 	.inst	0x01bfcc01 ; undefined
    cb2c:	01c1c000 	.inst	0x01c1c000 ; undefined
    cb30:	c1d801a8 	fdot	za.h[w8, 0, vgx2], {z12.b-z13.b}, z8.b[1]
    cb34:	c3cc0001 	.inst	0xc3cc0001 ; undefined
    cb38:	e401a801 	st1b	{z1.d}, p2, [x0, z1.d]
    cb3c:	d80001c3 	prfm	pldl2strm, cb74 <GCC_except_table66+0x238>
    cb40:	01a801c5 	.inst	0x01a801c5 ; undefined
    cb44:	0001c5f0 	.inst	0x0001c5f0 ; undefined
    cb48:	f001c780 	adrp	x0, 38ff000 <ltmp8+0x38d0bd0>
    cb4c:	f0000005 	adrp	x5, f000 <l___unnamed_2+0x17a8>
    cb50:	01e401cc 	.inst	0x01e401cc ; undefined
    cb54:	0001cd88 	.inst	0x0001cd88 ; undefined
    cb58:	e401cfe4 	st1b	{z4.d}, p3, [sp, z1.d, sxtw]
    cb5c:	01cffc01 	.inst	0x01cffc01 ; undefined
    cb60:	01d39000 	.inst	0x01d39000 ; undefined
    cb64:	d3a801e4 	.inst	0xd3a801e4 ; undefined
    cb68:	d6b40001 	.inst	0xd6b40001 ; undefined
    cb6c:	cc01e401 	.inst	0xcc01e401 ; undefined
    cb70:	980001d6 	ldrsw	x22, cba8 <GCC_except_table66+0x26c>
    cb74:	01e001d8 	.inst	0x01e001d8 ; undefined
    cb78:	d9f80000 	.inst	0xd9f80000 ; undefined
    cb7c:	9001a801 	adrp	x1, 350c000 <ltmp8+0x34ddbd0>
    cb80:	880001da 	stxr	w0, w26, [x14]
    cb84:	01a801dc 	.inst	0x01a801dc ; undefined
    cb88:	0001dca0 	.inst	0x0001dca0 ; undefined
    cb8c:	a801de98 	stnp	x24, x23, [x20, #24]
    cb90:	01deb001 	.inst	0x01deb001 ; undefined
    cb94:	01e0a400 	.inst	0x01e0a400 ; undefined
    cb98:	e0bc01a8 	st1w	{za2h.s[w12, 0]}, p0, [x13, x28, lsl #2]
    cb9c:	e1cc0001 	ld1q	{za1h.q[w12, 0]}, p0/z, [x0, x12, lsl #4]
    cba0:	0005fc01 	.inst	0x0005fc01 ; undefined
    cba4:	01e7c800 	.inst	0x01e7c800 ; undefined
    cba8:	e7e001e4 	.inst	0xe7e001e4 ; undefined
    cbac:	eabc0001 	bics	x1, x0, x28, asr #0
    cbb0:	d401e401 	svc	#0xf20
    cbb4:	e80001ea 	.inst	0xe80001ea ; undefined
    cbb8:	01e401ed 	.inst	0x01e401ed ; undefined
    cbbc:	0001ee80 	.inst	0x0001ee80 ; undefined
    cbc0:	e401f18c 	st1b	{z12.b}, p4, [x12, #1, mul vl]
    cbc4:	01f1a401 	.inst	0x01f1a401 ; undefined
    cbc8:	01f2f000 	.inst	0x01f2f000 ; undefined
    cbcc:	000001dc 	udf	#476
    cbd0:	9401f4cc 	bl	89f00 <ltmp8+0x5bad0>
    cbd4:	01f4e001 	.inst	0x01f4e001 ; undefined
    cbd8:	01f6c800 	.inst	0x01f6c800 ; undefined
    cbdc:	f6e001a8 	.inst	0xf6e001a8 ; undefined
    cbe0:	f8d80001 	.inst	0xf8d80001 ; undefined
    cbe4:	f001a801 	adrp	x1, 350f000 <ltmp8+0x34e0bd0>
    cbe8:	e80001f8 	.inst	0xe80001f8 ; undefined
    cbec:	01a801fa 	.inst	0x01a801fa ; undefined
    cbf0:	0001fb80 	.inst	0x0001fb80 ; undefined
    cbf4:	d801fc90 	prfm	pstl1keep, 10b84 <l___unnamed_2+0x332c>
    cbf8:	e8000006 	.inst	0xe8000006 ; undefined
    cbfc:	01900282 	.inst	0x01900282 ; undefined
    cc00:	00028380 	.inst	0x00028380 ; undefined
    cc04:	900284ec 	adrp	x12, 50a8000 <ltmp8+0x5079bd0>
    cc08:	02858401 	.inst	0x02858401 ; undefined
    cc0c:	0286f000 	.inst	0x0286f000 ; undefined
    cc10:	87880190 	.inst	0x87880190 ; undefined
    cc14:	88f40002 	.inst	0x88f40002 ; undefined
    cc18:	8c01a802 	.inst	0x8c01a802 ; undefined
    cc1c:	9c000289 	ldr	q9, cc6c <GCC_except_table66+0x330>
    cc20:	0ac0028a 	and	w10, w20, w0, ror #0
    cc24:	94dc0000 	bl	370cc24 <ltmp8+0x36de7f4>
    cc28:	f401b002 	.inst	0xf401b002 ; undefined
    cc2c:	94000294 	bl	d67c <l_alloc_9cba3d2079b3eca5db2535852ec0ea6f+0x14>
    cc30:	01b00297 	.inst	0x01b00297 ; undefined
    cc34:	000297ac 	.inst	0x000297ac ; undefined
    cc38:	b0029a84 	adrp	x4, 535d000 <ltmp8+0x532ebd0>
    cc3c:	029a9c01 	.inst	0x029a9c01 ; undefined
    cc40:	029cec00 	.inst	0x029cec00 ; undefined
    cc44:	9d8401b0 	.inst	0x9d8401b0 ; undefined
    cc48:	9e9c0002 	.inst	0x9e9c0002 ; undefined
    cc4c:	0004d402 	.inst	0x0004d402 ; undefined
    cc50:	02a2f000 	.inst	0x02a2f000 ; undefined
    cc54:	02a3900c 	.inst	0x02a3900c ; undefined
    cc58:	02a3dc00 	.inst	0x02a3dc00 ; undefined
    cc5c:	02a3f40c 	.inst	0x02a3f40c ; undefined
    cc60:	02a4c000 	.inst	0x02a4c000 ; undefined
    cc64:	02a4d40c 	.inst	0x02a4d40c ; undefined
    cc68:	02a4cc00 	.inst	0x02a4cc00 ; undefined
    cc6c:	00000290 	udf	#656
    cc70:	0c02a6dc 	.inst	0x0c02a6dc ; undefined
    cc74:	0002a6fc 	.inst	0x0002a6fc ; undefined
    cc78:	0c02a7c8 	.inst	0x0c02a7c8 ; undefined
    cc7c:	0002a7e0 	.inst	0x0002a7e0 ; undefined
    cc80:	0c02a8ac 	.inst	0x0c02a8ac ; undefined
    cc84:	0002a8c0 	.inst	0x0002a8c0 ; undefined
    cc88:	9002a8b8 	adrp	x24, 5520000 <ltmp8+0x54f1bd0>
    cc8c:	c8000002 	stxr	w0, x2, [x0]
    cc90:	e80c02aa 	.inst	0xe80c02aa ; undefined
    cc94:	b00002aa 	adrp	x10, 61000 <ltmp8+0x32bd0>
    cc98:	c80c02ab 	stxr	w12, x11, [x21]
    cc9c:	940002ab 	bl	d748 <l_alloc_4c3189bd1f5fdb237107f268c9262483+0x10>
    cca0:	a80c02ac 	stnp	x12, x0, [x21, #192]
    cca4:	a00002ac 	ld1b	{z12.b-z13.b}, pn8/z, [x21, x0]
    cca8:	029002ac 	.inst	0x029002ac ; undefined
    ccac:	aeb00000 	.inst	0xaeb00000 ; undefined
    ccb0:	aed00c02 	.inst	0xaed00c02 ; undefined
    ccb4:	af9c0002 	.inst	0xaf9c0002 ; undefined
    ccb8:	afb40c02 	.inst	0xafb40c02 ; undefined
    ccbc:	b0800002 	adrp	x2, ffffffff0000d000 <ltmp8+0xfffffffefffdebd0>
    ccc0:	b0940c02 	adrp	x2, ffffffff2818d000 <ltmp8+0xffffffff2815ebd0>
    ccc4:	b08c0002 	adrp	x2, ffffffff1800d000 <ltmp8+0xffffffff17fdebd0>
    ccc8:	0009e002 	.inst	0x0009e002 ; undefined
    cccc:	02b9ec00 	.inst	0x02b9ec00 ; undefined
    ccd0:	ba8401b0 	.inst	0xba8401b0 ; undefined
    ccd4:	bb9c0002 	.inst	0xbb9c0002 ; undefined
    ccd8:	0001d002 	.inst	0x0001d002 ; undefined
    ccdc:	00000000 	udf	#0

000000000000cce0 <GCC_except_table70>:
    cce0:	0a01ffff 	.inst	0x0a01ffff ; undefined
    cce4:	306c01c0 	adr	x0, e4d1d <ltmp8+0xb68ed>
    cce8:	1402ac00 	b	b7ce8 <ltmp8+0x898b8>
    ccec:	00000000 	udf	#0

000000000000ccf0 <GCC_except_table77>:
    ccf0:	014d9bff 	.inst	0x014d9bff ; undefined
    ccf4:	00200046 	.inst	0x00200046 ; NYI
    ccf8:	40102000 	.inst	0x40102000 ; undefined
    ccfc:	80083400 	.inst	0x80083400 ; undefined
    cd00:	18500104 	ldr	w4, acd20 <ltmp8+0x7e8f0>
    cd04:	6c000188 	stnp	d8, d0, [x12]
    cd08:	01048008 	.inst	0x01048008 ; undefined
    cd0c:	882001ac 	stxp	w0, w12, w0, [x13]
    cd10:	01e40001 	.inst	0x01e40001 ; undefined
    cd14:	a0007810 	ld1d	{z16.d-z17.d}, pn14/z, [x0, x0, lsl #3]
    cd18:	00400802 	.inst	0x00400802 ; undefined
    cd1c:	781002b8 	sturh	w24, [x21, #-256]
    cd20:	2402c800 	cmphs	p0.b, p2/z, z0.b, z2.d
    cd24:	02ec0000 	.inst	0x02ec0000 ; undefined
    cd28:	98007814 	ldrsw	x20, dc28 <l___unnamed_2+0x3d0>
    cd2c:	01880c03 	.inst	0x01880c03 ; undefined
    cd30:	0803e800 	stlxrb	w3, w0, [x0]
    cd34:	03f00040 	.inst	0x03f00040 ; undefined
    cd38:	7f00001c 	.inst	0x7f00001c ; undefined
	...
