; ModuleID = 'bfvtr4639hkyqyuhum1odmca2'
source_filename = "bfvtr4639hkyqyuhum1odmca2"
target datalayout = "e-m:o-i64:64-i128:128-n32:64-S128-Fn32"
target triple = "arm64-apple-macosx11.0.0"

%"ppv_lite86::generic::u32x4_generic" = type { [4 x i32] }
%"ppv_lite86::generic::u64x2_generic" = type { [2 x i64] }
%"ppv_lite86::generic::vec128_storage" = type { [2 x i64] }

@alloc_744b4efd401b946b41bfe0f086a596f6 = private unnamed_addr constant <{ [95 x i8] }> <{ [95 x i8] c"/Users/np/.cargo/registry/src/index.crates.io-1949cf8c6b5b557f/rand-0.9.0/src/rngs/reseeding.rs" }>, align 1
@alloc_8a8305002a5686bad8b99ad20f996174 = private unnamed_addr constant <{ ptr, [16 x i8] }> <{ ptr @alloc_744b4efd401b946b41bfe0f086a596f6, [16 x i8] c"_\00\00\00\00\00\00\00\AA\00\00\00\09\00\00\00" }>, align 8
@alloc_43fa16c67920968a68e866e96f3f6621 = private unnamed_addr constant <{ [98 x i8] }> <{ [98 x i8] c"/Users/np/.cargo/registry/src/index.crates.io-1949cf8c6b5b557f/rand-0.9.0/src/distr/uniform_int.rs" }>, align 1
@alloc_5fc73023334f87bc750c79ae2dfc5958 = private unnamed_addr constant <{ ptr, [16 x i8] }> <{ ptr @alloc_43fa16c67920968a68e866e96f3f6621, [16 x i8] c"b\00\00\00\00\00\00\00\0E\01\00\00\01\00\00\00" }>, align 8
@alloc_b7bef978aede28df3b19e88fa8cc4254 = private unnamed_addr constant <{ ptr, [16 x i8] }> <{ ptr @alloc_43fa16c67920968a68e866e96f3f6621, [16 x i8] c"b\00\00\00\00\00\00\00\0F\01\00\00\01\00\00\00" }>, align 8
@alloc_0925741f13e67e6698708014708596ed = private unnamed_addr constant <{ [95 x i8] }> <{ [95 x i8] c"/Users/np/.cargo/registry/src/index.crates.io-1949cf8c6b5b557f/ppv-lite86-0.2.21/src/generic.rs" }>, align 1
@alloc_345ce69d67e2022250dbe2d202815e5b = private unnamed_addr constant <{ ptr, [16 x i8] }> <{ ptr @alloc_0925741f13e67e6698708014708596ed, [16 x i8] c"_\00\00\00\00\00\00\00i\00\00\00\1F\00\00\00" }>, align 8
@alloc_b67bf84b64957410b9640b67558ad03c = private unnamed_addr constant <{ ptr, [16 x i8] }> <{ ptr @alloc_0925741f13e67e6698708014708596ed, [16 x i8] c"_\00\00\00\00\00\00\00\B3\00\00\00\1F\00\00\00" }>, align 8
@alloc_d6cd646a032ab5661bff8aa78f551e65 = private unnamed_addr constant <{ ptr, [16 x i8] }> <{ ptr @alloc_0925741f13e67e6698708014708596ed, [16 x i8] c"_\00\00\00\00\00\00\00\BF\00\00\00\1F\00\00\00" }>, align 8
@alloc_eb8937521ab56b1815db886b021bd11a = private unnamed_addr constant <{ ptr, [16 x i8] }> <{ ptr @alloc_0925741f13e67e6698708014708596ed, [16 x i8] c"_\00\00\00\00\00\00\00\C0\00\00\00\1F\00\00\00" }>, align 8
@alloc_8993d95a2b5eb1e10afdc3dee81c8c60 = private unnamed_addr constant <{ ptr, [16 x i8] }> <{ ptr @alloc_0925741f13e67e6698708014708596ed, [16 x i8] c"_\00\00\00\00\00\00\00\99\00\00\00\1F\00\00\00" }>, align 8
@alloc_77ee8835248a1929d048736225bc495f = private unnamed_addr constant <{ ptr, [16 x i8] }> <{ ptr @alloc_0925741f13e67e6698708014708596ed, [16 x i8] c"_\00\00\00\00\00\00\00\9A\00\00\00\1F\00\00\00" }>, align 8
@alloc_1b6afad41971693f0ffc907f9477e177 = private unnamed_addr constant <{ [91 x i8] }> <{ [91 x i8] c"/rustc/4eb161250e340c8f48f66e2b929ef4a5bed7c181/library/core/src/iter/adapters/enumerate.rs" }>, align 1
@alloc_3407c9cb6ff21ee44260c564f9754364 = private unnamed_addr constant <{ ptr, [16 x i8] }> <{ ptr @alloc_1b6afad41971693f0ffc907f9477e177, [16 x i8] c"[\00\00\00\00\00\00\001\00\00\00\09\00\00\00" }>, align 8
@alloc_31365cfefba383c4d2bf6b6a04cc10aa = private unnamed_addr constant <{ [17 x i8] }> <{ [17 x i8] c"capacity overflow" }>, align 1
@alloc_11d257f5ed6cc7fc38feaa801053bac6 = private unnamed_addr constant <{ ptr, [8 x i8] }> <{ ptr @alloc_31365cfefba383c4d2bf6b6a04cc10aa, [8 x i8] c"\11\00\00\00\00\00\00\00" }>, align 8
@0 = private unnamed_addr constant <{ [8 x i8], [8 x i8] }> <{ [8 x i8] zeroinitializer, [8 x i8] undef }>, align 8
@alloc_96a0e44172a59b82511aa031094c4caf = private unnamed_addr constant <{ [92 x i8] }> <{ [92 x i8] c"/Users/np/.cargo/registry/src/index.crates.io-1949cf8c6b5b557f/rand_chacha-0.9.0/src/guts.rs" }>, align 1
@alloc_a16ae175c6f9053fa6874bb731c20ce9 = private unnamed_addr constant <{ ptr, [16 x i8] }> <{ ptr @alloc_96a0e44172a59b82511aa031094c4caf, [16 x i8] c"\\\00\00\00\00\00\00\00\B2\00\00\00\08\00\00\00" }>, align 8
@alloc_5f2a070de190fd1327b426a26dc01f81 = private unnamed_addr constant <{ ptr, [16 x i8] }> <{ ptr @alloc_96a0e44172a59b82511aa031094c4caf, [16 x i8] c"\\\00\00\00\00\00\00\00\B2\00\00\00\10\00\00\00" }>, align 8
@alloc_33f3cb219299db3114a5b62f4ab99122 = private unnamed_addr constant <{ ptr, [16 x i8] }> <{ ptr @alloc_96a0e44172a59b82511aa031094c4caf, [16 x i8] c"\\\00\00\00\00\00\00\00\B3\00\00\00\08\00\00\00" }>, align 8
@alloc_29c6ed83d62d866d1d738563bccd6bdf = private unnamed_addr constant <{ ptr, [16 x i8] }> <{ ptr @alloc_96a0e44172a59b82511aa031094c4caf, [16 x i8] c"\\\00\00\00\00\00\00\00\B3\00\00\00\11\00\00\00" }>, align 8
@alloc_9dbcec12027e74fd248c5033972dc845 = private unnamed_addr constant <{ ptr, [16 x i8] }> <{ ptr @alloc_96a0e44172a59b82511aa031094c4caf, [16 x i8] c"\\\00\00\00\00\00\00\00\B4\00\00\00\08\00\00\00" }>, align 8
@alloc_e3e9f18703829dd5603e5542e6da7876 = private unnamed_addr constant <{ ptr, [16 x i8] }> <{ ptr @alloc_96a0e44172a59b82511aa031094c4caf, [16 x i8] c"\\\00\00\00\00\00\00\00\B4\00\00\00\11\00\00\00" }>, align 8
@alloc_357125ced0da2c7c97623d2522d5e1a0 = private unnamed_addr constant <{ ptr, [16 x i8] }> <{ ptr @alloc_96a0e44172a59b82511aa031094c4caf, [16 x i8] c"\\\00\00\00\00\00\00\00\B5\00\00\00\08\00\00\00" }>, align 8
@alloc_95a0b80e48affe78af9d39e663ae8af0 = private unnamed_addr constant <{ ptr, [16 x i8] }> <{ ptr @alloc_96a0e44172a59b82511aa031094c4caf, [16 x i8] c"\\\00\00\00\00\00\00\00\B5\00\00\00\11\00\00\00" }>, align 8
@alloc_0beec4c47b131271a233f0886bd2cc5d = private unnamed_addr constant <{ ptr, [16 x i8] }> <{ ptr @alloc_96a0e44172a59b82511aa031094c4caf, [16 x i8] c"\\\00\00\00\00\00\00\00\B6\00\00\00/\00\00\00" }>, align 8
@alloc_e32af199185f4c8353045deb01caf697 = private unnamed_addr constant <{ ptr, [16 x i8] }> <{ ptr @alloc_96a0e44172a59b82511aa031094c4caf, [16 x i8] c"\\\00\00\00\00\00\00\00\93\00\00\00C\00\00\00" }>, align 8
@alloc_f102b0511ec88d3416d58755a6827e66 = private unnamed_addr constant <{ ptr, [16 x i8] }> <{ ptr @alloc_96a0e44172a59b82511aa031094c4caf, [16 x i8] c"\\\00\00\00\00\00\00\00\89\00\00\00&\00\00\00" }>, align 8
@alloc_e38d1d7172cc3497574df3c7f71449d7 = private unnamed_addr constant <{ ptr, [16 x i8] }> <{ ptr @alloc_96a0e44172a59b82511aa031094c4caf, [16 x i8] c"\\\00\00\00\00\00\00\00\8B\00\00\00\1A\00\00\00" }>, align 8
@1 = private unnamed_addr constant <{ [4 x i8], [4 x i8] }> <{ [4 x i8] zeroinitializer, [4 x i8] undef }>, align 4
@alloc_ab14703751a9eb3585c49b2e55e9a9e5 = private unnamed_addr constant <{ [104 x i8] }> <{ [104 x i8] c"unsafe precondition(s) violated: hint::assert_unchecked must never be called when the condition is false" }>, align 1
@alloc_1eb6f53a157dccb32488e066ad957e6d = private unnamed_addr constant <{ [82 x i8] }> <{ [82 x i8] c"unsafe precondition(s) violated: hint::unreachable_unchecked must never be reached" }>, align 1
@2 = private unnamed_addr constant <{ [16 x i8] }> <{ [16 x i8] c"\01\00\00\00\00\00\00\00\00\00\00\00\00\00\00\00" }>, align 8
@alloc_dcea3e7fcd9354153c11fafc402cecc2 = private unnamed_addr constant <{ [88 x i8] }> <{ [88 x i8] c"/rustc/4eb161250e340c8f48f66e2b929ef4a5bed7c181/library/core/src/iter/traits/iterator.rs" }>, align 1
@alloc_ca96f6a372a20ad240fc8048bf4b5e42 = private unnamed_addr constant <{ ptr, [16 x i8] }> <{ ptr @alloc_dcea3e7fcd9354153c11fafc402cecc2, [16 x i8] c"X\00\00\00\00\00\00\00\B3\07\00\00\09\00\00\00" }>, align 8
@alloc_fad0cd83b7d1858a846a172eb260e593 = private unnamed_addr constant <{ [42 x i8] }> <{ [42 x i8] c"is_aligned_to: align is not a power-of-two" }>, align 1
@alloc_e92e94d0ff530782b571cfd99ec66aef = private unnamed_addr constant <{ ptr, [8 x i8] }> <{ ptr @alloc_fad0cd83b7d1858a846a172eb260e593, [8 x i8] c"*\00\00\00\00\00\00\00" }>, align 8
@alloc_1acc4dd9e81b844371a028cb7997c0c2 = private unnamed_addr constant <{ [77 x i8] }> <{ [77 x i8] c"/rustc/4eb161250e340c8f48f66e2b929ef4a5bed7c181/library/core/src/ub_checks.rs" }>, align 1
@alloc_1b63dcb5834fe0aae9c810c57972c0d7 = private unnamed_addr constant <{ ptr, [16 x i8] }> <{ ptr @alloc_1acc4dd9e81b844371a028cb7997c0c2, [16 x i8] c"M\00\00\00\00\00\00\00\86\00\00\006\00\00\00" }>, align 8
@alloc_11195730e5236cfdc15ea13be1c301f9 = private unnamed_addr constant <{ [162 x i8] }> <{ [162 x i8] c"unsafe precondition(s) violated: slice::from_raw_parts requires the pointer to be aligned and non-null, and the total size of the slice not to exceed `isize::MAX`" }>, align 1
@alloc_63bbee50704d43a1a9ec742deebdf522 = private unnamed_addr constant <{ [81 x i8] }> <{ [81 x i8] c"/rustc/4eb161250e340c8f48f66e2b929ef4a5bed7c181/library/core/src/ptr/const_ptr.rs" }>, align 1
@alloc_68990143625ec2db4c689f394fa1b298 = private unnamed_addr constant <{ ptr, [16 x i8] }> <{ ptr @alloc_63bbee50704d43a1a9ec742deebdf522, [16 x i8] c"Q\00\00\00\00\00\00\00\C8\05\00\00\0D\00\00\00" }>, align 8
@vtable.0 = private constant <{ [24 x i8], ptr }> <{ [24 x i8] c"\00\00\00\00\00\00\00\00\01\00\00\00\00\00\00\00\01\00\00\00\00\00\00\00", ptr @"_ZN64_$LT$rand..distr..uniform..Error$u20$as$u20$core..fmt..Debug$GT$3fmt17h73f804d86feb7c10E" }>, align 8, !dbg !0
@alloc_00ae4b301f7fab8ac9617c03fcbd7274 = private unnamed_addr constant <{ [43 x i8] }> <{ [43 x i8] c"called `Result::unwrap()` on an `Err` value" }>, align 1
@alloc_da16f3811c01dd681e4b4fd5bd2b8133 = private unnamed_addr constant <{ [25 x i8] }> <{ [25 x i8] c"cannot sample empty range" }>, align 1
@alloc_e3be51554e15d7681718bfd79e1370cf = private unnamed_addr constant <{ ptr, [8 x i8] }> <{ ptr @alloc_da16f3811c01dd681e4b4fd5bd2b8133, [8 x i8] c"\19\00\00\00\00\00\00\00" }>, align 8
@alloc_06000146b4df4b1d77f12131d8a2209a = private unnamed_addr constant <{ [90 x i8] }> <{ [90 x i8] c"/Users/np/.cargo/registry/src/index.crates.io-1949cf8c6b5b557f/rand-0.9.0/src/seq/slice.rs" }>, align 1
@alloc_30fa4ccda1523126b1deefe5cab5ef25 = private unnamed_addr constant <{ ptr, [16 x i8] }> <{ ptr @alloc_06000146b4df4b1d77f12131d8a2209a, [16 x i8] c"Z\00\00\00\00\00\00\00;\00\00\00\1C\00\00\00" }>, align 8
@alloc_2f5e0075a9762e333e897b7b14942db9 = private unnamed_addr constant <{ ptr, [16 x i8] }> <{ ptr @alloc_06000146b4df4b1d77f12131d8a2209a, [16 x i8] c"Z\00\00\00\00\00\00\00;\00\00\00\17\00\00\00" }>, align 8
@alloc_9cba3d2079b3eca5db2535852ec0ea6f = private unnamed_addr constant <{ ptr, [16 x i8] }> <{ ptr @alloc_744b4efd401b946b41bfe0f086a596f6, [16 x i8] c"_\00\00\00\00\00\00\00\E2\00\00\00#\00\00\00" }>, align 8
@alloc_0e04792c42b6f73201faf4ee17426000 = private unnamed_addr constant <{ [46 x i8] }> <{ [46 x i8] c"TrustedLen iterator's size hint is not exact: " }>, align 1
@alloc_f0c0bcdc51174ae2a47538e8553750ac = private unnamed_addr constant <{ ptr, [8 x i8] }> <{ ptr @alloc_0e04792c42b6f73201faf4ee17426000, [8 x i8] c".\00\00\00\00\00\00\00" }>, align 8
@alloc_512269ce09a00e451b13d6fdae0cff44 = private unnamed_addr constant <{ [92 x i8] }> <{ [92 x i8] c"/Users/np/.cargo/registry/src/index.crates.io-1949cf8c6b5b557f/rand-0.9.0/src/distr/utils.rs" }>, align 1
@alloc_0e203e6d2c8e3f24bc8531bafa2f894b = private unnamed_addr constant <{ ptr, [16 x i8] }> <{ ptr @alloc_512269ce09a00e451b13d6fdae0cff44, [16 x i8] c"\\\00\00\00\00\00\00\00<\00\00\00\01\00\00\00" }>, align 8
@alloc_cbcc5b3e1826322f6bac87ad33b55b85 = private unnamed_addr constant <{ ptr, [16 x i8] }> <{ ptr @alloc_512269ce09a00e451b13d6fdae0cff44, [16 x i8] c"\\\00\00\00\00\00\00\00=\00\00\00\01\00\00\00" }>, align 8
@alloc_469dc6e050263e96b5bbf6041562962d = private unnamed_addr constant <{ [10 x i8] }> <{ [10 x i8] c"EmptyRange" }>, align 1
@alloc_e12739f6e50f2bfa7992d9688152e366 = private unnamed_addr constant <{ [9 x i8] }> <{ [9 x i8] c"NonFinite" }>, align 1
@alloc_c906514b8ef9871e7df07bb9fca3fd1c = private unnamed_addr constant <{ [91 x i8] }> <{ [91 x i8] c"/Users/np/.cargo/registry/src/index.crates.io-1949cf8c6b5b557f/rand_core-0.9.3/src/block.rs" }>, align 1
@alloc_d58627c8b7d22ff445dfd075c0e26e70 = private unnamed_addr constant <{ ptr, [16 x i8] }> <{ ptr @alloc_c906514b8ef9871e7df07bb9fca3fd1c, [16 x i8] c"[\00\00\00\00\00\00\00\BF\00\00\00\15\00\00\00" }>, align 8
@alloc_235f0e991384b252c512ec3728f3019f = private unnamed_addr constant <{ ptr, [16 x i8] }> <{ ptr @alloc_c906514b8ef9871e7df07bb9fca3fd1c, [16 x i8] c"[\00\00\00\00\00\00\00\C0\00\00\00\09\00\00\00" }>, align 8
@alloc_713d52eb880bae319ff4cbd7740a3e64 = private unnamed_addr constant <{ ptr, [16 x i8] }> <{ ptr @alloc_c906514b8ef9871e7df07bb9fca3fd1c, [16 x i8] c"[\00\00\00\00\00\00\00\CE\00\00\00\14\00\00\00" }>, align 8
@alloc_455f58f4ff2dab1ddfa3112333b8a638 = private unnamed_addr constant <{ ptr, [16 x i8] }> <{ ptr @alloc_c906514b8ef9871e7df07bb9fca3fd1c, [16 x i8] c"[\00\00\00\00\00\00\00\D6\00\00\005\00\00\00" }>, align 8
@alloc_3cc342ee88a539c975b102e7fa201c3d = private unnamed_addr constant <{ ptr, [16 x i8] }> <{ ptr @alloc_c906514b8ef9871e7df07bb9fca3fd1c, [16 x i8] c"[\00\00\00\00\00\00\00\D6\00\00\00\1F\00\00\00" }>, align 8
@alloc_4c3189bd1f5fdb237107f268c9262483 = private unnamed_addr constant <{ ptr, [16 x i8] }> <{ ptr @alloc_c906514b8ef9871e7df07bb9fca3fd1c, [16 x i8] c"[\00\00\00\00\00\00\00\D8\00\00\00\1F\00\00\00" }>, align 8
@alloc_8211d49787e16b67f616bb6cd05c132c = private unnamed_addr constant <{ ptr, [16 x i8] }> <{ ptr @alloc_c906514b8ef9871e7df07bb9fca3fd1c, [16 x i8] c"[\00\00\00\00\00\00\00\CF\00\00\00\0D\00\00\00" }>, align 8
@alloc_e6df7d8c54fa679e06696170aa0f7f59 = private unnamed_addr constant <{ ptr, [16 x i8] }> <{ ptr @alloc_c906514b8ef9871e7df07bb9fca3fd1c, [16 x i8] c"[\00\00\00\00\00\00\00\C7\00\00\00)\00\00\00" }>, align 8
@alloc_8df363046774bb3c05580f35679f3587 = private unnamed_addr constant <{ ptr, [16 x i8] }> <{ ptr @alloc_c906514b8ef9871e7df07bb9fca3fd1c, [16 x i8] c"[\00\00\00\00\00\00\00\C7\00\00\00 \00\00\00" }>, align 8
@alloc_e5c5095d6ea4aded3dba75a8b19a51fe = private unnamed_addr constant <{ ptr, [16 x i8] }> <{ ptr @alloc_c906514b8ef9871e7df07bb9fca3fd1c, [16 x i8] c"[\00\00\00\00\00\00\00\C8\00\00\00\18\00\00\00" }>, align 8
@alloc_1e801a89cb7cbe249384aab6cc3da5a5 = private unnamed_addr constant <{ ptr, [16 x i8] }> <{ ptr @alloc_c906514b8ef9871e7df07bb9fca3fd1c, [16 x i8] c"[\00\00\00\00\00\00\00\C8\00\00\004\00\00\00" }>, align 8
@alloc_b5ecac47f1e18ea8d6fd4b5387a95943 = private unnamed_addr constant <{ [53 x i8] }> <{ [53 x i8] c"assertion failed: index < self.results.as_ref().len()" }>, align 1
@alloc_260adfef389aa38bd2b127d54f3ff432 = private unnamed_addr constant <{ ptr, [16 x i8] }> <{ ptr @alloc_c906514b8ef9871e7df07bb9fca3fd1c, [16 x i8] c"[\00\00\00\00\00\00\00\B2\00\00\00\09\00\00\00" }>, align 8
@alloc_f5ffd2fd1476bab43ad89fb40c72d0c5 = private unnamed_addr constant <{ [10 x i8] }> <{ [10 x i8] c"src/lib.rs" }>, align 1
@alloc_16ddf21ddc60f39d13c89c92b068d794 = private unnamed_addr constant <{ ptr, [16 x i8] }> <{ ptr @alloc_f5ffd2fd1476bab43ad89fb40c72d0c5, [16 x i8] c"\0A\00\00\00\00\00\00\00\1D\00\00\00.\00\00\00" }>, align 8
@alloc_d14f88869bde24d75b5daa5ca13a560c = private unnamed_addr constant <{ ptr, [16 x i8] }> <{ ptr @alloc_f5ffd2fd1476bab43ad89fb40c72d0c5, [16 x i8] c"\0A\00\00\00\00\00\00\00)\00\00\00\09\00\00\00" }>, align 8
@alloc_26dc9a8925d5255ed4084217d0b2042d = private unnamed_addr constant <{ [12 x i8] }> <{ [12 x i8] c"assume fails" }>, align 1
@alloc_6efaf9086fc4386509cf206b7eb41b35 = private unnamed_addr constant <{ ptr, [8 x i8] }> <{ ptr @alloc_26dc9a8925d5255ed4084217d0b2042d, [8 x i8] c"\0C\00\00\00\00\00\00\00" }>, align 8
@alloc_55bf99ed0e9d7b53b04feeab7aa9f264 = private unnamed_addr constant <{ ptr, [16 x i8] }> <{ ptr @alloc_f5ffd2fd1476bab43ad89fb40c72d0c5, [16 x i8] c"\0A\00\00\00\00\00\00\00\06\00\00\00\09\00\00\00" }>, align 8

; <rand::rngs::reseeding::ReseedingCore<R,Rsdr> as rand_core::block::BlockRngCore>::generate
; Function Attrs: uwtable
define void @"_ZN103_$LT$rand..rngs..reseeding..ReseedingCore$LT$R$C$Rsdr$GT$$u20$as$u20$rand_core..block..BlockRngCore$GT$8generate17h0e2eb77e2eeb856aE"(ptr align 8 %self, ptr align 4 %0) unnamed_addr #0 !dbg !115 {
start:
  %num_bytes.dbg.spill = alloca [8 x i8], align 8
  %self.dbg.spill = alloca [8 x i8], align 8
  %results = alloca [8 x i8], align 8
  store ptr %0, ptr %results, align 8
  store ptr %self, ptr %self.dbg.spill, align 8
    #dbg_declare(ptr %self.dbg.spill, !170, !DIExpression(), !174)
    #dbg_declare(ptr %results, !171, !DIExpression(), !175)
  %1 = getelementptr inbounds i8, ptr %self, i64 56, !dbg !176
  %_4 = load i64, ptr %1, align 8, !dbg !176
  %_3 = icmp sle i64 %_4, 0, !dbg !176
  br i1 %_3, label %bb1, label %bb2, !dbg !176

bb2:                                              ; preds = %start
; call <&mut T as core::convert::AsRef<U>>::as_ref
  %2 = call { ptr, i64 } @"_ZN63_$LT$$RF$mut$u20$T$u20$as$u20$core..convert..AsRef$LT$U$GT$$GT$6as_ref17h8a10da507e8438beE"(ptr align 8 %results), !dbg !177
  %_6.0 = extractvalue { ptr, i64 } %2, 0, !dbg !177
  %_6.1 = extractvalue { ptr, i64 } %2, 1, !dbg !177
; call core::mem::size_of_val
  %num_bytes = call i64 @_ZN4core3mem11size_of_val17hb178677f302822a8E(ptr align 4 %_6.0, i64 %_6.1), !dbg !178
  store i64 %num_bytes, ptr %num_bytes.dbg.spill, align 8, !dbg !178
    #dbg_declare(ptr %num_bytes.dbg.spill, !172, !DIExpression(), !179)
  %3 = getelementptr inbounds i8, ptr %self, i64 56, !dbg !180
  %4 = load i64, ptr %3, align 8, !dbg !180
  %5 = call { i64, i1 } @llvm.ssub.with.overflow.i64(i64 %4, i64 %num_bytes), !dbg !180
  %_9.0 = extractvalue { i64, i1 } %5, 0, !dbg !180
  %_9.1 = extractvalue { i64, i1 } %5, 1, !dbg !180
  br i1 %_9.1, label %panic, label %bb5, !dbg !180

bb1:                                              ; preds = %start
  %6 = load ptr, ptr %results, align 8, !dbg !181
; call rand::rngs::reseeding::ReseedingCore<R,Rsdr>::reseed_and_generate
  call void @"_ZN4rand4rngs9reseeding29ReseedingCore$LT$R$C$Rsdr$GT$19reseed_and_generate17h5049cbb919042d83E"(ptr align 8 %self, ptr align 4 %6), !dbg !181
  br label %bb6, !dbg !181

bb5:                                              ; preds = %bb2
  %7 = getelementptr inbounds i8, ptr %self, i64 56, !dbg !180
  store i64 %_9.0, ptr %7, align 8, !dbg !180
  %8 = load ptr, ptr %results, align 8, !dbg !182
; call <rand_chacha::chacha::ChaCha12Core as rand_core::block::BlockRngCore>::generate
  call void @"_ZN84_$LT$rand_chacha..chacha..ChaCha12Core$u20$as$u20$rand_core..block..BlockRngCore$GT$8generate17h4ec65a216c4333c4E"(ptr align 8 %self, ptr align 4 %8), !dbg !182
  br label %bb6, !dbg !182

panic:                                            ; preds = %bb2
; call core::panicking::panic_const::panic_const_sub_overflow
  call void @_ZN4core9panicking11panic_const24panic_const_sub_overflow17h8f97c6b3a4c962daE(ptr align 8 @alloc_8a8305002a5686bad8b99ad20f996174) #14, !dbg !180
  unreachable, !dbg !180

bb6:                                              ; preds = %bb1, %bb5
  ret void, !dbg !183
}

; <core::ops::range::RangeTo<usize> as rand::distr::uniform::SampleRange<usize>>::sample_single
; Function Attrs: inlinehint uwtable
define void @"_ZN105_$LT$core..ops..range..RangeTo$LT$usize$GT$$u20$as$u20$rand..distr..uniform..SampleRange$LT$usize$GT$$GT$13sample_single17h7b74b8c0a7052301E"(ptr sret([16 x i8]) align 8 %_0, i64 %self, ptr align 8 %rng) unnamed_addr #1 !dbg !184 {
start:
  %rng.dbg.spill = alloca [8 x i8], align 8
  %self.dbg.spill = alloca [8 x i8], align 8
  store i64 %self, ptr %self.dbg.spill, align 8
    #dbg_declare(ptr %self.dbg.spill, !270, !DIExpression(), !274)
  store ptr %rng, ptr %rng.dbg.spill, align 8
    #dbg_declare(ptr %rng.dbg.spill, !271, !DIExpression(), !275)
; call <rand::distr::uniform::int::UniformUsize as rand::distr::uniform::UniformSampler>::sample_single
  call void @"_ZN96_$LT$rand..distr..uniform..int..UniformUsize$u20$as$u20$rand..distr..uniform..UniformSampler$GT$13sample_single17h6b861a158aed0abeE"(ptr sret([16 x i8]) align 8 %_0, i64 0, i64 %self, ptr align 8 %rng), !dbg !276
  ret void, !dbg !277
}

; <core::ops::range::RangeTo<usize> as rand::distr::uniform::SampleRange<usize>>::is_empty
; Function Attrs: inlinehint uwtable
define internal zeroext i1 @"_ZN105_$LT$core..ops..range..RangeTo$LT$usize$GT$$u20$as$u20$rand..distr..uniform..SampleRange$LT$usize$GT$$GT$8is_empty17h23921f4355903150E"(ptr align 8 %self) unnamed_addr #1 !dbg !278 {
start:
  %self.dbg.spill = alloca [8 x i8], align 8
  store ptr %self, ptr %self.dbg.spill, align 8
    #dbg_declare(ptr %self.dbg.spill, !284, !DIExpression(), !285)
  %_2 = load i64, ptr %self, align 8, !dbg !286
  %_0 = icmp eq i64 0, %_2, !dbg !287
  ret i1 %_0, !dbg !288
}

; <rand::distr::uniform::int::UniformInt<u32> as rand::distr::uniform::UniformSampler>::sample_single
; Function Attrs: inlinehint uwtable
define i64 @"_ZN105_$LT$rand..distr..uniform..int..UniformInt$LT$u32$GT$$u20$as$u20$rand..distr..uniform..UniformSampler$GT$13sample_single17hce01506d13bd404eE"(i32 %0, i32 %1, ptr align 8 %rng) unnamed_addr #1 personality ptr @rust_eh_personality !dbg !289 {
start:
  %self.dbg.spill.i1 = alloca [8 x i8], align 8
  %self.dbg.spill.i = alloca [8 x i8], align 8
  %2 = alloca [8 x i8], align 8
  %high.dbg.spill = alloca [4 x i8], align 4
  %low.dbg.spill = alloca [4 x i8], align 4
  %3 = alloca [16 x i8], align 8
  %rng.dbg.spill = alloca [8 x i8], align 8
  %_11 = alloca [1 x i8], align 1
  %_0 = alloca [8 x i8], align 4
  %high_b = alloca [4 x i8], align 4
  %low_b = alloca [4 x i8], align 4
  store i32 %0, ptr %low_b, align 4
  store i32 %1, ptr %high_b, align 4
    #dbg_declare(ptr %low_b, !310, !DIExpression(), !320)
    #dbg_declare(ptr %high_b, !311, !DIExpression(), !321)
  store ptr %rng, ptr %rng.dbg.spill, align 8
    #dbg_declare(ptr %rng.dbg.spill, !312, !DIExpression(), !322)
  store ptr %low_b, ptr %self.dbg.spill.i1, align 8
    #dbg_declare(ptr %self.dbg.spill.i1, !323, !DIExpression(), !332)
  br label %bb1, !dbg !334

bb10:                                             ; preds = %cleanup
  br label %bb11, !dbg !335

cleanup:                                          ; preds = %bb5, %panic
  %4 = landingpad { ptr, i32 }
          cleanup
  %5 = extractvalue { ptr, i32 } %4, 0
  %6 = extractvalue { ptr, i32 } %4, 1
  store ptr %5, ptr %3, align 8
  %7 = getelementptr inbounds i8, ptr %3, i64 8
  store i32 %6, ptr %7, align 8
  br label %bb10

bb1:                                              ; preds = %start
  %low = load i32, ptr %low_b, align 4, !dbg !336
  store i32 %low, ptr %low.dbg.spill, align 4, !dbg !336
    #dbg_declare(ptr %low.dbg.spill, !313, !DIExpression(), !337)
  store ptr %high_b, ptr %self.dbg.spill.i, align 8
    #dbg_declare(ptr %self.dbg.spill.i, !323, !DIExpression(), !338)
  br label %bb2, !dbg !340

bb2:                                              ; preds = %bb1
  %high = load i32, ptr %high_b, align 4, !dbg !341
  store i32 %high, ptr %high.dbg.spill, align 4, !dbg !341
    #dbg_declare(ptr %high.dbg.spill, !315, !DIExpression(), !342)
  %_10 = icmp ult i32 %low, %high, !dbg !343
  br i1 %_10, label %bb3, label %bb4, !dbg !343

bb4:                                              ; preds = %bb2
  store i8 0, ptr %_11, align 1, !dbg !344
  %8 = load i8, ptr %_11, align 1, !dbg !345
  %9 = trunc i8 %8 to i1, !dbg !345
  %10 = getelementptr inbounds i8, ptr %_0, i64 1, !dbg !345
  %11 = zext i1 %9 to i8, !dbg !345
  store i8 %11, ptr %10, align 1, !dbg !345
  store i8 1, ptr %_0, align 4, !dbg !345
  br label %bb8, !dbg !335

bb3:                                              ; preds = %bb2
  %_13.0 = sub i32 %high, 1, !dbg !346
  %_13.1 = icmp ult i32 %high, 1, !dbg !346
  br i1 %_13.1, label %panic, label %bb5, !dbg !346

bb8:                                              ; preds = %bb4
  br label %bb9, !dbg !335

bb9:                                              ; preds = %bb7, %bb8
  %12 = load i64, ptr %_0, align 4, !dbg !347
  ret i64 %12, !dbg !347

bb5:                                              ; preds = %bb3
; invoke <rand::distr::uniform::int::UniformInt<u32> as rand::distr::uniform::UniformSampler>::sample_single_inclusive
  %13 = invoke i64 @"_ZN105_$LT$rand..distr..uniform..int..UniformInt$LT$u32$GT$$u20$as$u20$rand..distr..uniform..UniformSampler$GT$23sample_single_inclusive17h8b1e4ca36f936ad9E"(i32 %low, i32 %_13.0, ptr align 8 %rng)
          to label %bb6 unwind label %cleanup, !dbg !348

panic:                                            ; preds = %bb3
; invoke core::panicking::panic_const::panic_const_sub_overflow
  invoke void @_ZN4core9panicking11panic_const24panic_const_sub_overflow17h8f97c6b3a4c962daE(ptr align 8 @alloc_5fc73023334f87bc750c79ae2dfc5958) #14
          to label %unreachable unwind label %cleanup, !dbg !346

unreachable:                                      ; preds = %panic
  unreachable

bb6:                                              ; preds = %bb5
  store i64 %13, ptr %2, align 8, !dbg !348
  call void @llvm.memcpy.p0.p0.i64(ptr align 4 %_0, ptr align 8 %2, i64 8, i1 false), !dbg !348
  br label %bb7, !dbg !335

bb7:                                              ; preds = %bb6
  br label %bb9, !dbg !335

bb11:                                             ; preds = %bb10
  %14 = load ptr, ptr %3, align 8, !dbg !349
  %15 = getelementptr inbounds i8, ptr %3, i64 8, !dbg !349
  %16 = load i32, ptr %15, align 8, !dbg !349
  %17 = insertvalue { ptr, i32 } poison, ptr %14, 0, !dbg !349
  %18 = insertvalue { ptr, i32 } %17, i32 %16, 1, !dbg !349
  resume { ptr, i32 } %18, !dbg !349
}

; <rand::distr::uniform::int::UniformInt<u32> as rand::distr::uniform::UniformSampler>::sample_single_inclusive
; Function Attrs: inlinehint uwtable
define i64 @"_ZN105_$LT$rand..distr..uniform..int..UniformInt$LT$u32$GT$$u20$as$u20$rand..distr..uniform..UniformSampler$GT$23sample_single_inclusive17h8b1e4ca36f936ad9E"(i32 %0, i32 %1, ptr align 8 %rng) unnamed_addr #1 personality ptr @rust_eh_personality !dbg !350 {
start:
  %self.dbg.spill.i24 = alloca [8 x i8], align 8
  %self.dbg.spill.i23 = alloca [8 x i8], align 8
  %tmp.dbg.spill.i10 = alloca [8 x i8], align 8
  %x.dbg.spill.i11 = alloca [4 x i8], align 4
  %self.dbg.spill.i12 = alloca [4 x i8], align 4
  %tmp.dbg.spill.i = alloca [8 x i8], align 8
  %x.dbg.spill.i = alloca [4 x i8], align 4
  %self.dbg.spill.i9 = alloca [4 x i8], align 4
  %rhs.dbg.spill.i6 = alloca [4 x i8], align 4
  %self.dbg.spill.i7 = alloca [4 x i8], align 4
  %self.dbg.spill.i4 = alloca [4 x i8], align 4
  %rhs.dbg.spill.i1 = alloca [4 x i8], align 4
  %self.dbg.spill.i2 = alloca [4 x i8], align 4
  %rhs.dbg.spill.i = alloca [4 x i8], align 4
  %self.dbg.spill.i = alloca [4 x i8], align 4
  %is_overflow.dbg.spill = alloca [1 x i8], align 1
  %new_hi_order.dbg.spill = alloca [4 x i8], align 4
  %lo_order.dbg.spill = alloca [4 x i8], align 4
  %range.dbg.spill = alloca [4 x i8], align 4
  %high.dbg.spill = alloca [4 x i8], align 4
  %low.dbg.spill = alloca [4 x i8], align 4
  %2 = alloca [16 x i8], align 8
  %rng.dbg.spill = alloca [8 x i8], align 8
  %_26 = alloca [8 x i8], align 4
  %result = alloca [4 x i8], align 4
  %_11 = alloca [1 x i8], align 1
  %_0 = alloca [8 x i8], align 4
  %high_b = alloca [4 x i8], align 4
  %low_b = alloca [4 x i8], align 4
  store i32 %0, ptr %low_b, align 4
  store i32 %1, ptr %high_b, align 4
    #dbg_declare(ptr %low_b, !352, !DIExpression(), !368)
    #dbg_declare(ptr %high_b, !353, !DIExpression(), !369)
  store ptr %rng, ptr %rng.dbg.spill, align 8
    #dbg_declare(ptr %rng.dbg.spill, !354, !DIExpression(), !370)
    #dbg_declare(ptr %result, !361, !DIExpression(), !371)
  store ptr %low_b, ptr %self.dbg.spill.i24, align 8
    #dbg_declare(ptr %self.dbg.spill.i24, !323, !DIExpression(), !372)
  br label %bb1, !dbg !374

bb25:                                             ; preds = %cleanup
  br label %bb26, !dbg !375

cleanup:                                          ; preds = %panic.i20, %panic.i, %panic, %bb16, %bb15, %bb13, %bb9, %bb7
  %3 = landingpad { ptr, i32 }
          cleanup
  %4 = extractvalue { ptr, i32 } %3, 0
  %5 = extractvalue { ptr, i32 } %3, 1
  store ptr %4, ptr %2, align 8
  %6 = getelementptr inbounds i8, ptr %2, i64 8
  store i32 %5, ptr %6, align 8
  br label %bb25

bb1:                                              ; preds = %start
  %low = load i32, ptr %low_b, align 4, !dbg !376
  store i32 %low, ptr %low.dbg.spill, align 4, !dbg !376
    #dbg_declare(ptr %low.dbg.spill, !355, !DIExpression(), !377)
  store ptr %high_b, ptr %self.dbg.spill.i23, align 8
    #dbg_declare(ptr %self.dbg.spill.i23, !323, !DIExpression(), !378)
  br label %bb2, !dbg !380

bb2:                                              ; preds = %bb1
  %high = load i32, ptr %high_b, align 4, !dbg !381
  store i32 %high, ptr %high.dbg.spill, align 4, !dbg !381
    #dbg_declare(ptr %high.dbg.spill, !357, !DIExpression(), !382)
  %_10 = icmp ule i32 %low, %high, !dbg !383
  br i1 %_10, label %bb3, label %bb4, !dbg !383

bb4:                                              ; preds = %bb2
  store i8 0, ptr %_11, align 1, !dbg !384
  %7 = load i8, ptr %_11, align 1, !dbg !385
  %8 = trunc i8 %7 to i1, !dbg !385
  %9 = getelementptr inbounds i8, ptr %_0, i64 1, !dbg !385
  %10 = zext i1 %8 to i8, !dbg !385
  store i8 %10, ptr %9, align 1, !dbg !385
  store i8 1, ptr %_0, align 4, !dbg !385
  br label %bb22, !dbg !386

bb3:                                              ; preds = %bb2
  store i32 %high, ptr %self.dbg.spill.i7, align 4
    #dbg_declare(ptr %self.dbg.spill.i7, !389, !DIExpression(), !398)
  store i32 %low, ptr %rhs.dbg.spill.i6, align 4
    #dbg_declare(ptr %rhs.dbg.spill.i6, !397, !DIExpression(), !400)
  %_0.i8 = sub i32 %high, %low, !dbg !401
  br label %bb5, !dbg !402

bb22:                                             ; preds = %bb8, %bb4
  br label %bb23, !dbg !375

bb5:                                              ; preds = %bb3
  store i32 %_0.i8, ptr %self.dbg.spill.i2, align 4
    #dbg_declare(ptr %self.dbg.spill.i2, !403, !DIExpression(), !407)
  store i32 1, ptr %rhs.dbg.spill.i1, align 4
    #dbg_declare(ptr %rhs.dbg.spill.i1, !406, !DIExpression(), !409)
  %_0.i3 = add i32 %_0.i8, 1, !dbg !410
  br label %bb6, !dbg !411

bb6:                                              ; preds = %bb5
  store i32 %_0.i3, ptr %range.dbg.spill, align 4, !dbg !412
    #dbg_declare(ptr %range.dbg.spill, !359, !DIExpression(), !413)
  %11 = icmp eq i32 %_0.i3, 0, !dbg !414
  br i1 %11, label %bb7, label %bb9, !dbg !414

bb7:                                              ; preds = %bb6
; invoke rand::rng::Rng::random
  %_14 = invoke i32 @_ZN4rand3rng3Rng6random17h7aa41a4f691dbf5aE(ptr align 8 %rng)
          to label %bb8 unwind label %cleanup, !dbg !415

bb9:                                              ; preds = %bb6
; invoke rand::rng::Rng::random
  %_18 = invoke i32 @_ZN4rand3rng3Rng6random17h7aa41a4f691dbf5aE(ptr align 8 %rng)
          to label %bb10 unwind label %cleanup, !dbg !416

bb8:                                              ; preds = %bb7
  %12 = getelementptr inbounds i8, ptr %_0, i64 4, !dbg !417
  store i32 %_14, ptr %12, align 4, !dbg !417
  store i8 0, ptr %_0, align 4, !dbg !417
  br label %bb22, !dbg !386

bb23:                                             ; preds = %bb22
  br label %bb24, !dbg !375

bb24:                                             ; preds = %bb21, %bb23
  %13 = load i64, ptr %_0, align 4, !dbg !418
  ret i64 %13, !dbg !418

bb10:                                             ; preds = %bb9
  store i32 %_18, ptr %self.dbg.spill.i12, align 4
    #dbg_declare(ptr %self.dbg.spill.i12, !419, !DIExpression(), !434)
  store i32 %_0.i3, ptr %x.dbg.spill.i11, align 4
    #dbg_declare(ptr %x.dbg.spill.i11, !431, !DIExpression(), !436)
  %_4.i13 = zext i32 %_18 to i64, !dbg !437
  %_5.i14 = zext i32 %_0.i3 to i64, !dbg !438
  %14 = call { i64, i1 } @llvm.umul.with.overflow.i64(i64 %_4.i13, i64 %_5.i14), !dbg !437
  %_6.0.i15 = extractvalue { i64, i1 } %14, 0, !dbg !437
  %_6.1.i16 = extractvalue { i64, i1 } %14, 1, !dbg !437
  br i1 %_6.1.i16, label %panic.i20, label %"_ZN60_$LT$u32$u20$as$u20$rand..distr..utils..WideningMultiply$GT$4wmul17h03d200e1b7ae410aE.exit22", !dbg !437

panic.i20:                                        ; preds = %bb10
; invoke core::panicking::panic_const::panic_const_mul_overflow
  invoke void @_ZN4core9panicking11panic_const24panic_const_mul_overflow17h2acf0b56ca158120E(ptr align 8 @alloc_0e203e6d2c8e3f24bc8531bafa2f894b) #14
          to label %.noexc21 unwind label %cleanup, !dbg !437

.noexc21:                                         ; preds = %panic.i20
  unreachable, !dbg !437

"_ZN60_$LT$u32$u20$as$u20$rand..distr..utils..WideningMultiply$GT$4wmul17h03d200e1b7ae410aE.exit22": ; preds = %bb10
  store i64 %_6.0.i15, ptr %tmp.dbg.spill.i10, align 8, !dbg !437
    #dbg_declare(ptr %tmp.dbg.spill.i10, !432, !DIExpression(), !439)
  %_8.i17 = lshr i64 %_6.0.i15, 32, !dbg !440
  %_7.i18 = trunc i64 %_8.i17 to i32, !dbg !440
  %_11.i19 = trunc i64 %_6.0.i15 to i32, !dbg !441
  %15 = insertvalue { i32, i32 } poison, i32 %_7.i18, 0, !dbg !442
  %16 = insertvalue { i32, i32 } %15, i32 %_11.i19, 1, !dbg !442
  br label %bb11, !dbg !442

bb11:                                             ; preds = %"_ZN60_$LT$u32$u20$as$u20$rand..distr..utils..WideningMultiply$GT$4wmul17h03d200e1b7ae410aE.exit22"
  %_17.0 = extractvalue { i32, i32 } %16, 0, !dbg !416
  %_17.1 = extractvalue { i32, i32 } %16, 1, !dbg !416
  store i32 %_17.0, ptr %result, align 4, !dbg !443
  store i32 %_17.1, ptr %lo_order.dbg.spill, align 4, !dbg !444
    #dbg_declare(ptr %lo_order.dbg.spill, !363, !DIExpression(), !445)
  store i32 %_0.i3, ptr %self.dbg.spill.i4, align 4
    #dbg_declare(ptr %self.dbg.spill.i4, !446, !DIExpression(), !451)
  %_0.i5 = sub i32 0, %_0.i3, !dbg !453
  br label %bb12, !dbg !456

bb12:                                             ; preds = %bb11
  %_19 = icmp ugt i32 %_17.1, %_0.i5, !dbg !457
  br i1 %_19, label %bb13, label %bb19, !dbg !457

bb19:                                             ; preds = %bb18, %bb12
  %_30 = load i32, ptr %result, align 4, !dbg !458
  store i32 %low, ptr %self.dbg.spill.i, align 4
    #dbg_declare(ptr %self.dbg.spill.i, !403, !DIExpression(), !459)
  store i32 %_30, ptr %rhs.dbg.spill.i, align 4
    #dbg_declare(ptr %rhs.dbg.spill.i, !406, !DIExpression(), !461)
  %_0.i = add i32 %low, %_30, !dbg !462
  br label %bb20, !dbg !463

bb13:                                             ; preds = %bb12
; invoke rand::rng::Rng::random
  %_23 = invoke i32 @_ZN4rand3rng3Rng6random17h7aa41a4f691dbf5aE(ptr align 8 %rng)
          to label %bb14 unwind label %cleanup, !dbg !464

bb14:                                             ; preds = %bb13
  store i32 %_23, ptr %self.dbg.spill.i9, align 4
    #dbg_declare(ptr %self.dbg.spill.i9, !419, !DIExpression(), !465)
  store i32 %_0.i3, ptr %x.dbg.spill.i, align 4
    #dbg_declare(ptr %x.dbg.spill.i, !431, !DIExpression(), !467)
  %_4.i = zext i32 %_23 to i64, !dbg !468
  %_5.i = zext i32 %_0.i3 to i64, !dbg !469
  %17 = call { i64, i1 } @llvm.umul.with.overflow.i64(i64 %_4.i, i64 %_5.i), !dbg !468
  %_6.0.i = extractvalue { i64, i1 } %17, 0, !dbg !468
  %_6.1.i = extractvalue { i64, i1 } %17, 1, !dbg !468
  br i1 %_6.1.i, label %panic.i, label %"_ZN60_$LT$u32$u20$as$u20$rand..distr..utils..WideningMultiply$GT$4wmul17h03d200e1b7ae410aE.exit", !dbg !468

panic.i:                                          ; preds = %bb14
; invoke core::panicking::panic_const::panic_const_mul_overflow
  invoke void @_ZN4core9panicking11panic_const24panic_const_mul_overflow17h2acf0b56ca158120E(ptr align 8 @alloc_0e203e6d2c8e3f24bc8531bafa2f894b) #14
          to label %.noexc unwind label %cleanup, !dbg !468

.noexc:                                           ; preds = %panic.i
  unreachable, !dbg !468

"_ZN60_$LT$u32$u20$as$u20$rand..distr..utils..WideningMultiply$GT$4wmul17h03d200e1b7ae410aE.exit": ; preds = %bb14
  store i64 %_6.0.i, ptr %tmp.dbg.spill.i, align 8, !dbg !468
    #dbg_declare(ptr %tmp.dbg.spill.i, !432, !DIExpression(), !470)
  %_8.i = lshr i64 %_6.0.i, 32, !dbg !471
  %_7.i = trunc i64 %_8.i to i32, !dbg !471
  %_11.i = trunc i64 %_6.0.i to i32, !dbg !472
  %18 = insertvalue { i32, i32 } poison, i32 %_7.i, 0, !dbg !473
  %19 = insertvalue { i32, i32 } %18, i32 %_11.i, 1, !dbg !473
  br label %bb15, !dbg !473

bb15:                                             ; preds = %"_ZN60_$LT$u32$u20$as$u20$rand..distr..utils..WideningMultiply$GT$4wmul17h03d200e1b7ae410aE.exit"
  %_22.0 = extractvalue { i32, i32 } %19, 0, !dbg !464
  %_22.1 = extractvalue { i32, i32 } %19, 1, !dbg !464
  store i32 %_22.0, ptr %new_hi_order.dbg.spill, align 4, !dbg !474
    #dbg_declare(ptr %new_hi_order.dbg.spill, !364, !DIExpression(), !475)
; invoke core::num::<impl u32>::checked_add
  %20 = invoke { i32, i32 } @"_ZN4core3num21_$LT$impl$u20$u32$GT$11checked_add17h8b89684b360ded0dE"(i32 %_17.1, i32 %_22.0)
          to label %bb16 unwind label %cleanup, !dbg !476

bb16:                                             ; preds = %bb15
  %21 = extractvalue { i32, i32 } %20, 0, !dbg !476
  %22 = extractvalue { i32, i32 } %20, 1, !dbg !476
  store i32 %21, ptr %_26, align 4, !dbg !476
  %23 = getelementptr inbounds i8, ptr %_26, i64 4, !dbg !476
  store i32 %22, ptr %23, align 4, !dbg !476
; invoke core::option::Option<T>::is_none
  %is_overflow = invoke zeroext i1 @"_ZN4core6option15Option$LT$T$GT$7is_none17h2c6a71db0f0147d2E"(ptr align 4 %_26)
          to label %bb17 unwind label %cleanup, !dbg !476

bb17:                                             ; preds = %bb16
  %24 = zext i1 %is_overflow to i8, !dbg !476
  store i8 %24, ptr %is_overflow.dbg.spill, align 1, !dbg !476
    #dbg_declare(ptr %is_overflow.dbg.spill, !366, !DIExpression(), !477)
  %_27 = zext i1 %is_overflow to i32, !dbg !478
  %25 = load i32, ptr %result, align 4, !dbg !479
  %26 = call { i32, i1 } @llvm.uadd.with.overflow.i32(i32 %25, i32 %_27), !dbg !479
  %_28.0 = extractvalue { i32, i1 } %26, 0, !dbg !479
  %_28.1 = extractvalue { i32, i1 } %26, 1, !dbg !479
  br i1 %_28.1, label %panic, label %bb18, !dbg !479

bb18:                                             ; preds = %bb17
  store i32 %_28.0, ptr %result, align 4, !dbg !479
  br label %bb19, !dbg !480

panic:                                            ; preds = %bb17
; invoke core::panicking::panic_const::panic_const_add_overflow
  invoke void @_ZN4core9panicking11panic_const24panic_const_add_overflow17h585c583b627172f8E(ptr align 8 @alloc_5fc73023334f87bc750c79ae2dfc5958) #14
          to label %unreachable unwind label %cleanup, !dbg !479

unreachable:                                      ; preds = %panic
  unreachable

bb20:                                             ; preds = %bb19
  %27 = getelementptr inbounds i8, ptr %_0, i64 4, !dbg !481
  store i32 %_0.i, ptr %27, align 4, !dbg !481
  store i8 0, ptr %_0, align 4, !dbg !481
  br label %bb21, !dbg !375

bb21:                                             ; preds = %bb20
  br label %bb24, !dbg !375

bb26:                                             ; preds = %bb25
  %28 = load ptr, ptr %2, align 8, !dbg !482
  %29 = getelementptr inbounds i8, ptr %2, i64 8, !dbg !482
  %30 = load i32, ptr %29, align 8, !dbg !482
  %31 = insertvalue { ptr, i32 } poison, ptr %28, 0, !dbg !482
  %32 = insertvalue { ptr, i32 } %31, i32 %30, 1, !dbg !482
  resume { ptr, i32 } %32, !dbg !482
}

; <rand::distr::uniform::int::UniformInt<u64> as rand::distr::uniform::UniformSampler>::sample_single
; Function Attrs: inlinehint uwtable
define void @"_ZN105_$LT$rand..distr..uniform..int..UniformInt$LT$u64$GT$$u20$as$u20$rand..distr..uniform..UniformSampler$GT$13sample_single17h5038fe5131663a3aE"(ptr sret([16 x i8]) align 8 %_0, i64 %0, i64 %1, ptr align 8 %rng) unnamed_addr #1 personality ptr @rust_eh_personality !dbg !483 {
start:
  %self.dbg.spill.i1 = alloca [8 x i8], align 8
  %self.dbg.spill.i = alloca [8 x i8], align 8
  %high.dbg.spill = alloca [8 x i8], align 8
  %low.dbg.spill = alloca [8 x i8], align 8
  %2 = alloca [16 x i8], align 8
  %rng.dbg.spill = alloca [8 x i8], align 8
  %_11 = alloca [1 x i8], align 1
  %high_b = alloca [8 x i8], align 8
  %low_b = alloca [8 x i8], align 8
  store i64 %0, ptr %low_b, align 8
  store i64 %1, ptr %high_b, align 8
    #dbg_declare(ptr %low_b, !503, !DIExpression(), !513)
    #dbg_declare(ptr %high_b, !504, !DIExpression(), !514)
  store ptr %rng, ptr %rng.dbg.spill, align 8
    #dbg_declare(ptr %rng.dbg.spill, !505, !DIExpression(), !515)
  store ptr %low_b, ptr %self.dbg.spill.i1, align 8
    #dbg_declare(ptr %self.dbg.spill.i1, !516, !DIExpression(), !524)
  br label %bb1, !dbg !526

bb10:                                             ; preds = %cleanup
  br label %bb11, !dbg !527

cleanup:                                          ; preds = %bb5, %panic
  %3 = landingpad { ptr, i32 }
          cleanup
  %4 = extractvalue { ptr, i32 } %3, 0
  %5 = extractvalue { ptr, i32 } %3, 1
  store ptr %4, ptr %2, align 8
  %6 = getelementptr inbounds i8, ptr %2, i64 8
  store i32 %5, ptr %6, align 8
  br label %bb10

bb1:                                              ; preds = %start
  %low = load i64, ptr %low_b, align 8, !dbg !528
  store i64 %low, ptr %low.dbg.spill, align 8, !dbg !528
    #dbg_declare(ptr %low.dbg.spill, !506, !DIExpression(), !529)
  store ptr %high_b, ptr %self.dbg.spill.i, align 8
    #dbg_declare(ptr %self.dbg.spill.i, !516, !DIExpression(), !530)
  br label %bb2, !dbg !532

bb2:                                              ; preds = %bb1
  %high = load i64, ptr %high_b, align 8, !dbg !533
  store i64 %high, ptr %high.dbg.spill, align 8, !dbg !533
    #dbg_declare(ptr %high.dbg.spill, !508, !DIExpression(), !534)
  %_10 = icmp ult i64 %low, %high, !dbg !535
  br i1 %_10, label %bb3, label %bb4, !dbg !535

bb4:                                              ; preds = %bb2
  store i8 0, ptr %_11, align 1, !dbg !536
  %7 = load i8, ptr %_11, align 1, !dbg !537
  %8 = trunc i8 %7 to i1, !dbg !537
  %9 = getelementptr inbounds i8, ptr %_0, i64 1, !dbg !537
  %10 = zext i1 %8 to i8, !dbg !537
  store i8 %10, ptr %9, align 1, !dbg !537
  store i8 1, ptr %_0, align 8, !dbg !537
  br label %bb8, !dbg !527

bb3:                                              ; preds = %bb2
  %_13.0 = sub i64 %high, 1, !dbg !538
  %_13.1 = icmp ult i64 %high, 1, !dbg !538
  br i1 %_13.1, label %panic, label %bb5, !dbg !538

bb8:                                              ; preds = %bb4
  br label %bb9, !dbg !527

bb9:                                              ; preds = %bb7, %bb8
  ret void, !dbg !539

bb5:                                              ; preds = %bb3
; invoke <rand::distr::uniform::int::UniformInt<u64> as rand::distr::uniform::UniformSampler>::sample_single_inclusive
  invoke void @"_ZN105_$LT$rand..distr..uniform..int..UniformInt$LT$u64$GT$$u20$as$u20$rand..distr..uniform..UniformSampler$GT$23sample_single_inclusive17h6296b6f724fd62b9E"(ptr sret([16 x i8]) align 8 %_0, i64 %low, i64 %_13.0, ptr align 8 %rng)
          to label %bb6 unwind label %cleanup, !dbg !540

panic:                                            ; preds = %bb3
; invoke core::panicking::panic_const::panic_const_sub_overflow
  invoke void @_ZN4core9panicking11panic_const24panic_const_sub_overflow17h8f97c6b3a4c962daE(ptr align 8 @alloc_b7bef978aede28df3b19e88fa8cc4254) #14
          to label %unreachable unwind label %cleanup, !dbg !538

unreachable:                                      ; preds = %panic
  unreachable

bb6:                                              ; preds = %bb5
  br label %bb7, !dbg !527

bb7:                                              ; preds = %bb6
  br label %bb9, !dbg !527

bb11:                                             ; preds = %bb10
  %11 = load ptr, ptr %2, align 8, !dbg !541
  %12 = getelementptr inbounds i8, ptr %2, i64 8, !dbg !541
  %13 = load i32, ptr %12, align 8, !dbg !541
  %14 = insertvalue { ptr, i32 } poison, ptr %11, 0, !dbg !541
  %15 = insertvalue { ptr, i32 } %14, i32 %13, 1, !dbg !541
  resume { ptr, i32 } %15, !dbg !541
}

; <rand::distr::uniform::int::UniformInt<u64> as rand::distr::uniform::UniformSampler>::sample_single_inclusive
; Function Attrs: inlinehint uwtable
define void @"_ZN105_$LT$rand..distr..uniform..int..UniformInt$LT$u64$GT$$u20$as$u20$rand..distr..uniform..UniformSampler$GT$23sample_single_inclusive17h6296b6f724fd62b9E"(ptr sret([16 x i8]) align 8 %_0, i64 %0, i64 %1, ptr align 8 %rng) unnamed_addr #1 personality ptr @rust_eh_personality !dbg !542 {
start:
  %self.dbg.spill.i24 = alloca [8 x i8], align 8
  %self.dbg.spill.i23 = alloca [8 x i8], align 8
  %tmp.dbg.spill.i10 = alloca [16 x i8], align 16
  %x.dbg.spill.i11 = alloca [8 x i8], align 8
  %self.dbg.spill.i12 = alloca [8 x i8], align 8
  %tmp.dbg.spill.i = alloca [16 x i8], align 16
  %x.dbg.spill.i = alloca [8 x i8], align 8
  %self.dbg.spill.i9 = alloca [8 x i8], align 8
  %rhs.dbg.spill.i6 = alloca [8 x i8], align 8
  %self.dbg.spill.i7 = alloca [8 x i8], align 8
  %self.dbg.spill.i4 = alloca [8 x i8], align 8
  %rhs.dbg.spill.i1 = alloca [8 x i8], align 8
  %self.dbg.spill.i2 = alloca [8 x i8], align 8
  %rhs.dbg.spill.i = alloca [8 x i8], align 8
  %self.dbg.spill.i = alloca [8 x i8], align 8
  %is_overflow.dbg.spill = alloca [1 x i8], align 1
  %new_hi_order.dbg.spill = alloca [8 x i8], align 8
  %lo_order.dbg.spill = alloca [8 x i8], align 8
  %range.dbg.spill = alloca [8 x i8], align 8
  %high.dbg.spill = alloca [8 x i8], align 8
  %low.dbg.spill = alloca [8 x i8], align 8
  %2 = alloca [16 x i8], align 8
  %rng.dbg.spill = alloca [8 x i8], align 8
  %_26 = alloca [16 x i8], align 8
  %result = alloca [8 x i8], align 8
  %_11 = alloca [1 x i8], align 1
  %high_b = alloca [8 x i8], align 8
  %low_b = alloca [8 x i8], align 8
  store i64 %0, ptr %low_b, align 8
  store i64 %1, ptr %high_b, align 8
    #dbg_declare(ptr %low_b, !544, !DIExpression(), !560)
    #dbg_declare(ptr %high_b, !545, !DIExpression(), !561)
  store ptr %rng, ptr %rng.dbg.spill, align 8
    #dbg_declare(ptr %rng.dbg.spill, !546, !DIExpression(), !562)
    #dbg_declare(ptr %result, !553, !DIExpression(), !563)
  store ptr %low_b, ptr %self.dbg.spill.i24, align 8
    #dbg_declare(ptr %self.dbg.spill.i24, !516, !DIExpression(), !564)
  br label %bb1, !dbg !566

bb25:                                             ; preds = %cleanup
  br label %bb26, !dbg !567

cleanup:                                          ; preds = %panic.i20, %panic.i, %panic, %bb16, %bb15, %bb13, %bb9, %bb7
  %3 = landingpad { ptr, i32 }
          cleanup
  %4 = extractvalue { ptr, i32 } %3, 0
  %5 = extractvalue { ptr, i32 } %3, 1
  store ptr %4, ptr %2, align 8
  %6 = getelementptr inbounds i8, ptr %2, i64 8
  store i32 %5, ptr %6, align 8
  br label %bb25

bb1:                                              ; preds = %start
  %low = load i64, ptr %low_b, align 8, !dbg !568
  store i64 %low, ptr %low.dbg.spill, align 8, !dbg !568
    #dbg_declare(ptr %low.dbg.spill, !547, !DIExpression(), !569)
  store ptr %high_b, ptr %self.dbg.spill.i23, align 8
    #dbg_declare(ptr %self.dbg.spill.i23, !516, !DIExpression(), !570)
  br label %bb2, !dbg !572

bb2:                                              ; preds = %bb1
  %high = load i64, ptr %high_b, align 8, !dbg !573
  store i64 %high, ptr %high.dbg.spill, align 8, !dbg !573
    #dbg_declare(ptr %high.dbg.spill, !549, !DIExpression(), !574)
  %_10 = icmp ule i64 %low, %high, !dbg !575
  br i1 %_10, label %bb3, label %bb4, !dbg !575

bb4:                                              ; preds = %bb2
  store i8 0, ptr %_11, align 1, !dbg !576
  %7 = load i8, ptr %_11, align 1, !dbg !577
  %8 = trunc i8 %7 to i1, !dbg !577
  %9 = getelementptr inbounds i8, ptr %_0, i64 1, !dbg !577
  %10 = zext i1 %8 to i8, !dbg !577
  store i8 %10, ptr %9, align 1, !dbg !577
  store i8 1, ptr %_0, align 8, !dbg !577
  br label %bb22, !dbg !578

bb3:                                              ; preds = %bb2
  store i64 %high, ptr %self.dbg.spill.i7, align 8
    #dbg_declare(ptr %self.dbg.spill.i7, !580, !DIExpression(), !587)
  store i64 %low, ptr %rhs.dbg.spill.i6, align 8
    #dbg_declare(ptr %rhs.dbg.spill.i6, !586, !DIExpression(), !589)
  %_0.i8 = sub i64 %high, %low, !dbg !590
  br label %bb5, !dbg !591

bb22:                                             ; preds = %bb8, %bb4
  br label %bb23, !dbg !567

bb5:                                              ; preds = %bb3
  store i64 %_0.i8, ptr %self.dbg.spill.i2, align 8
    #dbg_declare(ptr %self.dbg.spill.i2, !592, !DIExpression(), !596)
  store i64 1, ptr %rhs.dbg.spill.i1, align 8
    #dbg_declare(ptr %rhs.dbg.spill.i1, !595, !DIExpression(), !598)
  %_0.i3 = add i64 %_0.i8, 1, !dbg !599
  br label %bb6, !dbg !600

bb6:                                              ; preds = %bb5
  store i64 %_0.i3, ptr %range.dbg.spill, align 8, !dbg !601
    #dbg_declare(ptr %range.dbg.spill, !551, !DIExpression(), !602)
  %11 = icmp eq i64 %_0.i3, 0, !dbg !603
  br i1 %11, label %bb7, label %bb9, !dbg !603

bb7:                                              ; preds = %bb6
; invoke rand::rng::Rng::random
  %_14 = invoke i64 @_ZN4rand3rng3Rng6random17h768dbe24d7e7b3baE(ptr align 8 %rng)
          to label %bb8 unwind label %cleanup, !dbg !604

bb9:                                              ; preds = %bb6
; invoke rand::rng::Rng::random
  %_18 = invoke i64 @_ZN4rand3rng3Rng6random17h768dbe24d7e7b3baE(ptr align 8 %rng)
          to label %bb10 unwind label %cleanup, !dbg !605

bb8:                                              ; preds = %bb7
  %12 = getelementptr inbounds i8, ptr %_0, i64 8, !dbg !606
  store i64 %_14, ptr %12, align 8, !dbg !606
  store i8 0, ptr %_0, align 8, !dbg !606
  br label %bb22, !dbg !578

bb23:                                             ; preds = %bb22
  br label %bb24, !dbg !567

bb24:                                             ; preds = %bb21, %bb23
  ret void, !dbg !607

bb10:                                             ; preds = %bb9
  store i64 %_18, ptr %self.dbg.spill.i12, align 8
    #dbg_declare(ptr %self.dbg.spill.i12, !608, !DIExpression(), !622)
  store i64 %_0.i3, ptr %x.dbg.spill.i11, align 8
    #dbg_declare(ptr %x.dbg.spill.i11, !618, !DIExpression(), !624)
  %_4.i13 = zext i64 %_18 to i128, !dbg !625
  %_5.i14 = zext i64 %_0.i3 to i128, !dbg !626
  %13 = call { i128, i1 } @llvm.umul.with.overflow.i128(i128 %_4.i13, i128 %_5.i14), !dbg !625
  %_6.0.i15 = extractvalue { i128, i1 } %13, 0, !dbg !625
  %_6.1.i16 = extractvalue { i128, i1 } %13, 1, !dbg !625
  br i1 %_6.1.i16, label %panic.i20, label %"_ZN60_$LT$u64$u20$as$u20$rand..distr..utils..WideningMultiply$GT$4wmul17h58f2ab47cedcd655E.exit22", !dbg !625

panic.i20:                                        ; preds = %bb10
; invoke core::panicking::panic_const::panic_const_mul_overflow
  invoke void @_ZN4core9panicking11panic_const24panic_const_mul_overflow17h2acf0b56ca158120E(ptr align 8 @alloc_cbcc5b3e1826322f6bac87ad33b55b85) #14
          to label %.noexc21 unwind label %cleanup, !dbg !625

.noexc21:                                         ; preds = %panic.i20
  unreachable, !dbg !625

"_ZN60_$LT$u64$u20$as$u20$rand..distr..utils..WideningMultiply$GT$4wmul17h58f2ab47cedcd655E.exit22": ; preds = %bb10
  store i128 %_6.0.i15, ptr %tmp.dbg.spill.i10, align 16, !dbg !625
    #dbg_declare(ptr %tmp.dbg.spill.i10, !619, !DIExpression(), !627)
  %_8.i17 = lshr i128 %_6.0.i15, 64, !dbg !628
  %_7.i18 = trunc i128 %_8.i17 to i64, !dbg !628
  %_11.i19 = trunc i128 %_6.0.i15 to i64, !dbg !629
  %14 = insertvalue { i64, i64 } poison, i64 %_7.i18, 0, !dbg !630
  %15 = insertvalue { i64, i64 } %14, i64 %_11.i19, 1, !dbg !630
  br label %bb11, !dbg !630

bb11:                                             ; preds = %"_ZN60_$LT$u64$u20$as$u20$rand..distr..utils..WideningMultiply$GT$4wmul17h58f2ab47cedcd655E.exit22"
  %_17.0 = extractvalue { i64, i64 } %15, 0, !dbg !605
  %_17.1 = extractvalue { i64, i64 } %15, 1, !dbg !605
  store i64 %_17.0, ptr %result, align 8, !dbg !631
  store i64 %_17.1, ptr %lo_order.dbg.spill, align 8, !dbg !632
    #dbg_declare(ptr %lo_order.dbg.spill, !555, !DIExpression(), !633)
  store i64 %_0.i3, ptr %self.dbg.spill.i4, align 8
    #dbg_declare(ptr %self.dbg.spill.i4, !634, !DIExpression(), !639)
  %_0.i5 = sub i64 0, %_0.i3, !dbg !641
  br label %bb12, !dbg !644

bb12:                                             ; preds = %bb11
  %_19 = icmp ugt i64 %_17.1, %_0.i5, !dbg !645
  br i1 %_19, label %bb13, label %bb19, !dbg !645

bb19:                                             ; preds = %bb18, %bb12
  %_30 = load i64, ptr %result, align 8, !dbg !646
  store i64 %low, ptr %self.dbg.spill.i, align 8
    #dbg_declare(ptr %self.dbg.spill.i, !592, !DIExpression(), !647)
  store i64 %_30, ptr %rhs.dbg.spill.i, align 8
    #dbg_declare(ptr %rhs.dbg.spill.i, !595, !DIExpression(), !649)
  %_0.i = add i64 %low, %_30, !dbg !650
  br label %bb20, !dbg !651

bb13:                                             ; preds = %bb12
; invoke rand::rng::Rng::random
  %_23 = invoke i64 @_ZN4rand3rng3Rng6random17h768dbe24d7e7b3baE(ptr align 8 %rng)
          to label %bb14 unwind label %cleanup, !dbg !652

bb14:                                             ; preds = %bb13
  store i64 %_23, ptr %self.dbg.spill.i9, align 8
    #dbg_declare(ptr %self.dbg.spill.i9, !608, !DIExpression(), !653)
  store i64 %_0.i3, ptr %x.dbg.spill.i, align 8
    #dbg_declare(ptr %x.dbg.spill.i, !618, !DIExpression(), !655)
  %_4.i = zext i64 %_23 to i128, !dbg !656
  %_5.i = zext i64 %_0.i3 to i128, !dbg !657
  %16 = call { i128, i1 } @llvm.umul.with.overflow.i128(i128 %_4.i, i128 %_5.i), !dbg !656
  %_6.0.i = extractvalue { i128, i1 } %16, 0, !dbg !656
  %_6.1.i = extractvalue { i128, i1 } %16, 1, !dbg !656
  br i1 %_6.1.i, label %panic.i, label %"_ZN60_$LT$u64$u20$as$u20$rand..distr..utils..WideningMultiply$GT$4wmul17h58f2ab47cedcd655E.exit", !dbg !656

panic.i:                                          ; preds = %bb14
; invoke core::panicking::panic_const::panic_const_mul_overflow
  invoke void @_ZN4core9panicking11panic_const24panic_const_mul_overflow17h2acf0b56ca158120E(ptr align 8 @alloc_cbcc5b3e1826322f6bac87ad33b55b85) #14
          to label %.noexc unwind label %cleanup, !dbg !656

.noexc:                                           ; preds = %panic.i
  unreachable, !dbg !656

"_ZN60_$LT$u64$u20$as$u20$rand..distr..utils..WideningMultiply$GT$4wmul17h58f2ab47cedcd655E.exit": ; preds = %bb14
  store i128 %_6.0.i, ptr %tmp.dbg.spill.i, align 16, !dbg !656
    #dbg_declare(ptr %tmp.dbg.spill.i, !619, !DIExpression(), !658)
  %_8.i = lshr i128 %_6.0.i, 64, !dbg !659
  %_7.i = trunc i128 %_8.i to i64, !dbg !659
  %_11.i = trunc i128 %_6.0.i to i64, !dbg !660
  %17 = insertvalue { i64, i64 } poison, i64 %_7.i, 0, !dbg !661
  %18 = insertvalue { i64, i64 } %17, i64 %_11.i, 1, !dbg !661
  br label %bb15, !dbg !661

bb15:                                             ; preds = %"_ZN60_$LT$u64$u20$as$u20$rand..distr..utils..WideningMultiply$GT$4wmul17h58f2ab47cedcd655E.exit"
  %_22.0 = extractvalue { i64, i64 } %18, 0, !dbg !652
  %_22.1 = extractvalue { i64, i64 } %18, 1, !dbg !652
  store i64 %_22.0, ptr %new_hi_order.dbg.spill, align 8, !dbg !662
    #dbg_declare(ptr %new_hi_order.dbg.spill, !556, !DIExpression(), !663)
; invoke core::num::<impl u64>::checked_add
  %19 = invoke { i64, i64 } @"_ZN4core3num21_$LT$impl$u20$u64$GT$11checked_add17hb86b7a41b580d8e2E"(i64 %_17.1, i64 %_22.0)
          to label %bb16 unwind label %cleanup, !dbg !664

bb16:                                             ; preds = %bb15
  %20 = extractvalue { i64, i64 } %19, 0, !dbg !664
  %21 = extractvalue { i64, i64 } %19, 1, !dbg !664
  store i64 %20, ptr %_26, align 8, !dbg !664
  %22 = getelementptr inbounds i8, ptr %_26, i64 8, !dbg !664
  store i64 %21, ptr %22, align 8, !dbg !664
; invoke core::option::Option<T>::is_none
  %is_overflow = invoke zeroext i1 @"_ZN4core6option15Option$LT$T$GT$7is_none17h52b5235e5684048eE"(ptr align 8 %_26)
          to label %bb17 unwind label %cleanup, !dbg !664

bb17:                                             ; preds = %bb16
  %23 = zext i1 %is_overflow to i8, !dbg !664
  store i8 %23, ptr %is_overflow.dbg.spill, align 1, !dbg !664
    #dbg_declare(ptr %is_overflow.dbg.spill, !558, !DIExpression(), !665)
  %_27 = zext i1 %is_overflow to i64, !dbg !666
  %24 = load i64, ptr %result, align 8, !dbg !667
  %25 = call { i64, i1 } @llvm.uadd.with.overflow.i64(i64 %24, i64 %_27), !dbg !667
  %_28.0 = extractvalue { i64, i1 } %25, 0, !dbg !667
  %_28.1 = extractvalue { i64, i1 } %25, 1, !dbg !667
  br i1 %_28.1, label %panic, label %bb18, !dbg !667

bb18:                                             ; preds = %bb17
  store i64 %_28.0, ptr %result, align 8, !dbg !667
  br label %bb19, !dbg !668

panic:                                            ; preds = %bb17
; invoke core::panicking::panic_const::panic_const_add_overflow
  invoke void @_ZN4core9panicking11panic_const24panic_const_add_overflow17h585c583b627172f8E(ptr align 8 @alloc_b7bef978aede28df3b19e88fa8cc4254) #14
          to label %unreachable unwind label %cleanup, !dbg !667

unreachable:                                      ; preds = %panic
  unreachable

bb20:                                             ; preds = %bb19
  %26 = getelementptr inbounds i8, ptr %_0, i64 8, !dbg !669
  store i64 %_0.i, ptr %26, align 8, !dbg !669
  store i8 0, ptr %_0, align 8, !dbg !669
  br label %bb21, !dbg !567

bb21:                                             ; preds = %bb20
  br label %bb24, !dbg !567

bb26:                                             ; preds = %bb25
  %27 = load ptr, ptr %2, align 8, !dbg !670
  %28 = getelementptr inbounds i8, ptr %2, i64 8, !dbg !670
  %29 = load i32, ptr %28, align 8, !dbg !670
  %30 = insertvalue { ptr, i32 } poison, ptr %27, 0, !dbg !670
  %31 = insertvalue { ptr, i32 } %30, i32 %29, 1, !dbg !670
  resume { ptr, i32 } %31, !dbg !670
}

; <core::iter::adapters::enumerate::Enumerate<I> as core::iter::traits::iterator::Iterator>::next
; Function Attrs: inlinehint uwtable
define { i64, ptr } @"_ZN110_$LT$core..iter..adapters..enumerate..Enumerate$LT$I$GT$$u20$as$u20$core..iter..traits..iterator..Iterator$GT$4next17hdbfacb10d82c8040E"(ptr align 8 %self) unnamed_addr #1 personality ptr @rust_eh_personality !dbg !671 {
start:
  %0 = alloca [16 x i8], align 8
  %i.dbg.spill = alloca [8 x i8], align 8
  %a.dbg.spill = alloca [8 x i8], align 8
  %val.dbg.spill = alloca [8 x i8], align 8
  %v.dbg.spill = alloca [8 x i8], align 8
  %residual.dbg.spill = alloca [0 x i8], align 1
  %self.dbg.spill = alloca [8 x i8], align 8
  %self1 = alloca [8 x i8], align 8
  %_3 = alloca [8 x i8], align 8
  %_0 = alloca [16 x i8], align 8
  store ptr %self, ptr %self.dbg.spill, align 8
    #dbg_declare(ptr %self.dbg.spill, !720, !DIExpression(), !745)
    #dbg_declare(ptr %self1, !746, !DIExpression(), !783)
    #dbg_declare(ptr %residual.dbg.spill, !723, !DIExpression(), !785)
; call <core::slice::iter::Iter<T> as core::iter::traits::iterator::Iterator>::next
  %1 = call align 8 ptr @"_ZN91_$LT$core..slice..iter..Iter$LT$T$GT$$u20$as$u20$core..iter..traits..iterator..Iterator$GT$4next17h4ad88689fb0b108aE"(ptr align 8 %self), !dbg !784
  store ptr %1, ptr %self1, align 8, !dbg !784
  %2 = load ptr, ptr %self1, align 8, !dbg !786
  %3 = ptrtoint ptr %2 to i64, !dbg !786
  %4 = icmp eq i64 %3, 0, !dbg !786
  %_11 = select i1 %4, i64 0, i64 1, !dbg !786
  %5 = icmp eq i64 %_11, 0, !dbg !787
  br i1 %5, label %bb7, label %bb8, !dbg !787

bb7:                                              ; preds = %start
  %6 = getelementptr inbounds i8, ptr %_0, i64 8, !dbg !788
  store ptr null, ptr %6, align 8, !dbg !788
  br label %bb4, !dbg !795

bb8:                                              ; preds = %start
  %v = load ptr, ptr %self1, align 8, !dbg !796
  store ptr %v, ptr %v.dbg.spill, align 8, !dbg !796
    #dbg_declare(ptr %v.dbg.spill, !781, !DIExpression(), !797)
  store ptr %v, ptr %_3, align 8, !dbg !798
  %val = load ptr, ptr %_3, align 8, !dbg !784
  store ptr %val, ptr %val.dbg.spill, align 8, !dbg !784
    #dbg_declare(ptr %val.dbg.spill, !741, !DIExpression(), !799)
  store ptr %val, ptr %a.dbg.spill, align 8, !dbg !799
    #dbg_declare(ptr %a.dbg.spill, !721, !DIExpression(), !800)
  %7 = getelementptr inbounds i8, ptr %self, i64 16, !dbg !801
  %i = load i64, ptr %7, align 8, !dbg !801
  store i64 %i, ptr %i.dbg.spill, align 8, !dbg !801
    #dbg_declare(ptr %i.dbg.spill, !743, !DIExpression(), !802)
  %8 = getelementptr inbounds i8, ptr %self, i64 16, !dbg !803
  %9 = load i64, ptr %8, align 8, !dbg !803
  %10 = call { i64, i1 } @llvm.uadd.with.overflow.i64(i64 %9, i64 1), !dbg !803
  %_8.0 = extractvalue { i64, i1 } %10, 0, !dbg !803
  %_8.1 = extractvalue { i64, i1 } %10, 1, !dbg !803
  br i1 %_8.1, label %panic, label %bb3, !dbg !803

bb4:                                              ; preds = %bb3, %bb7
  %11 = load i64, ptr %_0, align 8, !dbg !795
  %12 = getelementptr inbounds i8, ptr %_0, i64 8, !dbg !795
  %13 = load ptr, ptr %12, align 8, !dbg !795
  %14 = insertvalue { i64, ptr } poison, i64 %11, 0, !dbg !795
  %15 = insertvalue { i64, ptr } %14, ptr %13, 1, !dbg !795
  ret { i64, ptr } %15, !dbg !795

bb3:                                              ; preds = %bb8
  %16 = getelementptr inbounds i8, ptr %self, i64 16, !dbg !803
  store i64 %_8.0, ptr %16, align 8, !dbg !803
  store i64 %i, ptr %_0, align 8, !dbg !804
  %17 = getelementptr inbounds i8, ptr %_0, i64 8, !dbg !804
  store ptr %val, ptr %17, align 8, !dbg !804
  br label %bb4, !dbg !795

panic:                                            ; preds = %bb8
; invoke core::panicking::panic_const::panic_const_add_overflow
  invoke void @_ZN4core9panicking11panic_const24panic_const_add_overflow17h585c583b627172f8E(ptr align 8 @alloc_3407c9cb6ff21ee44260c564f9754364) #14
          to label %unreachable unwind label %cleanup, !dbg !803

bb5:                                              ; preds = %cleanup
  %18 = load ptr, ptr %0, align 8, !dbg !805
  %19 = getelementptr inbounds i8, ptr %0, i64 8, !dbg !805
  %20 = load i32, ptr %19, align 8, !dbg !805
  %21 = insertvalue { ptr, i32 } poison, ptr %18, 0, !dbg !805
  %22 = insertvalue { ptr, i32 } %21, i32 %20, 1, !dbg !805
  resume { ptr, i32 } %22, !dbg !805

cleanup:                                          ; preds = %panic
  %23 = landingpad { ptr, i32 }
          cleanup
  %24 = extractvalue { ptr, i32 } %23, 0
  %25 = extractvalue { ptr, i32 } %23, 1
  store ptr %24, ptr %0, align 8
  %26 = getelementptr inbounds i8, ptr %0, i64 8
  store i32 %25, ptr %26, align 8
  br label %bb5

unreachable:                                      ; preds = %panic
  unreachable

bb2:                                              ; No predecessors!
  unreachable, !dbg !806
}

; <alloc::vec::Vec<T> as alloc::vec::spec_from_iter_nested::SpecFromIterNested<T,I>>::from_iter
; Function Attrs: uwtable
define void @"_ZN111_$LT$alloc..vec..Vec$LT$T$GT$$u20$as$u20$alloc..vec..spec_from_iter_nested..SpecFromIterNested$LT$T$C$I$GT$$GT$9from_iter17h583038eaf1f0bf48E"(ptr sret([24 x i8]) align 8 %_0, i32 %0, i32 %1, ptr align 8 %2) unnamed_addr #0 personality ptr @rust_eh_personality !dbg !808 {
start:
  %upper.dbg.spill = alloca [8 x i8], align 8
  %3 = alloca [16 x i8], align 8
  %alloc.dbg.spill1 = alloca [0 x i8], align 1
  %alloc.dbg.spill = alloca [0 x i8], align 1
  %pieces.dbg.spill = alloca [8 x i8], align 8
  %_12 = alloca [1 x i8], align 1
  %_8 = alloca [48 x i8], align 8
  %_3 = alloca [24 x i8], align 8
  %vector = alloca [24 x i8], align 8
  %iterator = alloca [8 x i8], align 4
  store i32 %0, ptr %iterator, align 4
  %4 = getelementptr inbounds i8, ptr %iterator, i64 4
  store i32 %1, ptr %4, align 4
    #dbg_declare(ptr %iterator, !870, !DIExpression(), !877)
    #dbg_declare(ptr %vector, !871, !DIExpression(), !878)
  store ptr @alloc_11d257f5ed6cc7fc38feaa801053bac6, ptr %pieces.dbg.spill, align 8, !dbg !879
    #dbg_declare(ptr %pieces.dbg.spill, !1039, !DIExpression(), !879)
    #dbg_declare(ptr %alloc.dbg.spill, !1041, !DIExpression(), !1049)
    #dbg_declare(ptr %alloc.dbg.spill1, !1058, !DIExpression(), !1066)
  store i8 1, ptr %_12, align 1, !dbg !1068
; invoke core::iter::range::<impl core::iter::traits::iterator::Iterator for core::ops::range::Range<A>>::size_hint
  invoke void @"_ZN4core4iter5range101_$LT$impl$u20$core..iter..traits..iterator..Iterator$u20$for$u20$core..ops..range..Range$LT$A$GT$$GT$9size_hint17hbf7455fe253fca91E"(ptr sret([24 x i8]) align 8 %_3, ptr align 4 %iterator)
          to label %bb1 unwind label %cleanup, !dbg !1069

bb8:                                              ; preds = %bb5, %cleanup
  %5 = load i8, ptr %_12, align 1, !dbg !1070
  %6 = trunc i8 %5 to i1, !dbg !1070
  br i1 %6, label %bb7, label %bb6, !dbg !1070

cleanup:                                          ; preds = %bb2, %bb3, %start
  %7 = landingpad { ptr, i32 }
          cleanup
  %8 = extractvalue { ptr, i32 } %7, 0
  %9 = extractvalue { ptr, i32 } %7, 1
  store ptr %8, ptr %3, align 8
  %10 = getelementptr inbounds i8, ptr %3, i64 8
  store i32 %9, ptr %10, align 8
  br label %bb8

bb1:                                              ; preds = %start
  %11 = getelementptr inbounds i8, ptr %_3, i64 8, !dbg !1069
  %_5 = load i64, ptr %11, align 8, !dbg !1069
  %12 = icmp eq i64 %_5, 1, !dbg !1071
  br i1 %12, label %bb3, label %bb2, !dbg !1071

bb3:                                              ; preds = %bb1
  %13 = getelementptr inbounds i8, ptr %_3, i64 8, !dbg !1072
  %14 = getelementptr inbounds i8, ptr %13, i64 8, !dbg !1072
  %upper = load i64, ptr %14, align 8, !dbg !1072
  store i64 %upper, ptr %upper.dbg.spill, align 8, !dbg !1072
    #dbg_declare(ptr %upper.dbg.spill, !873, !DIExpression(), !1073)
    #dbg_declare(ptr %upper.dbg.spill, !1056, !DIExpression(), !1074)
    #dbg_declare(ptr %upper.dbg.spill, !1048, !DIExpression(), !1075)
    #dbg_declare(ptr %upper.dbg.spill, !1065, !DIExpression(), !1076)
; invoke alloc::raw_vec::RawVecInner<A>::with_capacity_in
  %15 = invoke { i64, ptr } @"_ZN5alloc7raw_vec20RawVecInner$LT$A$GT$16with_capacity_in17ha2e49e9ad8404297E"(i64 %upper, i64 4, i64 4, ptr align 8 %2)
          to label %bb9 unwind label %cleanup, !dbg !1077

bb2:                                              ; preds = %bb1
  store ptr @alloc_11d257f5ed6cc7fc38feaa801053bac6, ptr %_8, align 8, !dbg !1078
  %16 = getelementptr inbounds i8, ptr %_8, i64 8, !dbg !1078
  store i64 1, ptr %16, align 8, !dbg !1078
  %17 = load ptr, ptr @0, align 8, !dbg !1078
  %18 = load i64, ptr getelementptr inbounds (i8, ptr @0, i64 8), align 8, !dbg !1078
  %19 = getelementptr inbounds i8, ptr %_8, i64 32, !dbg !1078
  store ptr %17, ptr %19, align 8, !dbg !1078
  %20 = getelementptr inbounds i8, ptr %19, i64 8, !dbg !1078
  store i64 %18, ptr %20, align 8, !dbg !1078
  %21 = getelementptr inbounds i8, ptr %_8, i64 16, !dbg !1078
  store ptr inttoptr (i64 8 to ptr), ptr %21, align 8, !dbg !1078
  %22 = getelementptr inbounds i8, ptr %21, i64 8, !dbg !1078
  store i64 0, ptr %22, align 8, !dbg !1078
; invoke core::panicking::panic_fmt
  invoke void @_ZN4core9panicking9panic_fmt17ha0b5c5252c2f1706E(ptr align 8 %_8, ptr align 8 %2) #14
          to label %unreachable unwind label %cleanup, !dbg !1040

bb9:                                              ; preds = %bb3
  %_16.0 = extractvalue { i64, ptr } %15, 0, !dbg !1077
  %_16.1 = extractvalue { i64, ptr } %15, 1, !dbg !1077
  store i64 %_16.0, ptr %vector, align 8, !dbg !1079
  %23 = getelementptr inbounds i8, ptr %vector, i64 8, !dbg !1079
  store ptr %_16.1, ptr %23, align 8, !dbg !1079
  %24 = getelementptr inbounds i8, ptr %vector, i64 16, !dbg !1079
  store i64 0, ptr %24, align 8, !dbg !1079
  store i8 0, ptr %_12, align 1, !dbg !1080
  %_11.0 = load i32, ptr %iterator, align 4, !dbg !1080
  %25 = getelementptr inbounds i8, ptr %iterator, i64 4, !dbg !1080
  %_11.1 = load i32, ptr %25, align 4, !dbg !1080
; invoke <alloc::vec::Vec<T,A> as alloc::vec::spec_extend::SpecExtend<T,I>>::spec_extend
  invoke void @"_ZN97_$LT$alloc..vec..Vec$LT$T$C$A$GT$$u20$as$u20$alloc..vec..spec_extend..SpecExtend$LT$T$C$I$GT$$GT$11spec_extend17h2b129ed05e17747eE"(ptr align 8 %vector, i32 %_11.0, i32 %_11.1, ptr align 8 %2)
          to label %bb4 unwind label %cleanup2, !dbg !1081

bb5:                                              ; preds = %cleanup2
; invoke core::ptr::drop_in_place<alloc::vec::Vec<i32>>
  invoke void @"_ZN4core3ptr47drop_in_place$LT$alloc..vec..Vec$LT$i32$GT$$GT$17hff8d523a476e2ee3E"(ptr align 8 %vector) #15
          to label %bb8 unwind label %terminate, !dbg !1070

cleanup2:                                         ; preds = %bb9
  %26 = landingpad { ptr, i32 }
          cleanup
  %27 = extractvalue { ptr, i32 } %26, 0
  %28 = extractvalue { ptr, i32 } %26, 1
  store ptr %27, ptr %3, align 8
  %29 = getelementptr inbounds i8, ptr %3, i64 8
  store i32 %28, ptr %29, align 8
  br label %bb5

bb4:                                              ; preds = %bb9
  call void @llvm.memcpy.p0.p0.i64(ptr align 8 %_0, ptr align 8 %vector, i64 24, i1 false), !dbg !1082
  ret void, !dbg !1083

terminate:                                        ; preds = %bb5
  %30 = landingpad { ptr, i32 }
          filter [0 x ptr] zeroinitializer
  %31 = extractvalue { ptr, i32 } %30, 0
  %32 = extractvalue { ptr, i32 } %30, 1
; call core::panicking::panic_in_cleanup
  call void @_ZN4core9panicking16panic_in_cleanup17h7339610fb5fc966cE() #16, !dbg !1084
  unreachable, !dbg !1084

unreachable:                                      ; preds = %bb2
  unreachable

bb10:                                             ; No predecessors!
  unreachable, !dbg !1084

bb6:                                              ; preds = %bb7, %bb8
  %33 = load ptr, ptr %3, align 8, !dbg !1084
  %34 = getelementptr inbounds i8, ptr %3, i64 8, !dbg !1084
  %35 = load i32, ptr %34, align 8, !dbg !1084
  %36 = insertvalue { ptr, i32 } poison, ptr %33, 0, !dbg !1084
  %37 = insertvalue { ptr, i32 } %36, i32 %35, 1, !dbg !1084
  resume { ptr, i32 } %37, !dbg !1084

bb7:                                              ; preds = %bb8
  br label %bb6, !dbg !1070
}

; <core::ops::range::RangeInclusive<usize> as core::slice::index::SliceIndex<[T]>>::index
; Function Attrs: inlinehint uwtable
define { ptr, i64 } @"_ZN115_$LT$core..ops..range..RangeInclusive$LT$usize$GT$$u20$as$u20$core..slice..index..SliceIndex$LT$$u5b$T$u5d$$GT$$GT$5index17h3fd8cbf615145278E"(ptr align 8 %self, ptr align 4 %slice.0, i64 %slice.1, ptr align 8 %0) unnamed_addr #1 !dbg !1085 {
start:
  %new_len.dbg.spill.i = alloca [8 x i8], align 8
  %rhs.dbg.spill.i = alloca [8 x i8], align 8
  %self.dbg.spill1.i = alloca [8 x i8], align 8
  %slice.dbg.spill.i = alloca [16 x i8], align 8
  %self.dbg.spill.i = alloca [16 x i8], align 8
  %_5.i = alloca [16 x i8], align 8
  %exclusive_end.dbg.spill = alloca [8 x i8], align 8
  %self.dbg.spill7 = alloca [1 x i8], align 1
  %self.dbg.spill5 = alloca [8 x i8], align 8
  %self.dbg.spill3 = alloca [8 x i8], align 8
  %self.dbg.spill = alloca [8 x i8], align 8
  %slice.dbg.spill = alloca [16 x i8], align 8
  %start1 = alloca [8 x i8], align 8
    #dbg_declare(ptr %self, !1102, !DIExpression(), !1104)
  store ptr %slice.0, ptr %slice.dbg.spill, align 8
  %1 = getelementptr inbounds i8, ptr %slice.dbg.spill, i64 8
  store i64 %slice.1, ptr %1, align 8
    #dbg_declare(ptr %slice.dbg.spill, !1103, !DIExpression(), !1105)
    #dbg_declare(ptr %start1, !1106, !DIExpression(), !1121)
  store ptr %self, ptr %self.dbg.spill, align 8, !dbg !1123
    #dbg_declare(ptr %self.dbg.spill, !1124, !DIExpression(), !1131)
  %2 = getelementptr inbounds i8, ptr %self, i64 8, !dbg !1133
  %self2 = load i64, ptr %2, align 8, !dbg !1133
  store i64 %self2, ptr %self.dbg.spill3, align 8, !dbg !1133
    #dbg_declare(ptr %self.dbg.spill3, !1119, !DIExpression(DW_OP_LLVM_fragment, 64, 64), !1134)
  %_3 = icmp eq i64 %self2, -1, !dbg !1133
  br i1 %_3, label %bb1, label %bb2, !dbg !1133

bb2:                                              ; preds = %start
  %self4 = load i64, ptr %self, align 8, !dbg !1135
  store i64 %self4, ptr %self.dbg.spill5, align 8, !dbg !1135
    #dbg_declare(ptr %self.dbg.spill5, !1119, !DIExpression(DW_OP_LLVM_fragment, 0, 64), !1134)
  %3 = getelementptr inbounds i8, ptr %self, i64 16, !dbg !1135
  %4 = load i8, ptr %3, align 8, !dbg !1135
  %self6 = trunc i8 %4 to i1, !dbg !1135
  %5 = zext i1 %self6 to i8, !dbg !1135
  store i8 %5, ptr %self.dbg.spill7, align 1, !dbg !1135
    #dbg_declare(ptr %self.dbg.spill7, !1119, !DIExpression(DW_OP_LLVM_fragment, 128, 8), !1134)
  %exclusive_end = add i64 %self2, 1, !dbg !1136
  store i64 %exclusive_end, ptr %exclusive_end.dbg.spill, align 8, !dbg !1136
    #dbg_declare(ptr %exclusive_end.dbg.spill, !1120, !DIExpression(), !1137)
  br i1 %self6, label %bb4, label %bb5, !dbg !1138

bb1:                                              ; preds = %start
; call core::slice::index::slice_end_index_overflow_fail
  call void @_ZN4core5slice5index29slice_end_index_overflow_fail17hb914b077ac1f2057E(ptr align 8 %0) #14, !dbg !1139
  unreachable, !dbg !1139

bb5:                                              ; preds = %bb2
  store i64 %self4, ptr %start1, align 8, !dbg !1140
  br label %bb6, !dbg !1141

bb4:                                              ; preds = %bb2
  store i64 %exclusive_end, ptr %start1, align 8, !dbg !1142
  br label %bb6, !dbg !1141

bb6:                                              ; preds = %bb4, %bb5
  %_10 = load i64, ptr %start1, align 8, !dbg !1143
  store i64 %_10, ptr %self.dbg.spill.i, align 8
  %6 = getelementptr inbounds i8, ptr %self.dbg.spill.i, i64 8
  store i64 %exclusive_end, ptr %6, align 8
    #dbg_declare(ptr %self.dbg.spill.i, !1144, !DIExpression(), !1153)
  store ptr %slice.0, ptr %slice.dbg.spill.i, align 8
  %7 = getelementptr inbounds i8, ptr %slice.dbg.spill.i, i64 8
  store i64 %slice.1, ptr %7, align 8
    #dbg_declare(ptr %slice.dbg.spill.i, !1150, !DIExpression(), !1155)
    #dbg_declare(ptr %slice.dbg.spill.i, !1156, !DIExpression(), !1167)
    #dbg_declare(ptr %slice.dbg.spill.i, !1169, !DIExpression(), !1175)
  store i64 %exclusive_end, ptr %self.dbg.spill1.i, align 8, !dbg !1177
    #dbg_declare(ptr %self.dbg.spill1.i, !1178, !DIExpression(), !1185)
  store i64 %_10, ptr %rhs.dbg.spill.i, align 8, !dbg !1187
    #dbg_declare(ptr %rhs.dbg.spill.i, !1184, !DIExpression(), !1188)
    #dbg_declare(ptr %rhs.dbg.spill.i, !1165, !DIExpression(), !1189)
  %_13.i = icmp ult i64 %exclusive_end, %_10, !dbg !1190
  br i1 %_13.i, label %bb3.i, label %bb4.i, !dbg !1190

bb4.i:                                            ; preds = %bb6
  %_14.i = sub nuw i64 %exclusive_end, %_10, !dbg !1191
  %8 = getelementptr inbounds i8, ptr %_5.i, i64 8, !dbg !1192
  store i64 %_14.i, ptr %8, align 8, !dbg !1192
  store i64 1, ptr %_5.i, align 8, !dbg !1192
  %9 = getelementptr inbounds i8, ptr %_5.i, i64 8, !dbg !1193
  %new_len.i = load i64, ptr %9, align 8, !dbg !1193
  store i64 %new_len.i, ptr %new_len.dbg.spill.i, align 8, !dbg !1193
    #dbg_declare(ptr %new_len.dbg.spill.i, !1151, !DIExpression(), !1194)
    #dbg_declare(ptr %new_len.dbg.spill.i, !1166, !DIExpression(), !1195)
  %_8.i = icmp ugt i64 %exclusive_end, %slice.1, !dbg !1196
  br i1 %_8.i, label %bb1.i, label %"_ZN106_$LT$core..ops..range..Range$LT$usize$GT$$u20$as$u20$core..slice..index..SliceIndex$LT$$u5b$T$u5d$$GT$$GT$5index17hca123f992baeae6bE.exit", !dbg !1196

bb3.i:                                            ; preds = %bb6
; call core::slice::index::slice_index_order_fail
  call void @_ZN4core5slice5index22slice_index_order_fail17h3310f1abc637cf13E(i64 %_10, i64 %exclusive_end, ptr align 8 %0) #14, !dbg !1197
  unreachable, !dbg !1197

bb1.i:                                            ; preds = %bb4.i
; call core::slice::index::slice_end_index_len_fail
  call void @_ZN4core5slice5index24slice_end_index_len_fail17h0189a5e61950f867E(i64 %exclusive_end, i64 %slice.1, ptr align 8 %0) #14, !dbg !1198
  unreachable, !dbg !1198

"_ZN106_$LT$core..ops..range..Range$LT$usize$GT$$u20$as$u20$core..slice..index..SliceIndex$LT$$u5b$T$u5d$$GT$$GT$5index17hca123f992baeae6bE.exit": ; preds = %bb4.i
  %_15.i = getelementptr inbounds i32, ptr %slice.0, i64 %_10, !dbg !1199
  %10 = insertvalue { ptr, i64 } poison, ptr %_15.i, 0, !dbg !1200
  %11 = insertvalue { ptr, i64 } %10, i64 %new_len.i, 1, !dbg !1200
  %_0.0 = extractvalue { ptr, i64 } %11, 0, !dbg !1135
  %_0.1 = extractvalue { ptr, i64 } %11, 1, !dbg !1135
  %12 = insertvalue { ptr, i64 } poison, ptr %_0.0, 0, !dbg !1201
  %13 = insertvalue { ptr, i64 } %12, i64 %_0.1, 1, !dbg !1201
  ret { ptr, i64 } %13, !dbg !1201
}

; <i32 as core::iter::range::Step>::steps_between
; Function Attrs: inlinehint uwtable
define internal void @"_ZN47_$LT$i32$u20$as$u20$core..iter..range..Step$GT$13steps_between17hbf485c9283fc8c63E"(ptr sret([24 x i8]) align 8 %_0, ptr align 4 %start1, ptr align 4 %end) unnamed_addr #1 !dbg !1202 {
start:
  %steps.dbg.spill = alloca [8 x i8], align 8
  %rhs.dbg.spill = alloca [8 x i8], align 8
  %self.dbg.spill = alloca [8 x i8], align 8
  %end.dbg.spill = alloca [8 x i8], align 8
  %start.dbg.spill = alloca [8 x i8], align 8
  %_12 = alloca [16 x i8], align 8
  store ptr %start1, ptr %start.dbg.spill, align 8
    #dbg_declare(ptr %start.dbg.spill, !1214, !DIExpression(), !1218)
  store ptr %end, ptr %end.dbg.spill, align 8
    #dbg_declare(ptr %end.dbg.spill, !1215, !DIExpression(), !1219)
  %_4 = load i32, ptr %start1, align 4, !dbg !1220
  %_5 = load i32, ptr %end, align 4, !dbg !1221
  %_3 = icmp sle i32 %_4, %_5, !dbg !1220
  br i1 %_3, label %bb1, label %bb2, !dbg !1220

bb2:                                              ; preds = %start
  store i64 0, ptr %_0, align 8, !dbg !1222
  %0 = load i64, ptr @0, align 8, !dbg !1222
  %1 = load i64, ptr getelementptr inbounds (i8, ptr @0, i64 8), align 8, !dbg !1222
  %2 = getelementptr inbounds i8, ptr %_0, i64 8, !dbg !1222
  store i64 %0, ptr %2, align 8, !dbg !1222
  %3 = getelementptr inbounds i8, ptr %2, i64 8, !dbg !1222
  store i64 %1, ptr %3, align 8, !dbg !1222
  br label %bb3, !dbg !1223

bb1:                                              ; preds = %start
  %_9 = load i32, ptr %end, align 4, !dbg !1224
  %self = sext i32 %_9 to i64, !dbg !1225
  store i64 %self, ptr %self.dbg.spill, align 8, !dbg !1225
    #dbg_declare(ptr %self.dbg.spill, !1226, !DIExpression(), !1235)
  %_11 = load i32, ptr %start1, align 4, !dbg !1237
  %rhs = sext i32 %_11 to i64, !dbg !1237
  store i64 %rhs, ptr %rhs.dbg.spill, align 8, !dbg !1237
    #dbg_declare(ptr %rhs.dbg.spill, !1234, !DIExpression(), !1238)
  %_7 = sub i64 %self, %rhs, !dbg !1239
  store i64 %_7, ptr %steps.dbg.spill, align 8, !dbg !1225
    #dbg_declare(ptr %steps.dbg.spill, !1216, !DIExpression(), !1240)
  %4 = getelementptr inbounds i8, ptr %_12, i64 8, !dbg !1241
  store i64 %_7, ptr %4, align 8, !dbg !1241
  store i64 1, ptr %_12, align 8, !dbg !1241
  store i64 %_7, ptr %_0, align 8, !dbg !1242
  %5 = load i64, ptr %_12, align 8, !dbg !1242
  %6 = getelementptr inbounds i8, ptr %_12, i64 8, !dbg !1242
  %7 = load i64, ptr %6, align 8, !dbg !1242
  %8 = getelementptr inbounds i8, ptr %_0, i64 8, !dbg !1242
  store i64 %5, ptr %8, align 8, !dbg !1242
  %9 = getelementptr inbounds i8, ptr %8, i64 8, !dbg !1242
  store i64 %7, ptr %9, align 8, !dbg !1242
  br label %bb3, !dbg !1223

bb3:                                              ; preds = %bb1, %bb2
  ret void, !dbg !1243
}

; <i32 as core::iter::range::Step>::forward_unchecked
; Function Attrs: inlinehint uwtable
define internal i32 @"_ZN47_$LT$i32$u20$as$u20$core..iter..range..Step$GT$17forward_unchecked17h9521ce2407e79047E"(i32 %start1, i64 %n) unnamed_addr #1 !dbg !1244 {
start:
  %val.dbg.spill = alloca [4 x i8], align 4
  %b.dbg.spill = alloca [1 x i8], align 1
  %a.dbg.spill = alloca [4 x i8], align 4
  %rhs.dbg.spill = alloca [4 x i8], align 4
  %n.dbg.spill = alloca [8 x i8], align 8
  %start.dbg.spill = alloca [4 x i8], align 4
  %self = alloca [8 x i8], align 4
  store i32 %start1, ptr %start.dbg.spill, align 4
    #dbg_declare(ptr %start.dbg.spill, !1248, !DIExpression(), !1250)
    #dbg_declare(ptr %start.dbg.spill, !1251, !DIExpression(), !1272)
    #dbg_declare(ptr %start.dbg.spill, !1274, !DIExpression(), !1284)
  store i64 %n, ptr %n.dbg.spill, align 8
    #dbg_declare(ptr %n.dbg.spill, !1249, !DIExpression(), !1286)
    #dbg_declare(ptr %self, !1287, !DIExpression(), !1295)
  %rhs = trunc i64 %n to i32, !dbg !1297
  store i32 %rhs, ptr %rhs.dbg.spill, align 4, !dbg !1297
    #dbg_declare(ptr %rhs.dbg.spill, !1268, !DIExpression(), !1298)
    #dbg_declare(ptr %rhs.dbg.spill, !1283, !DIExpression(), !1299)
  %0 = call { i32, i1 } @llvm.sadd.with.overflow.i32(i32 %start1, i32 %rhs), !dbg !1300
  %_10.0 = extractvalue { i32, i1 } %0, 0, !dbg !1300
  %_10.1 = extractvalue { i32, i1 } %0, 1, !dbg !1300
  store i32 %_10.0, ptr %a.dbg.spill, align 4, !dbg !1305
    #dbg_declare(ptr %a.dbg.spill, !1269, !DIExpression(), !1306)
  %_7 = icmp slt i32 %rhs, 0, !dbg !1307
  %b = xor i1 %_10.1, %_7, !dbg !1308
  %1 = zext i1 %b to i8, !dbg !1308
  store i8 %1, ptr %b.dbg.spill, align 1, !dbg !1308
    #dbg_declare(ptr %b.dbg.spill, !1271, !DIExpression(), !1309)
    #dbg_declare(ptr %b.dbg.spill, !1310, !DIExpression(), !1317)
  br i1 %b, label %bb1, label %bb3, !dbg !1319

bb3:                                              ; preds = %start
  %2 = getelementptr inbounds i8, ptr %self, i64 4, !dbg !1320
  store i32 %_10.0, ptr %2, align 4, !dbg !1320
  store i32 1, ptr %self, align 4, !dbg !1320
  %3 = getelementptr inbounds i8, ptr %self, i64 4, !dbg !1321
  %val = load i32, ptr %3, align 4, !dbg !1321
  store i32 %val, ptr %val.dbg.spill, align 4, !dbg !1321
    #dbg_declare(ptr %val.dbg.spill, !1293, !DIExpression(), !1322)
  ret i32 %val, !dbg !1323

bb1:                                              ; preds = %start
  %4 = load i32, ptr @1, align 4, !dbg !1324
  %5 = load i32, ptr getelementptr inbounds (i8, ptr @1, i64 4), align 4, !dbg !1324
  store i32 %4, ptr %self, align 4, !dbg !1324
  %6 = getelementptr inbounds i8, ptr %self, i64 4, !dbg !1324
  store i32 %5, ptr %6, align 4, !dbg !1324
; call core::hint::unreachable_unchecked::precondition_check
  call void @_ZN4core4hint21unreachable_unchecked18precondition_check17h3684e739dc015c14E() #17, !dbg !1325
  unreachable, !dbg !1334
}

; core::intrinsics::cold_path
; Function Attrs: cold nounwind uwtable
define internal void @_ZN4core10intrinsics9cold_path17hd6b3252077833e99E() unnamed_addr #2 !dbg !1336 {
start:
  ret void, !dbg !1337
}

; core::mem::size_of_val
; Function Attrs: inlinehint uwtable
define i64 @_ZN4core3mem11size_of_val17hb178677f302822a8E(ptr align 4 %val.0, i64 %val.1) unnamed_addr #1 !dbg !1338 {
start:
  %0 = alloca [8 x i8], align 8
  %val.dbg.spill = alloca [16 x i8], align 8
  store ptr %val.0, ptr %val.dbg.spill, align 8
  %1 = getelementptr inbounds i8, ptr %val.dbg.spill, i64 8
  store i64 %val.1, ptr %1, align 8
    #dbg_declare(ptr %val.dbg.spill, !1344, !DIExpression(), !1345)
  %2 = mul nsw i64 %val.1, 4, !dbg !1346
  store i64 %2, ptr %0, align 8, !dbg !1346
  %_0 = load i64, ptr %0, align 8, !dbg !1346
  ret i64 %_0, !dbg !1347
}

; core::num::<impl u32>::checked_add
; Function Attrs: inlinehint uwtable
define internal { i32, i32 } @"_ZN4core3num21_$LT$impl$u20$u32$GT$11checked_add17h8b89684b360ded0dE"(i32 %self, i32 %rhs) unnamed_addr #1 !dbg !1348 {
start:
  %b.dbg.spill = alloca [1 x i8], align 1
  %rhs.dbg.spill = alloca [4 x i8], align 4
  %self.dbg.spill = alloca [4 x i8], align 4
  %_0 = alloca [8 x i8], align 4
  store i32 %self, ptr %self.dbg.spill, align 4
    #dbg_declare(ptr %self.dbg.spill, !1363, !DIExpression(), !1365)
  store i32 %rhs, ptr %rhs.dbg.spill, align 4
    #dbg_declare(ptr %rhs.dbg.spill, !1364, !DIExpression(), !1366)
  %0 = call { i32, i1 } @llvm.uadd.with.overflow.i32(i32 %self, i32 %rhs), !dbg !1367
  %_4.0 = extractvalue { i32, i1 } %0, 0, !dbg !1367
  %_4.1 = extractvalue { i32, i1 } %0, 1, !dbg !1367
  %1 = zext i1 %_4.1 to i8, !dbg !1367
  store i8 %1, ptr %b.dbg.spill, align 1, !dbg !1367
    #dbg_declare(ptr %b.dbg.spill, !1368, !DIExpression(), !1371)
  br i1 %_4.1, label %bb2, label %bb4, !dbg !1373

bb4:                                              ; preds = %start
  %_5 = add nuw i32 %self, %rhs, !dbg !1374
  %2 = getelementptr inbounds i8, ptr %_0, i64 4, !dbg !1375
  store i32 %_5, ptr %2, align 4, !dbg !1375
  store i32 1, ptr %_0, align 4, !dbg !1375
  br label %bb1, !dbg !1376

bb2:                                              ; preds = %start
  %3 = load i32, ptr @1, align 4, !dbg !1377
  %4 = load i32, ptr getelementptr inbounds (i8, ptr @1, i64 4), align 4, !dbg !1377
  store i32 %3, ptr %_0, align 4, !dbg !1377
  %5 = getelementptr inbounds i8, ptr %_0, i64 4, !dbg !1377
  store i32 %4, ptr %5, align 4, !dbg !1377
  br label %bb1, !dbg !1376

bb1:                                              ; preds = %bb2, %bb4
  %6 = load i32, ptr %_0, align 4, !dbg !1378
  %7 = getelementptr inbounds i8, ptr %_0, i64 4, !dbg !1378
  %8 = load i32, ptr %7, align 4, !dbg !1378
  %9 = insertvalue { i32, i32 } poison, i32 %6, 0, !dbg !1378
  %10 = insertvalue { i32, i32 } %9, i32 %8, 1, !dbg !1378
  ret { i32, i32 } %10, !dbg !1378
}

; core::num::<impl u64>::checked_add
; Function Attrs: inlinehint uwtable
define internal { i64, i64 } @"_ZN4core3num21_$LT$impl$u20$u64$GT$11checked_add17hb86b7a41b580d8e2E"(i64 %self, i64 %rhs) unnamed_addr #1 !dbg !1379 {
start:
  %b.dbg.spill = alloca [1 x i8], align 1
  %rhs.dbg.spill = alloca [8 x i8], align 8
  %self.dbg.spill = alloca [8 x i8], align 8
  %_0 = alloca [16 x i8], align 8
  store i64 %self, ptr %self.dbg.spill, align 8
    #dbg_declare(ptr %self.dbg.spill, !1395, !DIExpression(), !1397)
  store i64 %rhs, ptr %rhs.dbg.spill, align 8
    #dbg_declare(ptr %rhs.dbg.spill, !1396, !DIExpression(), !1398)
  %0 = call { i64, i1 } @llvm.uadd.with.overflow.i64(i64 %self, i64 %rhs), !dbg !1399
  %_4.0 = extractvalue { i64, i1 } %0, 0, !dbg !1399
  %_4.1 = extractvalue { i64, i1 } %0, 1, !dbg !1399
  %1 = zext i1 %_4.1 to i8, !dbg !1399
  store i8 %1, ptr %b.dbg.spill, align 1, !dbg !1399
    #dbg_declare(ptr %b.dbg.spill, !1400, !DIExpression(), !1403)
  br i1 %_4.1, label %bb2, label %bb4, !dbg !1405

bb4:                                              ; preds = %start
  %_5 = add nuw i64 %self, %rhs, !dbg !1406
  %2 = getelementptr inbounds i8, ptr %_0, i64 8, !dbg !1407
  store i64 %_5, ptr %2, align 8, !dbg !1407
  store i64 1, ptr %_0, align 8, !dbg !1407
  br label %bb1, !dbg !1408

bb2:                                              ; preds = %start
  %3 = load i64, ptr @0, align 8, !dbg !1409
  %4 = load i64, ptr getelementptr inbounds (i8, ptr @0, i64 8), align 8, !dbg !1409
  store i64 %3, ptr %_0, align 8, !dbg !1409
  %5 = getelementptr inbounds i8, ptr %_0, i64 8, !dbg !1409
  store i64 %4, ptr %5, align 8, !dbg !1409
  br label %bb1, !dbg !1408

bb1:                                              ; preds = %bb2, %bb4
  %6 = load i64, ptr %_0, align 8, !dbg !1410
  %7 = getelementptr inbounds i8, ptr %_0, i64 8, !dbg !1410
  %8 = load i64, ptr %7, align 8, !dbg !1410
  %9 = insertvalue { i64, i64 } poison, i64 %6, 0, !dbg !1410
  %10 = insertvalue { i64, i64 } %9, i64 %8, 1, !dbg !1410
  ret { i64, i64 } %10, !dbg !1410
}

; core::ops::range::RangeInclusive<Idx>::new
; Function Attrs: inlinehint uwtable
define void @"_ZN4core3ops5range25RangeInclusive$LT$Idx$GT$3new17h33f417fc8905bda0E"(ptr sret([24 x i8]) align 8 %_0, i64 %start1, i64 %end) unnamed_addr #1 !dbg !1411 {
start:
  %end.dbg.spill = alloca [8 x i8], align 8
  %start.dbg.spill = alloca [8 x i8], align 8
  store i64 %start1, ptr %start.dbg.spill, align 8
    #dbg_declare(ptr %start.dbg.spill, !1416, !DIExpression(), !1418)
  store i64 %end, ptr %end.dbg.spill, align 8
    #dbg_declare(ptr %end.dbg.spill, !1417, !DIExpression(), !1419)
  store i64 %start1, ptr %_0, align 8, !dbg !1420
  %0 = getelementptr inbounds i8, ptr %_0, i64 8, !dbg !1420
  store i64 %end, ptr %0, align 8, !dbg !1420
  %1 = getelementptr inbounds i8, ptr %_0, i64 16, !dbg !1420
  store i8 0, ptr %1, align 8, !dbg !1420
  ret void, !dbg !1421
}

; core::ptr::drop_in_place<alloc::vec::Vec<i32>::extend_trusted<core::ops::range::Range<i32>>::{{closure}}>
; Function Attrs: uwtable
define void @"_ZN4core3ptr134drop_in_place$LT$alloc..vec..Vec$LT$i32$GT$..extend_trusted$LT$core..ops..range..Range$LT$i32$GT$$GT$..$u7b$$u7b$closure$u7d$$u7d$$GT$17ha7b3a76dd8255dabE"(ptr align 8 %_1) unnamed_addr #0 !dbg !1422 {
start:
  %_1.dbg.spill = alloca [8 x i8], align 8
  store ptr %_1, ptr %_1.dbg.spill, align 8
    #dbg_declare(ptr %_1.dbg.spill, !1441, !DIExpression(), !1444)
; call core::ptr::drop_in_place<alloc::vec::set_len_on_drop::SetLenOnDrop>
  call void @"_ZN4core3ptr62drop_in_place$LT$alloc..vec..set_len_on_drop..SetLenOnDrop$GT$17hc358867ab8020e25E"(ptr align 8 %_1), !dbg !1444
  ret void, !dbg !1444
}

; core::ptr::drop_in_place<core::iter::traits::iterator::Iterator::for_each::call<i32,alloc::vec::Vec<i32>::extend_trusted<core::ops::range::Range<i32>>::{{closure}}>::{{closure}}>
; Function Attrs: uwtable
define void @"_ZN4core3ptr231drop_in_place$LT$core..iter..traits..iterator..Iterator..for_each..call$LT$i32$C$alloc..vec..Vec$LT$i32$GT$..extend_trusted$LT$core..ops..range..Range$LT$i32$GT$$GT$..$u7b$$u7b$closure$u7d$$u7d$$GT$..$u7b$$u7b$closure$u7d$$u7d$$GT$17hd24074a9aeb84800E"(ptr align 8 %_1) unnamed_addr #0 !dbg !1445 {
start:
  %_1.dbg.spill = alloca [8 x i8], align 8
  store ptr %_1, ptr %_1.dbg.spill, align 8
    #dbg_declare(ptr %_1.dbg.spill, !1458, !DIExpression(), !1461)
; call core::ptr::drop_in_place<alloc::vec::Vec<i32>::extend_trusted<core::ops::range::Range<i32>>::{{closure}}>
  call void @"_ZN4core3ptr134drop_in_place$LT$alloc..vec..Vec$LT$i32$GT$..extend_trusted$LT$core..ops..range..Range$LT$i32$GT$$GT$..$u7b$$u7b$closure$u7d$$u7d$$GT$17ha7b3a76dd8255dabE"(ptr align 8 %_1), !dbg !1461
  ret void, !dbg !1461
}

; core::ptr::drop_in_place<alloc::vec::Vec<i32>>
; Function Attrs: uwtable
define void @"_ZN4core3ptr47drop_in_place$LT$alloc..vec..Vec$LT$i32$GT$$GT$17hff8d523a476e2ee3E"(ptr align 8 %_1) unnamed_addr #0 personality ptr @rust_eh_personality !dbg !1462 {
start:
  %0 = alloca [16 x i8], align 8
  %_1.dbg.spill = alloca [8 x i8], align 8
  store ptr %_1, ptr %_1.dbg.spill, align 8
    #dbg_declare(ptr %_1.dbg.spill, !1467, !DIExpression(), !1470)
; invoke <alloc::vec::Vec<T,A> as core::ops::drop::Drop>::drop
  invoke void @"_ZN70_$LT$alloc..vec..Vec$LT$T$C$A$GT$$u20$as$u20$core..ops..drop..Drop$GT$4drop17h1a8d59109d11c4ddE"(ptr align 8 %_1)
          to label %bb4 unwind label %cleanup, !dbg !1470

bb3:                                              ; preds = %cleanup
; invoke core::ptr::drop_in_place<alloc::raw_vec::RawVec<i32>>
  invoke void @"_ZN4core3ptr54drop_in_place$LT$alloc..raw_vec..RawVec$LT$i32$GT$$GT$17he97467b72e9e862bE"(ptr align 8 %_1) #15
          to label %bb1 unwind label %terminate, !dbg !1470

cleanup:                                          ; preds = %start
  %1 = landingpad { ptr, i32 }
          cleanup
  %2 = extractvalue { ptr, i32 } %1, 0
  %3 = extractvalue { ptr, i32 } %1, 1
  store ptr %2, ptr %0, align 8
  %4 = getelementptr inbounds i8, ptr %0, i64 8
  store i32 %3, ptr %4, align 8
  br label %bb3

bb4:                                              ; preds = %start
; call core::ptr::drop_in_place<alloc::raw_vec::RawVec<i32>>
  call void @"_ZN4core3ptr54drop_in_place$LT$alloc..raw_vec..RawVec$LT$i32$GT$$GT$17he97467b72e9e862bE"(ptr align 8 %_1), !dbg !1470
  ret void, !dbg !1470

terminate:                                        ; preds = %bb3
  %5 = landingpad { ptr, i32 }
          filter [0 x ptr] zeroinitializer
  %6 = extractvalue { ptr, i32 } %5, 0
  %7 = extractvalue { ptr, i32 } %5, 1
; call core::panicking::panic_in_cleanup
  call void @_ZN4core9panicking16panic_in_cleanup17h7339610fb5fc966cE() #16, !dbg !1470
  unreachable, !dbg !1470

bb1:                                              ; preds = %bb3
  %8 = load ptr, ptr %0, align 8, !dbg !1470
  %9 = getelementptr inbounds i8, ptr %0, i64 8, !dbg !1470
  %10 = load i32, ptr %9, align 8, !dbg !1470
  %11 = insertvalue { ptr, i32 } poison, ptr %8, 0, !dbg !1470
  %12 = insertvalue { ptr, i32 } %11, i32 %10, 1, !dbg !1470
  resume { ptr, i32 } %12, !dbg !1470
}

; core::ptr::drop_in_place<rand::distr::uniform::Error>
; Function Attrs: inlinehint uwtable
define internal void @"_ZN4core3ptr48drop_in_place$LT$rand..distr..uniform..Error$GT$17h99f27e7e3795f5beE"(ptr align 1 %_1) unnamed_addr #1 !dbg !1471 {
start:
  %_1.dbg.spill = alloca [8 x i8], align 8
  store ptr %_1, ptr %_1.dbg.spill, align 8
    #dbg_declare(ptr %_1.dbg.spill, !1476, !DIExpression(), !1479)
  ret void, !dbg !1479
}

; core::ptr::drop_in_place<rand::rngs::thread::ThreadRng>
; Function Attrs: uwtable
define void @"_ZN4core3ptr50drop_in_place$LT$rand..rngs..thread..ThreadRng$GT$17h8f7fadae46d69bddE"(ptr align 8 %_1) unnamed_addr #0 !dbg !1480 {
start:
  %_1.dbg.spill = alloca [8 x i8], align 8
  store ptr %_1, ptr %_1.dbg.spill, align 8
    #dbg_declare(ptr %_1.dbg.spill, !1485, !DIExpression(), !1488)
; call core::ptr::drop_in_place<alloc::rc::Rc<core::cell::UnsafeCell<rand::rngs::reseeding::ReseedingRng<rand_chacha::chacha::ChaCha12Core,rand_core::os::OsRng>>>>
  call void @"_ZN4core3ptr171drop_in_place$LT$alloc..rc..Rc$LT$core..cell..UnsafeCell$LT$rand..rngs..reseeding..ReseedingRng$LT$rand_chacha..chacha..ChaCha12Core$C$rand_core..os..OsRng$GT$$GT$$GT$$GT$17h776f3d4641319570E"(ptr align 8 %_1), !dbg !1488
  ret void, !dbg !1488
}

; core::ptr::drop_in_place<alloc::raw_vec::RawVec<i32>>
; Function Attrs: uwtable
define void @"_ZN4core3ptr54drop_in_place$LT$alloc..raw_vec..RawVec$LT$i32$GT$$GT$17he97467b72e9e862bE"(ptr align 8 %_1) unnamed_addr #0 !dbg !1489 {
start:
  %_1.dbg.spill = alloca [8 x i8], align 8
  store ptr %_1, ptr %_1.dbg.spill, align 8
    #dbg_declare(ptr %_1.dbg.spill, !1494, !DIExpression(), !1497)
; call <alloc::raw_vec::RawVec<T,A> as core::ops::drop::Drop>::drop
  call void @"_ZN77_$LT$alloc..raw_vec..RawVec$LT$T$C$A$GT$$u20$as$u20$core..ops..drop..Drop$GT$4drop17he9ef99e55bed1912E"(ptr align 8 %_1), !dbg !1497
  ret void, !dbg !1497
}

; core::ptr::drop_in_place<alloc::vec::set_len_on_drop::SetLenOnDrop>
; Function Attrs: uwtable
define void @"_ZN4core3ptr62drop_in_place$LT$alloc..vec..set_len_on_drop..SetLenOnDrop$GT$17hc358867ab8020e25E"(ptr align 8 %_1) unnamed_addr #0 !dbg !1498 {
start:
  %_1.dbg.spill = alloca [8 x i8], align 8
  store ptr %_1, ptr %_1.dbg.spill, align 8
    #dbg_declare(ptr %_1.dbg.spill, !1503, !DIExpression(), !1506)
; call <alloc::vec::set_len_on_drop::SetLenOnDrop as core::ops::drop::Drop>::drop
  call void @"_ZN83_$LT$alloc..vec..set_len_on_drop..SetLenOnDrop$u20$as$u20$core..ops..drop..Drop$GT$4drop17h9466639fa39497d9E"(ptr align 8 %_1), !dbg !1506
  ret void, !dbg !1506
}

; core::hint::assert_unchecked::precondition_check
; Function Attrs: inlinehint nounwind uwtable
define internal void @_ZN4core4hint16assert_unchecked18precondition_check17h0c8c6949fce235b5E(i1 zeroext %cond) unnamed_addr #3 !dbg !1507 {
start:
  %cond.dbg.spill = alloca [1 x i8], align 1
  %0 = zext i1 %cond to i8
  store i8 %0, ptr %cond.dbg.spill, align 1
    #dbg_declare(ptr %cond.dbg.spill, !1512, !DIExpression(), !1513)
  br i1 %cond, label %bb2, label %bb1, !dbg !1514

bb1:                                              ; preds = %start
; call core::panicking::panic_nounwind
  call void @_ZN4core9panicking14panic_nounwind17h072d1e65f18d6201E(ptr align 1 @alloc_ab14703751a9eb3585c49b2e55e9a9e5, i64 104) #18, !dbg !1516
  unreachable, !dbg !1516

bb2:                                              ; preds = %start
  ret void, !dbg !1517
}

; core::hint::unreachable_unchecked::precondition_check
; Function Attrs: inlinehint nounwind uwtable
define internal void @_ZN4core4hint21unreachable_unchecked18precondition_check17h3684e739dc015c14E() unnamed_addr #3 !dbg !1518 {
start:
; call core::panicking::panic_nounwind
  call void @_ZN4core9panicking14panic_nounwind17h072d1e65f18d6201E(ptr align 1 @alloc_1eb6f53a157dccb32488e066ad957e6d, i64 82) #18, !dbg !1520
  unreachable, !dbg !1520
}

; core::iter::range::<impl core::iter::traits::iterator::Iterator for core::ops::range::Range<A>>::next
; Function Attrs: inlinehint uwtable
define { i32, i32 } @"_ZN4core4iter5range101_$LT$impl$u20$core..iter..traits..iterator..Iterator$u20$for$u20$core..ops..range..Range$LT$A$GT$$GT$4next17h174156a1ec62a177E"(ptr align 4 %self) unnamed_addr #1 !dbg !1521 {
start:
  %self.dbg.spill = alloca [8 x i8], align 8
  store ptr %self, ptr %self.dbg.spill, align 8
    #dbg_declare(ptr %self.dbg.spill, !1527, !DIExpression(), !1530)
; call <core::ops::range::Range<T> as core::iter::range::RangeIteratorImpl>::spec_next
  %0 = call { i32, i32 } @"_ZN89_$LT$core..ops..range..Range$LT$T$GT$$u20$as$u20$core..iter..range..RangeIteratorImpl$GT$9spec_next17hf3551be47edfd81aE"(ptr align 4 %self), !dbg !1531
  %_0.0 = extractvalue { i32, i32 } %0, 0, !dbg !1531
  %_0.1 = extractvalue { i32, i32 } %0, 1, !dbg !1531
  %1 = insertvalue { i32, i32 } poison, i32 %_0.0, 0, !dbg !1532
  %2 = insertvalue { i32, i32 } %1, i32 %_0.1, 1, !dbg !1532
  ret { i32, i32 } %2, !dbg !1532
}

; core::iter::range::<impl core::iter::traits::iterator::Iterator for core::ops::range::Range<A>>::size_hint
; Function Attrs: inlinehint uwtable
define void @"_ZN4core4iter5range101_$LT$impl$u20$core..iter..traits..iterator..Iterator$u20$for$u20$core..ops..range..Range$LT$A$GT$$GT$9size_hint17hbf7455fe253fca91E"(ptr sret([24 x i8]) align 8 %_0, ptr align 4 %self) unnamed_addr #1 !dbg !1533 {
start:
  %other.dbg.spill.i = alloca [8 x i8], align 8
  %self.dbg.spill.i = alloca [8 x i8], align 8
  %self.dbg.spill = alloca [8 x i8], align 8
  store ptr %self, ptr %self.dbg.spill, align 8
    #dbg_declare(ptr %self.dbg.spill, !1538, !DIExpression(), !1539)
  %_4 = getelementptr inbounds i8, ptr %self, i64 4, !dbg !1540
  store ptr %self, ptr %self.dbg.spill.i, align 8
    #dbg_declare(ptr %self.dbg.spill.i, !1541, !DIExpression(), !1551)
  store ptr %_4, ptr %other.dbg.spill.i, align 8
    #dbg_declare(ptr %other.dbg.spill.i, !1550, !DIExpression(), !1553)
  %_3.i = load i32, ptr %self, align 4, !dbg !1554
  %_4.i = load i32, ptr %_4, align 4, !dbg !1555
  %_0.i = icmp slt i32 %_3.i, %_4.i, !dbg !1554
  br i1 %_0.i, label %bb2, label %bb3, !dbg !1556

bb3:                                              ; preds = %start
  store i64 0, ptr %_0, align 8, !dbg !1557
  %0 = load i64, ptr @2, align 8, !dbg !1557
  %1 = load i64, ptr getelementptr inbounds (i8, ptr @2, i64 8), align 8, !dbg !1557
  %2 = getelementptr inbounds i8, ptr %_0, i64 8, !dbg !1557
  store i64 %0, ptr %2, align 8, !dbg !1557
  %3 = getelementptr inbounds i8, ptr %2, i64 8, !dbg !1557
  store i64 %1, ptr %3, align 8, !dbg !1557
  br label %bb4, !dbg !1558

bb2:                                              ; preds = %start
  %_6 = getelementptr inbounds i8, ptr %self, i64 4, !dbg !1559
; call <i32 as core::iter::range::Step>::steps_between
  call void @"_ZN47_$LT$i32$u20$as$u20$core..iter..range..Step$GT$13steps_between17hbf485c9283fc8c63E"(ptr sret([24 x i8]) align 8 %_0, ptr align 4 %self, ptr align 4 %_6), !dbg !1560
  br label %bb4, !dbg !1560

bb4:                                              ; preds = %bb2, %bb3
  ret void, !dbg !1561
}

; core::iter::traits::iterator::Iterator::fold
; Function Attrs: inlinehint uwtable
define void @_ZN4core4iter6traits8iterator8Iterator4fold17hfbcb6725dc87632fE(i32 %0, i32 %1, ptr align 8 %f) unnamed_addr #1 personality ptr @rust_eh_personality !dbg !1562 {
start:
  %x.dbg.spill = alloca [4 x i8], align 4
  %2 = alloca [16 x i8], align 8
  %accum.dbg.spill = alloca [0 x i8], align 1
  %init.dbg.spill = alloca [0 x i8], align 1
  %_13 = alloca [1 x i8], align 1
  %_5 = alloca [8 x i8], align 4
  %self = alloca [8 x i8], align 4
  store i32 %0, ptr %self, align 4
  %3 = getelementptr inbounds i8, ptr %self, i64 4
  store i32 %1, ptr %3, align 4
    #dbg_declare(ptr %self, !1567, !DIExpression(), !1578)
    #dbg_declare(ptr %init.dbg.spill, !1568, !DIExpression(), !1579)
    #dbg_declare(ptr %f, !1569, !DIExpression(), !1580)
    #dbg_declare(ptr %accum.dbg.spill, !1570, !DIExpression(), !1581)
  store i8 1, ptr %_13, align 1, !dbg !1582
  br label %bb1, !dbg !1583

bb1:                                              ; preds = %bb4, %start
; invoke core::iter::range::<impl core::iter::traits::iterator::Iterator for core::ops::range::Range<A>>::next
  %4 = invoke { i32, i32 } @"_ZN4core4iter5range101_$LT$impl$u20$core..iter..traits..iterator..Iterator$u20$for$u20$core..ops..range..Range$LT$A$GT$$GT$4next17h174156a1ec62a177E"(ptr align 4 %self)
          to label %bb2 unwind label %cleanup, !dbg !1584

bb13:                                             ; preds = %cleanup
  %5 = load i8, ptr %_13, align 1, !dbg !1585
  %6 = trunc i8 %5 to i1, !dbg !1585
  br i1 %6, label %bb12, label %bb9, !dbg !1585

cleanup:                                          ; preds = %bb3, %bb1
  %7 = landingpad { ptr, i32 }
          cleanup
  %8 = extractvalue { ptr, i32 } %7, 0
  %9 = extractvalue { ptr, i32 } %7, 1
  store ptr %8, ptr %2, align 8
  %10 = getelementptr inbounds i8, ptr %2, i64 8
  store i32 %9, ptr %10, align 8
  br label %bb13

bb2:                                              ; preds = %bb1
  %11 = extractvalue { i32, i32 } %4, 0, !dbg !1584
  %12 = extractvalue { i32, i32 } %4, 1, !dbg !1584
  store i32 %11, ptr %_5, align 4, !dbg !1584
  %13 = getelementptr inbounds i8, ptr %_5, i64 4, !dbg !1584
  store i32 %12, ptr %13, align 4, !dbg !1584
  %14 = load i32, ptr %_5, align 4, !dbg !1584
  %_7 = zext i32 %14 to i64, !dbg !1584
  %15 = icmp eq i64 %_7, 1, !dbg !1586
  br i1 %15, label %bb3, label %bb5, !dbg !1586

bb3:                                              ; preds = %bb2
  %16 = getelementptr inbounds i8, ptr %_5, i64 4, !dbg !1587
  %x = load i32, ptr %16, align 4, !dbg !1587
  store i32 %x, ptr %x.dbg.spill, align 4, !dbg !1587
    #dbg_declare(ptr %x.dbg.spill, !1572, !DIExpression(), !1587)
  store i8 0, ptr %_13, align 1, !dbg !1588
; invoke core::iter::traits::iterator::Iterator::for_each::call::{{closure}}
  invoke void @"_ZN4core4iter6traits8iterator8Iterator8for_each4call28_$u7b$$u7b$closure$u7d$$u7d$17h36dcfd6203bf2759E"(ptr align 8 %f, i32 %x)
          to label %bb4 unwind label %cleanup, !dbg !1589

bb5:                                              ; preds = %bb2
  br label %bb6, !dbg !1590

bb4:                                              ; preds = %bb3
  store i8 1, ptr %_13, align 1, !dbg !1591
  br label %bb1, !dbg !1583

bb6:                                              ; preds = %bb5
; invoke core::ptr::drop_in_place<core::iter::traits::iterator::Iterator::for_each::call<i32,alloc::vec::Vec<i32>::extend_trusted<core::ops::range::Range<i32>>::{{closure}}>::{{closure}}>
  invoke void @"_ZN4core3ptr231drop_in_place$LT$core..iter..traits..iterator..Iterator..for_each..call$LT$i32$C$alloc..vec..Vec$LT$i32$GT$..extend_trusted$LT$core..ops..range..Range$LT$i32$GT$$GT$..$u7b$$u7b$closure$u7d$$u7d$$GT$..$u7b$$u7b$closure$u7d$$u7d$$GT$17hd24074a9aeb84800E"(ptr align 8 %f)
          to label %bb7 unwind label %cleanup1, !dbg !1585

bb10:                                             ; preds = %bb9, %cleanup1
  %17 = load ptr, ptr %2, align 8, !dbg !1592
  %18 = getelementptr inbounds i8, ptr %2, i64 8, !dbg !1592
  %19 = load i32, ptr %18, align 8, !dbg !1592
  %20 = insertvalue { ptr, i32 } poison, ptr %17, 0, !dbg !1592
  %21 = insertvalue { ptr, i32 } %20, i32 %19, 1, !dbg !1592
  resume { ptr, i32 } %21, !dbg !1592

cleanup1:                                         ; preds = %bb6
  %22 = landingpad { ptr, i32 }
          cleanup
  %23 = extractvalue { ptr, i32 } %22, 0
  %24 = extractvalue { ptr, i32 } %22, 1
  store ptr %23, ptr %2, align 8
  %25 = getelementptr inbounds i8, ptr %2, i64 8
  store i32 %24, ptr %25, align 8
  br label %bb10

bb7:                                              ; preds = %bb6
  ret void, !dbg !1593

bb14:                                             ; No predecessors!
  unreachable, !dbg !1592

bb9:                                              ; preds = %bb12, %bb13
; invoke core::ptr::drop_in_place<core::iter::traits::iterator::Iterator::for_each::call<i32,alloc::vec::Vec<i32>::extend_trusted<core::ops::range::Range<i32>>::{{closure}}>::{{closure}}>
  invoke void @"_ZN4core3ptr231drop_in_place$LT$core..iter..traits..iterator..Iterator..for_each..call$LT$i32$C$alloc..vec..Vec$LT$i32$GT$..extend_trusted$LT$core..ops..range..Range$LT$i32$GT$$GT$..$u7b$$u7b$closure$u7d$$u7d$$GT$..$u7b$$u7b$closure$u7d$$u7d$$GT$17hd24074a9aeb84800E"(ptr align 8 %f) #15
          to label %bb10 unwind label %terminate, !dbg !1585

bb12:                                             ; preds = %bb13
  br label %bb9, !dbg !1585

terminate:                                        ; preds = %bb9
  %26 = landingpad { ptr, i32 }
          filter [0 x ptr] zeroinitializer
  %27 = extractvalue { ptr, i32 } %26, 0
  %28 = extractvalue { ptr, i32 } %26, 1
; call core::panicking::panic_in_cleanup
  call void @_ZN4core9panicking16panic_in_cleanup17h7339610fb5fc966cE() #16, !dbg !1592
  unreachable, !dbg !1592
}

; core::iter::traits::iterator::Iterator::collect
; Function Attrs: inlinehint uwtable
define void @_ZN4core4iter6traits8iterator8Iterator7collect17h71ef0801cb46b51cE(ptr sret([24 x i8]) align 8 %_0, i32 %self.0, i32 %self.1) unnamed_addr #1 !dbg !1594 {
start:
  %self.dbg.spill = alloca [8 x i8], align 4
  store i32 %self.0, ptr %self.dbg.spill, align 4
  %0 = getelementptr inbounds i8, ptr %self.dbg.spill, i64 4
  store i32 %self.1, ptr %0, align 4
    #dbg_declare(ptr %self.dbg.spill, !1598, !DIExpression(), !1601)
; call <alloc::vec::Vec<T> as core::iter::traits::collect::FromIterator<T>>::from_iter
  call void @"_ZN95_$LT$alloc..vec..Vec$LT$T$GT$$u20$as$u20$core..iter..traits..collect..FromIterator$LT$T$GT$$GT$9from_iter17hc81d959b848ef56cE"(ptr sret([24 x i8]) align 8 %_0, i32 %self.0, i32 %self.1, ptr align 8 @alloc_ca96f6a372a20ad240fc8048bf4b5e42), !dbg !1602
  ret void, !dbg !1603
}

; core::iter::traits::iterator::Iterator::for_each
; Function Attrs: inlinehint uwtable
define void @_ZN4core4iter6traits8iterator8Iterator8for_each17hfde7f00c9f31ff7fE(i32 %self.0, i32 %self.1, ptr align 8 %f) unnamed_addr #1 !dbg !1604 {
start:
  %self.dbg.spill = alloca [8 x i8], align 4
  %_4 = alloca [24 x i8], align 8
  store i32 %self.0, ptr %self.dbg.spill, align 4
  %0 = getelementptr inbounds i8, ptr %self.dbg.spill, i64 4
  store i32 %self.1, ptr %0, align 4
    #dbg_declare(ptr %self.dbg.spill, !1608, !DIExpression(), !1612)
    #dbg_declare(ptr %f, !1609, !DIExpression(), !1613)
    #dbg_declare(ptr %f, !1614, !DIExpression(), !1621)
  call void @llvm.memcpy.p0.p0.i64(ptr align 8 %_4, ptr align 8 %f, i64 24, i1 false), !dbg !1623
; call core::iter::traits::iterator::Iterator::fold
  call void @_ZN4core4iter6traits8iterator8Iterator4fold17hfbcb6725dc87632fE(i32 %self.0, i32 %self.1, ptr align 8 %_4), !dbg !1624
  ret void, !dbg !1625
}

; core::iter::traits::iterator::Iterator::for_each::call::{{closure}}
; Function Attrs: inlinehint uwtable
define void @"_ZN4core4iter6traits8iterator8Iterator8for_each4call28_$u7b$$u7b$closure$u7d$$u7d$17h36dcfd6203bf2759E"(ptr align 8 %_1, i32 %item) unnamed_addr #1 !dbg !1626 {
start:
  %item.dbg.spill = alloca [4 x i8], align 4
  %_2.dbg.spill = alloca [0 x i8], align 1
  %_1.dbg.spill = alloca [8 x i8], align 8
  store ptr %_1, ptr %_1.dbg.spill, align 8
    #dbg_declare(ptr %_1.dbg.spill, !1632, !DIExpression(DW_OP_deref), !1634)
    #dbg_declare(ptr %_2.dbg.spill, !1633, !DIExpression(), !1635)
  store i32 %item, ptr %item.dbg.spill, align 4
    #dbg_declare(ptr %item.dbg.spill, !1631, !DIExpression(), !1636)
; call alloc::vec::Vec<T,A>::extend_trusted::{{closure}}
  call void @"_ZN5alloc3vec16Vec$LT$T$C$A$GT$14extend_trusted28_$u7b$$u7b$closure$u7d$$u7d$17hf8b41efeea9054eaE"(ptr align 8 %_1, i32 %item), !dbg !1637
  ret void, !dbg !1638
}

; core::iter::traits::iterator::Iterator::enumerate
; Function Attrs: inlinehint uwtable
define void @_ZN4core4iter6traits8iterator8Iterator9enumerate17h3558aa0e6709bf88E(ptr sret([24 x i8]) align 8 %_0, ptr %self.0, ptr %self.1) unnamed_addr #1 !dbg !1639 {
start:
  %self.dbg.spill = alloca [16 x i8], align 8
  store ptr %self.0, ptr %self.dbg.spill, align 8
  %0 = getelementptr inbounds i8, ptr %self.dbg.spill, i64 8
  store ptr %self.1, ptr %0, align 8
    #dbg_declare(ptr %self.dbg.spill, !1643, !DIExpression(), !1646)
  store ptr %self.0, ptr %_0, align 8, !dbg !1647
  %1 = getelementptr inbounds i8, ptr %_0, i64 8, !dbg !1647
  store ptr %self.1, ptr %1, align 8, !dbg !1647
  %2 = getelementptr inbounds i8, ptr %_0, i64 16, !dbg !1647
  store i64 0, ptr %2, align 8, !dbg !1647
  ret void, !dbg !1651
}

; core::slice::<impl [T]>::iter
; Function Attrs: inlinehint uwtable
define { ptr, ptr } @"_ZN4core5slice29_$LT$impl$u20$$u5b$T$u5d$$GT$4iter17hf0ba48d62be5c31cE"(ptr align 8 %self.0, i64 %self.1) unnamed_addr #1 !dbg !1652 {
start:
  %self.dbg.spill = alloca [16 x i8], align 8
  store ptr %self.0, ptr %self.dbg.spill, align 8
  %0 = getelementptr inbounds i8, ptr %self.dbg.spill, i64 8
  store i64 %self.1, ptr %0, align 8
    #dbg_declare(ptr %self.dbg.spill, !1663, !DIExpression(), !1664)
; call core::slice::iter::Iter<T>::new
  %1 = call { ptr, ptr } @"_ZN4core5slice4iter13Iter$LT$T$GT$3new17h79e131909233af06E"(ptr align 8 %self.0, i64 %self.1), !dbg !1665
  %_0.0 = extractvalue { ptr, ptr } %1, 0, !dbg !1665
  %_0.1 = extractvalue { ptr, ptr } %1, 1, !dbg !1665
  %2 = insertvalue { ptr, ptr } poison, ptr %_0.0, 0, !dbg !1666
  %3 = insertvalue { ptr, ptr } %2, ptr %_0.1, 1, !dbg !1666
  ret { ptr, ptr } %3, !dbg !1666
}

; core::slice::raw::from_raw_parts::precondition_check
; Function Attrs: inlinehint nounwind uwtable
define internal void @_ZN4core5slice3raw14from_raw_parts18precondition_check17h39b77ea8ca96e21dE(ptr %data, i64 %size, i64 %align, i64 %len) unnamed_addr #3 personality ptr @rust_eh_personality !dbg !1667 {
start:
  %0 = alloca [4 x i8], align 4
  %ptr.dbg.spill = alloca [8 x i8], align 8
  %pieces.dbg.spill = alloca [8 x i8], align 8
  %is_zst.dbg.spill1 = alloca [1 x i8], align 1
  %is_zst.dbg.spill = alloca [1 x i8], align 1
  %len.dbg.spill = alloca [8 x i8], align 8
  %align.dbg.spill = alloca [8 x i8], align 8
  %size.dbg.spill = alloca [8 x i8], align 8
  %data.dbg.spill = alloca [8 x i8], align 8
  %max_len = alloca [8 x i8], align 8
  %_11 = alloca [48 x i8], align 8
  store ptr %data, ptr %data.dbg.spill, align 8
    #dbg_declare(ptr %data.dbg.spill, !1674, !DIExpression(), !1678)
  store i64 %size, ptr %size.dbg.spill, align 8
    #dbg_declare(ptr %size.dbg.spill, !1675, !DIExpression(), !1678)
    #dbg_declare(ptr %size.dbg.spill, !1679, !DIExpression(), !1688)
  store i64 %align, ptr %align.dbg.spill, align 8
    #dbg_declare(ptr %align.dbg.spill, !1676, !DIExpression(), !1678)
    #dbg_declare(ptr %align.dbg.spill, !1692, !DIExpression(), !1699)
    #dbg_declare(ptr %align.dbg.spill, !1701, !DIExpression(), !1707)
    #dbg_declare(ptr %align.dbg.spill, !1710, !DIExpression(), !1719)
    #dbg_declare(ptr %align.dbg.spill, !1722, !DIExpression(), !1727)
    #dbg_declare(ptr %align.dbg.spill, !1729, !DIExpression(), !1734)
  store i64 %len, ptr %len.dbg.spill, align 8
    #dbg_declare(ptr %len.dbg.spill, !1677, !DIExpression(), !1678)
    #dbg_declare(ptr %len.dbg.spill, !1685, !DIExpression(), !1736)
    #dbg_declare(ptr %max_len, !1686, !DIExpression(), !1737)
  store i8 0, ptr %is_zst.dbg.spill, align 1, !dbg !1738
    #dbg_declare(ptr %is_zst.dbg.spill, !1698, !DIExpression(), !1738)
  store i8 0, ptr %is_zst.dbg.spill1, align 1, !dbg !1707
    #dbg_declare(ptr %is_zst.dbg.spill1, !1706, !DIExpression(), !1707)
  store ptr @alloc_e92e94d0ff530782b571cfd99ec66aef, ptr %pieces.dbg.spill, align 8, !dbg !1739
    #dbg_declare(ptr %pieces.dbg.spill, !1742, !DIExpression(), !1739)
  store ptr %data, ptr %ptr.dbg.spill, align 8, !dbg !1744
    #dbg_declare(ptr %ptr.dbg.spill, !1697, !DIExpression(), !1745)
    #dbg_declare(ptr %ptr.dbg.spill, !1705, !DIExpression(), !1707)
    #dbg_declare(ptr %ptr.dbg.spill, !1718, !DIExpression(), !1746)
    #dbg_declare(ptr %ptr.dbg.spill, !1747, !DIExpression(), !1752)
    #dbg_declare(ptr %ptr.dbg.spill, !1754, !DIExpression(), !1761)
    #dbg_declare(ptr %ptr.dbg.spill, !1763, !DIExpression(), !1768)
  %1 = call i64 @llvm.ctpop.i64(i64 %align), !dbg !1770
  %2 = trunc i64 %1 to i32, !dbg !1770
  store i32 %2, ptr %0, align 4, !dbg !1770
  %_15 = load i32, ptr %0, align 4, !dbg !1770
  %3 = icmp eq i32 %_15, 1, !dbg !1771
  br i1 %3, label %bb8, label %bb9, !dbg !1771

bb8:                                              ; preds = %start
  %_13 = ptrtoint ptr %data to i64, !dbg !1772
  %_14 = sub i64 %align, 1, !dbg !1773
  %_12 = and i64 %_13, %_14, !dbg !1774
  %4 = icmp eq i64 %_12, 0, !dbg !1775
  br i1 %4, label %bb6, label %bb7, !dbg !1775

bb9:                                              ; preds = %start
  store ptr @alloc_e92e94d0ff530782b571cfd99ec66aef, ptr %_11, align 8, !dbg !1776
  %5 = getelementptr inbounds i8, ptr %_11, i64 8, !dbg !1776
  store i64 1, ptr %5, align 8, !dbg !1776
  %6 = load ptr, ptr @0, align 8, !dbg !1776
  %7 = load i64, ptr getelementptr inbounds (i8, ptr @0, i64 8), align 8, !dbg !1776
  %8 = getelementptr inbounds i8, ptr %_11, i64 32, !dbg !1776
  store ptr %6, ptr %8, align 8, !dbg !1776
  %9 = getelementptr inbounds i8, ptr %8, i64 8, !dbg !1776
  store i64 %7, ptr %9, align 8, !dbg !1776
  %10 = getelementptr inbounds i8, ptr %_11, i64 16, !dbg !1776
  store ptr inttoptr (i64 8 to ptr), ptr %10, align 8, !dbg !1776
  %11 = getelementptr inbounds i8, ptr %10, i64 8, !dbg !1776
  store i64 0, ptr %11, align 8, !dbg !1776
; invoke core::panicking::panic_fmt
  invoke void @_ZN4core9panicking9panic_fmt17ha0b5c5252c2f1706E(ptr align 8 %_11, ptr align 8 @alloc_68990143625ec2db4c689f394fa1b298) #14
          to label %unreachable unwind label %terminate, !dbg !1743

bb6:                                              ; preds = %bb8
  %_9 = icmp eq i64 %_13, 0, !dbg !1777
  %_5 = xor i1 %_9, true, !dbg !1786
  br i1 %_5, label %bb1, label %bb4, !dbg !1700

bb7:                                              ; preds = %bb8
  br label %bb4, !dbg !1700

bb4:                                              ; preds = %bb7, %bb6
  br label %bb5, !dbg !1787

bb1:                                              ; preds = %bb6
  %_19 = icmp eq i64 %size, 0, !dbg !1789
  %12 = icmp eq i64 %size, 0, !dbg !1789
  br i1 %12, label %bb11, label %bb12, !dbg !1789

bb11:                                             ; preds = %bb1
  store i64 -1, ptr %max_len, align 8, !dbg !1790
  br label %bb14, !dbg !1791

bb12:                                             ; preds = %bb1
  br i1 %_19, label %panic, label %bb13, !dbg !1792

bb14:                                             ; preds = %bb13, %bb11
  %_20 = load i64, ptr %max_len, align 8, !dbg !1793
  %_7 = icmp ule i64 %len, %_20, !dbg !1794
  br i1 %_7, label %bb2, label %bb3, !dbg !1689

bb13:                                             ; preds = %bb12
  %13 = udiv i64 9223372036854775807, %size, !dbg !1792
  store i64 %13, ptr %max_len, align 8, !dbg !1792
  br label %bb14, !dbg !1791

panic:                                            ; preds = %bb12
; invoke core::panicking::panic_const::panic_const_div_by_zero
  invoke void @_ZN4core9panicking11panic_const23panic_const_div_by_zero17he01ffb20ed1c332bE(ptr align 8 @alloc_1b63dcb5834fe0aae9c810c57972c0d7) #14
          to label %unreachable unwind label %terminate, !dbg !1792

terminate:                                        ; preds = %bb9, %panic
  %14 = landingpad { ptr, i32 }
          filter [0 x ptr] zeroinitializer
  %15 = extractvalue { ptr, i32 } %14, 0
  %16 = extractvalue { ptr, i32 } %14, 1
; call core::panicking::panic_cannot_unwind
  call void @_ZN4core9panicking19panic_cannot_unwind17h14da2d2699e88696E() #16, !dbg !1795
  unreachable, !dbg !1795

unreachable:                                      ; preds = %bb9, %panic
  unreachable

bb3:                                              ; preds = %bb14
  br label %bb5, !dbg !1787

bb2:                                              ; preds = %bb14
  ret void, !dbg !1796

bb5:                                              ; preds = %bb4, %bb3
; call core::panicking::panic_nounwind
  call void @_ZN4core9panicking14panic_nounwind17h072d1e65f18d6201E(ptr align 1 @alloc_11195730e5236cfdc15ea13be1c301f9, i64 162) #18, !dbg !1797
  unreachable, !dbg !1797
}

; core::slice::iter::Iter<T>::new
; Function Attrs: inlinehint uwtable
define { ptr, ptr } @"_ZN4core5slice4iter13Iter$LT$T$GT$3new17h79e131909233af06E"(ptr align 8 %slice.0, i64 %slice.1) unnamed_addr #1 !dbg !1798 {
start:
  %self.dbg.spill1 = alloca [8 x i8], align 8
  %ptr.dbg.spill = alloca [8 x i8], align 8
  %self.dbg.spill = alloca [16 x i8], align 8
  %len.dbg.spill = alloca [8 x i8], align 8
  %slice.dbg.spill = alloca [16 x i8], align 8
  %end_or_len = alloca [8 x i8], align 8
  store ptr %slice.0, ptr %slice.dbg.spill, align 8
  %0 = getelementptr inbounds i8, ptr %slice.dbg.spill, i64 8
  store i64 %slice.1, ptr %0, align 8
    #dbg_declare(ptr %slice.dbg.spill, !1802, !DIExpression(), !1809)
    #dbg_declare(ptr %slice.dbg.spill, !1810, !DIExpression(), !1824)
    #dbg_declare(ptr %slice.dbg.spill, !1826, !DIExpression(), !1830)
    #dbg_declare(ptr %end_or_len, !1807, !DIExpression(), !1832)
  store i64 %slice.1, ptr %len.dbg.spill, align 8, !dbg !1833
    #dbg_declare(ptr %len.dbg.spill, !1803, !DIExpression(), !1834)
    #dbg_declare(ptr %len.dbg.spill, !1835, !DIExpression(), !1840)
    #dbg_declare(ptr %len.dbg.spill, !1842, !DIExpression(), !1852)
  store ptr %slice.0, ptr %self.dbg.spill, align 8, !dbg !1854
  %1 = getelementptr inbounds i8, ptr %self.dbg.spill, i64 8, !dbg !1854
  store i64 %slice.1, ptr %1, align 8, !dbg !1854
    #dbg_declare(ptr %self.dbg.spill, !1855, !DIExpression(), !1863)
  store ptr %slice.0, ptr %ptr.dbg.spill, align 8, !dbg !1865
    #dbg_declare(ptr %ptr.dbg.spill, !1805, !DIExpression(), !1866)
    #dbg_declare(ptr %ptr.dbg.spill, !1867, !DIExpression(), !1873)
  br label %bb2, !dbg !1875

bb2:                                              ; preds = %start
  store ptr %slice.0, ptr %self.dbg.spill1, align 8, !dbg !1876
    #dbg_declare(ptr %self.dbg.spill1, !1851, !DIExpression(), !1877)
  %_6 = getelementptr inbounds i64, ptr %slice.0, i64 %slice.1, !dbg !1878
  store ptr %_6, ptr %end_or_len, align 8, !dbg !1879
  br label %bb3, !dbg !1880

bb3:                                              ; preds = %bb2
  %_8 = load ptr, ptr %end_or_len, align 8, !dbg !1881
  %2 = insertvalue { ptr, ptr } poison, ptr %slice.0, 0, !dbg !1882
  %3 = insertvalue { ptr, ptr } %2, ptr %_8, 1, !dbg !1882
  ret { ptr, ptr } %3, !dbg !1882

bb1:                                              ; No predecessors!
  unreachable
}

; core::option::Option<T>::is_none
; Function Attrs: inlinehint uwtable
define zeroext i1 @"_ZN4core6option15Option$LT$T$GT$7is_none17h2c6a71db0f0147d2E"(ptr align 4 %self) unnamed_addr #1 !dbg !1883 {
start:
  %self.dbg.spill = alloca [8 x i8], align 8
  store ptr %self, ptr %self.dbg.spill, align 8
    #dbg_declare(ptr %self.dbg.spill, !1889, !DIExpression(), !1890)
    #dbg_declare(ptr %self.dbg.spill, !1891, !DIExpression(), !1895)
  %0 = load i32, ptr %self, align 4, !dbg !1897
  %_3 = zext i32 %0 to i64, !dbg !1897
  %_2 = icmp eq i64 %_3, 1, !dbg !1898
  %_0 = xor i1 %_2, true, !dbg !1901
  ret i1 %_0, !dbg !1902
}

; core::option::Option<T>::is_none
; Function Attrs: inlinehint uwtable
define zeroext i1 @"_ZN4core6option15Option$LT$T$GT$7is_none17h52b5235e5684048eE"(ptr align 8 %self) unnamed_addr #1 !dbg !1903 {
start:
  %self.dbg.spill = alloca [8 x i8], align 8
  store ptr %self, ptr %self.dbg.spill, align 8
    #dbg_declare(ptr %self.dbg.spill, !1909, !DIExpression(), !1910)
    #dbg_declare(ptr %self.dbg.spill, !1911, !DIExpression(), !1915)
  %_3 = load i64, ptr %self, align 8, !dbg !1917
  %_2 = icmp eq i64 %_3, 1, !dbg !1918
  %_0 = xor i1 %_2, true, !dbg !1920
  ret i1 %_0, !dbg !1921
}

; core::result::Result<T,E>::map
; Function Attrs: inlinehint uwtable
define void @"_ZN4core6result19Result$LT$T$C$E$GT$3map17h5f56ad2be16beb1cE"(ptr sret([16 x i8]) align 8 %_0, ptr align 8 %self) unnamed_addr #1 !dbg !1922 {
start:
  %e.dbg.spill = alloca [1 x i8], align 1
  %t.dbg.spill = alloca [8 x i8], align 8
    #dbg_declare(ptr %self, !1933, !DIExpression(), !1939)
  %op.dbg.spill = alloca [0 x i8], align 1
    #dbg_declare(ptr %op.dbg.spill, !1934, !DIExpression(), !1940)
  %0 = load i8, ptr %self, align 8, !dbg !1941
  %1 = trunc i8 %0 to i1, !dbg !1941
  %_3 = zext i1 %1 to i64, !dbg !1941
  %2 = icmp eq i64 %_3, 0, !dbg !1942
  br i1 %2, label %bb3, label %bb2, !dbg !1942

bb3:                                              ; preds = %start
  %3 = getelementptr inbounds i8, ptr %self, i64 8, !dbg !1943
  %t = load i64, ptr %3, align 8, !dbg !1943
  store i64 %t, ptr %t.dbg.spill, align 8, !dbg !1943
    #dbg_declare(ptr %t.dbg.spill, !1935, !DIExpression(), !1944)
; call <rand::distr::uniform::int::UniformUsize as rand::distr::uniform::UniformSampler>::sample_single::{{closure}}
  %_5 = call i64 @"_ZN96_$LT$rand..distr..uniform..int..UniformUsize$u20$as$u20$rand..distr..uniform..UniformSampler$GT$13sample_single28_$u7b$$u7b$closure$u7d$$u7d$17h1b3b8c6a621391d5E"(i64 %t), !dbg !1945
  %4 = getelementptr inbounds i8, ptr %_0, i64 8, !dbg !1946
  store i64 %_5, ptr %4, align 8, !dbg !1946
  store i8 0, ptr %_0, align 8, !dbg !1946
  br label %bb5, !dbg !1947

bb2:                                              ; preds = %start
  %5 = getelementptr inbounds i8, ptr %self, i64 1, !dbg !1948
  %6 = load i8, ptr %5, align 1, !dbg !1948
  %e = trunc i8 %6 to i1, !dbg !1948
  %7 = zext i1 %e to i8, !dbg !1948
  store i8 %7, ptr %e.dbg.spill, align 1, !dbg !1948
    #dbg_declare(ptr %e.dbg.spill, !1937, !DIExpression(), !1949)
  %8 = getelementptr inbounds i8, ptr %_0, i64 1, !dbg !1950
  %9 = zext i1 %e to i8, !dbg !1950
  store i8 %9, ptr %8, align 1, !dbg !1950
  store i8 1, ptr %_0, align 8, !dbg !1950
  br label %bb5, !dbg !1951

bb5:                                              ; preds = %bb2, %bb3
  ret void, !dbg !1952

bb1:                                              ; No predecessors!
  unreachable, !dbg !1941
}

; core::result::Result<T,E>::map
; Function Attrs: inlinehint uwtable
define void @"_ZN4core6result19Result$LT$T$C$E$GT$3map17hd43c21f91900db31E"(ptr sret([16 x i8]) align 8 %_0, i64 %0) unnamed_addr #1 !dbg !1953 {
start:
  %e.dbg.spill = alloca [1 x i8], align 1
  %t.dbg.spill = alloca [4 x i8], align 4
  %op.dbg.spill = alloca [0 x i8], align 1
  %1 = alloca [8 x i8], align 8
  %self = alloca [8 x i8], align 4
  store i64 %0, ptr %1, align 8
  call void @llvm.memcpy.p0.p0.i64(ptr align 4 %self, ptr align 8 %1, i64 8, i1 false)
    #dbg_declare(ptr %self, !1961, !DIExpression(), !1967)
    #dbg_declare(ptr %op.dbg.spill, !1962, !DIExpression(), !1968)
  %2 = load i8, ptr %self, align 4, !dbg !1969
  %3 = trunc i8 %2 to i1, !dbg !1969
  %_3 = zext i1 %3 to i64, !dbg !1969
  %4 = icmp eq i64 %_3, 0, !dbg !1970
  br i1 %4, label %bb3, label %bb2, !dbg !1970

bb3:                                              ; preds = %start
  %5 = getelementptr inbounds i8, ptr %self, i64 4, !dbg !1971
  %t = load i32, ptr %5, align 4, !dbg !1971
  store i32 %t, ptr %t.dbg.spill, align 4, !dbg !1971
    #dbg_declare(ptr %t.dbg.spill, !1963, !DIExpression(), !1972)
; call <rand::distr::uniform::int::UniformUsize as rand::distr::uniform::UniformSampler>::sample_single::{{closure}}
  %_5 = call i64 @"_ZN96_$LT$rand..distr..uniform..int..UniformUsize$u20$as$u20$rand..distr..uniform..UniformSampler$GT$13sample_single28_$u7b$$u7b$closure$u7d$$u7d$17h638b807bf11b2a70E"(i32 %t), !dbg !1973
  %6 = getelementptr inbounds i8, ptr %_0, i64 8, !dbg !1974
  store i64 %_5, ptr %6, align 8, !dbg !1974
  store i8 0, ptr %_0, align 8, !dbg !1974
  br label %bb5, !dbg !1975

bb2:                                              ; preds = %start
  %7 = getelementptr inbounds i8, ptr %self, i64 1, !dbg !1976
  %8 = load i8, ptr %7, align 1, !dbg !1976
  %e = trunc i8 %8 to i1, !dbg !1976
  %9 = zext i1 %e to i8, !dbg !1976
  store i8 %9, ptr %e.dbg.spill, align 1, !dbg !1976
    #dbg_declare(ptr %e.dbg.spill, !1965, !DIExpression(), !1977)
  %10 = getelementptr inbounds i8, ptr %_0, i64 1, !dbg !1978
  %11 = zext i1 %e to i8, !dbg !1978
  store i8 %11, ptr %10, align 1, !dbg !1978
  store i8 1, ptr %_0, align 8, !dbg !1978
  br label %bb5, !dbg !1979

bb5:                                              ; preds = %bb2, %bb3
  ret void, !dbg !1980

bb1:                                              ; No predecessors!
  unreachable, !dbg !1969
}

; rand::rng::Rng::random_range
; Function Attrs: uwtable
define i64 @_ZN4rand3rng3Rng12random_range17hbe136876ddfba625E(ptr align 8 %self, i64 %0, ptr align 8 %1) unnamed_addr #0 personality ptr @rust_eh_personality !dbg !1981 {
start:
  %2 = alloca [16 x i8], align 8
  %t.dbg.spill.i = alloca [8 x i8], align 8
  %e.i = alloca [1 x i8], align 1
  %3 = alloca [16 x i8], align 8
  %self.dbg.spill = alloca [8 x i8], align 8
  %_10 = alloca [1 x i8], align 1
  %_8 = alloca [16 x i8], align 8
  %_6 = alloca [48 x i8], align 8
  %range = alloca [8 x i8], align 8
  store i64 %0, ptr %range, align 8
  store ptr %self, ptr %self.dbg.spill, align 8
    #dbg_declare(ptr %self.dbg.spill, !1988, !DIExpression(), !1993)
    #dbg_declare(ptr %range, !1989, !DIExpression(), !1994)
  store i8 0, ptr %_10, align 1, !dbg !1995
  store i8 1, ptr %_10, align 1, !dbg !1995
; invoke <core::ops::range::RangeTo<usize> as rand::distr::uniform::SampleRange<usize>>::is_empty
  %_3 = invoke zeroext i1 @"_ZN105_$LT$core..ops..range..RangeTo$LT$usize$GT$$u20$as$u20$rand..distr..uniform..SampleRange$LT$usize$GT$$GT$8is_empty17h23921f4355903150E"(ptr align 8 %range)
          to label %bb1 unwind label %cleanup, !dbg !1996

bb9:                                              ; preds = %cleanup.body
  %4 = load i8, ptr %_10, align 1, !dbg !1997
  %5 = trunc i8 %4 to i1, !dbg !1997
  br i1 %5, label %bb8, label %bb7, !dbg !1997

cleanup:                                          ; preds = %bb4, %bb2, %bb3, %start
  %6 = landingpad { ptr, i32 }
          cleanup
  br label %cleanup.body

cleanup.body:                                     ; preds = %cleanup.i, %cleanup
  %eh.lpad-body = phi { ptr, i32 } [ %6, %cleanup ], [ %25, %cleanup.i ]
  %7 = extractvalue { ptr, i32 } %eh.lpad-body, 0
  %8 = extractvalue { ptr, i32 } %eh.lpad-body, 1
  store ptr %7, ptr %3, align 8
  %9 = getelementptr inbounds i8, ptr %3, i64 8
  store i32 %8, ptr %9, align 8
  br label %bb9

bb1:                                              ; preds = %start
  br i1 %_3, label %bb2, label %bb3, !dbg !1996

bb3:                                              ; preds = %bb1
  store i8 0, ptr %_10, align 1, !dbg !1998
  %_9 = load i64, ptr %range, align 8, !dbg !1998
; invoke <core::ops::range::RangeTo<usize> as rand::distr::uniform::SampleRange<usize>>::sample_single
  invoke void @"_ZN105_$LT$core..ops..range..RangeTo$LT$usize$GT$$u20$as$u20$rand..distr..uniform..SampleRange$LT$usize$GT$$GT$13sample_single17h7b74b8c0a7052301E"(ptr sret([16 x i8]) align 8 %_8, i64 %_9, ptr align 8 %self)
          to label %bb5 unwind label %cleanup, !dbg !1998

bb2:                                              ; preds = %bb1
; invoke core::fmt::Arguments::new_const
  invoke void @_ZN4core3fmt9Arguments9new_const17h35abe3fac7c7bd4dE(ptr sret([48 x i8]) align 8 %_6, ptr align 8 @alloc_e3be51554e15d7681718bfd79e1370cf)
          to label %bb4 unwind label %cleanup, !dbg !1995

bb5:                                              ; preds = %bb3
    #dbg_declare(ptr %_8, !1999, !DIExpression(), !2009)
    #dbg_declare(ptr %e.i, !2007, !DIExpression(), !2011)
  %10 = load i8, ptr %_8, align 8, !dbg !2012
  %11 = trunc i8 %10 to i1, !dbg !2012
  %_2.i = zext i1 %11 to i64, !dbg !2012
  %12 = icmp eq i64 %_2.i, 0, !dbg !2013
  br i1 %12, label %"_ZN4core6result19Result$LT$T$C$E$GT$6unwrap17h09d76cd88fe9ac1eE.exit", label %bb2.i, !dbg !2013

bb2.i:                                            ; preds = %bb5
  %13 = getelementptr inbounds i8, ptr %_8, i64 1, !dbg !2014
  %14 = load i8, ptr %13, align 1, !dbg !2014
  %15 = trunc i8 %14 to i1, !dbg !2014
  %16 = zext i1 %15 to i8, !dbg !2014
  store i8 %16, ptr %e.i, align 1, !dbg !2014
; invoke core::result::unwrap_failed
  invoke void @_ZN4core6result13unwrap_failed17h49b97238f5f454fcE(ptr align 1 @alloc_00ae4b301f7fab8ac9617c03fcbd7274, i64 43, ptr align 1 %e.i, ptr align 8 @vtable.0, ptr align 8 %1) #14
          to label %unreachable.i unwind label %cleanup.i, !dbg !2015

cleanup.i:                                        ; preds = %bb2.i
  %17 = landingpad { ptr, i32 }
          cleanup
  %18 = extractvalue { ptr, i32 } %17, 0
  %19 = extractvalue { ptr, i32 } %17, 1
  store ptr %18, ptr %2, align 8
  %20 = getelementptr inbounds i8, ptr %2, i64 8
  store i32 %19, ptr %20, align 8
  %21 = load ptr, ptr %2, align 8, !dbg !2016
  %22 = getelementptr inbounds i8, ptr %2, i64 8, !dbg !2016
  %23 = load i32, ptr %22, align 8, !dbg !2016
  %24 = insertvalue { ptr, i32 } poison, ptr %21, 0, !dbg !2016
  %25 = insertvalue { ptr, i32 } %24, i32 %23, 1, !dbg !2016
  br label %cleanup.body

unreachable.i:                                    ; preds = %bb2.i
  unreachable

"_ZN4core6result19Result$LT$T$C$E$GT$6unwrap17h09d76cd88fe9ac1eE.exit": ; preds = %bb5
  %26 = getelementptr inbounds i8, ptr %_8, i64 8, !dbg !2017
  %t.i = load i64, ptr %26, align 8, !dbg !2017
  store i64 %t.i, ptr %t.dbg.spill.i, align 8, !dbg !2017
    #dbg_declare(ptr %t.dbg.spill.i, !2005, !DIExpression(), !2018)
  br label %bb6, !dbg !2019

bb6:                                              ; preds = %"_ZN4core6result19Result$LT$T$C$E$GT$6unwrap17h09d76cd88fe9ac1eE.exit"
  ret i64 %t.i, !dbg !2020

bb4:                                              ; preds = %bb2
; invoke core::panicking::panic_fmt
  invoke void @_ZN4core9panicking9panic_fmt17ha0b5c5252c2f1706E(ptr align 8 %_6, ptr align 8 %1) #14
          to label %unreachable unwind label %cleanup, !dbg !1995

unreachable:                                      ; preds = %bb4
  unreachable

bb7:                                              ; preds = %bb8, %bb9
  %27 = load ptr, ptr %3, align 8, !dbg !2021
  %28 = getelementptr inbounds i8, ptr %3, i64 8, !dbg !2021
  %29 = load i32, ptr %28, align 8, !dbg !2021
  %30 = insertvalue { ptr, i32 } poison, ptr %27, 0, !dbg !2021
  %31 = insertvalue { ptr, i32 } %30, i32 %29, 1, !dbg !2021
  resume { ptr, i32 } %31, !dbg !2021

bb8:                                              ; preds = %bb9
  br label %bb7, !dbg !1997
}

; rand::rng::Rng::random
; Function Attrs: inlinehint uwtable
define i64 @_ZN4rand3rng3Rng6random17h768dbe24d7e7b3baE(ptr align 8 %self) unnamed_addr #1 !dbg !2022 {
start:
  %self.dbg.spill = alloca [8 x i8], align 8
  store ptr %self, ptr %self.dbg.spill, align 8
    #dbg_declare(ptr %self.dbg.spill, !2026, !DIExpression(), !2028)
; call rand::distr::integer::<impl rand::distr::distribution::Distribution<u64> for rand::distr::StandardUniform>::sample
  %_0 = call i64 @"_ZN4rand5distr7integer109_$LT$impl$u20$rand..distr..distribution..Distribution$LT$u64$GT$$u20$for$u20$rand..distr..StandardUniform$GT$6sample17h3ca0b7062896ba53E"(ptr align 1 inttoptr (i64 1 to ptr), ptr align 8 %self), !dbg !2029
  ret i64 %_0, !dbg !2030
}

; rand::rng::Rng::random
; Function Attrs: inlinehint uwtable
define i32 @_ZN4rand3rng3Rng6random17h7aa41a4f691dbf5aE(ptr align 8 %self) unnamed_addr #1 !dbg !2031 {
start:
  %self.dbg.spill = alloca [8 x i8], align 8
  store ptr %self, ptr %self.dbg.spill, align 8
    #dbg_declare(ptr %self.dbg.spill, !2035, !DIExpression(), !2037)
; call rand::distr::integer::<impl rand::distr::distribution::Distribution<u32> for rand::distr::StandardUniform>::sample
  %_0 = call i32 @"_ZN4rand5distr7integer109_$LT$impl$u20$rand..distr..distribution..Distribution$LT$u32$GT$$u20$for$u20$rand..distr..StandardUniform$GT$6sample17h46c43be9246f6d8bE"(ptr align 1 inttoptr (i64 1 to ptr), ptr align 8 %self), !dbg !2038
  ret i32 %_0, !dbg !2039
}

; rand::seq::slice::IndexedRandom::choose
; Function Attrs: uwtable
define align 4 ptr @_ZN4rand3seq5slice13IndexedRandom6choose17h11b4d3d529b674cbE(ptr align 4 %self.0, i64 %self.1, ptr align 8 %rng) unnamed_addr #0 !dbg !2040 {
start:
  %index.dbg.spill.i = alloca [8 x i8], align 8
  %self.dbg.spill.i = alloca [16 x i8], align 8
  %rng.dbg.spill = alloca [8 x i8], align 8
  %self.dbg.spill = alloca [16 x i8], align 8
  %_0 = alloca [8 x i8], align 8
  store ptr %self.0, ptr %self.dbg.spill, align 8
  %0 = getelementptr inbounds i8, ptr %self.dbg.spill, i64 8
  store i64 %self.1, ptr %0, align 8
    #dbg_declare(ptr %self.dbg.spill, !2066, !DIExpression(), !2070)
  store ptr %rng, ptr %rng.dbg.spill, align 8
    #dbg_declare(ptr %rng.dbg.spill, !2067, !DIExpression(), !2071)
; call rand::seq::slice::IndexedRandom::is_empty
  %_3 = call zeroext i1 @_ZN4rand3seq5slice13IndexedRandom8is_empty17h30a619833ab0387eE(ptr align 4 %self.0, i64 %self.1), !dbg !2072
  br i1 %_3, label %bb2, label %bb3, !dbg !2072

bb3:                                              ; preds = %start
; call <[T] as rand::seq::slice::IndexedRandom>::len
  %_7 = call i64 @"_ZN63_$LT$$u5b$T$u5d$$u20$as$u20$rand..seq..slice..IndexedRandom$GT$3len17h9bfe6fd58f26f7faE"(ptr align 4 %self.0, i64 %self.1), !dbg !2073
; call rand::rng::Rng::random_range
  %_5 = call i64 @_ZN4rand3rng3Rng12random_range17hbe136876ddfba625E(ptr align 8 %rng, i64 %_7, ptr align 8 @alloc_30fa4ccda1523126b1deefe5cab5ef25), !dbg !2074
  store ptr %self.0, ptr %self.dbg.spill.i, align 8
  %1 = getelementptr inbounds i8, ptr %self.dbg.spill.i, i64 8
  store i64 %self.1, ptr %1, align 8
    #dbg_declare(ptr %self.dbg.spill.i, !2075, !DIExpression(), !2084)
  store i64 %_5, ptr %index.dbg.spill.i, align 8
    #dbg_declare(ptr %index.dbg.spill.i, !2081, !DIExpression(), !2086)
; call <usize as core::slice::index::SliceIndex<[T]>>::index
  %_0.i = call align 4 ptr @"_ZN75_$LT$usize$u20$as$u20$core..slice..index..SliceIndex$LT$$u5b$T$u5d$$GT$$GT$5index17h324e077aac9c2bc2E"(i64 %_5, ptr align 4 %self.0, i64 %self.1, ptr align 8 @alloc_2f5e0075a9762e333e897b7b14942db9), !dbg !2087
  store ptr %_0.i, ptr %_0, align 8, !dbg !2088
  br label %bb7, !dbg !2089

bb2:                                              ; preds = %start
  store ptr null, ptr %_0, align 8, !dbg !2090
  br label %bb7, !dbg !2089

bb7:                                              ; preds = %bb2, %bb3
  %2 = load ptr, ptr %_0, align 8, !dbg !2091
  ret ptr %2, !dbg !2091
}

; rand::seq::slice::IndexedRandom::is_empty
; Function Attrs: inlinehint uwtable
define zeroext i1 @_ZN4rand3seq5slice13IndexedRandom8is_empty17h30a619833ab0387eE(ptr align 4 %self.0, i64 %self.1) unnamed_addr #1 !dbg !2092 {
start:
  %self.dbg.spill = alloca [16 x i8], align 8
  store ptr %self.0, ptr %self.dbg.spill, align 8
  %0 = getelementptr inbounds i8, ptr %self.dbg.spill, i64 8
  store i64 %self.1, ptr %0, align 8
    #dbg_declare(ptr %self.dbg.spill, !2096, !DIExpression(), !2098)
; call <[T] as rand::seq::slice::IndexedRandom>::len
  %_2 = call i64 @"_ZN63_$LT$$u5b$T$u5d$$u20$as$u20$rand..seq..slice..IndexedRandom$GT$3len17h9bfe6fd58f26f7faE"(ptr align 4 %self.0, i64 %self.1), !dbg !2099
  %_0 = icmp eq i64 %_2, 0, !dbg !2099
  ret i1 %_0, !dbg !2100
}

; rand::rngs::reseeding::ReseedingCore<R,Rsdr>::reseed_and_generate
; Function Attrs: noinline uwtable
define void @"_ZN4rand4rngs9reseeding29ReseedingCore$LT$R$C$Rsdr$GT$19reseed_and_generate17h5049cbb919042d83E"(ptr align 8 %self, ptr align 4 %0) unnamed_addr #4 !dbg !2101 {
start:
  %e.dbg.spill = alloca [4 x i8], align 4
  %num_bytes.dbg.spill = alloca [8 x i8], align 8
  %self.dbg.spill = alloca [8 x i8], align 8
  %_14 = alloca [1 x i8], align 1
  %_6 = alloca [4 x i8], align 4
  %results = alloca [8 x i8], align 8
  store ptr %0, ptr %results, align 8
  store ptr %self, ptr %self.dbg.spill, align 8
    #dbg_declare(ptr %self.dbg.spill, !2104, !DIExpression(), !2126)
    #dbg_declare(ptr %results, !2105, !DIExpression(), !2127)
  store i8 0, ptr %_14, align 1, !dbg !2128
; call <&mut T as core::convert::AsRef<U>>::as_ref
  %1 = call { ptr, i64 } @"_ZN63_$LT$$RF$mut$u20$T$u20$as$u20$core..convert..AsRef$LT$U$GT$$GT$6as_ref17h8a10da507e8438beE"(ptr align 8 %results), !dbg !2129
  %_4.0 = extractvalue { ptr, i64 } %1, 0, !dbg !2129
  %_4.1 = extractvalue { ptr, i64 } %1, 1, !dbg !2129
; call core::mem::size_of_val
  %num_bytes = call i64 @_ZN4core3mem11size_of_val17hb178677f302822a8E(ptr align 4 %_4.0, i64 %_4.1), !dbg !2130
  store i64 %num_bytes, ptr %num_bytes.dbg.spill, align 8, !dbg !2130
    #dbg_declare(ptr %num_bytes.dbg.spill, !2106, !DIExpression(), !2131)
  store i8 1, ptr %_14, align 1, !dbg !2132
; call rand::rngs::reseeding::ReseedingCore<R,Rsdr>::reseed
  %2 = call i32 @"_ZN4rand4rngs9reseeding29ReseedingCore$LT$R$C$Rsdr$GT$6reseed17h340a6a61c08ade07E"(ptr align 8 %self), !dbg !2132
  store i32 %2, ptr %_6, align 4, !dbg !2132
  %3 = load i32, ptr %_6, align 4, !dbg !2132
  %4 = icmp eq i32 %3, 0, !dbg !2132
  %_7 = select i1 %4, i64 0, i64 1, !dbg !2132
  %5 = icmp eq i64 %_7, 1, !dbg !2133
  br i1 %5, label %bb4, label %bb10, !dbg !2133

bb4:                                              ; preds = %start
  store i8 0, ptr %_14, align 1, !dbg !2134
  %e = load i32, ptr %_6, align 4, !dbg !2134
  store i32 %e, ptr %e.dbg.spill, align 4, !dbg !2134
    #dbg_declare(ptr %e.dbg.spill, !2108, !DIExpression(), !2134)
  br label %bb10, !dbg !2135

bb10:                                             ; preds = %bb4, %start
  %6 = load i32, ptr %_6, align 4, !dbg !2135
  %7 = icmp eq i32 %6, 0, !dbg !2135
  %_15 = select i1 %7, i64 0, i64 1, !dbg !2135
  %8 = icmp eq i64 %_15, 1, !dbg !2135
  br i1 %8, label %bb8, label %bb7, !dbg !2135

bb8:                                              ; preds = %bb10
  %9 = load i8, ptr %_14, align 1, !dbg !2135
  %10 = trunc i8 %9 to i1, !dbg !2135
  br i1 %10, label %bb9, label %bb7, !dbg !2135

bb7:                                              ; preds = %bb9, %bb8, %bb10
  store i8 0, ptr %_14, align 1, !dbg !2135
  %11 = getelementptr inbounds i8, ptr %self, i64 48, !dbg !2136
  %_9 = load i64, ptr %11, align 8, !dbg !2136
  %12 = call { i64, i1 } @llvm.ssub.with.overflow.i64(i64 %_9, i64 %num_bytes), !dbg !2136
  %_11.0 = extractvalue { i64, i1 } %12, 0, !dbg !2136
  %_11.1 = extractvalue { i64, i1 } %12, 1, !dbg !2136
  br i1 %_11.1, label %panic, label %bb5, !dbg !2136

bb9:                                              ; preds = %bb8
  br label %bb7, !dbg !2135

bb5:                                              ; preds = %bb7
  %13 = getelementptr inbounds i8, ptr %self, i64 56, !dbg !2137
  store i64 %_11.0, ptr %13, align 8, !dbg !2137
  %14 = load ptr, ptr %results, align 8, !dbg !2138
; call <rand_chacha::chacha::ChaCha12Core as rand_core::block::BlockRngCore>::generate
  call void @"_ZN84_$LT$rand_chacha..chacha..ChaCha12Core$u20$as$u20$rand_core..block..BlockRngCore$GT$8generate17h4ec65a216c4333c4E"(ptr align 8 %self, ptr align 4 %14), !dbg !2138
  ret void, !dbg !2139

panic:                                            ; preds = %bb7
; call core::panicking::panic_const::panic_const_sub_overflow
  call void @_ZN4core9panicking11panic_const24panic_const_sub_overflow17h8f97c6b3a4c962daE(ptr align 8 @alloc_9cba3d2079b3eca5db2535852ec0ea6f) #14, !dbg !2136
  unreachable, !dbg !2136

bb11:                                             ; No predecessors!
  unreachable, !dbg !2140
}

; rand::distr::integer::<impl rand::distr::distribution::Distribution<u32> for rand::distr::StandardUniform>::sample
; Function Attrs: inlinehint uwtable
define i32 @"_ZN4rand5distr7integer109_$LT$impl$u20$rand..distr..distribution..Distribution$LT$u32$GT$$u20$for$u20$rand..distr..StandardUniform$GT$6sample17h46c43be9246f6d8bE"(ptr align 1 %self, ptr align 8 %rng) unnamed_addr #1 !dbg !2141 {
start:
  %self.dbg.spill.i4 = alloca [8 x i8], align 8
  %self.dbg.spill.i1 = alloca [8 x i8], align 8
  %self.dbg.spill.i.i = alloca [8 x i8], align 8
  %rng.dbg.spill.i = alloca [8 x i8], align 8
  %self.dbg.spill.i = alloca [8 x i8], align 8
  %rng.dbg.spill = alloca [8 x i8], align 8
  %self.dbg.spill = alloca [8 x i8], align 8
  store ptr %self, ptr %self.dbg.spill, align 8
    #dbg_declare(ptr %self.dbg.spill, !2150, !DIExpression(), !2152)
  store ptr %rng, ptr %rng.dbg.spill, align 8
    #dbg_declare(ptr %rng.dbg.spill, !2151, !DIExpression(), !2153)
  store ptr %rng, ptr %self.dbg.spill.i, align 8
    #dbg_declare(ptr %self.dbg.spill.i, !2154, !DIExpression(), !2162)
  store ptr %rng, ptr %self.dbg.spill.i1, align 8
    #dbg_declare(ptr %self.dbg.spill.i1, !2164, !DIExpression(), !2173)
    #dbg_declare(ptr %self.dbg.spill.i1, !2175, !DIExpression(), !2182)
  %_4.i2 = load ptr, ptr %rng, align 8, !dbg !2184
  %_0.i3 = getelementptr inbounds i8, ptr %_4.i2, i64 16, !dbg !2191
  store ptr %_0.i3, ptr %self.dbg.spill.i.i, align 8
    #dbg_declare(ptr %self.dbg.spill.i.i, !2192, !DIExpression(), !2200)
  store ptr %_0.i3, ptr %rng.dbg.spill.i, align 8, !dbg !2202
    #dbg_declare(ptr %rng.dbg.spill.i, !2159, !DIExpression(), !2203)
  store ptr %_0.i3, ptr %self.dbg.spill.i4, align 8
    #dbg_declare(ptr %self.dbg.spill.i4, !2204, !DIExpression(), !2210)
; call <rand_core::block::BlockRng<R> as rand_core::RngCore>::next_u32
  %_0.i5 = call i32 @"_ZN74_$LT$rand_core..block..BlockRng$LT$R$GT$$u20$as$u20$rand_core..RngCore$GT$8next_u3217h4e8e58bf636ab8a9E"(ptr align 8 %_0.i3), !dbg !2212
  ret i32 %_0.i5, !dbg !2213
}

; rand::distr::integer::<impl rand::distr::distribution::Distribution<u64> for rand::distr::StandardUniform>::sample
; Function Attrs: inlinehint uwtable
define i64 @"_ZN4rand5distr7integer109_$LT$impl$u20$rand..distr..distribution..Distribution$LT$u64$GT$$u20$for$u20$rand..distr..StandardUniform$GT$6sample17h3ca0b7062896ba53E"(ptr align 1 %self, ptr align 8 %rng) unnamed_addr #1 !dbg !2214 {
start:
  %self.dbg.spill.i4 = alloca [8 x i8], align 8
  %self.dbg.spill.i1 = alloca [8 x i8], align 8
  %self.dbg.spill.i.i = alloca [8 x i8], align 8
  %rng.dbg.spill.i = alloca [8 x i8], align 8
  %self.dbg.spill.i = alloca [8 x i8], align 8
  %rng.dbg.spill = alloca [8 x i8], align 8
  %self.dbg.spill = alloca [8 x i8], align 8
  store ptr %self, ptr %self.dbg.spill, align 8
    #dbg_declare(ptr %self.dbg.spill, !2219, !DIExpression(), !2221)
  store ptr %rng, ptr %rng.dbg.spill, align 8
    #dbg_declare(ptr %rng.dbg.spill, !2220, !DIExpression(), !2222)
  store ptr %rng, ptr %self.dbg.spill.i, align 8
    #dbg_declare(ptr %self.dbg.spill.i, !2223, !DIExpression(), !2228)
  store ptr %rng, ptr %self.dbg.spill.i1, align 8
    #dbg_declare(ptr %self.dbg.spill.i1, !2164, !DIExpression(), !2230)
    #dbg_declare(ptr %self.dbg.spill.i1, !2175, !DIExpression(), !2232)
  %_4.i2 = load ptr, ptr %rng, align 8, !dbg !2234
  %_0.i3 = getelementptr inbounds i8, ptr %_4.i2, i64 16, !dbg !2236
  store ptr %_0.i3, ptr %self.dbg.spill.i.i, align 8
    #dbg_declare(ptr %self.dbg.spill.i.i, !2192, !DIExpression(), !2237)
  store ptr %_0.i3, ptr %rng.dbg.spill.i, align 8, !dbg !2239
    #dbg_declare(ptr %rng.dbg.spill.i, !2226, !DIExpression(), !2240)
  store ptr %_0.i3, ptr %self.dbg.spill.i4, align 8
    #dbg_declare(ptr %self.dbg.spill.i4, !2241, !DIExpression(), !2246)
; call <rand_core::block::BlockRng<R> as rand_core::RngCore>::next_u64
  %_0.i5 = call i64 @"_ZN74_$LT$rand_core..block..BlockRng$LT$R$GT$$u20$as$u20$rand_core..RngCore$GT$8next_u6417h4d430803160e6722E"(ptr align 8 %_0.i3), !dbg !2248
  ret i64 %_0.i5, !dbg !2249
}

; alloc::vec::Vec<T,A>::extend_trusted
; Function Attrs: uwtable
define void @"_ZN5alloc3vec16Vec$LT$T$C$A$GT$14extend_trusted17had4de16b00104ca9E"(ptr align 8 %self, i32 %0, i32 %1, ptr align 8 %2) unnamed_addr #0 personality ptr @rust_eh_personality !dbg !2250 {
start:
  %local_len.dbg.spill = alloca [16 x i8], align 8
  %len.dbg.spill = alloca [8 x i8], align 8
  %ptr.dbg.spill = alloca [8 x i8], align 8
  %additional.dbg.spill = alloca [8 x i8], align 8
  %low.dbg.spill = alloca [8 x i8], align 8
  %3 = alloca [16 x i8], align 8
  %pieces.dbg.spill1 = alloca [8 x i8], align 8
  %pieces.dbg.spill = alloca [8 x i8], align 8
  %kind.dbg.spill = alloca [1 x i8], align 1
  %self.dbg.spill = alloca [8 x i8], align 8
  %_22 = alloca [1 x i8], align 1
  %_21 = alloca [48 x i8], align 8
  %_19 = alloca [24 x i8], align 8
  %_5 = alloca [24 x i8], align 8
  %high = alloca [16 x i8], align 8
  %iterator = alloca [8 x i8], align 4
  store i32 %0, ptr %iterator, align 4
  %4 = getelementptr inbounds i8, ptr %iterator, i64 4
  store i32 %1, ptr %4, align 4
  store ptr %self, ptr %self.dbg.spill, align 8
    #dbg_declare(ptr %self.dbg.spill, !2258, !DIExpression(), !2276)
    #dbg_declare(ptr %self.dbg.spill, !2277, !DIExpression(), !2283)
    #dbg_declare(ptr %iterator, !2259, !DIExpression(), !2285)
    #dbg_declare(ptr %high, !2262, !DIExpression(), !2286)
  store i8 0, ptr %kind.dbg.spill, align 1, !dbg !2287
    #dbg_declare(ptr %kind.dbg.spill, !2269, !DIExpression(), !2287)
  store ptr @alloc_f0c0bcdc51174ae2a47538e8553750ac, ptr %pieces.dbg.spill, align 8, !dbg !2288
    #dbg_declare(ptr %pieces.dbg.spill, !2296, !DIExpression(), !2288)
  store ptr @alloc_11d257f5ed6cc7fc38feaa801053bac6, ptr %pieces.dbg.spill1, align 8, !dbg !2300
    #dbg_declare(ptr %pieces.dbg.spill1, !2303, !DIExpression(), !2300)
  store i8 1, ptr %_22, align 1, !dbg !2305
; invoke core::iter::range::<impl core::iter::traits::iterator::Iterator for core::ops::range::Range<A>>::size_hint
  invoke void @"_ZN4core4iter5range101_$LT$impl$u20$core..iter..traits..iterator..Iterator$u20$for$u20$core..ops..range..Range$LT$A$GT$$GT$9size_hint17hbf7455fe253fca91E"(ptr sret([24 x i8]) align 8 %_5, ptr align 4 %iterator)
          to label %bb1 unwind label %cleanup, !dbg !2305

bb8:                                              ; preds = %cleanup
  %5 = load i8, ptr %_22, align 1, !dbg !2306
  %6 = trunc i8 %5 to i1, !dbg !2306
  br i1 %6, label %bb7, label %bb6, !dbg !2306

cleanup:                                          ; preds = %bb5, %bb3, %bb2, %start
  %7 = landingpad { ptr, i32 }
          cleanup
  %8 = extractvalue { ptr, i32 } %7, 0
  %9 = extractvalue { ptr, i32 } %7, 1
  store ptr %8, ptr %3, align 8
  %10 = getelementptr inbounds i8, ptr %3, i64 8
  store i32 %9, ptr %10, align 8
  br label %bb8

bb1:                                              ; preds = %start
  %low = load i64, ptr %_5, align 8, !dbg !2307
  store i64 %low, ptr %low.dbg.spill, align 8, !dbg !2307
    #dbg_declare(ptr %low.dbg.spill, !2260, !DIExpression(), !2308)
  %11 = getelementptr inbounds i8, ptr %_5, i64 8, !dbg !2309
  %12 = load i64, ptr %11, align 8, !dbg !2309
  %13 = getelementptr inbounds i8, ptr %11, i64 8, !dbg !2309
  %14 = load i64, ptr %13, align 8, !dbg !2309
  store i64 %12, ptr %high, align 8, !dbg !2309
  %15 = getelementptr inbounds i8, ptr %high, i64 8, !dbg !2309
  store i64 %14, ptr %15, align 8, !dbg !2309
  %_7 = load i64, ptr %high, align 8, !dbg !2310
  %16 = icmp eq i64 %_7, 1, !dbg !2311
  br i1 %16, label %bb2, label %bb5, !dbg !2311

bb2:                                              ; preds = %bb1
  %17 = getelementptr inbounds i8, ptr %high, i64 8, !dbg !2312
  %additional = load i64, ptr %17, align 8, !dbg !2312
  store i64 %additional, ptr %additional.dbg.spill, align 8, !dbg !2312
    #dbg_declare(ptr %additional.dbg.spill, !2263, !DIExpression(), !2312)
; invoke alloc::vec::Vec<T,A>::reserve
  invoke void @"_ZN5alloc3vec16Vec$LT$T$C$A$GT$7reserve17h085673fb4ecb7096E"(ptr align 8 %self, i64 %additional, ptr align 8 %2)
          to label %bb3 unwind label %cleanup, !dbg !2313

bb5:                                              ; preds = %bb1
  store ptr @alloc_11d257f5ed6cc7fc38feaa801053bac6, ptr %_21, align 8, !dbg !2314
  %18 = getelementptr inbounds i8, ptr %_21, i64 8, !dbg !2314
  store i64 1, ptr %18, align 8, !dbg !2314
  %19 = load ptr, ptr @0, align 8, !dbg !2314
  %20 = load i64, ptr getelementptr inbounds (i8, ptr @0, i64 8), align 8, !dbg !2314
  %21 = getelementptr inbounds i8, ptr %_21, i64 32, !dbg !2314
  store ptr %19, ptr %21, align 8, !dbg !2314
  %22 = getelementptr inbounds i8, ptr %21, i64 8, !dbg !2314
  store i64 %20, ptr %22, align 8, !dbg !2314
  %23 = getelementptr inbounds i8, ptr %_21, i64 16, !dbg !2314
  store ptr inttoptr (i64 8 to ptr), ptr %23, align 8, !dbg !2314
  %24 = getelementptr inbounds i8, ptr %23, i64 8, !dbg !2314
  store i64 0, ptr %24, align 8, !dbg !2314
; invoke core::panicking::panic_fmt
  invoke void @_ZN4core9panicking9panic_fmt17ha0b5c5252c2f1706E(ptr align 8 %_21, ptr align 8 %2) #14
          to label %unreachable unwind label %cleanup, !dbg !2304

bb3:                                              ; preds = %bb2
  %25 = getelementptr inbounds i8, ptr %self, i64 8, !dbg !2315
  %_27 = load ptr, ptr %25, align 8, !dbg !2315
  store ptr %_27, ptr %ptr.dbg.spill, align 8, !dbg !2338
    #dbg_declare(ptr %ptr.dbg.spill, !2272, !DIExpression(), !2344)
  %len = getelementptr inbounds i8, ptr %self, i64 16, !dbg !2345
  store ptr %len, ptr %len.dbg.spill, align 8, !dbg !2345
    #dbg_declare(ptr %len.dbg.spill, !2346, !DIExpression(), !2353)
  %_28 = load i64, ptr %len, align 8, !dbg !2355
  store ptr %len, ptr %local_len.dbg.spill, align 8, !dbg !2356
  %26 = getelementptr inbounds i8, ptr %local_len.dbg.spill, i64 8, !dbg !2356
  store i64 %_28, ptr %26, align 8, !dbg !2356
    #dbg_declare(ptr %local_len.dbg.spill, !2274, !DIExpression(), !2357)
  store i8 0, ptr %_22, align 1, !dbg !2358
  %_18.0 = load i32, ptr %iterator, align 4, !dbg !2358
  %27 = getelementptr inbounds i8, ptr %iterator, i64 4, !dbg !2358
  %_18.1 = load i32, ptr %27, align 4, !dbg !2358
  %28 = getelementptr inbounds i8, ptr %_19, i64 16, !dbg !2359
  store ptr %_27, ptr %28, align 8, !dbg !2359
  store ptr %len, ptr %_19, align 8, !dbg !2359
  %29 = getelementptr inbounds i8, ptr %_19, i64 8, !dbg !2359
  store i64 %_28, ptr %29, align 8, !dbg !2359
; invoke core::iter::traits::iterator::Iterator::for_each
  invoke void @_ZN4core4iter6traits8iterator8Iterator8for_each17hfde7f00c9f31ff7fE(i32 %_18.0, i32 %_18.1, ptr align 8 %_19)
          to label %bb4 unwind label %cleanup, !dbg !2358

bb4:                                              ; preds = %bb3
  ret void, !dbg !2360

unreachable:                                      ; preds = %bb5
  unreachable

bb9:                                              ; No predecessors!
  unreachable, !dbg !2361

bb6:                                              ; preds = %bb7, %bb8
  %30 = load ptr, ptr %3, align 8, !dbg !2361
  %31 = getelementptr inbounds i8, ptr %3, i64 8, !dbg !2361
  %32 = load i32, ptr %31, align 8, !dbg !2361
  %33 = insertvalue { ptr, i32 } poison, ptr %30, 0, !dbg !2361
  %34 = insertvalue { ptr, i32 } %33, i32 %32, 1, !dbg !2361
  resume { ptr, i32 } %34, !dbg !2361

bb7:                                              ; preds = %bb8
  br label %bb6, !dbg !2306
}

; alloc::vec::Vec<T,A>::extend_trusted::{{closure}}
; Function Attrs: inlinehint uwtable
define void @"_ZN5alloc3vec16Vec$LT$T$C$A$GT$14extend_trusted28_$u7b$$u7b$closure$u7d$$u7d$17hf8b41efeea9054eaE"(ptr align 8 %_1, i32 %element) unnamed_addr #1 !dbg !2362 {
start:
  %element.dbg.spill = alloca [4 x i8], align 4
  %_1.dbg.spill = alloca [8 x i8], align 8
  store ptr %_1, ptr %_1.dbg.spill, align 8
    #dbg_declare(ptr %_1.dbg.spill, !2368, !DIExpression(DW_OP_deref, DW_OP_plus_uconst, 16), !2370)
    #dbg_declare(ptr %_1.dbg.spill, !2369, !DIExpression(DW_OP_deref), !2371)
  store i32 %element, ptr %element.dbg.spill, align 4
    #dbg_declare(ptr %element.dbg.spill, !2367, !DIExpression(), !2372)
  %0 = getelementptr inbounds i8, ptr %_1, i64 16, !dbg !2373
  %_4 = load ptr, ptr %0, align 8, !dbg !2373
  %1 = getelementptr inbounds i8, ptr %_1, i64 8, !dbg !2374
  %_5 = load i64, ptr %1, align 8, !dbg !2374
  %_3 = getelementptr inbounds i32, ptr %_4, i64 %_5, !dbg !2381
  store i32 %element, ptr %_3, align 4, !dbg !2386
  %2 = getelementptr inbounds i8, ptr %_1, i64 8, !dbg !2391
  %3 = getelementptr inbounds i8, ptr %_1, i64 8, !dbg !2391
  %4 = load i64, ptr %3, align 8, !dbg !2391
  %5 = add i64 %4, 1, !dbg !2391
  store i64 %5, ptr %2, align 8, !dbg !2391
  ret void, !dbg !2398
}

; alloc::vec::Vec<T,A>::reserve
; Function Attrs: uwtable
define void @"_ZN5alloc3vec16Vec$LT$T$C$A$GT$7reserve17h085673fb4ecb7096E"(ptr align 8 %self, i64 %additional, ptr align 8 %0) unnamed_addr #0 !dbg !2399 {
start:
  %elem_size.dbg.spill = alloca [8 x i8], align 8
  %self.dbg.spill4 = alloca [8 x i8], align 8
  %elem_layout.dbg.spill = alloca [16 x i8], align 8
  %self.dbg.spill3 = alloca [8 x i8], align 8
  %len.dbg.spill = alloca [8 x i8], align 8
  %self.dbg.spill2 = alloca [8 x i8], align 8
  %additional.dbg.spill = alloca [8 x i8], align 8
  %self.dbg.spill = alloca [8 x i8], align 8
  %self1 = alloca [8 x i8], align 8
  %elem_layout = alloca [16 x i8], align 8
  store ptr %self, ptr %self.dbg.spill, align 8
    #dbg_declare(ptr %self.dbg.spill, !2404, !DIExpression(), !2406)
  store i64 %additional, ptr %additional.dbg.spill, align 8
    #dbg_declare(ptr %additional.dbg.spill, !2405, !DIExpression(), !2407)
    #dbg_declare(ptr %additional.dbg.spill, !2408, !DIExpression(), !2417)
    #dbg_declare(ptr %additional.dbg.spill, !2419, !DIExpression(), !2438)
    #dbg_declare(ptr %additional.dbg.spill, !2440, !DIExpression(), !2449)
    #dbg_declare(ptr %elem_layout, !2448, !DIExpression(), !2451)
    #dbg_declare(ptr %self1, !2452, !DIExpression(), !2458)
  store ptr %self, ptr %self.dbg.spill2, align 8, !dbg !2460
    #dbg_declare(ptr %self.dbg.spill2, !2415, !DIExpression(), !2461)
  %1 = getelementptr inbounds i8, ptr %self, i64 16, !dbg !2462
  %len = load i64, ptr %1, align 8, !dbg !2462
  store i64 %len, ptr %len.dbg.spill, align 8, !dbg !2462
    #dbg_declare(ptr %len.dbg.spill, !2416, !DIExpression(), !2463)
    #dbg_declare(ptr %len.dbg.spill, !2436, !DIExpression(), !2464)
    #dbg_declare(ptr %len.dbg.spill, !2447, !DIExpression(), !2465)
    #dbg_declare(ptr %len.dbg.spill, !2457, !DIExpression(), !2466)
  store ptr %self, ptr %self.dbg.spill3, align 8, !dbg !2467
    #dbg_declare(ptr %self.dbg.spill3, !2435, !DIExpression(), !2468)
    #dbg_declare(ptr %self.dbg.spill3, !2446, !DIExpression(), !2469)
    #dbg_declare(ptr %self.dbg.spill3, !2470, !DIExpression(), !2477)
  store i64 4, ptr %elem_layout.dbg.spill, align 8, !dbg !2439
  %2 = getelementptr inbounds i8, ptr %elem_layout.dbg.spill, i64 8, !dbg !2439
  store i64 4, ptr %2, align 8, !dbg !2439
    #dbg_declare(ptr %elem_layout.dbg.spill, !2437, !DIExpression(), !2479)
  store i64 4, ptr %elem_layout, align 8, !dbg !2480
  %3 = getelementptr inbounds i8, ptr %elem_layout, i64 8, !dbg !2480
  store i64 4, ptr %3, align 8, !dbg !2480
  store ptr %elem_layout, ptr %self.dbg.spill4, align 8, !dbg !2481
    #dbg_declare(ptr %self.dbg.spill4, !2482, !DIExpression(), !2490)
  store i64 4, ptr %elem_size.dbg.spill, align 8, !dbg !2492
    #dbg_declare(ptr %elem_size.dbg.spill, !2476, !DIExpression(), !2493)
  br label %bb6, !dbg !2494

bb6:                                              ; preds = %start
  %4 = load i64, ptr %self, align 8, !dbg !2495
  store i64 %4, ptr %self1, align 8, !dbg !2495
  br label %bb4, !dbg !2496

bb5:                                              ; No predecessors!
  store i64 -1, ptr %self1, align 8, !dbg !2497
  br label %bb4, !dbg !2496

bb4:                                              ; preds = %bb6, %bb5
  %5 = load i64, ptr %self1, align 8, !dbg !2498
  %_10 = sub i64 %5, %len, !dbg !2498
  %_7 = icmp ugt i64 %additional, %_10, !dbg !2499
  br i1 %_7, label %bb1, label %bb2, !dbg !2500

bb2:                                              ; preds = %bb4
  br label %bb3, !dbg !2501

bb1:                                              ; preds = %bb4
; call alloc::raw_vec::RawVecInner<A>::reserve::do_reserve_and_handle
  call void @"_ZN5alloc7raw_vec20RawVecInner$LT$A$GT$7reserve21do_reserve_and_handle17hadf3a4060476aa80E"(ptr align 8 %self, i64 %len, i64 %additional, i64 4, i64 4), !dbg !2502
  br label %bb3, !dbg !2502

bb3:                                              ; preds = %bb1, %bb2
  ret void, !dbg !2503
}

; alloc::vec::Vec<T,A>::as_slice
; Function Attrs: inlinehint uwtable
define { ptr, i64 } @"_ZN5alloc3vec16Vec$LT$T$C$A$GT$8as_slice17hcb33d08f5541bd81E"(ptr align 8 %self) unnamed_addr #1 !dbg !2504 {
start:
  %len.dbg.spill = alloca [8 x i8], align 8
  %data.dbg.spill = alloca [8 x i8], align 8
  %self.dbg.spill = alloca [8 x i8], align 8
  store ptr %self, ptr %self.dbg.spill, align 8
    #dbg_declare(ptr %self.dbg.spill, !2510, !DIExpression(), !2511)
    #dbg_declare(ptr %self.dbg.spill, !2512, !DIExpression(), !2518)
  %0 = getelementptr inbounds i8, ptr %self, i64 8, !dbg !2520
  %_8 = load ptr, ptr %0, align 8, !dbg !2520
  store ptr %_8, ptr %data.dbg.spill, align 8, !dbg !2527
    #dbg_declare(ptr %data.dbg.spill, !2528, !DIExpression(), !2534)
    #dbg_declare(ptr %data.dbg.spill, !2536, !DIExpression(), !2546)
    #dbg_declare(ptr %data.dbg.spill, !2548, !DIExpression(), !2555)
  %1 = getelementptr inbounds i8, ptr %self, i64 16, !dbg !2557
  %len = load i64, ptr %1, align 8, !dbg !2557
  store i64 %len, ptr %len.dbg.spill, align 8, !dbg !2557
    #dbg_declare(ptr %len.dbg.spill, !2533, !DIExpression(), !2558)
    #dbg_declare(ptr %len.dbg.spill, !2545, !DIExpression(), !2559)
  br label %bb1, !dbg !2560

bb1:                                              ; preds = %start
; call core::slice::raw::from_raw_parts::precondition_check
  call void @_ZN4core5slice3raw14from_raw_parts18precondition_check17h39b77ea8ca96e21dE(ptr %_8, i64 4, i64 4, i64 %len) #17, !dbg !2562
  br label %bb3, !dbg !2563

bb3:                                              ; preds = %bb1
  %2 = insertvalue { ptr, i64 } poison, ptr %_8, 0, !dbg !2564
  %3 = insertvalue { ptr, i64 } %2, i64 %len, 1, !dbg !2564
  ret { ptr, i64 } %3, !dbg !2564
}

; alloc::raw_vec::RawVecInner<A>::with_capacity_in
; Function Attrs: inlinehint uwtable
define { i64, ptr } @"_ZN5alloc7raw_vec20RawVecInner$LT$A$GT$16with_capacity_in17ha2e49e9ad8404297E"(i64 %capacity, i64 %elem_layout.0, i64 %elem_layout.1, ptr align 8 %0) unnamed_addr #1 !dbg !2565 {
start:
  %err.dbg.spill = alloca [16 x i8], align 8
  %cond.dbg.spill = alloca [1 x i8], align 1
  %elem_size.dbg.spill = alloca [8 x i8], align 8
  %self.dbg.spill1 = alloca [8 x i8], align 8
  %self.dbg.spill = alloca [8 x i8], align 8
  %rhs.dbg.spill = alloca [8 x i8], align 8
  %len.dbg.spill = alloca [8 x i8], align 8
  %elem_layout.dbg.spill = alloca [16 x i8], align 8
  %alloc.dbg.spill = alloca [0 x i8], align 1
  %capacity.dbg.spill = alloca [8 x i8], align 8
  %self = alloca [8 x i8], align 8
  %elem_layout = alloca [16 x i8], align 8
  %this = alloca [16 x i8], align 8
  %_4 = alloca [24 x i8], align 8
  store i64 %capacity, ptr %capacity.dbg.spill, align 8
    #dbg_declare(ptr %capacity.dbg.spill, !2570, !DIExpression(), !2593)
    #dbg_declare(ptr %capacity.dbg.spill, !2594, !DIExpression(), !2600)
    #dbg_declare(ptr %alloc.dbg.spill, !2571, !DIExpression(), !2602)
  store i64 %elem_layout.0, ptr %elem_layout.dbg.spill, align 8
  %1 = getelementptr inbounds i8, ptr %elem_layout.dbg.spill, i64 8
  store i64 %elem_layout.1, ptr %1, align 8
    #dbg_declare(ptr %elem_layout.dbg.spill, !2572, !DIExpression(), !2603)
    #dbg_declare(ptr %this, !2573, !DIExpression(), !2604)
    #dbg_declare(ptr %elem_layout, !2599, !DIExpression(), !2605)
    #dbg_declare(ptr %self, !2606, !DIExpression(), !2610)
  store i64 0, ptr %len.dbg.spill, align 8, !dbg !2612
    #dbg_declare(ptr %len.dbg.spill, !2598, !DIExpression(), !2612)
  store i64 0, ptr %rhs.dbg.spill, align 8, !dbg !2613
    #dbg_declare(ptr %rhs.dbg.spill, !2609, !DIExpression(), !2613)
; call alloc::raw_vec::RawVecInner<A>::try_allocate_in
  call void @"_ZN5alloc7raw_vec20RawVecInner$LT$A$GT$15try_allocate_in17hba33529122a3f65dE"(ptr sret([24 x i8]) align 8 %_4, i64 %capacity, i1 zeroext false, i64 %elem_layout.0, i64 %elem_layout.1), !dbg !2614
  %_5 = load i64, ptr %_4, align 8, !dbg !2614
  %2 = icmp eq i64 %_5, 0, !dbg !2615
  br i1 %2, label %bb4, label %bb3, !dbg !2615

bb4:                                              ; preds = %start
  %3 = getelementptr inbounds i8, ptr %_4, i64 8, !dbg !2616
  %4 = load i64, ptr %3, align 8, !dbg !2616
  %5 = getelementptr inbounds i8, ptr %3, i64 8, !dbg !2616
  %6 = load ptr, ptr %5, align 8, !dbg !2616
  store i64 %4, ptr %this, align 8, !dbg !2616
  %7 = getelementptr inbounds i8, ptr %this, i64 8, !dbg !2616
  store ptr %6, ptr %7, align 8, !dbg !2616
  store ptr %this, ptr %self.dbg.spill, align 8, !dbg !2617
    #dbg_declare(ptr %self.dbg.spill, !2597, !DIExpression(), !2618)
    #dbg_declare(ptr %self.dbg.spill, !2619, !DIExpression(), !2623)
  store i64 %elem_layout.0, ptr %elem_layout, align 8, !dbg !2625
  %8 = getelementptr inbounds i8, ptr %elem_layout, i64 8, !dbg !2625
  store i64 %elem_layout.1, ptr %8, align 8, !dbg !2625
  store ptr %elem_layout, ptr %self.dbg.spill1, align 8, !dbg !2626
    #dbg_declare(ptr %self.dbg.spill1, !2627, !DIExpression(), !2630)
  store i64 %elem_layout.1, ptr %elem_size.dbg.spill, align 8, !dbg !2632
    #dbg_declare(ptr %elem_size.dbg.spill, !2622, !DIExpression(), !2633)
  %9 = icmp eq i64 %elem_layout.1, 0, !dbg !2634
  br i1 %9, label %bb6, label %bb7, !dbg !2634

bb3:                                              ; preds = %start
  %10 = getelementptr inbounds i8, ptr %_4, i64 8, !dbg !2635
  %err.0 = load i64, ptr %10, align 8, !dbg !2635
  %11 = getelementptr inbounds i8, ptr %10, i64 8, !dbg !2635
  %err.1 = load i64, ptr %11, align 8, !dbg !2635
  store i64 %err.0, ptr %err.dbg.spill, align 8, !dbg !2635
  %12 = getelementptr inbounds i8, ptr %err.dbg.spill, i64 8, !dbg !2635
  store i64 %err.1, ptr %12, align 8, !dbg !2635
    #dbg_declare(ptr %err.dbg.spill, !2575, !DIExpression(), !2636)
; call alloc::raw_vec::handle_error
  call void @_ZN5alloc7raw_vec12handle_error17h3a2b2a11ce049f14E(i64 %err.0, i64 %err.1, ptr align 8 %0) #14, !dbg !2637
  unreachable, !dbg !2637

bb6:                                              ; preds = %bb4
  store i64 -1, ptr %self, align 8, !dbg !2638
  br label %bb5, !dbg !2639

bb7:                                              ; preds = %bb4
  %13 = load i64, ptr %this, align 8, !dbg !2640
  store i64 %13, ptr %self, align 8, !dbg !2640
  br label %bb5, !dbg !2639

bb5:                                              ; preds = %bb7, %bb6
  %14 = load i64, ptr %self, align 8, !dbg !2641
  %_13 = sub i64 %14, 0, !dbg !2641
  %_8 = icmp ugt i64 %capacity, %_13, !dbg !2642
  %cond = xor i1 %_8, true, !dbg !2643
  %15 = zext i1 %cond to i8, !dbg !2643
  store i8 %15, ptr %cond.dbg.spill, align 1, !dbg !2643
    #dbg_declare(ptr %cond.dbg.spill, !2644, !DIExpression(), !2649)
  br label %bb8, !dbg !2651

bb8:                                              ; preds = %bb5
; call core::hint::assert_unchecked::precondition_check
  call void @_ZN4core4hint16assert_unchecked18precondition_check17h0c8c6949fce235b5E(i1 zeroext %cond) #17, !dbg !2653
  br label %bb9, !dbg !2653

bb9:                                              ; preds = %bb8
  %_0.0 = load i64, ptr %this, align 8, !dbg !2654
  %16 = getelementptr inbounds i8, ptr %this, i64 8, !dbg !2654
  %_0.1 = load ptr, ptr %16, align 8, !dbg !2654
  %17 = insertvalue { i64, ptr } poison, i64 %_0.0, 0, !dbg !2655
  %18 = insertvalue { i64, ptr } %17, ptr %_0.1, 1, !dbg !2655
  ret { i64, ptr } %18, !dbg !2655

bb2:                                              ; No predecessors!
  unreachable, !dbg !2614
}

; <&mut T as core::convert::AsRef<U>>::as_ref
; Function Attrs: inlinehint uwtable
define { ptr, i64 } @"_ZN63_$LT$$RF$mut$u20$T$u20$as$u20$core..convert..AsRef$LT$U$GT$$GT$6as_ref17h8a10da507e8438beE"(ptr align 8 %self) unnamed_addr #1 !dbg !2656 {
start:
  %self.dbg.spill = alloca [8 x i8], align 8
  store ptr %self, ptr %self.dbg.spill, align 8
    #dbg_declare(ptr %self.dbg.spill, !2663, !DIExpression(), !2667)
  %_3 = load ptr, ptr %self, align 8, !dbg !2668
; call <rand_chacha::chacha::Array64<T> as core::convert::AsRef<[T]>>::as_ref
  %0 = call { ptr, i64 } @"_ZN97_$LT$rand_chacha..chacha..Array64$LT$T$GT$$u20$as$u20$core..convert..AsRef$LT$$u5b$T$u5d$$GT$$GT$6as_ref17h675649b1da53e1b8E"(ptr align 4 %_3), !dbg !2669
  %_0.0 = extractvalue { ptr, i64 } %0, 0, !dbg !2669
  %_0.1 = extractvalue { ptr, i64 } %0, 1, !dbg !2669
  %1 = insertvalue { ptr, i64 } poison, ptr %_0.0, 0, !dbg !2670
  %2 = insertvalue { ptr, i64 } %1, i64 %_0.1, 1, !dbg !2670
  ret { ptr, i64 } %2, !dbg !2670
}

; <[T] as rand::seq::slice::IndexedRandom>::len
; Function Attrs: uwtable
define i64 @"_ZN63_$LT$$u5b$T$u5d$$u20$as$u20$rand..seq..slice..IndexedRandom$GT$3len17h9bfe6fd58f26f7faE"(ptr align 4 %self.0, i64 %self.1) unnamed_addr #0 !dbg !2671 {
start:
  %self.dbg.spill = alloca [16 x i8], align 8
  store ptr %self.0, ptr %self.dbg.spill, align 8
  %0 = getelementptr inbounds i8, ptr %self.dbg.spill, i64 8
  store i64 %self.1, ptr %0, align 8
    #dbg_declare(ptr %self.dbg.spill, !2676, !DIExpression(), !2677)
  ret i64 %self.1, !dbg !2678
}

; <I as core::iter::traits::collect::IntoIterator>::into_iter
; Function Attrs: inlinehint uwtable
define void @"_ZN63_$LT$I$u20$as$u20$core..iter..traits..collect..IntoIterator$GT$9into_iter17h9e4aa80abbf79d54E"(ptr sret([24 x i8]) align 8 %_0, ptr align 8 %self) unnamed_addr #1 !dbg !2679 {
start:
    #dbg_declare(ptr %self, !2686, !DIExpression(), !2689)
  call void @llvm.memcpy.p0.p0.i64(ptr align 8 %_0, ptr align 8 %self, i64 24, i1 false), !dbg !2690
  ret void, !dbg !2691
}

; <I as core::iter::traits::collect::IntoIterator>::into_iter
; Function Attrs: inlinehint uwtable
define { i32, i32 } @"_ZN63_$LT$I$u20$as$u20$core..iter..traits..collect..IntoIterator$GT$9into_iter17hd47abcfca4a34ba1E"(i32 %self.0, i32 %self.1) unnamed_addr #1 !dbg !2692 {
start:
  %self.dbg.spill = alloca [8 x i8], align 4
  store i32 %self.0, ptr %self.dbg.spill, align 4
  %0 = getelementptr inbounds i8, ptr %self.dbg.spill, i64 4
  store i32 %self.1, ptr %0, align 4
    #dbg_declare(ptr %self.dbg.spill, !2696, !DIExpression(), !2698)
  %1 = insertvalue { i32, i32 } poison, i32 %self.0, 0, !dbg !2699
  %2 = insertvalue { i32, i32 } %1, i32 %self.1, 1, !dbg !2699
  ret { i32, i32 } %2, !dbg !2699
}

; <rand::distr::uniform::Error as core::fmt::Debug>::fmt
; Function Attrs: inlinehint uwtable
define internal zeroext i1 @"_ZN64_$LT$rand..distr..uniform..Error$u20$as$u20$core..fmt..Debug$GT$3fmt17h73f804d86feb7c10E"(ptr align 1 %self, ptr align 8 %f) unnamed_addr #1 !dbg !2700 {
start:
  %f.dbg.spill = alloca [8 x i8], align 8
  %self.dbg.spill = alloca [8 x i8], align 8
  %_3 = alloca [16 x i8], align 8
  store ptr %self, ptr %self.dbg.spill, align 8
    #dbg_declare(ptr %self.dbg.spill, !2706, !DIExpression(), !2708)
  store ptr %f, ptr %f.dbg.spill, align 8
    #dbg_declare(ptr %f.dbg.spill, !2707, !DIExpression(), !2708)
  %0 = load i8, ptr %self, align 1, !dbg !2708
  %1 = trunc i8 %0 to i1, !dbg !2708
  %_4 = zext i1 %1 to i64, !dbg !2708
  %2 = icmp eq i64 %_4, 0, !dbg !2708
  br i1 %2, label %bb3, label %bb2, !dbg !2708

bb3:                                              ; preds = %start
  store ptr @alloc_469dc6e050263e96b5bbf6041562962d, ptr %_3, align 8, !dbg !2708
  %3 = getelementptr inbounds i8, ptr %_3, i64 8, !dbg !2708
  store i64 10, ptr %3, align 8, !dbg !2708
  br label %bb4, !dbg !2709

bb2:                                              ; preds = %start
  store ptr @alloc_e12739f6e50f2bfa7992d9688152e366, ptr %_3, align 8, !dbg !2708
  %4 = getelementptr inbounds i8, ptr %_3, i64 8, !dbg !2708
  store i64 9, ptr %4, align 8, !dbg !2708
  br label %bb4, !dbg !2709

bb4:                                              ; preds = %bb2, %bb3
  %5 = load ptr, ptr %_3, align 8, !dbg !2708
  %6 = getelementptr inbounds i8, ptr %_3, i64 8, !dbg !2708
  %7 = load i64, ptr %6, align 8, !dbg !2708
; call core::fmt::Formatter::write_str
  %_0 = call zeroext i1 @_ZN4core3fmt9Formatter9write_str17hfd0385b3b22db6b8E(ptr align 8 %f, ptr align 1 %5, i64 %7), !dbg !2708
  ret i1 %_0, !dbg !2710

bb1:                                              ; No predecessors!
  unreachable, !dbg !2708
}

; <alloc::vec::Vec<T,A> as core::ops::drop::Drop>::drop
; Function Attrs: uwtable
define void @"_ZN70_$LT$alloc..vec..Vec$LT$T$C$A$GT$$u20$as$u20$core..ops..drop..Drop$GT$4drop17h1a8d59109d11c4ddE"(ptr align 8 %self) unnamed_addr #0 !dbg !2711 {
start:
  %len.dbg.spill = alloca [8 x i8], align 8
  %data.dbg.spill = alloca [8 x i8], align 8
  %self.dbg.spill = alloca [8 x i8], align 8
  store ptr %self, ptr %self.dbg.spill, align 8
    #dbg_declare(ptr %self.dbg.spill, !2716, !DIExpression(), !2717)
    #dbg_declare(ptr %self.dbg.spill, !2718, !DIExpression(), !2721)
  %0 = getelementptr inbounds i8, ptr %self, i64 8, !dbg !2723
  %_8 = load ptr, ptr %0, align 8, !dbg !2723
  store ptr %_8, ptr %data.dbg.spill, align 8, !dbg !2730
    #dbg_declare(ptr %data.dbg.spill, !2733, !DIExpression(), !2743)
  %1 = getelementptr inbounds i8, ptr %self, i64 16, !dbg !2745
  %len = load i64, ptr %1, align 8, !dbg !2745
  store i64 %len, ptr %len.dbg.spill, align 8, !dbg !2745
    #dbg_declare(ptr %len.dbg.spill, !2742, !DIExpression(), !2746)
  ret void, !dbg !2747
}

; <alloc::vec::Vec<T,A> as core::ops::deref::Deref>::deref
; Function Attrs: inlinehint uwtable
define { ptr, i64 } @"_ZN72_$LT$alloc..vec..Vec$LT$T$C$A$GT$$u20$as$u20$core..ops..deref..Deref$GT$5deref17h82681a04b4f438faE"(ptr align 8 %self) unnamed_addr #1 !dbg !2748 {
start:
  %self.dbg.spill = alloca [8 x i8], align 8
  store ptr %self, ptr %self.dbg.spill, align 8
    #dbg_declare(ptr %self.dbg.spill, !2751, !DIExpression(), !2752)
; call alloc::vec::Vec<T,A>::as_slice
  %0 = call { ptr, i64 } @"_ZN5alloc3vec16Vec$LT$T$C$A$GT$8as_slice17hcb33d08f5541bd81E"(ptr align 8 %self), !dbg !2753
  %_0.0 = extractvalue { ptr, i64 } %0, 0, !dbg !2753
  %_0.1 = extractvalue { ptr, i64 } %0, 1, !dbg !2753
  %1 = insertvalue { ptr, i64 } poison, ptr %_0.0, 0, !dbg !2754
  %2 = insertvalue { ptr, i64 } %1, i64 %_0.1, 1, !dbg !2754
  ret { ptr, i64 } %2, !dbg !2754
}

; <rand_core::block::BlockRng<R> as rand_core::RngCore>::next_u32
; Function Attrs: inlinehint uwtable
define i32 @"_ZN74_$LT$rand_core..block..BlockRng$LT$R$GT$$u20$as$u20$rand_core..RngCore$GT$8next_u3217h4e8e58bf636ab8a9E"(ptr align 8 %self) unnamed_addr #1 !dbg !2755 {
start:
  %value.dbg.spill = alloca [4 x i8], align 4
  %self.dbg.spill = alloca [8 x i8], align 8
  store ptr %self, ptr %self.dbg.spill, align 8
    #dbg_declare(ptr %self.dbg.spill, !2762, !DIExpression(), !2765)
  %0 = getelementptr inbounds i8, ptr %self, i64 320, !dbg !2766
  %_3 = load i64, ptr %0, align 8, !dbg !2766
; call <rand_chacha::chacha::Array64<T> as core::convert::AsRef<[T]>>::as_ref
  %1 = call { ptr, i64 } @"_ZN97_$LT$rand_chacha..chacha..Array64$LT$T$GT$$u20$as$u20$core..convert..AsRef$LT$$u5b$T$u5d$$GT$$GT$6as_ref17h675649b1da53e1b8E"(ptr align 4 %self), !dbg !2767
  %_5.0 = extractvalue { ptr, i64 } %1, 0, !dbg !2767
  %_5.1 = extractvalue { ptr, i64 } %1, 1, !dbg !2767
  %_2 = icmp uge i64 %_3, %_5.1, !dbg !2766
  br i1 %_2, label %bb2, label %bb3, !dbg !2766

bb3:                                              ; preds = %bb2, %start
; call <rand_chacha::chacha::Array64<T> as core::convert::AsRef<[T]>>::as_ref
  %2 = call { ptr, i64 } @"_ZN97_$LT$rand_chacha..chacha..Array64$LT$T$GT$$u20$as$u20$core..convert..AsRef$LT$$u5b$T$u5d$$GT$$GT$6as_ref17h675649b1da53e1b8E"(ptr align 4 %self), !dbg !2768
  %_8.0 = extractvalue { ptr, i64 } %2, 0, !dbg !2768
  %_8.1 = extractvalue { ptr, i64 } %2, 1, !dbg !2768
  %3 = getelementptr inbounds i8, ptr %self, i64 320, !dbg !2769
  %_10 = load i64, ptr %3, align 8, !dbg !2769
  %_12 = icmp ult i64 %_10, %_8.1, !dbg !2768
  br i1 %_12, label %bb5, label %panic, !dbg !2768

bb2:                                              ; preds = %start
; call rand_core::block::BlockRng<R>::generate_and_set
  call void @"_ZN9rand_core5block17BlockRng$LT$R$GT$16generate_and_set17h3a65391a1e3418d3E"(ptr align 8 %self, i64 0), !dbg !2770
  br label %bb3, !dbg !2770

bb5:                                              ; preds = %bb3
  %4 = getelementptr inbounds i32, ptr %_8.0, i64 %_10, !dbg !2768
  %value = load i32, ptr %4, align 4, !dbg !2768
  store i32 %value, ptr %value.dbg.spill, align 4, !dbg !2768
    #dbg_declare(ptr %value.dbg.spill, !2763, !DIExpression(), !2771)
  %5 = getelementptr inbounds i8, ptr %self, i64 320, !dbg !2772
  %6 = load i64, ptr %5, align 8, !dbg !2772
  %7 = call { i64, i1 } @llvm.uadd.with.overflow.i64(i64 %6, i64 1), !dbg !2772
  %_13.0 = extractvalue { i64, i1 } %7, 0, !dbg !2772
  %_13.1 = extractvalue { i64, i1 } %7, 1, !dbg !2772
  br i1 %_13.1, label %panic1, label %bb6, !dbg !2772

panic:                                            ; preds = %bb3
; call core::panicking::panic_bounds_check
  call void @_ZN4core9panicking18panic_bounds_check17ha80623d135cf5628E(i64 %_10, i64 %_8.1, ptr align 8 @alloc_d58627c8b7d22ff445dfd075c0e26e70) #14, !dbg !2768
  unreachable, !dbg !2768

bb6:                                              ; preds = %bb5
  %8 = getelementptr inbounds i8, ptr %self, i64 320, !dbg !2772
  store i64 %_13.0, ptr %8, align 8, !dbg !2772
  ret i32 %value, !dbg !2773

panic1:                                           ; preds = %bb5
; call core::panicking::panic_const::panic_const_add_overflow
  call void @_ZN4core9panicking11panic_const24panic_const_add_overflow17h585c583b627172f8E(ptr align 8 @alloc_235f0e991384b252c512ec3728f3019f) #14, !dbg !2772
  unreachable, !dbg !2772
}

; <rand_core::block::BlockRng<R> as rand_core::RngCore>::next_u64
; Function Attrs: inlinehint uwtable
define i64 @"_ZN74_$LT$rand_core..block..BlockRng$LT$R$GT$$u20$as$u20$rand_core..RngCore$GT$8next_u6417h4d430803160e6722E"(ptr align 8 %self) unnamed_addr #1 !dbg !2774 {
start:
  %small.dbg.spill.i5 = alloca [4 x i8], align 4
  %small.dbg.spill.i = alloca [4 x i8], align 4
  %y.dbg.spill = alloca [8 x i8], align 8
  %x.dbg.spill = alloca [8 x i8], align 8
  %index.dbg.spill = alloca [8 x i8], align 8
  %len.dbg.spill = alloca [8 x i8], align 8
  %read_u64.dbg.spill = alloca [0 x i8], align 1
  %self.dbg.spill = alloca [8 x i8], align 8
  %_18 = alloca [24 x i8], align 8
  %_12 = alloca [24 x i8], align 8
  %_2 = alloca [0 x i8], align 1
  %_0 = alloca [8 x i8], align 8
  store ptr %self, ptr %self.dbg.spill, align 8
    #dbg_declare(ptr %self.dbg.spill, !2778, !DIExpression(), !2791)
    #dbg_declare(ptr %read_u64.dbg.spill, !2779, !DIExpression(), !2792)
; call <rand_chacha::chacha::Array64<T> as core::convert::AsRef<[T]>>::as_ref
  %0 = call { ptr, i64 } @"_ZN97_$LT$rand_chacha..chacha..Array64$LT$T$GT$$u20$as$u20$core..convert..AsRef$LT$$u5b$T$u5d$$GT$$GT$6as_ref17h675649b1da53e1b8E"(ptr align 4 %self), !dbg !2793
  %_4.0 = extractvalue { ptr, i64 } %0, 0, !dbg !2793
  %_4.1 = extractvalue { ptr, i64 } %0, 1, !dbg !2793
  store i64 %_4.1, ptr %len.dbg.spill, align 8, !dbg !2793
    #dbg_declare(ptr %len.dbg.spill, !2783, !DIExpression(), !2794)
  %1 = getelementptr inbounds i8, ptr %self, i64 320, !dbg !2795
  %index = load i64, ptr %1, align 8, !dbg !2795
  store i64 %index, ptr %index.dbg.spill, align 8, !dbg !2795
    #dbg_declare(ptr %index.dbg.spill, !2785, !DIExpression(), !2796)
  %_9.0 = sub i64 %_4.1, 1, !dbg !2797
  %_9.1 = icmp ult i64 %_4.1, 1, !dbg !2797
  br i1 %_9.1, label %panic, label %bb2, !dbg !2797

bb2:                                              ; preds = %start
  %_7 = icmp ult i64 %index, %_9.0, !dbg !2798
  br i1 %_7, label %bb3, label %bb6, !dbg !2798

panic:                                            ; preds = %start
; call core::panicking::panic_const::panic_const_sub_overflow
  call void @_ZN4core9panicking11panic_const24panic_const_sub_overflow17h8f97c6b3a4c962daE(ptr align 8 @alloc_713d52eb880bae319ff4cbd7740a3e64) #14, !dbg !2797
  unreachable, !dbg !2797

bb6:                                              ; preds = %bb2
  %_15 = icmp uge i64 %index, %_4.1, !dbg !2799
  br i1 %_15, label %bb7, label %bb10, !dbg !2799

bb3:                                              ; preds = %bb2
  %2 = getelementptr inbounds i8, ptr %self, i64 320, !dbg !2800
  %3 = load i64, ptr %2, align 8, !dbg !2800
  %4 = call { i64, i1 } @llvm.uadd.with.overflow.i64(i64 %3, i64 2), !dbg !2800
  %_10.0 = extractvalue { i64, i1 } %4, 0, !dbg !2800
  %_10.1 = extractvalue { i64, i1 } %4, 1, !dbg !2800
  br i1 %_10.1, label %panic4, label %bb4, !dbg !2800

bb10:                                             ; preds = %bb6
; call <rand_chacha::chacha::Array64<T> as core::convert::AsRef<[T]>>::as_ref
  %5 = call { ptr, i64 } @"_ZN97_$LT$rand_chacha..chacha..Array64$LT$T$GT$$u20$as$u20$core..convert..AsRef$LT$$u5b$T$u5d$$GT$$GT$6as_ref17h675649b1da53e1b8E"(ptr align 4 %self), !dbg !2801
  %_23.0 = extractvalue { ptr, i64 } %5, 0, !dbg !2801
  %_23.1 = extractvalue { ptr, i64 } %5, 1, !dbg !2801
  %_26.0 = sub i64 %_4.1, 1, !dbg !2802
  %_26.1 = icmp ult i64 %_4.1, 1, !dbg !2802
  br i1 %_26.1, label %panic1, label %bb12, !dbg !2802

bb7:                                              ; preds = %bb6
; call rand_core::block::BlockRng<R>::generate_and_set
  call void @"_ZN9rand_core5block17BlockRng$LT$R$GT$16generate_and_set17h3a65391a1e3418d3E"(ptr align 8 %self, i64 2), !dbg !2803
; call <rand_chacha::chacha::Array64<T> as core::convert::AsRef<[T]>>::as_ref
  %6 = call { ptr, i64 } @"_ZN97_$LT$rand_chacha..chacha..Array64$LT$T$GT$$u20$as$u20$core..convert..AsRef$LT$$u5b$T$u5d$$GT$$GT$6as_ref17h675649b1da53e1b8E"(ptr align 4 %self), !dbg !2804
  %_19.0 = extractvalue { ptr, i64 } %6, 0, !dbg !2804
  %_19.1 = extractvalue { ptr, i64 } %6, 1, !dbg !2804
  store ptr %_19.0, ptr %_18, align 8, !dbg !2805
  %7 = getelementptr inbounds i8, ptr %_18, i64 8, !dbg !2805
  store i64 %_19.1, ptr %7, align 8, !dbg !2805
  %8 = getelementptr inbounds i8, ptr %_18, i64 16, !dbg !2805
  store i64 0, ptr %8, align 8, !dbg !2805
  %9 = load ptr, ptr %_18, align 8, !dbg !2805
  %10 = getelementptr inbounds i8, ptr %_18, i64 8, !dbg !2805
  %11 = load i64, ptr %10, align 8, !dbg !2805
  %12 = getelementptr inbounds i8, ptr %_18, i64 16, !dbg !2805
  %13 = load i64, ptr %12, align 8, !dbg !2805
; call <rand_core::block::BlockRng<R> as rand_core::RngCore>::next_u64::{{closure}}
  %14 = call i64 @"_ZN74_$LT$rand_core..block..BlockRng$LT$R$GT$$u20$as$u20$rand_core..RngCore$GT$8next_u6428_$u7b$$u7b$closure$u7d$$u7d$17h6bdeabd06d0a9b48E"(ptr align 1 %_2, ptr align 4 %9, i64 %11, i64 %13), !dbg !2805
  store i64 %14, ptr %_0, align 8, !dbg !2805
  br label %bb20, !dbg !2805

bb12:                                             ; preds = %bb10
  %_28 = icmp ult i64 %_26.0, %_23.1, !dbg !2801
  br i1 %_28, label %bb13, label %panic2, !dbg !2801

panic1:                                           ; preds = %bb10
; call core::panicking::panic_const::panic_const_sub_overflow
  call void @_ZN4core9panicking11panic_const24panic_const_sub_overflow17h8f97c6b3a4c962daE(ptr align 8 @alloc_455f58f4ff2dab1ddfa3112333b8a638) #14, !dbg !2802
  unreachable, !dbg !2802

bb13:                                             ; preds = %bb12
  %15 = getelementptr inbounds i32, ptr %_23.0, i64 %_26.0, !dbg !2801
  %_22 = load i32, ptr %15, align 4, !dbg !2801
  store i32 %_22, ptr %small.dbg.spill.i5, align 4
    #dbg_declare(ptr %small.dbg.spill.i5, !2806, !DIExpression(), !2814)
  %_0.i6 = zext i32 %_22 to i64, !dbg !2816
  store i64 %_0.i6, ptr %x.dbg.spill, align 8, !dbg !2817
    #dbg_declare(ptr %x.dbg.spill, !2787, !DIExpression(), !2818)
; call rand_core::block::BlockRng<R>::generate_and_set
  call void @"_ZN9rand_core5block17BlockRng$LT$R$GT$16generate_and_set17h3a65391a1e3418d3E"(ptr align 8 %self, i64 1), !dbg !2819
; call <rand_chacha::chacha::Array64<T> as core::convert::AsRef<[T]>>::as_ref
  %16 = call { ptr, i64 } @"_ZN97_$LT$rand_chacha..chacha..Array64$LT$T$GT$$u20$as$u20$core..convert..AsRef$LT$$u5b$T$u5d$$GT$$GT$6as_ref17h675649b1da53e1b8E"(ptr align 4 %self), !dbg !2820
  %_32.0 = extractvalue { ptr, i64 } %16, 0, !dbg !2820
  %_32.1 = extractvalue { ptr, i64 } %16, 1, !dbg !2820
  %_36 = icmp ult i64 0, %_32.1, !dbg !2820
  br i1 %_36, label %bb17, label %panic3, !dbg !2820

panic2:                                           ; preds = %bb12
; call core::panicking::panic_bounds_check
  call void @_ZN4core9panicking18panic_bounds_check17ha80623d135cf5628E(i64 %_26.0, i64 %_23.1, ptr align 8 @alloc_3cc342ee88a539c975b102e7fa201c3d) #14, !dbg !2801
  unreachable, !dbg !2801

bb17:                                             ; preds = %bb13
  %17 = getelementptr inbounds i32, ptr %_32.0, i64 0, !dbg !2820
  %_31 = load i32, ptr %17, align 4, !dbg !2820
  store i32 %_31, ptr %small.dbg.spill.i, align 4
    #dbg_declare(ptr %small.dbg.spill.i, !2806, !DIExpression(), !2821)
  %_0.i = zext i32 %_31 to i64, !dbg !2823
  store i64 %_0.i, ptr %y.dbg.spill, align 8, !dbg !2824
    #dbg_declare(ptr %y.dbg.spill, !2789, !DIExpression(), !2825)
  %_37 = shl i64 %_0.i, 32, !dbg !2826
  %18 = or i64 %_37, %_0.i6, !dbg !2826
  store i64 %18, ptr %_0, align 8, !dbg !2826
  br label %bb20, !dbg !2827

panic3:                                           ; preds = %bb13
; call core::panicking::panic_bounds_check
  call void @_ZN4core9panicking18panic_bounds_check17ha80623d135cf5628E(i64 0, i64 %_32.1, ptr align 8 @alloc_4c3189bd1f5fdb237107f268c9262483) #14, !dbg !2820
  unreachable, !dbg !2820

bb20:                                             ; preds = %bb4, %bb7, %bb17
  %19 = load i64, ptr %_0, align 8, !dbg !2828
  ret i64 %19, !dbg !2828

bb4:                                              ; preds = %bb3
  %20 = getelementptr inbounds i8, ptr %self, i64 320, !dbg !2800
  store i64 %_10.0, ptr %20, align 8, !dbg !2800
; call <rand_chacha::chacha::Array64<T> as core::convert::AsRef<[T]>>::as_ref
  %21 = call { ptr, i64 } @"_ZN97_$LT$rand_chacha..chacha..Array64$LT$T$GT$$u20$as$u20$core..convert..AsRef$LT$$u5b$T$u5d$$GT$$GT$6as_ref17h675649b1da53e1b8E"(ptr align 4 %self), !dbg !2829
  %_13.0 = extractvalue { ptr, i64 } %21, 0, !dbg !2829
  %_13.1 = extractvalue { ptr, i64 } %21, 1, !dbg !2829
  store ptr %_13.0, ptr %_12, align 8, !dbg !2830
  %22 = getelementptr inbounds i8, ptr %_12, i64 8, !dbg !2830
  store i64 %_13.1, ptr %22, align 8, !dbg !2830
  %23 = getelementptr inbounds i8, ptr %_12, i64 16, !dbg !2830
  store i64 %index, ptr %23, align 8, !dbg !2830
  %24 = load ptr, ptr %_12, align 8, !dbg !2830
  %25 = getelementptr inbounds i8, ptr %_12, i64 8, !dbg !2830
  %26 = load i64, ptr %25, align 8, !dbg !2830
  %27 = getelementptr inbounds i8, ptr %_12, i64 16, !dbg !2830
  %28 = load i64, ptr %27, align 8, !dbg !2830
; call <rand_core::block::BlockRng<R> as rand_core::RngCore>::next_u64::{{closure}}
  %29 = call i64 @"_ZN74_$LT$rand_core..block..BlockRng$LT$R$GT$$u20$as$u20$rand_core..RngCore$GT$8next_u6428_$u7b$$u7b$closure$u7d$$u7d$17h6bdeabd06d0a9b48E"(ptr align 1 %_2, ptr align 4 %24, i64 %26, i64 %28), !dbg !2830
  store i64 %29, ptr %_0, align 8, !dbg !2830
  br label %bb20, !dbg !2830

panic4:                                           ; preds = %bb3
; call core::panicking::panic_const::panic_const_add_overflow
  call void @_ZN4core9panicking11panic_const24panic_const_add_overflow17h585c583b627172f8E(ptr align 8 @alloc_8211d49787e16b67f616bb6cd05c132c) #14, !dbg !2800
  unreachable, !dbg !2800
}

; <rand_core::block::BlockRng<R> as rand_core::RngCore>::next_u64::{{closure}}
; Function Attrs: inlinehint uwtable
define i64 @"_ZN74_$LT$rand_core..block..BlockRng$LT$R$GT$$u20$as$u20$rand_core..RngCore$GT$8next_u6428_$u7b$$u7b$closure$u7d$$u7d$17h6bdeabd06d0a9b48E"(ptr align 1 %_1, ptr align 4 %results.0, i64 %results.1, i64 %index) unnamed_addr #1 !dbg !2831 {
start:
  %small.dbg.spill.i3 = alloca [4 x i8], align 4
  %small.dbg.spill.i = alloca [4 x i8], align 4
  %self.dbg.spill.i = alloca [16 x i8], align 8
  %data.dbg.spill = alloca [16 x i8], align 8
  %index.dbg.spill = alloca [8 x i8], align 8
  %results.dbg.spill = alloca [16 x i8], align 8
  %_1.dbg.spill = alloca [8 x i8], align 8
  %_5 = alloca [24 x i8], align 8
  store ptr %_1, ptr %_1.dbg.spill, align 8
    #dbg_declare(ptr %_1.dbg.spill, !2840, !DIExpression(), !2841)
  store ptr %results.0, ptr %results.dbg.spill, align 8
  %0 = getelementptr inbounds i8, ptr %results.dbg.spill, i64 8
  store i64 %results.1, ptr %0, align 8
    #dbg_declare(ptr %results.dbg.spill, !2836, !DIExpression(), !2842)
  store i64 %index, ptr %index.dbg.spill, align 8
    #dbg_declare(ptr %index.dbg.spill, !2837, !DIExpression(), !2843)
  %1 = call { i64, i1 } @llvm.uadd.with.overflow.i64(i64 %index, i64 1), !dbg !2844
  %_7.0 = extractvalue { i64, i1 } %1, 0, !dbg !2844
  %_7.1 = extractvalue { i64, i1 } %1, 1, !dbg !2844
  br i1 %_7.1, label %panic, label %bb1, !dbg !2844

bb1:                                              ; preds = %start
; call core::ops::range::RangeInclusive<Idx>::new
  call void @"_ZN4core3ops5range25RangeInclusive$LT$Idx$GT$3new17h33f417fc8905bda0E"(ptr sret([24 x i8]) align 8 %_5, i64 %index, i64 %_7.0), !dbg !2845
  store ptr %results.0, ptr %self.dbg.spill.i, align 8
  %2 = getelementptr inbounds i8, ptr %self.dbg.spill.i, i64 8
  store i64 %results.1, ptr %2, align 8
    #dbg_declare(ptr %self.dbg.spill.i, !2846, !DIExpression(), !2854)
    #dbg_declare(ptr %_5, !2851, !DIExpression(), !2856)
; call <core::ops::range::RangeInclusive<usize> as core::slice::index::SliceIndex<[T]>>::index
  %3 = call { ptr, i64 } @"_ZN115_$LT$core..ops..range..RangeInclusive$LT$usize$GT$$u20$as$u20$core..slice..index..SliceIndex$LT$$u5b$T$u5d$$GT$$GT$5index17h3fd8cbf615145278E"(ptr align 8 %_5, ptr align 4 %results.0, i64 %results.1, ptr align 8 @alloc_8df363046774bb3c05580f35679f3587), !dbg !2857
  %_0.0.i = extractvalue { ptr, i64 } %3, 0, !dbg !2857
  %_0.1.i = extractvalue { ptr, i64 } %3, 1, !dbg !2857
  %data.0 = extractvalue { ptr, i64 } %3, 0, !dbg !2858
  %data.1 = extractvalue { ptr, i64 } %3, 1, !dbg !2858
  store ptr %data.0, ptr %data.dbg.spill, align 8, !dbg !2858
  %4 = getelementptr inbounds i8, ptr %data.dbg.spill, i64 8, !dbg !2858
  store i64 %data.1, ptr %4, align 8, !dbg !2858
    #dbg_declare(ptr %data.dbg.spill, !2838, !DIExpression(), !2859)
  %_13 = icmp ult i64 1, %data.1, !dbg !2860
  br i1 %_13, label %bb4, label %panic1, !dbg !2860

panic:                                            ; preds = %start
; call core::panicking::panic_const::panic_const_add_overflow
  call void @_ZN4core9panicking11panic_const24panic_const_add_overflow17h585c583b627172f8E(ptr align 8 @alloc_e6df7d8c54fa679e06696170aa0f7f59) #14, !dbg !2844
  unreachable, !dbg !2844

bb4:                                              ; preds = %bb1
  %5 = getelementptr inbounds i32, ptr %data.0, i64 1, !dbg !2860
  %_10 = load i32, ptr %5, align 4, !dbg !2860
  store i32 %_10, ptr %small.dbg.spill.i3, align 4
    #dbg_declare(ptr %small.dbg.spill.i3, !2806, !DIExpression(), !2861)
  %_0.i4 = zext i32 %_10 to i64, !dbg !2863
  %_8 = shl i64 %_0.i4, 32, !dbg !2864
  %_20 = icmp ult i64 0, %data.1, !dbg !2865
  br i1 %_20, label %bb7, label %panic2, !dbg !2865

panic1:                                           ; preds = %bb1
; call core::panicking::panic_bounds_check
  call void @_ZN4core9panicking18panic_bounds_check17ha80623d135cf5628E(i64 1, i64 %data.1, ptr align 8 @alloc_e5c5095d6ea4aded3dba75a8b19a51fe) #14, !dbg !2860
  unreachable, !dbg !2860

bb7:                                              ; preds = %bb4
  %6 = getelementptr inbounds i32, ptr %data.0, i64 0, !dbg !2865
  %_17 = load i32, ptr %6, align 4, !dbg !2865
  store i32 %_17, ptr %small.dbg.spill.i, align 4
    #dbg_declare(ptr %small.dbg.spill.i, !2806, !DIExpression(), !2866)
  %_0.i = zext i32 %_17 to i64, !dbg !2868
  %_0 = or i64 %_8, %_0.i, !dbg !2864
  ret i64 %_0, !dbg !2869

panic2:                                           ; preds = %bb4
; call core::panicking::panic_bounds_check
  call void @_ZN4core9panicking18panic_bounds_check17ha80623d135cf5628E(i64 0, i64 %data.1, ptr align 8 @alloc_1e801a89cb7cbe249384aab6cc3da5a5) #14, !dbg !2865
  unreachable, !dbg !2865
}

; <usize as core::slice::index::SliceIndex<[T]>>::index
; Function Attrs: inlinehint uwtable
define align 4 ptr @"_ZN75_$LT$usize$u20$as$u20$core..slice..index..SliceIndex$LT$$u5b$T$u5d$$GT$$GT$5index17h324e077aac9c2bc2E"(i64 %self, ptr align 4 %slice.0, i64 %slice.1, ptr align 8 %0) unnamed_addr #1 !dbg !2870 {
start:
  %slice.dbg.spill = alloca [16 x i8], align 8
  %self.dbg.spill = alloca [8 x i8], align 8
  store i64 %self, ptr %self.dbg.spill, align 8
    #dbg_declare(ptr %self.dbg.spill, !2875, !DIExpression(), !2877)
  store ptr %slice.0, ptr %slice.dbg.spill, align 8
  %1 = getelementptr inbounds i8, ptr %slice.dbg.spill, i64 8
  store i64 %slice.1, ptr %1, align 8
    #dbg_declare(ptr %slice.dbg.spill, !2876, !DIExpression(), !2878)
  %_4 = icmp ult i64 %self, %slice.1, !dbg !2879
  br i1 %_4, label %bb1, label %panic, !dbg !2879

bb1:                                              ; preds = %start
  %_0 = getelementptr inbounds i32, ptr %slice.0, i64 %self, !dbg !2880
  ret ptr %_0, !dbg !2881

panic:                                            ; preds = %start
; call core::panicking::panic_bounds_check
  call void @_ZN4core9panicking18panic_bounds_check17ha80623d135cf5628E(i64 %self, i64 %slice.1, ptr align 8 %0) #14, !dbg !2879
  unreachable, !dbg !2879
}

; <alloc::raw_vec::RawVec<T,A> as core::ops::drop::Drop>::drop
; Function Attrs: uwtable
define void @"_ZN77_$LT$alloc..raw_vec..RawVec$LT$T$C$A$GT$$u20$as$u20$core..ops..drop..Drop$GT$4drop17he9ef99e55bed1912E"(ptr align 8 %self) unnamed_addr #0 !dbg !2882 {
start:
  %self.dbg.spill = alloca [8 x i8], align 8
  store ptr %self, ptr %self.dbg.spill, align 8
    #dbg_declare(ptr %self.dbg.spill, !2887, !DIExpression(), !2888)
; call alloc::raw_vec::RawVecInner<A>::deallocate
  call void @"_ZN5alloc7raw_vec20RawVecInner$LT$A$GT$10deallocate17h7b2eeac487f6d27aE"(ptr align 8 %self, i64 4, i64 4), !dbg !2889
  ret void, !dbg !2890
}

; <alloc::vec::set_len_on_drop::SetLenOnDrop as core::ops::drop::Drop>::drop
; Function Attrs: inlinehint uwtable
define internal void @"_ZN83_$LT$alloc..vec..set_len_on_drop..SetLenOnDrop$u20$as$u20$core..ops..drop..Drop$GT$4drop17h9466639fa39497d9E"(ptr align 8 %self) unnamed_addr #1 !dbg !2891 {
start:
  %self.dbg.spill = alloca [8 x i8], align 8
  store ptr %self, ptr %self.dbg.spill, align 8
    #dbg_declare(ptr %self.dbg.spill, !2896, !DIExpression(), !2897)
  %0 = getelementptr inbounds i8, ptr %self, i64 8, !dbg !2898
  %_2 = load i64, ptr %0, align 8, !dbg !2898
  %_3 = load ptr, ptr %self, align 8, !dbg !2899
  store i64 %_2, ptr %_3, align 8, !dbg !2899
  ret void, !dbg !2900
}

; <rand_chacha::chacha::ChaCha12Core as rand_core::block::BlockRngCore>::generate
; Function Attrs: inlinehint uwtable
define internal void @"_ZN84_$LT$rand_chacha..chacha..ChaCha12Core$u20$as$u20$rand_core..block..BlockRngCore$GT$8generate17h4ec65a216c4333c4E"(ptr align 8 %self, ptr align 4 %r) unnamed_addr #1 personality ptr @rust_eh_personality !dbg !2901 {
start:
  %_2.i.i3013 = alloca [16 x i8], align 4
  %0 = alloca [16 x i8], align 8
  %1 = alloca [16 x i8], align 8
  %_6.i.i3014 = alloca [16 x i8], align 4
  %d2.i.i3015 = alloca [16 x i8], align 8
  %d.i.i3016 = alloca [16 x i8], align 4
  %t1.i.i3017 = alloca [16 x i8], align 8
  %f.i.i3018 = alloca [0 x i8], align 1
    #dbg_declare(ptr %_4.i2355, !2910, !DIExpression(), !2920)
  %2 = alloca [16 x i8], align 4
  %_2.i.i2992 = alloca [16 x i8], align 4
  %3 = alloca [16 x i8], align 8
  %4 = alloca [16 x i8], align 8
  %_6.i.i2993 = alloca [16 x i8], align 4
  %d2.i.i2994 = alloca [16 x i8], align 8
  %d.i.i2995 = alloca [16 x i8], align 4
  %t1.i.i2996 = alloca [16 x i8], align 8
  %f.i.i2997 = alloca [0 x i8], align 1
    #dbg_declare(ptr %_9.i2353, !2910, !DIExpression(), !3028)
  %5 = alloca [16 x i8], align 4
  %_2.i.i2971 = alloca [16 x i8], align 4
  %6 = alloca [16 x i8], align 8
  %7 = alloca [16 x i8], align 8
  %_6.i.i2972 = alloca [16 x i8], align 4
  %d2.i.i2973 = alloca [16 x i8], align 8
  %d.i.i2974 = alloca [16 x i8], align 4
  %t1.i.i2975 = alloca [16 x i8], align 8
  %f.i.i2976 = alloca [0 x i8], align 1
    #dbg_declare(ptr %_14.i2351, !2910, !DIExpression(), !3030)
  %8 = alloca [16 x i8], align 4
  %_2.i.i2950 = alloca [16 x i8], align 4
  %9 = alloca [16 x i8], align 8
  %10 = alloca [16 x i8], align 8
  %_6.i.i2951 = alloca [16 x i8], align 4
  %d2.i.i2952 = alloca [16 x i8], align 8
  %d.i.i2953 = alloca [16 x i8], align 4
  %t1.i.i2954 = alloca [16 x i8], align 8
  %f.i.i2955 = alloca [0 x i8], align 1
    #dbg_declare(ptr %_19.i2349, !2910, !DIExpression(), !3032)
  %11 = alloca [16 x i8], align 4
  %_2.i.i2929 = alloca [16 x i8], align 4
  %12 = alloca [16 x i8], align 8
  %13 = alloca [16 x i8], align 8
  %_6.i.i2930 = alloca [16 x i8], align 4
  %d2.i.i2931 = alloca [16 x i8], align 8
  %d.i.i2932 = alloca [16 x i8], align 4
  %t1.i.i2933 = alloca [16 x i8], align 8
  %f.i.i2934 = alloca [0 x i8], align 1
    #dbg_declare(ptr %_4.i2364, !2910, !DIExpression(), !3034)
  %14 = alloca [16 x i8], align 4
  %_2.i.i2908 = alloca [16 x i8], align 4
  %15 = alloca [16 x i8], align 8
  %16 = alloca [16 x i8], align 8
  %_6.i.i2909 = alloca [16 x i8], align 4
  %d2.i.i2910 = alloca [16 x i8], align 8
  %d.i.i2911 = alloca [16 x i8], align 4
  %t1.i.i2912 = alloca [16 x i8], align 8
  %f.i.i2913 = alloca [0 x i8], align 1
    #dbg_declare(ptr %_9.i2362, !2910, !DIExpression(), !3038)
  %17 = alloca [16 x i8], align 4
  %_2.i.i2887 = alloca [16 x i8], align 4
  %18 = alloca [16 x i8], align 8
  %19 = alloca [16 x i8], align 8
  %_6.i.i2888 = alloca [16 x i8], align 4
  %d2.i.i2889 = alloca [16 x i8], align 8
  %d.i.i2890 = alloca [16 x i8], align 4
  %t1.i.i2891 = alloca [16 x i8], align 8
  %f.i.i2892 = alloca [0 x i8], align 1
    #dbg_declare(ptr %_14.i2360, !2910, !DIExpression(), !3040)
  %20 = alloca [16 x i8], align 4
  %_2.i.i2867 = alloca [16 x i8], align 4
  %21 = alloca [16 x i8], align 8
  %22 = alloca [16 x i8], align 8
  %_6.i.i2868 = alloca [16 x i8], align 4
  %d2.i.i2869 = alloca [16 x i8], align 8
  %d.i.i2870 = alloca [16 x i8], align 4
  %t1.i.i2871 = alloca [16 x i8], align 8
  %f.i.i2872 = alloca [0 x i8], align 1
    #dbg_declare(ptr %_19.i2358, !2910, !DIExpression(), !3042)
  %23 = alloca [16 x i8], align 4
  %_2.i.i2846 = alloca [16 x i8], align 4
  %24 = alloca [16 x i8], align 8
  %25 = alloca [16 x i8], align 8
  %_6.i.i2847 = alloca [16 x i8], align 4
  %d2.i.i2848 = alloca [16 x i8], align 8
  %d.i.i2849 = alloca [16 x i8], align 4
  %t1.i.i2850 = alloca [16 x i8], align 8
  %f.i.i2851 = alloca [0 x i8], align 1
    #dbg_declare(ptr %_4.i2337, !3044, !DIExpression(), !3047)
  %26 = alloca [16 x i8], align 4
  %_2.i.i2825 = alloca [16 x i8], align 4
  %27 = alloca [16 x i8], align 8
  %28 = alloca [16 x i8], align 8
  %_6.i.i2826 = alloca [16 x i8], align 4
  %d2.i.i2827 = alloca [16 x i8], align 8
  %d.i.i2828 = alloca [16 x i8], align 4
  %t1.i.i2829 = alloca [16 x i8], align 8
  %f.i.i2830 = alloca [0 x i8], align 1
    #dbg_declare(ptr %_9.i2335, !3044, !DIExpression(), !3053)
  %29 = alloca [16 x i8], align 4
  %_2.i.i2804 = alloca [16 x i8], align 4
  %30 = alloca [16 x i8], align 8
  %31 = alloca [16 x i8], align 8
  %_6.i.i2805 = alloca [16 x i8], align 4
  %d2.i.i2806 = alloca [16 x i8], align 8
  %d.i.i2807 = alloca [16 x i8], align 4
  %t1.i.i2808 = alloca [16 x i8], align 8
  %f.i.i2809 = alloca [0 x i8], align 1
    #dbg_declare(ptr %_14.i2333, !3044, !DIExpression(), !3055)
  %32 = alloca [16 x i8], align 4
  %_2.i.i2783 = alloca [16 x i8], align 4
  %33 = alloca [16 x i8], align 8
  %34 = alloca [16 x i8], align 8
  %_6.i.i2784 = alloca [16 x i8], align 4
  %d2.i.i2785 = alloca [16 x i8], align 8
  %d.i.i2786 = alloca [16 x i8], align 4
  %t1.i.i2787 = alloca [16 x i8], align 8
  %f.i.i2788 = alloca [0 x i8], align 1
    #dbg_declare(ptr %_19.i2331, !3044, !DIExpression(), !3057)
  %35 = alloca [16 x i8], align 4
  %_2.i.i2762 = alloca [16 x i8], align 4
  %36 = alloca [16 x i8], align 8
  %37 = alloca [16 x i8], align 8
  %_6.i.i2763 = alloca [16 x i8], align 4
  %d2.i.i2764 = alloca [16 x i8], align 8
  %d.i.i2765 = alloca [16 x i8], align 4
  %t1.i.i2766 = alloca [16 x i8], align 8
  %f.i.i2767 = alloca [0 x i8], align 1
    #dbg_declare(ptr %_4.i2346, !3044, !DIExpression(), !3059)
  %38 = alloca [16 x i8], align 4
  %_2.i.i2741 = alloca [16 x i8], align 4
  %39 = alloca [16 x i8], align 8
  %40 = alloca [16 x i8], align 8
  %_6.i.i2742 = alloca [16 x i8], align 4
  %d2.i.i2743 = alloca [16 x i8], align 8
  %d.i.i2744 = alloca [16 x i8], align 4
  %t1.i.i2745 = alloca [16 x i8], align 8
  %f.i.i2746 = alloca [0 x i8], align 1
    #dbg_declare(ptr %_9.i2344, !3044, !DIExpression(), !3062)
  %41 = alloca [16 x i8], align 4
  %_2.i.i2720 = alloca [16 x i8], align 4
  %42 = alloca [16 x i8], align 8
  %43 = alloca [16 x i8], align 8
  %_6.i.i2721 = alloca [16 x i8], align 4
  %d2.i.i2722 = alloca [16 x i8], align 8
  %d.i.i2723 = alloca [16 x i8], align 4
  %t1.i.i2724 = alloca [16 x i8], align 8
  %f.i.i2725 = alloca [0 x i8], align 1
    #dbg_declare(ptr %_14.i2342, !3044, !DIExpression(), !3064)
  %44 = alloca [16 x i8], align 4
  %_2.i.i2700 = alloca [16 x i8], align 4
  %45 = alloca [16 x i8], align 8
  %46 = alloca [16 x i8], align 8
  %_6.i.i2701 = alloca [16 x i8], align 4
  %d2.i.i2702 = alloca [16 x i8], align 8
  %d.i.i2703 = alloca [16 x i8], align 4
  %t1.i.i2704 = alloca [16 x i8], align 8
  %f.i.i2705 = alloca [0 x i8], align 1
    #dbg_declare(ptr %_19.i2340, !3044, !DIExpression(), !3066)
  %47 = alloca [16 x i8], align 4
  %_2.i.i2679 = alloca [16 x i8], align 4
  %48 = alloca [16 x i8], align 8
  %49 = alloca [16 x i8], align 8
  %_6.i.i2680 = alloca [16 x i8], align 4
  %d2.i.i2681 = alloca [16 x i8], align 8
  %d.i.i2682 = alloca [16 x i8], align 4
  %t1.i.i2683 = alloca [16 x i8], align 8
  %f.i.i2684 = alloca [0 x i8], align 1
    #dbg_declare(ptr %_4.i2319, !3068, !DIExpression(), !3071)
  %50 = alloca [16 x i8], align 4
  %_2.i.i2658 = alloca [16 x i8], align 4
  %51 = alloca [16 x i8], align 8
  %52 = alloca [16 x i8], align 8
  %_6.i.i2659 = alloca [16 x i8], align 4
  %d2.i.i2660 = alloca [16 x i8], align 8
  %d.i.i2661 = alloca [16 x i8], align 4
  %t1.i.i2662 = alloca [16 x i8], align 8
  %f.i.i2663 = alloca [0 x i8], align 1
    #dbg_declare(ptr %_9.i2317, !3068, !DIExpression(), !3077)
  %53 = alloca [16 x i8], align 4
  %_2.i.i2637 = alloca [16 x i8], align 4
  %54 = alloca [16 x i8], align 8
  %55 = alloca [16 x i8], align 8
  %_6.i.i2638 = alloca [16 x i8], align 4
  %d2.i.i2639 = alloca [16 x i8], align 8
  %d.i.i2640 = alloca [16 x i8], align 4
  %t1.i.i2641 = alloca [16 x i8], align 8
  %f.i.i2642 = alloca [0 x i8], align 1
    #dbg_declare(ptr %_14.i2315, !3068, !DIExpression(), !3079)
  %56 = alloca [16 x i8], align 4
  %_2.i.i2616 = alloca [16 x i8], align 4
  %57 = alloca [16 x i8], align 8
  %58 = alloca [16 x i8], align 8
  %_6.i.i2617 = alloca [16 x i8], align 4
  %d2.i.i2618 = alloca [16 x i8], align 8
  %d.i.i2619 = alloca [16 x i8], align 4
  %t1.i.i2620 = alloca [16 x i8], align 8
  %f.i.i2621 = alloca [0 x i8], align 1
    #dbg_declare(ptr %_19.i2313, !3068, !DIExpression(), !3081)
  %59 = alloca [16 x i8], align 4
  %_2.i.i2595 = alloca [16 x i8], align 4
  %60 = alloca [16 x i8], align 8
  %61 = alloca [16 x i8], align 8
  %_6.i.i2596 = alloca [16 x i8], align 4
  %d2.i.i2597 = alloca [16 x i8], align 8
  %d.i.i2598 = alloca [16 x i8], align 4
  %t1.i.i2599 = alloca [16 x i8], align 8
  %f.i.i2600 = alloca [0 x i8], align 1
    #dbg_declare(ptr %_4.i2328, !3068, !DIExpression(), !3083)
  %62 = alloca [16 x i8], align 4
  %_2.i.i2574 = alloca [16 x i8], align 4
  %63 = alloca [16 x i8], align 8
  %64 = alloca [16 x i8], align 8
  %_6.i.i2575 = alloca [16 x i8], align 4
  %d2.i.i2576 = alloca [16 x i8], align 8
  %d.i.i2577 = alloca [16 x i8], align 4
  %t1.i.i2578 = alloca [16 x i8], align 8
  %f.i.i2579 = alloca [0 x i8], align 1
    #dbg_declare(ptr %_9.i2326, !3068, !DIExpression(), !3086)
  %65 = alloca [16 x i8], align 4
  %_2.i.i2553 = alloca [16 x i8], align 4
  %66 = alloca [16 x i8], align 8
  %67 = alloca [16 x i8], align 8
  %_6.i.i2554 = alloca [16 x i8], align 4
  %d2.i.i2555 = alloca [16 x i8], align 8
  %d.i.i2556 = alloca [16 x i8], align 4
  %t1.i.i2557 = alloca [16 x i8], align 8
  %f.i.i2558 = alloca [0 x i8], align 1
    #dbg_declare(ptr %_14.i2324, !3068, !DIExpression(), !3088)
  %68 = alloca [16 x i8], align 4
  %_2.i.i2533 = alloca [16 x i8], align 4
  %69 = alloca [16 x i8], align 8
  %70 = alloca [16 x i8], align 8
  %_6.i.i2534 = alloca [16 x i8], align 4
  %d2.i.i2535 = alloca [16 x i8], align 8
  %d.i.i2536 = alloca [16 x i8], align 4
  %t1.i.i2537 = alloca [16 x i8], align 8
  %f.i.i2538 = alloca [0 x i8], align 1
    #dbg_declare(ptr %_19.i2322, !3068, !DIExpression(), !3090)
  %71 = alloca [16 x i8], align 4
  %_2.i.i2512 = alloca [16 x i8], align 4
  %72 = alloca [16 x i8], align 8
  %73 = alloca [16 x i8], align 8
  %_6.i.i2513 = alloca [16 x i8], align 4
  %d2.i.i2514 = alloca [16 x i8], align 8
  %d.i.i2515 = alloca [16 x i8], align 4
  %t1.i.i2516 = alloca [16 x i8], align 8
  %f.i.i2517 = alloca [0 x i8], align 1
    #dbg_declare(ptr %_4.i2301, !3092, !DIExpression(), !3095)
  %74 = alloca [16 x i8], align 4
  %_2.i.i2491 = alloca [16 x i8], align 4
  %75 = alloca [16 x i8], align 8
  %76 = alloca [16 x i8], align 8
  %_6.i.i2492 = alloca [16 x i8], align 4
  %d2.i.i2493 = alloca [16 x i8], align 8
  %d.i.i2494 = alloca [16 x i8], align 4
  %t1.i.i2495 = alloca [16 x i8], align 8
  %f.i.i2496 = alloca [0 x i8], align 1
    #dbg_declare(ptr %_9.i2299, !3092, !DIExpression(), !3101)
  %77 = alloca [16 x i8], align 4
  %_2.i.i2470 = alloca [16 x i8], align 4
  %78 = alloca [16 x i8], align 8
  %79 = alloca [16 x i8], align 8
  %_6.i.i2471 = alloca [16 x i8], align 4
  %d2.i.i2472 = alloca [16 x i8], align 8
  %d.i.i2473 = alloca [16 x i8], align 4
  %t1.i.i2474 = alloca [16 x i8], align 8
  %f.i.i2475 = alloca [0 x i8], align 1
    #dbg_declare(ptr %_14.i2297, !3092, !DIExpression(), !3103)
  %80 = alloca [16 x i8], align 4
  %_2.i.i2449 = alloca [16 x i8], align 4
  %81 = alloca [16 x i8], align 8
  %82 = alloca [16 x i8], align 8
  %_6.i.i2450 = alloca [16 x i8], align 4
  %d2.i.i2451 = alloca [16 x i8], align 8
  %d.i.i2452 = alloca [16 x i8], align 4
  %t1.i.i2453 = alloca [16 x i8], align 8
  %f.i.i2454 = alloca [0 x i8], align 1
    #dbg_declare(ptr %_19.i2295, !3092, !DIExpression(), !3105)
  %83 = alloca [16 x i8], align 4
  %_2.i.i2428 = alloca [16 x i8], align 4
  %84 = alloca [16 x i8], align 8
  %85 = alloca [16 x i8], align 8
  %_6.i.i2429 = alloca [16 x i8], align 4
  %d2.i.i2430 = alloca [16 x i8], align 8
  %d.i.i2431 = alloca [16 x i8], align 4
  %t1.i.i2432 = alloca [16 x i8], align 8
  %f.i.i2433 = alloca [0 x i8], align 1
    #dbg_declare(ptr %_4.i2310, !3092, !DIExpression(), !3107)
  %86 = alloca [16 x i8], align 4
  %_2.i.i2407 = alloca [16 x i8], align 4
  %87 = alloca [16 x i8], align 8
  %88 = alloca [16 x i8], align 8
  %_6.i.i2408 = alloca [16 x i8], align 4
  %d2.i.i2409 = alloca [16 x i8], align 8
  %d.i.i2410 = alloca [16 x i8], align 4
  %t1.i.i2411 = alloca [16 x i8], align 8
  %f.i.i2412 = alloca [0 x i8], align 1
    #dbg_declare(ptr %_9.i2308, !3092, !DIExpression(), !3110)
  %89 = alloca [16 x i8], align 4
  %_2.i.i2386 = alloca [16 x i8], align 4
  %90 = alloca [16 x i8], align 8
  %91 = alloca [16 x i8], align 8
  %_6.i.i2387 = alloca [16 x i8], align 4
  %d2.i.i2388 = alloca [16 x i8], align 8
  %d.i.i2389 = alloca [16 x i8], align 4
  %t1.i.i2390 = alloca [16 x i8], align 8
  %f.i.i2391 = alloca [0 x i8], align 1
    #dbg_declare(ptr %_14.i2306, !3092, !DIExpression(), !3112)
  %92 = alloca [16 x i8], align 4
  %_2.i.i2371 = alloca [16 x i8], align 4
  %93 = alloca [16 x i8], align 8
  %94 = alloca [16 x i8], align 8
  %_6.i.i2372 = alloca [16 x i8], align 4
  %d2.i.i = alloca [16 x i8], align 8
  %d.i.i = alloca [16 x i8], align 4
  %t1.i.i = alloca [16 x i8], align 8
  %f.i.i2373 = alloca [0 x i8], align 1
    #dbg_declare(ptr %_19.i2304, !3092, !DIExpression(), !3114)
  %95 = alloca [16 x i8], align 4
  %_73.i = alloca [16 x i8], align 4
  %_69.i = alloca [16 x i8], align 4
  %_65.i = alloca [16 x i8], align 4
  %_61.i = alloca [16 x i8], align 4
  %_60.i = alloca [64 x i8], align 4
  %_59.i = alloca [64 x i8], align 4
  %_55.i = alloca [16 x i8], align 4
  %_51.i = alloca [16 x i8], align 4
  %_47.i = alloca [16 x i8], align 4
  %_43.i = alloca [16 x i8], align 4
  %_42.i = alloca [64 x i8], align 4
  %_41.i = alloca [64 x i8], align 4
  %_37.i = alloca [16 x i8], align 4
  %_33.i = alloca [16 x i8], align 4
  %_29.i = alloca [16 x i8], align 4
  %_25.i = alloca [16 x i8], align 4
  %_24.i = alloca [64 x i8], align 4
  %_23.i2367 = alloca [64 x i8], align 4
  %_19.i2368 = alloca [16 x i8], align 4
  %_15.i = alloca [16 x i8], align 4
  %_11.i = alloca [16 x i8], align 4
  %_7.i2369 = alloca [16 x i8], align 4
  %_6.i = alloca [64 x i8], align 4
  %_5.i2370 = alloca [64 x i8], align 4
  %_19.i2358 = alloca [16 x i8], align 4
  %_18.i2359 = alloca [16 x i8], align 4
  %_14.i2360 = alloca [16 x i8], align 4
  %_13.i2361 = alloca [16 x i8], align 4
  %_9.i2362 = alloca [16 x i8], align 4
  %_8.i2363 = alloca [16 x i8], align 4
  %_4.i2364 = alloca [16 x i8], align 4
  %_3.i2365 = alloca [16 x i8], align 4
  %_2.i2366 = alloca [64 x i8], align 4
  %_19.i2349 = alloca [16 x i8], align 4
  %_18.i2350 = alloca [16 x i8], align 4
  %_14.i2351 = alloca [16 x i8], align 4
  %_13.i2352 = alloca [16 x i8], align 4
  %_9.i2353 = alloca [16 x i8], align 4
  %_8.i2354 = alloca [16 x i8], align 4
  %_4.i2355 = alloca [16 x i8], align 4
  %_3.i2356 = alloca [16 x i8], align 4
  %_2.i2357 = alloca [64 x i8], align 4
  %_19.i2340 = alloca [16 x i8], align 4
  %_18.i2341 = alloca [16 x i8], align 4
  %_14.i2342 = alloca [16 x i8], align 4
  %_13.i2343 = alloca [16 x i8], align 4
  %_9.i2344 = alloca [16 x i8], align 4
  %_8.i2345 = alloca [16 x i8], align 4
  %_4.i2346 = alloca [16 x i8], align 4
  %_3.i2347 = alloca [16 x i8], align 4
  %_2.i2348 = alloca [64 x i8], align 4
  %_19.i2331 = alloca [16 x i8], align 4
  %_18.i2332 = alloca [16 x i8], align 4
  %_14.i2333 = alloca [16 x i8], align 4
  %_13.i2334 = alloca [16 x i8], align 4
  %_9.i2335 = alloca [16 x i8], align 4
  %_8.i2336 = alloca [16 x i8], align 4
  %_4.i2337 = alloca [16 x i8], align 4
  %_3.i2338 = alloca [16 x i8], align 4
  %_2.i2339 = alloca [64 x i8], align 4
  %_19.i2322 = alloca [16 x i8], align 4
  %_18.i2323 = alloca [16 x i8], align 4
  %_14.i2324 = alloca [16 x i8], align 4
  %_13.i2325 = alloca [16 x i8], align 4
  %_9.i2326 = alloca [16 x i8], align 4
  %_8.i2327 = alloca [16 x i8], align 4
  %_4.i2328 = alloca [16 x i8], align 4
  %_3.i2329 = alloca [16 x i8], align 4
  %_2.i2330 = alloca [64 x i8], align 4
  %_19.i2313 = alloca [16 x i8], align 4
  %_18.i2314 = alloca [16 x i8], align 4
  %_14.i2315 = alloca [16 x i8], align 4
  %_13.i2316 = alloca [16 x i8], align 4
  %_9.i2317 = alloca [16 x i8], align 4
  %_8.i2318 = alloca [16 x i8], align 4
  %_4.i2319 = alloca [16 x i8], align 4
  %_3.i2320 = alloca [16 x i8], align 4
  %_2.i2321 = alloca [64 x i8], align 4
  %_19.i2304 = alloca [16 x i8], align 4
  %_18.i2305 = alloca [16 x i8], align 4
  %_14.i2306 = alloca [16 x i8], align 4
  %_13.i2307 = alloca [16 x i8], align 4
  %_9.i2308 = alloca [16 x i8], align 4
  %_8.i2309 = alloca [16 x i8], align 4
  %_4.i2310 = alloca [16 x i8], align 4
  %_3.i2311 = alloca [16 x i8], align 4
  %_2.i2312 = alloca [64 x i8], align 4
  %_19.i2295 = alloca [16 x i8], align 4
  %_18.i2296 = alloca [16 x i8], align 4
  %_14.i2297 = alloca [16 x i8], align 4
  %_13.i2298 = alloca [16 x i8], align 4
  %_9.i2299 = alloca [16 x i8], align 4
  %_8.i2300 = alloca [16 x i8], align 4
  %_4.i2301 = alloca [16 x i8], align 4
  %_3.i2302 = alloca [16 x i8], align 4
  %_2.i2303 = alloca [64 x i8], align 4
  %_3.i.i2289 = alloca [16 x i8], align 4
  %x.i.i2290 = alloca [16 x i8], align 4
    #dbg_declare(ptr %_4.i1907, !3116, !DIExpression(), !3120)
  %96 = alloca [16 x i8], align 4
  %_3.i.i2283 = alloca [16 x i8], align 4
  %x.i.i2284 = alloca [16 x i8], align 4
    #dbg_declare(ptr %_9.i1905, !3116, !DIExpression(), !3131)
  %97 = alloca [16 x i8], align 4
  %_3.i.i2277 = alloca [16 x i8], align 4
  %x.i.i2278 = alloca [16 x i8], align 4
    #dbg_declare(ptr %_14.i1903, !3116, !DIExpression(), !3133)
  %98 = alloca [16 x i8], align 4
  %_3.i.i2271 = alloca [16 x i8], align 4
  %x.i.i2272 = alloca [16 x i8], align 4
    #dbg_declare(ptr %_19.i1901, !3116, !DIExpression(), !3135)
  %99 = alloca [16 x i8], align 4
  %_3.i.i2265 = alloca [16 x i8], align 4
  %x.i.i2266 = alloca [16 x i8], align 4
    #dbg_declare(ptr %_4.i1920, !3116, !DIExpression(), !3137)
  %100 = alloca [16 x i8], align 4
  %_3.i.i2259 = alloca [16 x i8], align 4
  %x.i.i2260 = alloca [16 x i8], align 4
    #dbg_declare(ptr %_9.i1918, !3116, !DIExpression(), !3144)
  %101 = alloca [16 x i8], align 4
  %_3.i.i2253 = alloca [16 x i8], align 4
  %x.i.i2254 = alloca [16 x i8], align 4
    #dbg_declare(ptr %_14.i1916, !3116, !DIExpression(), !3146)
  %102 = alloca [16 x i8], align 4
  %_3.i.i2247 = alloca [16 x i8], align 4
  %x.i.i2248 = alloca [16 x i8], align 4
    #dbg_declare(ptr %_19.i1914, !3116, !DIExpression(), !3148)
  %103 = alloca [16 x i8], align 4
  %small.dbg.spill.i8.i.i.i2222 = alloca [8 x i8], align 8
  %small.dbg.spill.i.i.i.i2223 = alloca [8 x i8], align 8
  %_2.i6.i.i.i2224 = alloca [16 x i8], align 4
  %o.dbg.spill.i.i.i.i2225 = alloca [16 x i8], align 16
  %104 = alloca [16 x i8], align 8
  %ao.dbg.spill.i.i.i.i2226 = alloca [16 x i8], align 16
  %105 = alloca [16 x i8], align 8
  %_7.i.i.i.i2227 = alloca [16 x i8], align 8
  %o.i.i.i.i2228 = alloca [16 x i8], align 8
  %_5.i.i.i.i2229 = alloca [16 x i8], align 8
  %a1.i.i.i.i2230 = alloca [16 x i8], align 8
  %f.i.i.i.i2231 = alloca [0 x i8], align 1
    #dbg_declare(ptr %107, !3150, !DIExpression(), !3154)
  %106 = alloca [16 x i8], align 4
    #dbg_declare(ptr %108, !3159, !DIExpression(), !3169)
  %107 = alloca [16 x i8], align 4
    #dbg_declare(ptr %_4.i1880, !3163, !DIExpression(), !3170)
  %108 = alloca [16 x i8], align 4
  %small.dbg.spill.i8.i.i.i2197 = alloca [8 x i8], align 8
  %small.dbg.spill.i.i.i.i2198 = alloca [8 x i8], align 8
  %_2.i6.i.i.i2199 = alloca [16 x i8], align 4
  %o.dbg.spill.i.i.i.i2200 = alloca [16 x i8], align 16
  %109 = alloca [16 x i8], align 8
  %ao.dbg.spill.i.i.i.i2201 = alloca [16 x i8], align 16
  %110 = alloca [16 x i8], align 8
  %_7.i.i.i.i2202 = alloca [16 x i8], align 8
  %o.i.i.i.i2203 = alloca [16 x i8], align 8
  %_5.i.i.i.i2204 = alloca [16 x i8], align 8
  %a1.i.i.i.i2205 = alloca [16 x i8], align 8
  %f.i.i.i.i2206 = alloca [0 x i8], align 1
    #dbg_declare(ptr %112, !3150, !DIExpression(), !3171)
  %111 = alloca [16 x i8], align 4
    #dbg_declare(ptr %113, !3159, !DIExpression(), !3175)
  %112 = alloca [16 x i8], align 4
    #dbg_declare(ptr %_9.i1878, !3163, !DIExpression(), !3176)
  %113 = alloca [16 x i8], align 4
  %small.dbg.spill.i8.i.i.i2172 = alloca [8 x i8], align 8
  %small.dbg.spill.i.i.i.i2173 = alloca [8 x i8], align 8
  %_2.i6.i.i.i2174 = alloca [16 x i8], align 4
  %o.dbg.spill.i.i.i.i2175 = alloca [16 x i8], align 16
  %114 = alloca [16 x i8], align 8
  %ao.dbg.spill.i.i.i.i2176 = alloca [16 x i8], align 16
  %115 = alloca [16 x i8], align 8
  %_7.i.i.i.i2177 = alloca [16 x i8], align 8
  %o.i.i.i.i2178 = alloca [16 x i8], align 8
  %_5.i.i.i.i2179 = alloca [16 x i8], align 8
  %a1.i.i.i.i2180 = alloca [16 x i8], align 8
  %f.i.i.i.i2181 = alloca [0 x i8], align 1
    #dbg_declare(ptr %117, !3150, !DIExpression(), !3177)
  %116 = alloca [16 x i8], align 4
    #dbg_declare(ptr %118, !3159, !DIExpression(), !3181)
  %117 = alloca [16 x i8], align 4
    #dbg_declare(ptr %_14.i1876, !3163, !DIExpression(), !3182)
  %118 = alloca [16 x i8], align 4
  %small.dbg.spill.i8.i.i.i2148 = alloca [8 x i8], align 8
  %small.dbg.spill.i.i.i.i2149 = alloca [8 x i8], align 8
  %_2.i6.i.i.i2150 = alloca [16 x i8], align 4
  %o.dbg.spill.i.i.i.i2151 = alloca [16 x i8], align 16
  %119 = alloca [16 x i8], align 8
  %ao.dbg.spill.i.i.i.i2152 = alloca [16 x i8], align 16
  %120 = alloca [16 x i8], align 8
  %_7.i.i.i.i2153 = alloca [16 x i8], align 8
  %o.i.i.i.i2154 = alloca [16 x i8], align 8
  %_5.i.i.i.i2155 = alloca [16 x i8], align 8
  %a1.i.i.i.i2156 = alloca [16 x i8], align 8
  %f.i.i.i.i2157 = alloca [0 x i8], align 1
    #dbg_declare(ptr %122, !3150, !DIExpression(), !3183)
  %121 = alloca [16 x i8], align 4
    #dbg_declare(ptr %123, !3159, !DIExpression(), !3187)
  %122 = alloca [16 x i8], align 4
    #dbg_declare(ptr %_19.i1874, !3163, !DIExpression(), !3188)
  %123 = alloca [16 x i8], align 4
  %small.dbg.spill.i8.i.i.i2123 = alloca [8 x i8], align 8
  %small.dbg.spill.i.i.i.i2124 = alloca [8 x i8], align 8
  %_2.i6.i.i.i2125 = alloca [16 x i8], align 4
  %o.dbg.spill.i.i.i.i2126 = alloca [16 x i8], align 16
  %124 = alloca [16 x i8], align 8
  %ao.dbg.spill.i.i.i.i2127 = alloca [16 x i8], align 16
  %125 = alloca [16 x i8], align 8
  %_7.i.i.i.i2128 = alloca [16 x i8], align 8
  %o.i.i.i.i2129 = alloca [16 x i8], align 8
  %_5.i.i.i.i2130 = alloca [16 x i8], align 8
  %a1.i.i.i.i2131 = alloca [16 x i8], align 8
  %f.i.i.i.i2132 = alloca [0 x i8], align 1
    #dbg_declare(ptr %127, !3150, !DIExpression(), !3189)
  %126 = alloca [16 x i8], align 4
    #dbg_declare(ptr %128, !3159, !DIExpression(), !3194)
  %127 = alloca [16 x i8], align 4
    #dbg_declare(ptr %_4.i1893, !3163, !DIExpression(), !3195)
  %128 = alloca [16 x i8], align 4
  %small.dbg.spill.i8.i.i.i2098 = alloca [8 x i8], align 8
  %small.dbg.spill.i.i.i.i2099 = alloca [8 x i8], align 8
  %_2.i6.i.i.i2100 = alloca [16 x i8], align 4
  %o.dbg.spill.i.i.i.i2101 = alloca [16 x i8], align 16
  %129 = alloca [16 x i8], align 8
  %ao.dbg.spill.i.i.i.i2102 = alloca [16 x i8], align 16
  %130 = alloca [16 x i8], align 8
  %_7.i.i.i.i2103 = alloca [16 x i8], align 8
  %o.i.i.i.i2104 = alloca [16 x i8], align 8
  %_5.i.i.i.i2105 = alloca [16 x i8], align 8
  %a1.i.i.i.i2106 = alloca [16 x i8], align 8
  %f.i.i.i.i2107 = alloca [0 x i8], align 1
    #dbg_declare(ptr %132, !3150, !DIExpression(), !3196)
  %131 = alloca [16 x i8], align 4
    #dbg_declare(ptr %133, !3159, !DIExpression(), !3200)
  %132 = alloca [16 x i8], align 4
    #dbg_declare(ptr %_9.i1891, !3163, !DIExpression(), !3201)
  %133 = alloca [16 x i8], align 4
  %small.dbg.spill.i8.i.i.i2073 = alloca [8 x i8], align 8
  %small.dbg.spill.i.i.i.i2074 = alloca [8 x i8], align 8
  %_2.i6.i.i.i2075 = alloca [16 x i8], align 4
  %o.dbg.spill.i.i.i.i2076 = alloca [16 x i8], align 16
  %134 = alloca [16 x i8], align 8
  %ao.dbg.spill.i.i.i.i2077 = alloca [16 x i8], align 16
  %135 = alloca [16 x i8], align 8
  %_7.i.i.i.i2078 = alloca [16 x i8], align 8
  %o.i.i.i.i2079 = alloca [16 x i8], align 8
  %_5.i.i.i.i2080 = alloca [16 x i8], align 8
  %a1.i.i.i.i2081 = alloca [16 x i8], align 8
  %f.i.i.i.i2082 = alloca [0 x i8], align 1
    #dbg_declare(ptr %137, !3150, !DIExpression(), !3202)
  %136 = alloca [16 x i8], align 4
    #dbg_declare(ptr %138, !3159, !DIExpression(), !3206)
  %137 = alloca [16 x i8], align 4
    #dbg_declare(ptr %_14.i1889, !3163, !DIExpression(), !3207)
  %138 = alloca [16 x i8], align 4
  %small.dbg.spill.i8.i.i.i = alloca [8 x i8], align 8
  %small.dbg.spill.i.i.i.i = alloca [8 x i8], align 8
  %_2.i6.i.i.i = alloca [16 x i8], align 4
  %o.dbg.spill.i.i.i.i = alloca [16 x i8], align 16
  %139 = alloca [16 x i8], align 8
  %ao.dbg.spill.i.i.i.i = alloca [16 x i8], align 16
  %140 = alloca [16 x i8], align 8
  %_7.i.i.i.i = alloca [16 x i8], align 8
  %o.i.i.i.i = alloca [16 x i8], align 8
  %_5.i.i.i.i = alloca [16 x i8], align 8
  %a1.i.i.i.i = alloca [16 x i8], align 8
  %f.i.i.i.i = alloca [0 x i8], align 1
    #dbg_declare(ptr %142, !3150, !DIExpression(), !3208)
  %141 = alloca [16 x i8], align 4
    #dbg_declare(ptr %143, !3159, !DIExpression(), !3212)
  %142 = alloca [16 x i8], align 4
    #dbg_declare(ptr %_19.i1887, !3163, !DIExpression(), !3213)
  %143 = alloca [16 x i8], align 4
  %_3.i.i2066 = alloca [16 x i8], align 4
  %x.i.i2067 = alloca [16 x i8], align 4
    #dbg_declare(ptr %_4.i1854, !3214, !DIExpression(), !3217)
  %144 = alloca [16 x i8], align 4
  %_3.i.i2060 = alloca [16 x i8], align 4
  %x.i.i2061 = alloca [16 x i8], align 4
    #dbg_declare(ptr %_9.i1852, !3214, !DIExpression(), !3223)
  %145 = alloca [16 x i8], align 4
  %_3.i.i2054 = alloca [16 x i8], align 4
  %x.i.i2055 = alloca [16 x i8], align 4
    #dbg_declare(ptr %_14.i1850, !3214, !DIExpression(), !3225)
  %146 = alloca [16 x i8], align 4
  %_3.i.i2048 = alloca [16 x i8], align 4
  %x.i.i2049 = alloca [16 x i8], align 4
    #dbg_declare(ptr %_19.i, !3214, !DIExpression(), !3227)
  %147 = alloca [16 x i8], align 4
  %_3.i.i2042 = alloca [16 x i8], align 4
  %x.i.i2043 = alloca [16 x i8], align 4
    #dbg_declare(ptr %_4.i1866, !3214, !DIExpression(), !3229)
  %148 = alloca [16 x i8], align 4
  %_3.i.i2036 = alloca [16 x i8], align 4
  %x.i.i2037 = alloca [16 x i8], align 4
    #dbg_declare(ptr %_9.i1864, !3214, !DIExpression(), !3232)
  %149 = alloca [16 x i8], align 4
  %_3.i.i2030 = alloca [16 x i8], align 4
  %x.i.i2031 = alloca [16 x i8], align 4
    #dbg_declare(ptr %_14.i1862, !3214, !DIExpression(), !3234)
  %150 = alloca [16 x i8], align 4
  %_3.i.i2024 = alloca [16 x i8], align 4
  %x.i.i2025 = alloca [16 x i8], align 4
    #dbg_declare(ptr %_19.i1860, !3214, !DIExpression(), !3236)
  %151 = alloca [16 x i8], align 4
  %152 = alloca [16 x i8], align 4
    #dbg_declare(ptr %_4.i2022, !3238, !DIExpression(), !3245)
    #dbg_declare(ptr %154, !3244, !DIExpression(), !3265)
  %153 = alloca [16 x i8], align 4
  %154 = alloca [16 x i8], align 4
  %self.dbg.spill.i2021 = alloca [8 x i8], align 8
  %_4.i2022 = alloca [16 x i8], align 4
  %_3.i2023 = alloca [16 x i8], align 4
  %155 = alloca [16 x i8], align 4
    #dbg_declare(ptr %_4.i2019, !3238, !DIExpression(), !3266)
    #dbg_declare(ptr %157, !3244, !DIExpression(), !3269)
  %156 = alloca [16 x i8], align 4
  %157 = alloca [16 x i8], align 4
  %self.dbg.spill.i2018 = alloca [8 x i8], align 8
  %_4.i2019 = alloca [16 x i8], align 4
  %_3.i2020 = alloca [16 x i8], align 4
  %158 = alloca [16 x i8], align 4
    #dbg_declare(ptr %_4.i2016, !3238, !DIExpression(), !3270)
    #dbg_declare(ptr %160, !3244, !DIExpression(), !3273)
  %159 = alloca [16 x i8], align 4
  %160 = alloca [16 x i8], align 4
  %self.dbg.spill.i2015 = alloca [8 x i8], align 8
  %_4.i2016 = alloca [16 x i8], align 4
  %_3.i2017 = alloca [16 x i8], align 4
  %161 = alloca [16 x i8], align 4
    #dbg_declare(ptr %_4.i2013, !3238, !DIExpression(), !3274)
    #dbg_declare(ptr %163, !3244, !DIExpression(), !3277)
  %162 = alloca [16 x i8], align 4
  %163 = alloca [16 x i8], align 4
  %self.dbg.spill.i2012 = alloca [8 x i8], align 8
  %_4.i2013 = alloca [16 x i8], align 4
  %_3.i2014 = alloca [16 x i8], align 4
  %164 = alloca [16 x i8], align 4
    #dbg_declare(ptr %_4.i2010, !3238, !DIExpression(), !3278)
    #dbg_declare(ptr %166, !3244, !DIExpression(), !3282)
  %165 = alloca [16 x i8], align 4
  %166 = alloca [16 x i8], align 4
  %self.dbg.spill.i2009 = alloca [8 x i8], align 8
  %_4.i2010 = alloca [16 x i8], align 4
  %_3.i2011 = alloca [16 x i8], align 4
  %167 = alloca [16 x i8], align 4
    #dbg_declare(ptr %_4.i2007, !3238, !DIExpression(), !3283)
    #dbg_declare(ptr %169, !3244, !DIExpression(), !3286)
  %168 = alloca [16 x i8], align 4
  %169 = alloca [16 x i8], align 4
  %self.dbg.spill.i2006 = alloca [8 x i8], align 8
  %_4.i2007 = alloca [16 x i8], align 4
  %_3.i2008 = alloca [16 x i8], align 4
  %170 = alloca [16 x i8], align 4
    #dbg_declare(ptr %_4.i2004, !3238, !DIExpression(), !3287)
    #dbg_declare(ptr %172, !3244, !DIExpression(), !3290)
  %171 = alloca [16 x i8], align 4
  %172 = alloca [16 x i8], align 4
  %self.dbg.spill.i2003 = alloca [8 x i8], align 8
  %_4.i2004 = alloca [16 x i8], align 4
  %_3.i2005 = alloca [16 x i8], align 4
  %173 = alloca [16 x i8], align 4
    #dbg_declare(ptr %_4.i2001, !3238, !DIExpression(), !3291)
    #dbg_declare(ptr %175, !3244, !DIExpression(), !3294)
  %174 = alloca [16 x i8], align 4
  %175 = alloca [16 x i8], align 4
  %self.dbg.spill.i2000 = alloca [8 x i8], align 8
  %_4.i2001 = alloca [16 x i8], align 4
  %_3.i2002 = alloca [16 x i8], align 4
  %176 = alloca [16 x i8], align 4
    #dbg_declare(ptr %_4.i1998, !3238, !DIExpression(), !3295)
    #dbg_declare(ptr %178, !3244, !DIExpression(), !3299)
  %177 = alloca [16 x i8], align 4
  %178 = alloca [16 x i8], align 4
  %self.dbg.spill.i1997 = alloca [8 x i8], align 8
  %_4.i1998 = alloca [16 x i8], align 4
  %_3.i1999 = alloca [16 x i8], align 4
  %179 = alloca [16 x i8], align 4
    #dbg_declare(ptr %_4.i1995, !3238, !DIExpression(), !3300)
    #dbg_declare(ptr %181, !3244, !DIExpression(), !3303)
  %180 = alloca [16 x i8], align 4
  %181 = alloca [16 x i8], align 4
  %self.dbg.spill.i1994 = alloca [8 x i8], align 8
  %_4.i1995 = alloca [16 x i8], align 4
  %_3.i1996 = alloca [16 x i8], align 4
  %182 = alloca [16 x i8], align 4
    #dbg_declare(ptr %_4.i1992, !3238, !DIExpression(), !3304)
    #dbg_declare(ptr %184, !3244, !DIExpression(), !3307)
  %183 = alloca [16 x i8], align 4
  %184 = alloca [16 x i8], align 4
  %self.dbg.spill.i1991 = alloca [8 x i8], align 8
  %_4.i1992 = alloca [16 x i8], align 4
  %_3.i1993 = alloca [16 x i8], align 4
  %185 = alloca [16 x i8], align 4
    #dbg_declare(ptr %_4.i1989, !3238, !DIExpression(), !3308)
    #dbg_declare(ptr %187, !3244, !DIExpression(), !3311)
  %186 = alloca [16 x i8], align 4
  %187 = alloca [16 x i8], align 4
  %self.dbg.spill.i1988 = alloca [8 x i8], align 8
  %_4.i1989 = alloca [16 x i8], align 4
  %_3.i1990 = alloca [16 x i8], align 4
  %188 = alloca [16 x i8], align 4
    #dbg_declare(ptr %_4.i1986, !3238, !DIExpression(), !3312)
    #dbg_declare(ptr %190, !3244, !DIExpression(), !3316)
  %189 = alloca [16 x i8], align 4
  %190 = alloca [16 x i8], align 4
  %self.dbg.spill.i1985 = alloca [8 x i8], align 8
  %_4.i1986 = alloca [16 x i8], align 4
  %_3.i1987 = alloca [16 x i8], align 4
  %191 = alloca [16 x i8], align 4
    #dbg_declare(ptr %_4.i1983, !3238, !DIExpression(), !3317)
    #dbg_declare(ptr %193, !3244, !DIExpression(), !3320)
  %192 = alloca [16 x i8], align 4
  %193 = alloca [16 x i8], align 4
  %self.dbg.spill.i1982 = alloca [8 x i8], align 8
  %_4.i1983 = alloca [16 x i8], align 4
  %_3.i1984 = alloca [16 x i8], align 4
  %194 = alloca [16 x i8], align 4
    #dbg_declare(ptr %_4.i1980, !3238, !DIExpression(), !3321)
    #dbg_declare(ptr %196, !3244, !DIExpression(), !3324)
  %195 = alloca [16 x i8], align 4
  %196 = alloca [16 x i8], align 4
  %self.dbg.spill.i1979 = alloca [8 x i8], align 8
  %_4.i1980 = alloca [16 x i8], align 4
  %_3.i1981 = alloca [16 x i8], align 4
  %197 = alloca [16 x i8], align 4
    #dbg_declare(ptr %_4.i1977, !3238, !DIExpression(), !3325)
    #dbg_declare(ptr %199, !3244, !DIExpression(), !3328)
  %198 = alloca [16 x i8], align 4
  %199 = alloca [16 x i8], align 4
  %self.dbg.spill.i1976 = alloca [8 x i8], align 8
  %_4.i1977 = alloca [16 x i8], align 4
  %_3.i1978 = alloca [16 x i8], align 4
  %200 = alloca [16 x i8], align 4
    #dbg_declare(ptr %_4.i1974, !3238, !DIExpression(), !3329)
    #dbg_declare(ptr %202, !3244, !DIExpression(), !3333)
  %201 = alloca [16 x i8], align 4
  %202 = alloca [16 x i8], align 4
  %self.dbg.spill.i1973 = alloca [8 x i8], align 8
  %_4.i1974 = alloca [16 x i8], align 4
  %_3.i1975 = alloca [16 x i8], align 4
  %203 = alloca [16 x i8], align 4
    #dbg_declare(ptr %_4.i1971, !3238, !DIExpression(), !3334)
    #dbg_declare(ptr %205, !3244, !DIExpression(), !3337)
  %204 = alloca [16 x i8], align 4
  %205 = alloca [16 x i8], align 4
  %self.dbg.spill.i1970 = alloca [8 x i8], align 8
  %_4.i1971 = alloca [16 x i8], align 4
  %_3.i1972 = alloca [16 x i8], align 4
  %206 = alloca [16 x i8], align 4
    #dbg_declare(ptr %_4.i1968, !3238, !DIExpression(), !3338)
    #dbg_declare(ptr %208, !3244, !DIExpression(), !3341)
  %207 = alloca [16 x i8], align 4
  %208 = alloca [16 x i8], align 4
  %self.dbg.spill.i1967 = alloca [8 x i8], align 8
  %_4.i1968 = alloca [16 x i8], align 4
  %_3.i1969 = alloca [16 x i8], align 4
  %209 = alloca [16 x i8], align 4
    #dbg_declare(ptr %_4.i1965, !3238, !DIExpression(), !3342)
    #dbg_declare(ptr %211, !3244, !DIExpression(), !3345)
  %210 = alloca [16 x i8], align 4
  %211 = alloca [16 x i8], align 4
  %self.dbg.spill.i1964 = alloca [8 x i8], align 8
  %_4.i1965 = alloca [16 x i8], align 4
  %_3.i1966 = alloca [16 x i8], align 4
  %212 = alloca [16 x i8], align 4
    #dbg_declare(ptr %_4.i1962, !3238, !DIExpression(), !3346)
    #dbg_declare(ptr %214, !3244, !DIExpression(), !3350)
  %213 = alloca [16 x i8], align 4
  %214 = alloca [16 x i8], align 4
  %self.dbg.spill.i1961 = alloca [8 x i8], align 8
  %_4.i1962 = alloca [16 x i8], align 4
  %_3.i1963 = alloca [16 x i8], align 4
  %215 = alloca [16 x i8], align 4
    #dbg_declare(ptr %_4.i1959, !3238, !DIExpression(), !3351)
    #dbg_declare(ptr %217, !3244, !DIExpression(), !3354)
  %216 = alloca [16 x i8], align 4
  %217 = alloca [16 x i8], align 4
  %self.dbg.spill.i1958 = alloca [8 x i8], align 8
  %_4.i1959 = alloca [16 x i8], align 4
  %_3.i1960 = alloca [16 x i8], align 4
  %218 = alloca [16 x i8], align 4
    #dbg_declare(ptr %_4.i1956, !3238, !DIExpression(), !3355)
    #dbg_declare(ptr %220, !3244, !DIExpression(), !3358)
  %219 = alloca [16 x i8], align 4
  %220 = alloca [16 x i8], align 4
  %self.dbg.spill.i1955 = alloca [8 x i8], align 8
  %_4.i1956 = alloca [16 x i8], align 4
  %_3.i1957 = alloca [16 x i8], align 4
  %221 = alloca [16 x i8], align 4
    #dbg_declare(ptr %_4.i1953, !3238, !DIExpression(), !3359)
    #dbg_declare(ptr %223, !3244, !DIExpression(), !3362)
  %222 = alloca [16 x i8], align 4
  %223 = alloca [16 x i8], align 4
  %self.dbg.spill.i1952 = alloca [8 x i8], align 8
  %_4.i1953 = alloca [16 x i8], align 4
  %_3.i1954 = alloca [16 x i8], align 4
  %224 = alloca [16 x i8], align 4
    #dbg_declare(ptr %_4.i1950, !3238, !DIExpression(), !3363)
    #dbg_declare(ptr %226, !3244, !DIExpression(), !3367)
  %225 = alloca [16 x i8], align 4
  %226 = alloca [16 x i8], align 4
  %self.dbg.spill.i1949 = alloca [8 x i8], align 8
  %_4.i1950 = alloca [16 x i8], align 4
  %_3.i1951 = alloca [16 x i8], align 4
  %227 = alloca [16 x i8], align 4
    #dbg_declare(ptr %_4.i1947, !3238, !DIExpression(), !3368)
    #dbg_declare(ptr %229, !3244, !DIExpression(), !3371)
  %228 = alloca [16 x i8], align 4
  %229 = alloca [16 x i8], align 4
  %self.dbg.spill.i1946 = alloca [8 x i8], align 8
  %_4.i1947 = alloca [16 x i8], align 4
  %_3.i1948 = alloca [16 x i8], align 4
  %230 = alloca [16 x i8], align 4
    #dbg_declare(ptr %_4.i1944, !3238, !DIExpression(), !3372)
    #dbg_declare(ptr %232, !3244, !DIExpression(), !3375)
  %231 = alloca [16 x i8], align 4
  %232 = alloca [16 x i8], align 4
  %self.dbg.spill.i1943 = alloca [8 x i8], align 8
  %_4.i1944 = alloca [16 x i8], align 4
  %_3.i1945 = alloca [16 x i8], align 4
  %233 = alloca [16 x i8], align 4
    #dbg_declare(ptr %_4.i1941, !3238, !DIExpression(), !3376)
    #dbg_declare(ptr %235, !3244, !DIExpression(), !3379)
  %234 = alloca [16 x i8], align 4
  %235 = alloca [16 x i8], align 4
  %self.dbg.spill.i1940 = alloca [8 x i8], align 8
  %_4.i1941 = alloca [16 x i8], align 4
  %_3.i1942 = alloca [16 x i8], align 4
  %236 = alloca [16 x i8], align 4
    #dbg_declare(ptr %_4.i1938, !3238, !DIExpression(), !3380)
    #dbg_declare(ptr %238, !3244, !DIExpression(), !3384)
  %237 = alloca [16 x i8], align 4
  %238 = alloca [16 x i8], align 4
  %self.dbg.spill.i1937 = alloca [8 x i8], align 8
  %_4.i1938 = alloca [16 x i8], align 4
  %_3.i1939 = alloca [16 x i8], align 4
  %239 = alloca [16 x i8], align 4
    #dbg_declare(ptr %_4.i1935, !3238, !DIExpression(), !3385)
    #dbg_declare(ptr %241, !3244, !DIExpression(), !3388)
  %240 = alloca [16 x i8], align 4
  %241 = alloca [16 x i8], align 4
  %self.dbg.spill.i1934 = alloca [8 x i8], align 8
  %_4.i1935 = alloca [16 x i8], align 4
  %_3.i1936 = alloca [16 x i8], align 4
  %242 = alloca [16 x i8], align 4
    #dbg_declare(ptr %_4.i1932, !3238, !DIExpression(), !3389)
    #dbg_declare(ptr %244, !3244, !DIExpression(), !3392)
  %243 = alloca [16 x i8], align 4
  %244 = alloca [16 x i8], align 4
  %self.dbg.spill.i1931 = alloca [8 x i8], align 8
  %_4.i1932 = alloca [16 x i8], align 4
  %_3.i1933 = alloca [16 x i8], align 4
  %245 = alloca [16 x i8], align 4
    #dbg_declare(ptr %_4.i1929, !3238, !DIExpression(), !3393)
    #dbg_declare(ptr %247, !3244, !DIExpression(), !3396)
  %246 = alloca [16 x i8], align 4
  %247 = alloca [16 x i8], align 4
  %self.dbg.spill.i1928 = alloca [8 x i8], align 8
  %_4.i1929 = alloca [16 x i8], align 4
  %_3.i1930 = alloca [16 x i8], align 4
  %_19.i1914 = alloca [16 x i8], align 4
  %_18.i1915 = alloca [16 x i8], align 4
  %_14.i1916 = alloca [16 x i8], align 4
  %_13.i1917 = alloca [16 x i8], align 4
  %_9.i1918 = alloca [16 x i8], align 4
  %_8.i1919 = alloca [16 x i8], align 4
  %_4.i1920 = alloca [16 x i8], align 4
  %_3.i1921 = alloca [16 x i8], align 4
  %_2.i1922 = alloca [64 x i8], align 4
  %_19.i1901 = alloca [16 x i8], align 4
  %_18.i1902 = alloca [16 x i8], align 4
  %_14.i1903 = alloca [16 x i8], align 4
  %_13.i1904 = alloca [16 x i8], align 4
  %_9.i1905 = alloca [16 x i8], align 4
  %_8.i1906 = alloca [16 x i8], align 4
  %_4.i1907 = alloca [16 x i8], align 4
  %_3.i1908 = alloca [16 x i8], align 4
  %_2.i1909 = alloca [64 x i8], align 4
  %_19.i1887 = alloca [16 x i8], align 4
  %_18.i1888 = alloca [16 x i8], align 4
  %_14.i1889 = alloca [16 x i8], align 4
  %_13.i1890 = alloca [16 x i8], align 4
  %_9.i1891 = alloca [16 x i8], align 4
  %_8.i1892 = alloca [16 x i8], align 4
  %_4.i1893 = alloca [16 x i8], align 4
  %_3.i1894 = alloca [16 x i8], align 4
  %_2.i1895 = alloca [64 x i8], align 4
  %_19.i1874 = alloca [16 x i8], align 4
  %_18.i1875 = alloca [16 x i8], align 4
  %_14.i1876 = alloca [16 x i8], align 4
  %_13.i1877 = alloca [16 x i8], align 4
  %_9.i1878 = alloca [16 x i8], align 4
  %_8.i1879 = alloca [16 x i8], align 4
  %_4.i1880 = alloca [16 x i8], align 4
  %_3.i1881 = alloca [16 x i8], align 4
  %_2.i1882 = alloca [64 x i8], align 4
  %_19.i1860 = alloca [16 x i8], align 4
  %_18.i1861 = alloca [16 x i8], align 4
  %_14.i1862 = alloca [16 x i8], align 4
  %_13.i1863 = alloca [16 x i8], align 4
  %_9.i1864 = alloca [16 x i8], align 4
  %_8.i1865 = alloca [16 x i8], align 4
  %_4.i1866 = alloca [16 x i8], align 4
  %_3.i1867 = alloca [16 x i8], align 4
  %_2.i1868 = alloca [64 x i8], align 4
  %_19.i = alloca [16 x i8], align 4
  %_18.i1849 = alloca [16 x i8], align 4
  %_14.i1850 = alloca [16 x i8], align 4
  %_13.i1851 = alloca [16 x i8], align 4
  %_9.i1852 = alloca [16 x i8], align 4
  %_8.i1853 = alloca [16 x i8], align 4
  %_4.i1854 = alloca [16 x i8], align 4
  %_3.i1855 = alloca [16 x i8], align 4
  %_2.i1856 = alloca [64 x i8], align 4
  %self.dbg.spill.i1840 = alloca [8 x i8], align 8
  %_35.i1841 = alloca [16 x i8], align 4
  %_26.i1842 = alloca [16 x i8], align 4
  %_17.i1843 = alloca [16 x i8], align 4
  %_8.i1844 = alloca [16 x i8], align 4
  %self.dbg.spill.i1831 = alloca [8 x i8], align 8
  %_35.i1832 = alloca [16 x i8], align 4
  %_26.i1833 = alloca [16 x i8], align 4
  %_17.i1834 = alloca [16 x i8], align 4
  %_8.i1835 = alloca [16 x i8], align 4
  %self.dbg.spill.i1822 = alloca [8 x i8], align 8
  %_35.i1823 = alloca [16 x i8], align 4
  %_26.i1824 = alloca [16 x i8], align 4
  %_17.i1825 = alloca [16 x i8], align 4
  %_8.i1826 = alloca [16 x i8], align 4
  %self.dbg.spill.i1813 = alloca [8 x i8], align 8
  %_35.i1814 = alloca [16 x i8], align 4
  %_26.i1815 = alloca [16 x i8], align 4
  %_17.i1816 = alloca [16 x i8], align 4
  %_8.i1817 = alloca [16 x i8], align 4
  %self.dbg.spill.i1804 = alloca [8 x i8], align 8
  %_35.i1805 = alloca [16 x i8], align 4
  %_26.i1806 = alloca [16 x i8], align 4
  %_17.i1807 = alloca [16 x i8], align 4
  %_8.i1808 = alloca [16 x i8], align 4
  %self.dbg.spill.i1795 = alloca [8 x i8], align 8
  %_35.i1796 = alloca [16 x i8], align 4
  %_26.i1797 = alloca [16 x i8], align 4
  %_17.i1798 = alloca [16 x i8], align 4
  %_8.i1799 = alloca [16 x i8], align 4
  %self.dbg.spill.i1786 = alloca [8 x i8], align 8
  %_35.i1787 = alloca [16 x i8], align 4
  %_26.i1788 = alloca [16 x i8], align 4
  %_17.i1789 = alloca [16 x i8], align 4
  %_8.i1790 = alloca [16 x i8], align 4
  %self.dbg.spill.i1780 = alloca [8 x i8], align 8
  %_35.i = alloca [16 x i8], align 4
  %_26.i = alloca [16 x i8], align 4
  %_17.i = alloca [16 x i8], align 4
  %_8.i1781 = alloca [16 x i8], align 4
  %small.dbg.spill.i20.i1740 = alloca [8 x i8], align 8
  %small.dbg.spill.i18.i1741 = alloca [8 x i8], align 8
  %small.dbg.spill.i16.i1742 = alloca [8 x i8], align 8
  %small.dbg.spill.i.i1743 = alloca [8 x i8], align 8
  %_2.i14.i1744 = alloca [16 x i8], align 4
  %o.dbg.spill.i.i1745 = alloca [16 x i8], align 16
  %248 = alloca [16 x i8], align 8
  %bo.dbg.spill.i.i1746 = alloca [16 x i8], align 16
  %ao.dbg.spill.i.i1747 = alloca [16 x i8], align 16
  %249 = alloca [16 x i8], align 8
  %_16.i.i1748 = alloca [1 x i8], align 1
  %_12.i.i1749 = alloca [16 x i8], align 8
  %o.i.i1750 = alloca [16 x i8], align 8
  %_10.i.i1751 = alloca [16 x i8], align 8
  %_8.i.i1752 = alloca [16 x i8], align 8
  %_6.i.i1753 = alloca [16 x i8], align 4
  %b2.i.i1754 = alloca [16 x i8], align 8
  %a1.i.i1755 = alloca [16 x i8], align 8
  %f.i.i1756 = alloca [0 x i8], align 1
  %250 = alloca [16 x i8], align 4
    #dbg_declare(ptr %_5.i132, !3397, !DIExpression(), !3402)
    #dbg_declare(ptr %_9.i131, !3401, !DIExpression(), !3412)
  %251 = alloca [16 x i8], align 4
  %small.dbg.spill.i20.i1699 = alloca [8 x i8], align 8
  %small.dbg.spill.i18.i1700 = alloca [8 x i8], align 8
  %small.dbg.spill.i16.i1701 = alloca [8 x i8], align 8
  %small.dbg.spill.i.i1702 = alloca [8 x i8], align 8
  %_2.i14.i1703 = alloca [16 x i8], align 4
  %o.dbg.spill.i.i1704 = alloca [16 x i8], align 16
  %252 = alloca [16 x i8], align 8
  %bo.dbg.spill.i.i1705 = alloca [16 x i8], align 16
  %ao.dbg.spill.i.i1706 = alloca [16 x i8], align 16
  %253 = alloca [16 x i8], align 8
  %_16.i.i1707 = alloca [1 x i8], align 1
  %_12.i.i1708 = alloca [16 x i8], align 8
  %o.i.i1709 = alloca [16 x i8], align 8
  %_10.i.i1710 = alloca [16 x i8], align 8
  %_8.i.i1711 = alloca [16 x i8], align 8
  %_6.i.i1712 = alloca [16 x i8], align 4
  %b2.i.i1713 = alloca [16 x i8], align 8
  %a1.i.i1714 = alloca [16 x i8], align 8
  %f.i.i1715 = alloca [0 x i8], align 1
  %254 = alloca [16 x i8], align 4
    #dbg_declare(ptr %_14.i129, !3397, !DIExpression(), !3413)
    #dbg_declare(ptr %_18.i128, !3401, !DIExpression(), !3415)
  %255 = alloca [16 x i8], align 4
  %small.dbg.spill.i20.i1658 = alloca [8 x i8], align 8
  %small.dbg.spill.i18.i1659 = alloca [8 x i8], align 8
  %small.dbg.spill.i16.i1660 = alloca [8 x i8], align 8
  %small.dbg.spill.i.i1661 = alloca [8 x i8], align 8
  %_2.i14.i1662 = alloca [16 x i8], align 4
  %o.dbg.spill.i.i1663 = alloca [16 x i8], align 16
  %256 = alloca [16 x i8], align 8
  %bo.dbg.spill.i.i1664 = alloca [16 x i8], align 16
  %ao.dbg.spill.i.i1665 = alloca [16 x i8], align 16
  %257 = alloca [16 x i8], align 8
  %_16.i.i1666 = alloca [1 x i8], align 1
  %_12.i.i1667 = alloca [16 x i8], align 8
  %o.i.i1668 = alloca [16 x i8], align 8
  %_10.i.i1669 = alloca [16 x i8], align 8
  %_8.i.i1670 = alloca [16 x i8], align 8
  %_6.i.i1671 = alloca [16 x i8], align 4
  %b2.i.i1672 = alloca [16 x i8], align 8
  %a1.i.i1673 = alloca [16 x i8], align 8
  %f.i.i1674 = alloca [0 x i8], align 1
  %258 = alloca [16 x i8], align 4
    #dbg_declare(ptr %_23.i126, !3397, !DIExpression(), !3416)
    #dbg_declare(ptr %_27.i125, !3401, !DIExpression(), !3418)
  %259 = alloca [16 x i8], align 4
  %small.dbg.spill.i20.i1617 = alloca [8 x i8], align 8
  %small.dbg.spill.i18.i1618 = alloca [8 x i8], align 8
  %small.dbg.spill.i16.i1619 = alloca [8 x i8], align 8
  %small.dbg.spill.i.i1620 = alloca [8 x i8], align 8
  %_2.i14.i1621 = alloca [16 x i8], align 4
  %o.dbg.spill.i.i1622 = alloca [16 x i8], align 16
  %260 = alloca [16 x i8], align 8
  %bo.dbg.spill.i.i1623 = alloca [16 x i8], align 16
  %ao.dbg.spill.i.i1624 = alloca [16 x i8], align 16
  %261 = alloca [16 x i8], align 8
  %_16.i.i1625 = alloca [1 x i8], align 1
  %_12.i.i1626 = alloca [16 x i8], align 8
  %o.i.i1627 = alloca [16 x i8], align 8
  %_10.i.i1628 = alloca [16 x i8], align 8
  %_8.i.i1629 = alloca [16 x i8], align 8
  %_6.i.i1630 = alloca [16 x i8], align 4
  %b2.i.i1631 = alloca [16 x i8], align 8
  %a1.i.i1632 = alloca [16 x i8], align 8
  %f.i.i1633 = alloca [0 x i8], align 1
  %262 = alloca [16 x i8], align 4
    #dbg_declare(ptr %_32.i123, !3397, !DIExpression(), !3419)
    #dbg_declare(ptr %_36.i122, !3401, !DIExpression(), !3421)
  %263 = alloca [16 x i8], align 4
  %small.dbg.spill.i20.i1577 = alloca [8 x i8], align 8
  %small.dbg.spill.i18.i1578 = alloca [8 x i8], align 8
  %small.dbg.spill.i16.i1579 = alloca [8 x i8], align 8
  %small.dbg.spill.i.i1580 = alloca [8 x i8], align 8
  %_2.i14.i1581 = alloca [16 x i8], align 4
  %o.dbg.spill.i.i1582 = alloca [16 x i8], align 16
  %264 = alloca [16 x i8], align 8
  %bo.dbg.spill.i.i1583 = alloca [16 x i8], align 16
  %ao.dbg.spill.i.i1584 = alloca [16 x i8], align 16
  %265 = alloca [16 x i8], align 8
  %_16.i.i1585 = alloca [1 x i8], align 1
  %_12.i.i1586 = alloca [16 x i8], align 8
  %o.i.i1587 = alloca [16 x i8], align 8
  %_10.i.i1588 = alloca [16 x i8], align 8
  %_8.i.i1589 = alloca [16 x i8], align 8
  %_6.i.i1590 = alloca [16 x i8], align 4
  %b2.i.i1591 = alloca [16 x i8], align 8
  %a1.i.i1592 = alloca [16 x i8], align 8
  %f.i.i1593 = alloca [0 x i8], align 1
  %266 = alloca [16 x i8], align 4
    #dbg_declare(ptr %_5.i152, !3397, !DIExpression(), !3422)
    #dbg_declare(ptr %_9.i151, !3401, !DIExpression(), !3425)
  %267 = alloca [16 x i8], align 4
  %small.dbg.spill.i20.i1536 = alloca [8 x i8], align 8
  %small.dbg.spill.i18.i1537 = alloca [8 x i8], align 8
  %small.dbg.spill.i16.i1538 = alloca [8 x i8], align 8
  %small.dbg.spill.i.i1539 = alloca [8 x i8], align 8
  %_2.i14.i1540 = alloca [16 x i8], align 4
  %o.dbg.spill.i.i1541 = alloca [16 x i8], align 16
  %268 = alloca [16 x i8], align 8
  %bo.dbg.spill.i.i1542 = alloca [16 x i8], align 16
  %ao.dbg.spill.i.i1543 = alloca [16 x i8], align 16
  %269 = alloca [16 x i8], align 8
  %_16.i.i1544 = alloca [1 x i8], align 1
  %_12.i.i1545 = alloca [16 x i8], align 8
  %o.i.i1546 = alloca [16 x i8], align 8
  %_10.i.i1547 = alloca [16 x i8], align 8
  %_8.i.i1548 = alloca [16 x i8], align 8
  %_6.i.i1549 = alloca [16 x i8], align 4
  %b2.i.i1550 = alloca [16 x i8], align 8
  %a1.i.i1551 = alloca [16 x i8], align 8
  %f.i.i1552 = alloca [0 x i8], align 1
  %270 = alloca [16 x i8], align 4
    #dbg_declare(ptr %_14.i149, !3397, !DIExpression(), !3426)
    #dbg_declare(ptr %_18.i148, !3401, !DIExpression(), !3428)
  %271 = alloca [16 x i8], align 4
  %small.dbg.spill.i20.i1495 = alloca [8 x i8], align 8
  %small.dbg.spill.i18.i1496 = alloca [8 x i8], align 8
  %small.dbg.spill.i16.i1497 = alloca [8 x i8], align 8
  %small.dbg.spill.i.i1498 = alloca [8 x i8], align 8
  %_2.i14.i1499 = alloca [16 x i8], align 4
  %o.dbg.spill.i.i1500 = alloca [16 x i8], align 16
  %272 = alloca [16 x i8], align 8
  %bo.dbg.spill.i.i1501 = alloca [16 x i8], align 16
  %ao.dbg.spill.i.i1502 = alloca [16 x i8], align 16
  %273 = alloca [16 x i8], align 8
  %_16.i.i1503 = alloca [1 x i8], align 1
  %_12.i.i1504 = alloca [16 x i8], align 8
  %o.i.i1505 = alloca [16 x i8], align 8
  %_10.i.i1506 = alloca [16 x i8], align 8
  %_8.i.i1507 = alloca [16 x i8], align 8
  %_6.i.i1508 = alloca [16 x i8], align 4
  %b2.i.i1509 = alloca [16 x i8], align 8
  %a1.i.i1510 = alloca [16 x i8], align 8
  %f.i.i1511 = alloca [0 x i8], align 1
  %274 = alloca [16 x i8], align 4
    #dbg_declare(ptr %_23.i146, !3397, !DIExpression(), !3429)
    #dbg_declare(ptr %_27.i145, !3401, !DIExpression(), !3431)
  %275 = alloca [16 x i8], align 4
  %small.dbg.spill.i20.i1454 = alloca [8 x i8], align 8
  %small.dbg.spill.i18.i1455 = alloca [8 x i8], align 8
  %small.dbg.spill.i16.i1456 = alloca [8 x i8], align 8
  %small.dbg.spill.i.i1457 = alloca [8 x i8], align 8
  %_2.i14.i1458 = alloca [16 x i8], align 4
  %o.dbg.spill.i.i1459 = alloca [16 x i8], align 16
  %276 = alloca [16 x i8], align 8
  %bo.dbg.spill.i.i1460 = alloca [16 x i8], align 16
  %ao.dbg.spill.i.i1461 = alloca [16 x i8], align 16
  %277 = alloca [16 x i8], align 8
  %_16.i.i1462 = alloca [1 x i8], align 1
  %_12.i.i1463 = alloca [16 x i8], align 8
  %o.i.i1464 = alloca [16 x i8], align 8
  %_10.i.i1465 = alloca [16 x i8], align 8
  %_8.i.i1466 = alloca [16 x i8], align 8
  %_6.i.i1467 = alloca [16 x i8], align 4
  %b2.i.i1468 = alloca [16 x i8], align 8
  %a1.i.i1469 = alloca [16 x i8], align 8
  %f.i.i1470 = alloca [0 x i8], align 1
  %278 = alloca [16 x i8], align 4
    #dbg_declare(ptr %_32.i143, !3397, !DIExpression(), !3432)
    #dbg_declare(ptr %_36.i142, !3401, !DIExpression(), !3434)
  %279 = alloca [16 x i8], align 4
  %small.dbg.spill.i20.i1414 = alloca [8 x i8], align 8
  %small.dbg.spill.i18.i1415 = alloca [8 x i8], align 8
  %small.dbg.spill.i16.i1416 = alloca [8 x i8], align 8
  %small.dbg.spill.i.i1417 = alloca [8 x i8], align 8
  %_2.i14.i1418 = alloca [16 x i8], align 4
  %o.dbg.spill.i.i1419 = alloca [16 x i8], align 16
  %280 = alloca [16 x i8], align 8
  %bo.dbg.spill.i.i1420 = alloca [16 x i8], align 16
  %ao.dbg.spill.i.i1421 = alloca [16 x i8], align 16
  %281 = alloca [16 x i8], align 8
  %_16.i.i1422 = alloca [1 x i8], align 1
  %_12.i.i1423 = alloca [16 x i8], align 8
  %o.i.i1424 = alloca [16 x i8], align 8
  %_10.i.i1425 = alloca [16 x i8], align 8
  %_8.i.i1426 = alloca [16 x i8], align 8
  %_6.i.i1427 = alloca [16 x i8], align 4
  %b2.i.i1428 = alloca [16 x i8], align 8
  %a1.i.i1429 = alloca [16 x i8], align 8
  %f.i.i1430 = alloca [0 x i8], align 1
  %282 = alloca [16 x i8], align 4
    #dbg_declare(ptr %_5.i173, !3397, !DIExpression(), !3435)
    #dbg_declare(ptr %_9.i172, !3401, !DIExpression(), !3438)
  %283 = alloca [16 x i8], align 4
  %small.dbg.spill.i20.i1373 = alloca [8 x i8], align 8
  %small.dbg.spill.i18.i1374 = alloca [8 x i8], align 8
  %small.dbg.spill.i16.i1375 = alloca [8 x i8], align 8
  %small.dbg.spill.i.i1376 = alloca [8 x i8], align 8
  %_2.i14.i1377 = alloca [16 x i8], align 4
  %o.dbg.spill.i.i1378 = alloca [16 x i8], align 16
  %284 = alloca [16 x i8], align 8
  %bo.dbg.spill.i.i1379 = alloca [16 x i8], align 16
  %ao.dbg.spill.i.i1380 = alloca [16 x i8], align 16
  %285 = alloca [16 x i8], align 8
  %_16.i.i1381 = alloca [1 x i8], align 1
  %_12.i.i1382 = alloca [16 x i8], align 8
  %o.i.i1383 = alloca [16 x i8], align 8
  %_10.i.i1384 = alloca [16 x i8], align 8
  %_8.i.i1385 = alloca [16 x i8], align 8
  %_6.i.i1386 = alloca [16 x i8], align 4
  %b2.i.i1387 = alloca [16 x i8], align 8
  %a1.i.i1388 = alloca [16 x i8], align 8
  %f.i.i1389 = alloca [0 x i8], align 1
  %286 = alloca [16 x i8], align 4
    #dbg_declare(ptr %_14.i170, !3397, !DIExpression(), !3439)
    #dbg_declare(ptr %_18.i169, !3401, !DIExpression(), !3441)
  %287 = alloca [16 x i8], align 4
  %small.dbg.spill.i20.i1332 = alloca [8 x i8], align 8
  %small.dbg.spill.i18.i1333 = alloca [8 x i8], align 8
  %small.dbg.spill.i16.i1334 = alloca [8 x i8], align 8
  %small.dbg.spill.i.i1335 = alloca [8 x i8], align 8
  %_2.i14.i1336 = alloca [16 x i8], align 4
  %o.dbg.spill.i.i1337 = alloca [16 x i8], align 16
  %288 = alloca [16 x i8], align 8
  %bo.dbg.spill.i.i1338 = alloca [16 x i8], align 16
  %ao.dbg.spill.i.i1339 = alloca [16 x i8], align 16
  %289 = alloca [16 x i8], align 8
  %_16.i.i1340 = alloca [1 x i8], align 1
  %_12.i.i1341 = alloca [16 x i8], align 8
  %o.i.i1342 = alloca [16 x i8], align 8
  %_10.i.i1343 = alloca [16 x i8], align 8
  %_8.i.i1344 = alloca [16 x i8], align 8
  %_6.i.i1345 = alloca [16 x i8], align 4
  %b2.i.i1346 = alloca [16 x i8], align 8
  %a1.i.i1347 = alloca [16 x i8], align 8
  %f.i.i1348 = alloca [0 x i8], align 1
  %290 = alloca [16 x i8], align 4
    #dbg_declare(ptr %_23.i167, !3397, !DIExpression(), !3442)
    #dbg_declare(ptr %_27.i166, !3401, !DIExpression(), !3444)
  %291 = alloca [16 x i8], align 4
  %small.dbg.spill.i20.i1291 = alloca [8 x i8], align 8
  %small.dbg.spill.i18.i1292 = alloca [8 x i8], align 8
  %small.dbg.spill.i16.i1293 = alloca [8 x i8], align 8
  %small.dbg.spill.i.i1294 = alloca [8 x i8], align 8
  %_2.i14.i1295 = alloca [16 x i8], align 4
  %o.dbg.spill.i.i1296 = alloca [16 x i8], align 16
  %292 = alloca [16 x i8], align 8
  %bo.dbg.spill.i.i1297 = alloca [16 x i8], align 16
  %ao.dbg.spill.i.i1298 = alloca [16 x i8], align 16
  %293 = alloca [16 x i8], align 8
  %_16.i.i1299 = alloca [1 x i8], align 1
  %_12.i.i1300 = alloca [16 x i8], align 8
  %o.i.i1301 = alloca [16 x i8], align 8
  %_10.i.i1302 = alloca [16 x i8], align 8
  %_8.i.i1303 = alloca [16 x i8], align 8
  %_6.i.i1304 = alloca [16 x i8], align 4
  %b2.i.i1305 = alloca [16 x i8], align 8
  %a1.i.i1306 = alloca [16 x i8], align 8
  %f.i.i1307 = alloca [0 x i8], align 1
  %294 = alloca [16 x i8], align 4
    #dbg_declare(ptr %_32.i164, !3397, !DIExpression(), !3445)
    #dbg_declare(ptr %_36.i163, !3401, !DIExpression(), !3447)
  %295 = alloca [16 x i8], align 4
  %small.dbg.spill.i20.i1251 = alloca [8 x i8], align 8
  %small.dbg.spill.i18.i1252 = alloca [8 x i8], align 8
  %small.dbg.spill.i16.i1253 = alloca [8 x i8], align 8
  %small.dbg.spill.i.i1254 = alloca [8 x i8], align 8
  %_2.i14.i1255 = alloca [16 x i8], align 4
  %o.dbg.spill.i.i1256 = alloca [16 x i8], align 16
  %296 = alloca [16 x i8], align 8
  %bo.dbg.spill.i.i1257 = alloca [16 x i8], align 16
  %ao.dbg.spill.i.i1258 = alloca [16 x i8], align 16
  %297 = alloca [16 x i8], align 8
  %_16.i.i1259 = alloca [1 x i8], align 1
  %_12.i.i1260 = alloca [16 x i8], align 8
  %o.i.i1261 = alloca [16 x i8], align 8
  %_10.i.i1262 = alloca [16 x i8], align 8
  %_8.i.i1263 = alloca [16 x i8], align 8
  %_6.i.i1264 = alloca [16 x i8], align 4
  %b2.i.i1265 = alloca [16 x i8], align 8
  %a1.i.i1266 = alloca [16 x i8], align 8
  %f.i.i1267 = alloca [0 x i8], align 1
  %298 = alloca [16 x i8], align 4
    #dbg_declare(ptr %_5.i194, !3397, !DIExpression(), !3448)
    #dbg_declare(ptr %_9.i193, !3401, !DIExpression(), !3451)
  %299 = alloca [16 x i8], align 4
  %small.dbg.spill.i20.i1210 = alloca [8 x i8], align 8
  %small.dbg.spill.i18.i1211 = alloca [8 x i8], align 8
  %small.dbg.spill.i16.i1212 = alloca [8 x i8], align 8
  %small.dbg.spill.i.i1213 = alloca [8 x i8], align 8
  %_2.i14.i1214 = alloca [16 x i8], align 4
  %o.dbg.spill.i.i1215 = alloca [16 x i8], align 16
  %300 = alloca [16 x i8], align 8
  %bo.dbg.spill.i.i1216 = alloca [16 x i8], align 16
  %ao.dbg.spill.i.i1217 = alloca [16 x i8], align 16
  %301 = alloca [16 x i8], align 8
  %_16.i.i1218 = alloca [1 x i8], align 1
  %_12.i.i1219 = alloca [16 x i8], align 8
  %o.i.i1220 = alloca [16 x i8], align 8
  %_10.i.i1221 = alloca [16 x i8], align 8
  %_8.i.i1222 = alloca [16 x i8], align 8
  %_6.i.i1223 = alloca [16 x i8], align 4
  %b2.i.i1224 = alloca [16 x i8], align 8
  %a1.i.i1225 = alloca [16 x i8], align 8
  %f.i.i1226 = alloca [0 x i8], align 1
  %302 = alloca [16 x i8], align 4
    #dbg_declare(ptr %_14.i191, !3397, !DIExpression(), !3452)
    #dbg_declare(ptr %_18.i190, !3401, !DIExpression(), !3454)
  %303 = alloca [16 x i8], align 4
  %small.dbg.spill.i20.i1169 = alloca [8 x i8], align 8
  %small.dbg.spill.i18.i1170 = alloca [8 x i8], align 8
  %small.dbg.spill.i16.i1171 = alloca [8 x i8], align 8
