	.section	__TEXT,__text,regular,pure_instructions
	.build_version macos, 11, 0
	.globl	__ZN103_$LT$rand..rngs..reseeding..ReseedingCore$LT$R$C$Rsdr$GT$$u20$as$u20$rand_core..block..BlockRngCore$GT$8generate17h0e2eb77e2eeb856aE
	.p2align	2
__ZN103_$LT$rand..rngs..reseeding..ReseedingCore$LT$R$C$Rsdr$GT$$u20$as$u20$rand_core..block..BlockRngCore$GT$8generate17h0e2eb77e2eeb856aE:
Lfunc_begin0:
	.file	1 "/Users/np/.cargo/registry/src/index.crates.io-1949cf8c6b5b557f/rand-0.9.0/src/rngs" "reseeding.rs"
	.loc	1 162 0
	.cfi_startproc
	sub	sp, sp, #64
	.cfi_def_cfa_offset 64
	stp	x29, x30, [sp, #48]
	add	x29, sp, #48
	.cfi_def_cfa w29, 16
	.cfi_offset w30, -8
	.cfi_offset w29, -16
	str	x0, [sp, #16]
	str	x1, [sp, #24]
	mov	x8, x0
	stur	x8, [x29, #-16]
Ltmp0:
	.loc	1 163 12 prologue_end
	ldr	x8, [x0, #56]
	subs	x8, x8, #0
	b.le	LBB0_2
	b	LBB0_1
LBB0_1:
	.loc	1 169 37
	add	x0, sp, #24
	bl	__ZN63_$LT$$RF$mut$u20$T$u20$as$u20$core..convert..AsRef$LT$U$GT$$GT$6as_ref17h8a10da507e8438beE
	.loc	1 169 25 is_stmt 0
	bl	__ZN4core3mem11size_of_val17hb178677f302822a8E
	ldr	x8, [sp, #16]
	stur	x0, [x29, #-8]
Ltmp1:
	.loc	1 170 9 is_stmt 1
	ldr	x8, [x8, #56]
	subs	x8, x8, x0
	str	x8, [sp, #8]
	cset	w8, vs
	tbnz	w8, #0, LBB0_4
	b	LBB0_3
Ltmp2:
LBB0_2:
	.loc	1 0 9 is_stmt 0
	ldr	x0, [sp, #16]
	.loc	1 167 20 is_stmt 1
	ldr	x1, [sp, #24]
	bl	__ZN4rand4rngs9reseeding29ReseedingCore$LT$R$C$Rsdr$GT$19reseed_and_generate17h5049cbb919042d83E
	b	LBB0_5
LBB0_3:
	.loc	1 0 20 is_stmt 0
	ldr	x0, [sp, #16]
	ldr	x8, [sp, #8]
Ltmp3:
	.loc	1 170 9 is_stmt 1
	str	x8, [x0, #56]
	.loc	1 171 9
	ldr	x1, [sp, #24]
	bl	__ZN84_$LT$rand_chacha..chacha..ChaCha12Core$u20$as$u20$rand_core..block..BlockRngCore$GT$8generate17h4ec65a216c4333c4E
	b	LBB0_5
LBB0_4:
	.loc	1 170 9
	adrp	x0, l_alloc_8a8305002a5686bad8b99ad20f996174@PAGE
	add	x0, x0, l_alloc_8a8305002a5686bad8b99ad20f996174@PAGEOFF
	bl	__ZN4core9panicking11panic_const24panic_const_sub_overflow17h8f97c6b3a4c962daE
Ltmp4:
LBB0_5:
	.cfi_def_cfa wsp, 64
	.loc	1 172 6 epilogue_begin
	ldp	x29, x30, [sp, #48]
	add	sp, sp, #64
	.cfi_def_cfa_offset 0
	.cfi_restore w30
	.cfi_restore w29
	ret
Ltmp5:
Lfunc_end0:
	.cfi_endproc

	.globl	__ZN105_$LT$core..ops..range..RangeTo$LT$usize$GT$$u20$as$u20$rand..distr..uniform..SampleRange$LT$usize$GT$$GT$13sample_single17h7b74b8c0a7052301E
	.p2align	2
__ZN105_$LT$core..ops..range..RangeTo$LT$usize$GT$$u20$as$u20$rand..distr..uniform..SampleRange$LT$usize$GT$$GT$13sample_single17h7b74b8c0a7052301E:
Lfunc_begin1:
	.file	2 "/Users/np/.cargo/registry/src/index.crates.io-1949cf8c6b5b557f/rand-0.9.0/src/distr" "uniform.rs"
	.loc	2 458 0
	.cfi_startproc
	sub	sp, sp, #48
	.cfi_def_cfa_offset 48
	stp	x29, x30, [sp, #32]
	add	x29, sp, #32
	.cfi_def_cfa w29, 16
	.cfi_offset w30, -8
	.cfi_offset w29, -16
	str	x0, [sp, #8]
	mov	x2, x1
	ldr	x1, [sp, #8]
	str	x1, [sp, #16]
	mov	x9, x2
	stur	x9, [x29, #-8]
Ltmp6:
	.loc	2 459 17 prologue_end
	mov	x0, #0
	bl	__ZN96_$LT$rand..distr..uniform..int..UniformUsize$u20$as$u20$rand..distr..uniform..UniformSampler$GT$13sample_single17h6b861a158aed0abeE
	.cfi_def_cfa wsp, 48
	.loc	2 460 14 epilogue_begin
	ldp	x29, x30, [sp, #32]
	add	sp, sp, #48
	.cfi_def_cfa_offset 0
	.cfi_restore w30
	.cfi_restore w29
	ret
Ltmp7:
Lfunc_end1:
	.cfi_endproc

	.p2align	2
__ZN105_$LT$core..ops..range..RangeTo$LT$usize$GT$$u20$as$u20$rand..distr..uniform..SampleRange$LT$usize$GT$$GT$8is_empty17h23921f4355903150E:
Lfunc_begin2:
	.loc	2 463 0
	.cfi_startproc
	sub	sp, sp, #16
	.cfi_def_cfa_offset 16
	mov	x8, x0
	str	x8, [sp, #8]
Ltmp9:
	.loc	2 464 22 prologue_end
	ldr	x9, [x0]
	.loc	2 464 17 is_stmt 0
	mov	x8, #0
	subs	x8, x8, x9
	cset	w0, eq
	.loc	2 465 14 epilogue_begin is_stmt 1
	add	sp, sp, #16
	.cfi_def_cfa_offset 0
	ret
Ltmp10:
Lfunc_end2:
	.cfi_endproc

	.globl	__ZN105_$LT$rand..distr..uniform..int..UniformInt$LT$u32$GT$$u20$as$u20$rand..distr..uniform..UniformSampler$GT$13sample_single17hce01506d13bd404eE
	.p2align	2
__ZN105_$LT$rand..distr..uniform..int..UniformInt$LT$u32$GT$$u20$as$u20$rand..distr..uniform..UniformSampler$GT$13sample_single17hce01506d13bd404eE:
Lfunc_begin3:
	.file	3 "/Users/np/.cargo/registry/src/index.crates.io-1949cf8c6b5b557f/rand-0.9.0/src/distr" "uniform_int.rs"
	.loc	3 153 0
	.cfi_startproc
	.cfi_personality 155, _rust_eh_personality
	.cfi_lsda 16, Lexception0
	sub	sp, sp, #128
	.cfi_def_cfa_offset 128
	stp	x29, x30, [sp, #112]
	add	x29, sp, #112
	.cfi_def_cfa w29, 16
	.cfi_offset w30, -8
	.cfi_offset w29, -16
	.cfi_remember_state
	str	x2, [sp, #24]
	add	x8, sp, #32
	str	w0, [sp, #32]
	str	w1, [sp, #36]
	str	x2, [sp, #56]
	stur	x8, [x29, #-8]
Ltmp16:
	.loc	2 406 6 prologue_end
	b	LBB3_3
Ltmp17:
LBB3_1:
	.loc	3 168 13
	b	LBB3_14
LBB3_2:
Ltmp15:
	.loc	3 0 13 is_stmt 0
	stur	x0, [x29, #-48]
	mov	x8, x1
	stur	w8, [x29, #-40]
	b	LBB3_1
LBB3_3:
	.loc	3 162 27 is_stmt 1
	ldr	w8, [sp, #32]
	str	w8, [sp, #20]
	stur	w8, [x29, #-32]
	add	x8, sp, #36
	stur	x8, [x29, #-16]
Ltmp18:
	.loc	2 406 6
	b	LBB3_4
Ltmp19:
LBB3_4:
	.loc	2 0 6 is_stmt 0
	ldr	w8, [sp, #20]
	.loc	3 163 28 is_stmt 1
	ldr	w9, [sp, #36]
	str	w9, [sp, #16]
	stur	w9, [x29, #-28]
Ltmp20:
	.loc	3 164 21
	subs	w8, w8, w9
	b.lo	LBB3_6
	b	LBB3_5
LBB3_5:
	.loc	3 165 32
	strb	wzr, [sp, #55]
	.loc	3 165 28 is_stmt 0
	ldrb	w9, [sp, #55]
	mov	w8, #1
	and	w9, w9, #0x1
	strb	w9, [sp, #41]
	strb	w8, [sp, #40]
Ltmp21:
	.loc	3 168 13 is_stmt 1
	b	LBB3_7
LBB3_6:
	.loc	3 0 13 is_stmt 0
	ldr	w8, [sp, #16]
Ltmp22:
	.loc	3 167 52 is_stmt 1
	subs	w9, w8, #1
	str	w9, [sp, #12]
	subs	w8, w8, #1
	b.lo	LBB3_10
	b	LBB3_9
Ltmp23:
LBB3_7:
	.loc	3 168 13
	b	LBB3_8
LBB3_8:
	.loc	3 168 14 is_stmt 0
	ldr	x0, [sp, #40]
	.cfi_def_cfa wsp, 128
	.loc	3 168 14 epilogue_begin
	ldp	x29, x30, [sp, #112]
	add	sp, sp, #128
	.cfi_def_cfa_offset 0
	.cfi_restore w30
	.cfi_restore w29
	ret
LBB3_9:
	.cfi_restore_state
Ltmp11:
	.loc	3 0 14
	ldr	x2, [sp, #24]
	ldr	w1, [sp, #12]
	ldr	w0, [sp, #20]
Ltmp24:
	.loc	3 167 17 is_stmt 1
	bl	__ZN105_$LT$rand..distr..uniform..int..UniformInt$LT$u32$GT$$u20$as$u20$rand..distr..uniform..UniformSampler$GT$23sample_single_inclusive17h8b1e4ca36f936ad9E
	str	x0, [sp]
Ltmp12:
	b	LBB3_12
LBB3_10:
Ltmp13:
	.loc	3 167 52 is_stmt 0
	adrp	x0, l_alloc_5fc73023334f87bc750c79ae2dfc5958@PAGE
	add	x0, x0, l_alloc_5fc73023334f87bc750c79ae2dfc5958@PAGEOFF
	bl	__ZN4core9panicking11panic_const24panic_const_sub_overflow17h8f97c6b3a4c962daE
Ltmp14:
	b	LBB3_11
LBB3_11:
	.loc	3 0 52
	brk	#0x1
LBB3_12:
	ldr	x8, [sp]
	.loc	3 167 17
	stur	x8, [x29, #-24]
	ldur	x8, [x29, #-24]
	str	x8, [sp, #40]
Ltmp25:
	.loc	3 168 13 is_stmt 1
	b	LBB3_13
LBB3_13:
	b	LBB3_8
LBB3_14:
	.loc	3 153 13
	ldur	x0, [x29, #-48]
	bl	__Unwind_Resume
Ltmp26:
Lfunc_end3:
	.cfi_endproc
	.section	__TEXT,__gcc_except_tab
	.p2align	2, 0x0
GCC_except_table3:
Lexception0:
	.byte	255
	.byte	255
	.byte	1
	.uleb128 Lcst_end0-Lcst_begin0
Lcst_begin0:
	.uleb128 Ltmp11-Lfunc_begin3
	.uleb128 Ltmp14-Ltmp11
	.uleb128 Ltmp15-Lfunc_begin3
	.byte	0
	.uleb128 Ltmp14-Lfunc_begin3
	.uleb128 Lfunc_end3-Ltmp14
	.byte	0
	.byte	0
Lcst_end0:
	.p2align	2, 0x0

	.section	__TEXT,__text,regular,pure_instructions
	.globl	__ZN105_$LT$rand..distr..uniform..int..UniformInt$LT$u32$GT$$u20$as$u20$rand..distr..uniform..UniformSampler$GT$23sample_single_inclusive17h8b1e4ca36f936ad9E
	.p2align	2
__ZN105_$LT$rand..distr..uniform..int..UniformInt$LT$u32$GT$$u20$as$u20$rand..distr..uniform..UniformSampler$GT$23sample_single_inclusive17h8b1e4ca36f936ad9E:
Lfunc_begin4:
	.loc	3 176 0
	.cfi_startproc
	.cfi_personality 155, _rust_eh_personality
	.cfi_lsda 16, Lexception1
	sub	sp, sp, #304
	.cfi_def_cfa_offset 304
	stp	x28, x27, [sp, #272]
	stp	x29, x30, [sp, #288]
	add	x29, sp, #288
	.cfi_def_cfa w29, 16
	.cfi_offset w30, -8
	.cfi_offset w29, -16
	.cfi_offset w27, -24
	.cfi_offset w28, -32
	.cfi_remember_state
	str	x2, [sp, #104]
	add	x8, sp, #112
	str	w0, [sp, #112]
	str	w1, [sp, #116]
	str	x2, [sp, #144]
	stur	x8, [x29, #-24]
Ltmp44:
	.loc	2 406 6 prologue_end
	b	LBB4_3
Ltmp45:
LBB4_1:
	.loc	3 209 13
	b	LBB4_35
LBB4_2:
Ltmp43:
	.loc	3 0 13 is_stmt 0
	stur	x0, [x29, #-136]
	mov	x8, x1
	stur	w8, [x29, #-128]
	b	LBB4_1
LBB4_3:
	.loc	3 185 27 is_stmt 1
	ldr	w8, [sp, #112]
	str	w8, [sp, #100]
	stur	w8, [x29, #-116]
	add	x8, sp, #116
	stur	x8, [x29, #-32]
Ltmp46:
	.loc	2 406 6
	b	LBB4_4
Ltmp47:
LBB4_4:
	.loc	2 0 6 is_stmt 0
	ldr	w8, [sp, #100]
	.loc	3 186 28 is_stmt 1
	ldr	w9, [sp, #116]
	str	w9, [sp, #96]
	stur	w9, [x29, #-112]
Ltmp48:
	.loc	3 187 21
	subs	w8, w8, w9
	b.ls	LBB4_6
	b	LBB4_5
LBB4_5:
	.loc	3 188 32
	strb	wzr, [sp, #131]
	.loc	3 188 28 is_stmt 0
	ldrb	w9, [sp, #131]
	mov	w8, #1
	and	w9, w9, #0x1
	strb	w9, [sp, #121]
	strb	w8, [sp, #120]
	.file	4 "/Users/np/hack/verifopt/flux-examples/flux-assume" "src/lib.rs"
	.loc	4 0 0
	b	LBB4_7
LBB4_6:
	ldr	w8, [sp, #96]
	ldr	w9, [sp, #100]
	stur	w8, [x29, #-72]
	stur	w9, [x29, #-68]
Ltmp49:
	.file	5 "/rustc/4eb161250e340c8f48f66e2b929ef4a5bed7c181/library/core/src/num" "uint_macros.rs"
	.loc	5 1978 13 is_stmt 1
	subs	w8, w8, w9
	str	w8, [sp, #92]
	.loc	5 1979 10
	b	LBB4_8
Ltmp50:
LBB4_7:
	.loc	3 209 13
	b	LBB4_13
LBB4_8:
	.loc	3 0 13 is_stmt 0
	ldr	w8, [sp, #92]
	stur	w8, [x29, #-84]
	mov	w9, #1
	stur	w9, [x29, #-80]
Ltmp51:
	.loc	5 1937 13 is_stmt 1
	add	w8, w8, #1
	str	w8, [sp, #88]
	.loc	5 1938 10
	b	LBB4_9
Ltmp52:
LBB4_9:
	.loc	5 0 10 is_stmt 0
	ldr	w8, [sp, #88]
	.loc	3 190 29 is_stmt 1
	stur	w8, [x29, #-108]
Ltmp53:
	.loc	3 191 20
	cbnz	w8, LBB4_11
	b	LBB4_10
LBB4_10:
Ltmp41:
	.loc	3 0 20 is_stmt 0
	ldr	x0, [sp, #104]
	.loc	3 193 31 is_stmt 1
	bl	__ZN4rand3rng3Rng6random17h7aa41a4f691dbf5aE
	str	w0, [sp, #84]
Ltmp42:
	b	LBB4_12
LBB4_11:
Ltmp27:
	.loc	3 0 31 is_stmt 0
	ldr	x0, [sp, #104]
	.loc	3 197 46 is_stmt 1
	bl	__ZN4rand3rng3Rng6random17h7aa41a4f691dbf5aE
	str	w0, [sp, #80]
Ltmp28:
	b	LBB4_15
LBB4_12:
	.loc	3 0 46 is_stmt 0
	ldr	w8, [sp, #84]
	.loc	3 193 28 is_stmt 1
	str	w8, [sp, #124]
	strb	wzr, [sp, #120]
Ltmp54:
	.loc	4 0 0 is_stmt 0
	b	LBB4_7
Ltmp55:
LBB4_13:
	.loc	3 209 13 is_stmt 1
	b	LBB4_14
LBB4_14:
	.loc	3 209 14 is_stmt 0
	ldr	x0, [sp, #120]
	.cfi_def_cfa wsp, 304
	.loc	3 209 14 epilogue_begin
	ldp	x29, x30, [sp, #288]
	ldp	x28, x27, [sp, #272]
	add	sp, sp, #304
	.cfi_def_cfa_offset 0
	.cfi_restore w30
	.cfi_restore w29
	.cfi_restore w27
	.cfi_restore w28
	ret
LBB4_15:
	.cfi_restore_state
	.loc	3 0 14
	ldr	w9, [sp, #80]
	ldr	w10, [sp, #88]
	stur	w9, [x29, #-48]
	stur	w10, [x29, #-44]
Ltmp56:
	.file	6 "/Users/np/.cargo/registry/src/index.crates.io-1949cf8c6b5b557f/rand-0.9.0/src/distr" "utils.rs"
	.loc	6 29 27 is_stmt 1
	mov	w8, w9
	.loc	6 29 45 is_stmt 0
	mov	w11, w10
	.loc	6 29 27
	umulh	x8, x8, x11
	umull	x9, w9, w10
	str	x9, [sp, #72]
	subs	x8, x8, #0
	cset	w8, ne
	tbz	w8, #0, LBB4_18
	b	LBB4_16
LBB4_16:
Ltmp39:
	adrp	x0, l_alloc_0e203e6d2c8e3f24bc8531bafa2f894b@PAGE
	add	x0, x0, l_alloc_0e203e6d2c8e3f24bc8531bafa2f894b@PAGEOFF
	bl	__ZN4core9panicking11panic_const24panic_const_mul_overflow17h2acf0b56ca158120E
Ltmp40:
	b	LBB4_17
LBB4_17:
	brk	#0x1
LBB4_18:
	.loc	6 0 27
	ldr	x8, [sp, #72]
	.loc	6 29 27
	stur	x8, [x29, #-40]
Ltmp57:
	.loc	6 30 18 is_stmt 1
	lsr	x9, x8, #32
	str	x9, [sp, #56]
	str	w8, [sp, #68]
Ltmp58:
	.loc	6 31 14
	b	LBB4_19
Ltmp59:
LBB4_19:
	.loc	6 0 14 is_stmt 0
	ldr	w9, [sp, #88]
	ldr	x8, [sp, #72]
	ldr	x10, [sp, #56]
	.loc	3 197 22 is_stmt 1
	str	w10, [sp, #132]
	.loc	3 197 34 is_stmt 0
	stur	w8, [x29, #-104]
	stur	w9, [x29, #-76]
Ltmp60:
	.loc	5 1978 13 is_stmt 1
	mov	w8, #0
	subs	w8, w8, w9
	str	w8, [sp, #52]
Ltmp61:
	.loc	5 2166 10
	b	LBB4_20
Ltmp62:
LBB4_20:
	.loc	5 0 10 is_stmt 0
	ldr	w8, [sp, #68]
	ldr	w9, [sp, #52]
	.loc	3 200 20 is_stmt 1
	subs	w8, w8, w9
	b.hi	LBB4_22
	b	LBB4_21
LBB4_21:
	.loc	3 0 20 is_stmt 0
	ldr	w8, [sp, #100]
	.loc	3 208 37 is_stmt 1
	ldr	w9, [sp, #132]
	stur	w8, [x29, #-92]
	stur	w9, [x29, #-88]
Ltmp63:
	.loc	5 1937 13
	add	w8, w8, w9
	str	w8, [sp, #48]
	.loc	5 1938 10
	b	LBB4_33
Ltmp64:
LBB4_22:
Ltmp29:
	.loc	5 0 10 is_stmt 0
	ldr	x0, [sp, #104]
	.loc	3 202 45 is_stmt 1
	bl	__ZN4rand3rng3Rng6random17h7aa41a4f691dbf5aE
	str	w0, [sp, #44]
Ltmp30:
	b	LBB4_23
LBB4_23:
	.loc	3 0 45 is_stmt 0
	ldr	w9, [sp, #44]
	ldr	w10, [sp, #88]
	stur	w9, [x29, #-64]
	stur	w10, [x29, #-60]
Ltmp65:
	.loc	6 29 27 is_stmt 1
	mov	w8, w9
	.loc	6 29 45 is_stmt 0
	mov	w11, w10
	.loc	6 29 27
	umulh	x8, x8, x11
	umull	x9, w9, w10
	str	x9, [sp, #32]
	subs	x8, x8, #0
	cset	w8, ne
	tbz	w8, #0, LBB4_26
	b	LBB4_24
LBB4_24:
Ltmp37:
	adrp	x0, l_alloc_0e203e6d2c8e3f24bc8531bafa2f894b@PAGE
	add	x0, x0, l_alloc_0e203e6d2c8e3f24bc8531bafa2f894b@PAGEOFF
	bl	__ZN4core9panicking11panic_const24panic_const_mul_overflow17h2acf0b56ca158120E
Ltmp38:
	b	LBB4_25
LBB4_25:
	brk	#0x1
LBB4_26:
	.loc	6 0 27
	ldr	x8, [sp, #32]
	.loc	6 29 27
	stur	x8, [x29, #-56]
Ltmp66:
	.loc	6 30 18 is_stmt 1
	lsr	x8, x8, #32
	str	x8, [sp, #16]
	str	w8, [sp, #28]
Ltmp67:
	.loc	6 31 14
	b	LBB4_27
Ltmp68:
LBB4_27:
	.loc	6 0 14 is_stmt 0
	ldr	w1, [sp, #28]
	ldr	w0, [sp, #68]
	ldr	x8, [sp, #16]
	.loc	3 202 26 is_stmt 1
	stur	w8, [x29, #-100]
Ltmp31:
Ltmp69:
	.loc	3 204 39
	bl	__ZN4core3num21_$LT$impl$u20$u32$GT$11checked_add17h8b89684b360ded0dE
	str	w0, [sp, #8]
	str	w1, [sp, #12]
Ltmp32:
	b	LBB4_28
LBB4_28:
	.loc	3 0 39 is_stmt 0
	ldr	w8, [sp, #12]
	ldr	w9, [sp, #8]
	add	x0, sp, #136
	.loc	3 204 39
	str	w9, [sp, #136]
	str	w8, [sp, #140]
Ltmp33:
	bl	__ZN4core6option15Option$LT$T$GT$7is_none17h2c6a71db0f0147d2E
	str	w0, [sp, #4]
Ltmp34:
	b	LBB4_29
LBB4_29:
	.loc	3 0 39
	ldr	w9, [sp, #4]
	.loc	3 204 39
	sturb	w9, [x29, #-93]
Ltmp70:
	.loc	3 205 21 is_stmt 1
	ldr	w8, [sp, #132]
	adds	w8, w8, w9
	str	w8, [sp]
	cset	w8, hs
	tbnz	w8, #0, LBB4_31
	b	LBB4_30
LBB4_30:
	.loc	3 0 21 is_stmt 0
	ldr	w8, [sp]
	.loc	3 205 21
	str	w8, [sp, #132]
Ltmp71:
	.loc	3 200 17 is_stmt 1
	b	LBB4_21
LBB4_31:
Ltmp35:
Ltmp72:
	.loc	3 205 21
	adrp	x0, l_alloc_5fc73023334f87bc750c79ae2dfc5958@PAGE
	add	x0, x0, l_alloc_5fc73023334f87bc750c79ae2dfc5958@PAGEOFF
	bl	__ZN4core9panicking11panic_const24panic_const_add_overflow17h585c583b627172f8E
Ltmp36:
	b	LBB4_32
Ltmp73:
LBB4_32:
	.loc	3 0 21 is_stmt 0
	brk	#0x1
LBB4_33:
	ldr	w8, [sp, #48]
	.loc	3 208 17 is_stmt 1
	str	w8, [sp, #124]
	strb	wzr, [sp, #120]
Ltmp74:
	.loc	3 209 13
	b	LBB4_34
LBB4_34:
	b	LBB4_14
LBB4_35:
	.loc	3 176 13
	ldur	x0, [x29, #-136]
	bl	__Unwind_Resume
Ltmp75:
Lfunc_end4:
	.cfi_endproc
	.section	__TEXT,__gcc_except_tab
	.p2align	2, 0x0
GCC_except_table4:
Lexception1:
	.byte	255
	.byte	255
	.byte	1
	.uleb128 Lcst_end1-Lcst_begin1
Lcst_begin1:
	.uleb128 Ltmp41-Lfunc_begin4
	.uleb128 Ltmp36-Ltmp41
	.uleb128 Ltmp43-Lfunc_begin4
	.byte	0
	.uleb128 Ltmp36-Lfunc_begin4
	.uleb128 Lfunc_end4-Ltmp36
	.byte	0
	.byte	0
Lcst_end1:
	.p2align	2, 0x0

	.section	__TEXT,__text,regular,pure_instructions
	.globl	__ZN105_$LT$rand..distr..uniform..int..UniformInt$LT$u64$GT$$u20$as$u20$rand..distr..uniform..UniformSampler$GT$13sample_single17h5038fe5131663a3aE
	.p2align	2
__ZN105_$LT$rand..distr..uniform..int..UniformInt$LT$u64$GT$$u20$as$u20$rand..distr..uniform..UniformSampler$GT$13sample_single17h5038fe5131663a3aE:
Lfunc_begin5:
	.loc	3 153 0
	.cfi_startproc
	.cfi_personality 155, _rust_eh_personality
	.cfi_lsda 16, Lexception2
	sub	sp, sp, #144
	.cfi_def_cfa_offset 144
	stp	x29, x30, [sp, #128]
	add	x29, sp, #128
	.cfi_def_cfa w29, 16
	.cfi_offset w30, -8
	.cfi_offset w29, -16
	.cfi_remember_state
	str	x8, [sp, #32]
	str	x2, [sp, #40]
	add	x8, sp, #48
	str	x0, [sp, #48]
	str	x1, [sp, #56]
	stur	x2, [x29, #-56]
	stur	x8, [x29, #-8]
Ltmp81:
	.loc	2 406 6 prologue_end
	b	LBB5_3
Ltmp82:
LBB5_1:
	.loc	3 168 13
	b	LBB5_14
LBB5_2:
Ltmp80:
	.loc	3 0 13 is_stmt 0
	stur	x0, [x29, #-48]
	mov	x8, x1
	stur	w8, [x29, #-40]
	b	LBB5_1
LBB5_3:
	.loc	3 162 27 is_stmt 1
	ldr	x8, [sp, #48]
	str	x8, [sp, #24]
	stur	x8, [x29, #-32]
	add	x8, sp, #56
	stur	x8, [x29, #-16]
Ltmp83:
	.loc	2 406 6
	b	LBB5_4
Ltmp84:
LBB5_4:
	.loc	2 0 6 is_stmt 0
	ldr	x8, [sp, #24]
	.loc	3 163 28 is_stmt 1
	ldr	x9, [sp, #56]
	str	x9, [sp, #16]
	stur	x9, [x29, #-24]
Ltmp85:
	.loc	3 164 21
	subs	x8, x8, x9
	b.lo	LBB5_6
	b	LBB5_5
LBB5_5:
	.loc	3 0 21 is_stmt 0
	ldr	x9, [sp, #32]
	.loc	3 165 32 is_stmt 1
	sturb	wzr, [x29, #-57]
	.loc	3 165 28 is_stmt 0
	ldurb	w10, [x29, #-57]
	mov	w8, #1
	and	w10, w10, #0x1
	strb	w10, [x9, #1]
	strb	w8, [x9]
Ltmp86:
	.loc	3 168 13 is_stmt 1
	b	LBB5_7
LBB5_6:
	.loc	3 0 13 is_stmt 0
	ldr	x8, [sp, #16]
Ltmp87:
	.loc	3 167 52 is_stmt 1
	subs	x9, x8, #1
	str	x9, [sp, #8]
	subs	x8, x8, #1
	b.lo	LBB5_10
	b	LBB5_9
Ltmp88:
LBB5_7:
	.loc	3 168 13
	b	LBB5_8
LBB5_8:
	.cfi_def_cfa wsp, 144
	.loc	3 168 14 epilogue_begin is_stmt 0
	ldp	x29, x30, [sp, #128]
	add	sp, sp, #144
	.cfi_def_cfa_offset 0
	.cfi_restore w30
	.cfi_restore w29
	ret
LBB5_9:
	.cfi_restore_state
Ltmp76:
	.loc	3 0 14
	ldr	x2, [sp, #40]
	ldr	x1, [sp, #8]
	ldr	x0, [sp, #24]
	ldr	x8, [sp, #32]
Ltmp89:
	.loc	3 167 17 is_stmt 1
	bl	__ZN105_$LT$rand..distr..uniform..int..UniformInt$LT$u64$GT$$u20$as$u20$rand..distr..uniform..UniformSampler$GT$23sample_single_inclusive17h6296b6f724fd62b9E
Ltmp77:
	b	LBB5_12
LBB5_10:
Ltmp78:
	.loc	3 167 52 is_stmt 0
	adrp	x0, l_alloc_b7bef978aede28df3b19e88fa8cc4254@PAGE
	add	x0, x0, l_alloc_b7bef978aede28df3b19e88fa8cc4254@PAGEOFF
	bl	__ZN4core9panicking11panic_const24panic_const_sub_overflow17h8f97c6b3a4c962daE
Ltmp79:
	b	LBB5_11
Ltmp90:
LBB5_11:
	.loc	3 0 52
	brk	#0x1
LBB5_12:
	.loc	3 168 13 is_stmt 1
	b	LBB5_13
LBB5_13:
	b	LBB5_8
LBB5_14:
	.loc	3 153 13
	ldur	x0, [x29, #-48]
	bl	__Unwind_Resume
Ltmp91:
Lfunc_end5:
	.cfi_endproc
	.section	__TEXT,__gcc_except_tab
	.p2align	2, 0x0
GCC_except_table5:
Lexception2:
	.byte	255
	.byte	255
	.byte	1
	.uleb128 Lcst_end2-Lcst_begin2
Lcst_begin2:
	.uleb128 Ltmp76-Lfunc_begin5
	.uleb128 Ltmp79-Ltmp76
	.uleb128 Ltmp80-Lfunc_begin5
	.byte	0
	.uleb128 Ltmp79-Lfunc_begin5
	.uleb128 Lfunc_end5-Ltmp79
	.byte	0
	.byte	0
Lcst_end2:
	.p2align	2, 0x0

	.section	__TEXT,__text,regular,pure_instructions
	.globl	__ZN105_$LT$rand..distr..uniform..int..UniformInt$LT$u64$GT$$u20$as$u20$rand..distr..uniform..UniformSampler$GT$23sample_single_inclusive17h6296b6f724fd62b9E
	.p2align	2
__ZN105_$LT$rand..distr..uniform..int..UniformInt$LT$u64$GT$$u20$as$u20$rand..distr..uniform..UniformSampler$GT$23sample_single_inclusive17h6296b6f724fd62b9E:
Lfunc_begin6:
	.loc	3 176 0
	.cfi_startproc
	.cfi_personality 155, _rust_eh_personality
	.cfi_lsda 16, Lexception3
	sub	sp, sp, #480
	.cfi_def_cfa_offset 480
	stp	x28, x27, [sp, #448]
	stp	x29, x30, [sp, #464]
	add	x29, sp, #464
	.cfi_def_cfa w29, 16
	.cfi_offset w30, -8
	.cfi_offset w29, -16
	.cfi_offset w27, -24
	.cfi_offset w28, -32
	.cfi_remember_state
	str	x2, [sp, #176]
	str	x8, [sp, #184]
	str	x0, [sp, #192]
	str	x1, [sp, #200]
	stur	x2, [x29, #-224]
	add	x8, sp, #192
	stur	x8, [x29, #-24]
Ltmp126:
	.loc	2 406 6 prologue_end
	b	LBB6_3
Ltmp127:
LBB6_1:
	.loc	3 209 13
	b	LBB6_35
LBB6_2:
Ltmp125:
	.loc	3 0 13 is_stmt 0
	stur	x0, [x29, #-216]
	mov	x8, x1
	stur	w8, [x29, #-208]
	b	LBB6_1
LBB6_3:
	.loc	3 185 27 is_stmt 1
	ldr	x8, [sp, #192]
	mov	x9, x8
	str	x9, [sp, #168]
	stur	x8, [x29, #-200]
	add	x8, sp, #200
	stur	x8, [x29, #-32]
Ltmp128:
	.loc	2 406 6
	b	LBB6_4
Ltmp129:
LBB6_4:
	.loc	2 0 6 is_stmt 0
	ldr	x8, [sp, #168]
	.loc	3 186 28 is_stmt 1
	ldr	x9, [sp, #200]
	mov	x10, x9
	str	x10, [sp, #160]
	stur	x9, [x29, #-192]
Ltmp130:
	.loc	3 187 21
	subs	x8, x8, x9
	b.ls	LBB6_6
	b	LBB6_5
LBB6_5:
	.loc	3 0 21 is_stmt 0
	ldr	x9, [sp, #184]
	mov	w8, #0
	.loc	3 188 32 is_stmt 1
	strb	w8, [sp, #215]
	.loc	3 188 28 is_stmt 0
	ldrb	w8, [sp, #215]
	and	w8, w8, #0x1
	strb	w8, [x9, #1]
	mov	w8, #1
	strb	w8, [x9]
	.loc	4 0 0
	b	LBB6_7
LBB6_6:
	ldr	x8, [sp, #160]
	ldr	x9, [sp, #168]
	stur	x8, [x29, #-112]
	stur	x9, [x29, #-104]
Ltmp131:
	.loc	5 1978 13 is_stmt 1
	subs	x8, x8, x9
	str	x8, [sp, #152]
	.loc	5 1979 10
	b	LBB6_8
Ltmp132:
LBB6_7:
	.loc	3 209 13
	b	LBB6_13
LBB6_8:
	.loc	3 0 13 is_stmt 0
	ldr	x8, [sp, #152]
	stur	x8, [x29, #-136]
	mov	w9, #1
	stur	x9, [x29, #-128]
Ltmp133:
	.loc	5 1937 13 is_stmt 1
	add	x8, x8, #1
	str	x8, [sp, #144]
	.loc	5 1938 10
	b	LBB6_9
Ltmp134:
LBB6_9:
	.loc	5 0 10 is_stmt 0
	ldr	x8, [sp, #144]
	.loc	3 190 29 is_stmt 1
	stur	x8, [x29, #-184]
Ltmp135:
	.loc	3 191 20
	cbnz	x8, LBB6_11
	b	LBB6_10
LBB6_10:
Ltmp123:
	.loc	3 0 20 is_stmt 0
	ldr	x0, [sp, #176]
	.loc	3 193 31 is_stmt 1
	bl	__ZN4rand3rng3Rng6random17h768dbe24d7e7b3baE
Ltmp124:
	str	x0, [sp, #136]
	b	LBB6_12
LBB6_11:
Ltmp109:
	.loc	3 0 31 is_stmt 0
	ldr	x0, [sp, #176]
	.loc	3 197 46 is_stmt 1
	bl	__ZN4rand3rng3Rng6random17h768dbe24d7e7b3baE
Ltmp110:
	str	x0, [sp, #128]
	b	LBB6_15
LBB6_12:
	.loc	3 0 46 is_stmt 0
	ldr	x9, [sp, #184]
	ldr	x8, [sp, #136]
	.loc	3 193 28 is_stmt 1
	str	x8, [x9, #8]
	mov	w8, #0
	strb	w8, [x9]
Ltmp136:
	.loc	4 0 0 is_stmt 0
	b	LBB6_7
Ltmp137:
LBB6_13:
	.loc	3 209 13 is_stmt 1
	b	LBB6_14
LBB6_14:
	.cfi_def_cfa wsp, 480
	.loc	3 209 14 epilogue_begin is_stmt 0
	ldp	x29, x30, [sp, #464]
	ldp	x28, x27, [sp, #448]
	add	sp, sp, #480
	.cfi_def_cfa_offset 0
	.cfi_restore w30
	.cfi_restore w29
	.cfi_restore w27
	.cfi_restore w28
	ret
LBB6_15:
	.cfi_restore_state
	.loc	3 0 14
	ldr	x8, [sp, #128]
	ldr	x10, [sp, #144]
	stur	x8, [x29, #-64]
	stur	x10, [x29, #-56]
Ltmp138:
	.loc	6 29 27 is_stmt 1
	umulh	x9, x8, x10
	mul	x8, x8, x10
	str	x9, [sp, #112]
	str	x8, [sp, #120]
	mov	w8, #1
	cbnz	w8, LBB6_18
	b	LBB6_16
LBB6_16:
Ltmp121:
	adrp	x0, l_alloc_cbcc5b3e1826322f6bac87ad33b55b85@PAGE
	add	x0, x0, l_alloc_cbcc5b3e1826322f6bac87ad33b55b85@PAGEOFF
	bl	__ZN4core9panicking11panic_const24panic_const_mul_overflow17h2acf0b56ca158120E
Ltmp122:
	b	LBB6_17
LBB6_17:
	brk	#0x1
LBB6_18:
	.loc	6 0 27 is_stmt 0
	ldr	x8, [sp, #112]
	ldr	x9, [sp, #120]
	.loc	6 29 27
	stur	x9, [x29, #-48]
	stur	x8, [x29, #-40]
	str	x9, [sp, #96]
	str	x8, [sp, #104]
	.loc	6 31 14 is_stmt 1
	b	LBB6_19
Ltmp139:
LBB6_19:
	.loc	6 0 14 is_stmt 0
	ldr	x9, [sp, #144]
	ldr	x8, [sp, #96]
	ldr	x10, [sp, #104]
	.loc	3 197 46 is_stmt 1
	mov	x11, x8
	str	x11, [sp, #80]
	.loc	3 197 22 is_stmt 0
	str	x10, [sp, #216]
	.loc	3 197 34
	stur	x8, [x29, #-176]
	stur	x9, [x29, #-120]
	mov	x8, #0
Ltmp140:
	.loc	5 1978 13 is_stmt 1
	subs	x8, x8, x9
	str	x8, [sp, #88]
Ltmp141:
	.loc	5 2166 10
	b	LBB6_20
Ltmp142:
LBB6_20:
	.loc	5 0 10 is_stmt 0
	ldr	x8, [sp, #80]
	ldr	x9, [sp, #88]
	.loc	3 200 20 is_stmt 1
	subs	x8, x8, x9
	b.hi	LBB6_22
	b	LBB6_21
LBB6_21:
	.loc	3 0 20 is_stmt 0
	ldr	x8, [sp, #168]
	.loc	3 208 37 is_stmt 1
	ldr	x9, [sp, #216]
	stur	x8, [x29, #-152]
	stur	x9, [x29, #-144]
Ltmp143:
	.loc	5 1937 13
	add	x8, x8, x9
	str	x8, [sp, #72]
	.loc	5 1938 10
	b	LBB6_33
Ltmp144:
LBB6_22:
Ltmp111:
	.loc	5 0 10 is_stmt 0
	ldr	x0, [sp, #176]
	.loc	3 202 45 is_stmt 1
	bl	__ZN4rand3rng3Rng6random17h768dbe24d7e7b3baE
Ltmp112:
	str	x0, [sp, #64]
	b	LBB6_23
LBB6_23:
	.loc	3 0 45 is_stmt 0
	ldr	x8, [sp, #64]
	ldr	x10, [sp, #144]
	stur	x8, [x29, #-96]
	stur	x10, [x29, #-88]
Ltmp145:
	.loc	6 29 27 is_stmt 1
	umulh	x9, x8, x10
	mul	x8, x8, x10
	str	x9, [sp, #48]
	str	x8, [sp, #56]
	mov	w8, #1
	cbnz	w8, LBB6_26
	b	LBB6_24
LBB6_24:
Ltmp119:
	adrp	x0, l_alloc_cbcc5b3e1826322f6bac87ad33b55b85@PAGE
	add	x0, x0, l_alloc_cbcc5b3e1826322f6bac87ad33b55b85@PAGEOFF
	bl	__ZN4core9panicking11panic_const24panic_const_mul_overflow17h2acf0b56ca158120E
Ltmp120:
	b	LBB6_25
LBB6_25:
	brk	#0x1
LBB6_26:
	.loc	6 0 27 is_stmt 0
	ldr	x8, [sp, #48]
	ldr	x0, [sp, #56]
	.loc	6 29 27
	stur	x0, [x29, #-80]
	stur	x8, [x29, #-72]
	str	x8, [sp, #40]
	.loc	6 31 14 is_stmt 1
	b	LBB6_27
Ltmp146:
LBB6_27:
	.loc	6 0 14 is_stmt 0
	ldr	x1, [sp, #40]
	ldr	x0, [sp, #80]
	.loc	3 202 26 is_stmt 1
	stur	x1, [x29, #-168]
Ltmp113:
Ltmp147:
	.loc	3 204 39
	bl	__ZN4core3num21_$LT$impl$u20$u64$GT$11checked_add17hb86b7a41b580d8e2E
Ltmp114:
	str	x1, [sp, #24]
	str	x0, [sp, #32]
	b	LBB6_28
LBB6_28:
	.loc	3 0 39 is_stmt 0
	ldr	x8, [sp, #24]
	ldr	x9, [sp, #32]
	.loc	3 204 39
	str	x9, [sp, #224]
	str	x8, [sp, #232]
Ltmp115:
	add	x0, sp, #224
	bl	__ZN4core6option15Option$LT$T$GT$7is_none17h52b5235e5684048eE
Ltmp116:
	str	w0, [sp, #20]
	b	LBB6_29
LBB6_29:
	.loc	3 0 39
	ldr	w9, [sp, #20]
	.loc	3 204 39
	and	w8, w9, #0x1
	sturb	w8, [x29, #-153]
Ltmp148:
	.loc	3 205 31 is_stmt 1
	mov	x8, x9
	and	x9, x8, #0x1
	.loc	3 205 21 is_stmt 0
	ldr	x8, [sp, #216]
	adds	x9, x8, x9
	cset	w8, hs
	str	x9, [sp, #8]
	tbnz	w8, #0, LBB6_31
	b	LBB6_30
LBB6_30:
	.loc	3 0 21
	ldr	x8, [sp, #8]
	.loc	3 205 21
	str	x8, [sp, #216]
Ltmp149:
	.loc	3 200 17 is_stmt 1
	b	LBB6_21
LBB6_31:
Ltmp117:
Ltmp150:
	.loc	3 205 21
	adrp	x0, l_alloc_b7bef978aede28df3b19e88fa8cc4254@PAGE
	add	x0, x0, l_alloc_b7bef978aede28df3b19e88fa8cc4254@PAGEOFF
	bl	__ZN4core9panicking11panic_const24panic_const_add_overflow17h585c583b627172f8E
Ltmp118:
	b	LBB6_32
Ltmp151:
LBB6_32:
	.loc	3 0 21 is_stmt 0
	brk	#0x1
LBB6_33:
	ldr	x9, [sp, #184]
	ldr	x8, [sp, #72]
	.loc	3 208 17 is_stmt 1
	str	x8, [x9, #8]
	mov	w8, #0
	strb	w8, [x9]
Ltmp152:
	.loc	3 209 13
	b	LBB6_34
LBB6_34:
	b	LBB6_14
LBB6_35:
	.loc	3 176 13
	ldur	x0, [x29, #-216]
	bl	__Unwind_Resume
Ltmp153:
Lfunc_end6:
	.cfi_endproc
	.section	__TEXT,__gcc_except_tab
	.p2align	2, 0x0
GCC_except_table6:
Lexception3:
	.byte	255
	.byte	255
	.byte	1
	.uleb128 Lcst_end3-Lcst_begin3
Lcst_begin3:
	.uleb128 Ltmp123-Lfunc_begin6
	.uleb128 Ltmp118-Ltmp123
	.uleb128 Ltmp125-Lfunc_begin6
	.byte	0
	.uleb128 Ltmp118-Lfunc_begin6
	.uleb128 Lfunc_end6-Ltmp118
	.byte	0
	.byte	0
Lcst_end3:
	.p2align	2, 0x0

	.section	__TEXT,__text,regular,pure_instructions
	.globl	__ZN110_$LT$core..iter..adapters..enumerate..Enumerate$LT$I$GT$$u20$as$u20$core..iter..traits..iterator..Iterator$GT$4next17hdbfacb10d82c8040E
	.p2align	2
__ZN110_$LT$core..iter..adapters..enumerate..Enumerate$LT$I$GT$$u20$as$u20$core..iter..traits..iterator..Iterator$GT$4next17hdbfacb10d82c8040E:
Lfunc_begin7:
	.file	7 "/rustc/4eb161250e340c8f48f66e2b929ef4a5bed7c181/library/core/src/iter/adapters" "enumerate.rs"
	.loc	7 46 0
	.cfi_startproc
	.cfi_personality 155, _rust_eh_personality
	.cfi_lsda 16, Lexception4
	sub	sp, sp, #144
	.cfi_def_cfa_offset 144
	stp	x29, x30, [sp, #128]
	add	x29, sp, #128
	.cfi_def_cfa w29, 16
	.cfi_offset w30, -8
	.cfi_offset w29, -16
	.cfi_remember_state
	str	x0, [sp, #24]
	mov	x8, x0
	str	x8, [sp, #64]
Ltmp157:
	.loc	7 47 17 prologue_end
	bl	__ZN91_$LT$core..slice..iter..Iter$LT$T$GT$$u20$as$u20$core..iter..traits..iterator..Iterator$GT$4next17h4ad88689fb0b108aE
	str	x0, [sp, #56]
Ltmp158:
	.file	8 "/rustc/4eb161250e340c8f48f66e2b929ef4a5bed7c181/library/core/src" "option.rs"
	.loc	8 2487 15
	ldr	x8, [sp, #56]
	subs	x8, x8, #0
	cset	x8, ne
	.loc	8 2487 9 is_stmt 0
	cbnz	x8, LBB7_2
	b	LBB7_1
Ltmp159:
LBB7_1:
	.loc	8 2501 21 is_stmt 1
	str	xzr, [sp, #40]
Ltmp160:
	.loc	7 51 6
	b	LBB7_3
LBB7_2:
	.loc	7 0 6 is_stmt 0
	ldr	x8, [sp, #24]
Ltmp161:
	.loc	8 2488 18 is_stmt 1
	ldr	x9, [sp, #56]
	stur	x9, [x29, #-48]
Ltmp162:
	.loc	8 2488 24 is_stmt 0
	str	x9, [sp, #48]
Ltmp163:
	.loc	7 47 17 is_stmt 1
	ldr	x9, [sp, #48]
	str	x9, [sp]
	stur	x9, [x29, #-40]
Ltmp164:
	.loc	7 47 17 is_stmt 0
	stur	x9, [x29, #-32]
Ltmp165:
	.loc	7 48 17 is_stmt 1
	ldr	x9, [x8, #16]
	str	x9, [sp, #8]
	stur	x9, [x29, #-24]
Ltmp166:
	.loc	7 49 9
	ldr	x8, [x8, #16]
	adds	x8, x8, #1
	str	x8, [sp, #16]
	cset	w8, hs
	tbnz	w8, #0, LBB7_5
	b	LBB7_4
Ltmp167:
LBB7_3:
	.loc	7 51 6
	ldr	x0, [sp, #32]
	ldr	x1, [sp, #40]
	.cfi_def_cfa wsp, 144
	.loc	7 51 6 epilogue_begin is_stmt 0
	ldp	x29, x30, [sp, #128]
	add	sp, sp, #144
	.cfi_def_cfa_offset 0
	.cfi_restore w30
	.cfi_restore w29
	ret
LBB7_4:
	.cfi_restore_state
	.loc	7 0 6
	ldr	x8, [sp]
	ldr	x9, [sp, #8]
	ldr	x10, [sp, #16]
	ldr	x11, [sp, #24]
Ltmp168:
	.loc	7 49 9 is_stmt 1
	str	x10, [x11, #16]
	.loc	7 50 9
	str	x9, [sp, #32]
	str	x8, [sp, #40]
Ltmp169:
	.loc	7 51 6
	b	LBB7_3
LBB7_5:
Ltmp154:
Ltmp170:
	.loc	7 49 9
	adrp	x0, l_alloc_3407c9cb6ff21ee44260c564f9754364@PAGE
	add	x0, x0, l_alloc_3407c9cb6ff21ee44260c564f9754364@PAGEOFF
	bl	__ZN4core9panicking11panic_const24panic_const_add_overflow17h585c583b627172f8E
Ltmp155:
	b	LBB7_8
Ltmp171:
LBB7_6:
	.loc	7 46 5
	ldur	x0, [x29, #-16]
	bl	__Unwind_Resume
Ltmp172:
LBB7_7:
Ltmp156:
	.loc	7 0 5 is_stmt 0
	stur	x0, [x29, #-16]
	mov	x8, x1
	stur	w8, [x29, #-8]
	b	LBB7_6
LBB7_8:
	brk	#0x1
Lfunc_end7:
	.cfi_endproc
	.section	__TEXT,__gcc_except_tab
	.p2align	2, 0x0
GCC_except_table7:
Lexception4:
	.byte	255
	.byte	255
	.byte	1
	.uleb128 Lcst_end4-Lcst_begin4
Lcst_begin4:
	.uleb128 Lfunc_begin7-Lfunc_begin7
	.uleb128 Ltmp154-Lfunc_begin7
	.byte	0
	.byte	0
	.uleb128 Ltmp154-Lfunc_begin7
	.uleb128 Ltmp155-Ltmp154
	.uleb128 Ltmp156-Lfunc_begin7
	.byte	0
	.uleb128 Ltmp155-Lfunc_begin7
	.uleb128 Lfunc_end7-Ltmp155
	.byte	0
	.byte	0
Lcst_end4:
	.p2align	2, 0x0

	.section	__TEXT,__text,regular,pure_instructions
	.globl	__ZN111_$LT$alloc..vec..Vec$LT$T$GT$$u20$as$u20$alloc..vec..spec_from_iter_nested..SpecFromIterNested$LT$T$C$I$GT$$GT$9from_iter17h583038eaf1f0bf48E
	.p2align	2
__ZN111_$LT$alloc..vec..Vec$LT$T$GT$$u20$as$u20$alloc..vec..spec_from_iter_nested..SpecFromIterNested$LT$T$C$I$GT$$GT$9from_iter17h583038eaf1f0bf48E:
Lfunc_begin8:
	.file	9 "/rustc/4eb161250e340c8f48f66e2b929ef4a5bed7c181/library/alloc/src/vec" "spec_from_iter_nested.rs"
	.loc	9 52 0 is_stmt 1
	.cfi_startproc
	.cfi_personality 155, _rust_eh_personality
	.cfi_lsda 16, Lexception5
	sub	sp, sp, #208
	.cfi_def_cfa_offset 208
	stp	x29, x30, [sp, #192]
	add	x29, sp, #192
	.cfi_def_cfa w29, 16
	.cfi_offset w30, -8
	.cfi_offset w29, -16
	.cfi_remember_state
	str	x8, [sp, #24]
	mov	x8, x0
	str	x2, [sp, #32]
	add	x0, sp, #40
	str	w8, [sp, #40]
	str	w1, [sp, #44]
Ltmp186:
	.file	10 "/rustc/4eb161250e340c8f48f66e2b929ef4a5bed7c181/library/core/src/fmt" "mod.rs"
	.loc	10 591 44 prologue_end
	adrp	x8, l_alloc_11d257f5ed6cc7fc38feaa801053bac6@PAGE
	add	x8, x8, l_alloc_11d257f5ed6cc7fc38feaa801053bac6@PAGEOFF
	stur	x8, [x29, #-40]
Ltmp187:
	.loc	9 53 13
	mov	w8, #1
	sturb	w8, [x29, #-41]
Ltmp173:
	.loc	9 53 32 is_stmt 0
	add	x8, sp, #72
	bl	__ZN4core4iter5range101_$LT$impl$u20$core..iter..traits..iterator..Iterator$u20$for$u20$core..ops..range..Range$LT$A$GT$$GT$9size_hint17hbf7455fe253fca91E
Ltmp174:
	b	LBB8_3
LBB8_1:
	.loc	9 64 5 is_stmt 1
	ldurb	w8, [x29, #-41]
	tbnz	w8, #0, LBB8_13
	b	LBB8_12
LBB8_2:
Ltmp179:
	.loc	9 0 5 is_stmt 0
	stur	x0, [x29, #-24]
	mov	x8, x1
	stur	w8, [x29, #-16]
	b	LBB8_1
LBB8_3:
	.loc	9 53 32 is_stmt 1
	ldr	x8, [sp, #80]
	.loc	9 53 26 is_stmt 0
	subs	x8, x8, #1
	b.ne	LBB8_5
	b	LBB8_4
LBB8_4:
	.loc	9 0 26
	ldr	x3, [sp, #32]
	.loc	9 54 22 is_stmt 1
	ldr	x0, [sp, #88]
	stur	x0, [x29, #-8]
Ltmp177:
	mov	w8, #4
	mov	x2, x8
Ltmp188:
	.file	11 "/rustc/4eb161250e340c8f48f66e2b929ef4a5bed7c181/library/alloc/src" "raw_vec.rs"
	.loc	11 192 20
	mov	x1, x2
	bl	__ZN5alloc7raw_vec20RawVecInner$LT$A$GT$16with_capacity_in17ha2e49e9ad8404297E
	str	x0, [sp, #8]
	str	x1, [sp, #16]
Ltmp178:
	b	LBB8_6
Ltmp189:
LBB8_5:
	.loc	11 0 20 is_stmt 0
	ldr	x1, [sp, #32]
	add	x0, sp, #96
Ltmp190:
	.loc	10 593 9 is_stmt 1
	adrp	x8, l_alloc_11d257f5ed6cc7fc38feaa801053bac6@PAGE
	add	x8, x8, l_alloc_11d257f5ed6cc7fc38feaa801053bac6@PAGEOFF
	str	x8, [sp, #96]
	mov	w8, #1
	str	x8, [sp, #104]
	adrp	x8, l___unnamed_1@PAGE
	adrp	x9, l___unnamed_1@PAGE
	add	x9, x9, l___unnamed_1@PAGEOFF
	ldr	x10, [x8, l___unnamed_1@PAGEOFF]
	mov	w8, #8
	ldr	x9, [x9, #8]
	str	x10, [sp, #128]
	str	x9, [sp, #136]
	str	x8, [sp, #112]
	str	xzr, [sp, #120]
Ltmp191:
Ltmp175:
	.loc	9 59 18
	bl	__ZN4core9panicking9panic_fmt17ha0b5c5252c2f1706E
Ltmp176:
	b	LBB8_11
LBB8_6:
	.loc	9 0 18 is_stmt 0
	ldr	x3, [sp, #32]
	ldr	x8, [sp, #16]
	ldr	x9, [sp, #8]
	add	x0, sp, #48
Ltmp192:
	.file	12 "/rustc/4eb161250e340c8f48f66e2b929ef4a5bed7c181/library/alloc/src/vec" "mod.rs"
	.loc	12 803 9 is_stmt 1
	str	x9, [sp, #48]
	str	x8, [sp, #56]
	str	xzr, [sp, #64]
Ltmp193:
	.loc	9 62 28
	sturb	wzr, [x29, #-41]
	ldr	w1, [sp, #40]
	ldr	w2, [sp, #44]
Ltmp180:
	.loc	9 62 9 is_stmt 0
	bl	__ZN97_$LT$alloc..vec..Vec$LT$T$C$A$GT$$u20$as$u20$alloc..vec..spec_extend..SpecExtend$LT$T$C$I$GT$$GT$11spec_extend17h2b129ed05e17747eE
Ltmp181:
	b	LBB8_9
Ltmp194:
LBB8_7:
Ltmp183:
	.loc	9 64 5 is_stmt 1
	add	x0, sp, #48
	bl	__ZN4core3ptr47drop_in_place$LT$alloc..vec..Vec$LT$i32$GT$$GT$17hff8d523a476e2ee3E
Ltmp184:
	b	LBB8_1
LBB8_8:
Ltmp182:
	.loc	9 0 5 is_stmt 0
	stur	x0, [x29, #-24]
	mov	x8, x1
	stur	w8, [x29, #-16]
	b	LBB8_7
LBB8_9:
	ldr	x9, [sp, #24]
Ltmp195:
	.loc	9 63 9 is_stmt 1
	ldr	q0, [sp, #48]
	str	q0, [x9]
	ldr	x8, [sp, #64]
	str	x8, [x9, #16]
Ltmp196:
	.cfi_def_cfa wsp, 208
	.loc	9 64 6 epilogue_begin
	ldp	x29, x30, [sp, #192]
	add	sp, sp, #208
	.cfi_def_cfa_offset 0
	.cfi_restore w30
	.cfi_restore w29
	ret
LBB8_10:
	.cfi_restore_state
Ltmp185:
	.loc	9 52 5
	bl	__ZN4core9panicking16panic_in_cleanup17h7339610fb5fc966cE
LBB8_11:
	.loc	9 0 5 is_stmt 0
	brk	#0x1
LBB8_12:
	.loc	9 52 5
	ldur	x0, [x29, #-24]
	bl	__Unwind_Resume
LBB8_13:
	.loc	9 64 5 is_stmt 1
	b	LBB8_12
Ltmp197:
Lfunc_end8:
	.cfi_endproc
	.section	__TEXT,__gcc_except_tab
	.p2align	2, 0x0
GCC_except_table8:
Lexception5:
	.byte	255
	.byte	155
	.uleb128 Lttbase0-Lttbaseref0
Lttbaseref0:
	.byte	1
	.uleb128 Lcst_end5-Lcst_begin5
Lcst_begin5:
	.uleb128 Ltmp173-Lfunc_begin8
	.uleb128 Ltmp176-Ltmp173
	.uleb128 Ltmp179-Lfunc_begin8
	.byte	0
	.uleb128 Ltmp180-Lfunc_begin8
	.uleb128 Ltmp181-Ltmp180
	.uleb128 Ltmp182-Lfunc_begin8
	.byte	0
	.uleb128 Ltmp183-Lfunc_begin8
	.uleb128 Ltmp184-Ltmp183
	.uleb128 Ltmp185-Lfunc_begin8
	.byte	1
	.uleb128 Ltmp184-Lfunc_begin8
	.uleb128 Lfunc_end8-Ltmp184
	.byte	0
	.byte	0
Lcst_end5:
	.byte	127
	.byte	0
	.p2align	2, 0x0
Lttbase0:
	.byte	0
	.p2align	2, 0x0

	.section	__TEXT,__text,regular,pure_instructions
	.globl	__ZN115_$LT$core..ops..range..RangeInclusive$LT$usize$GT$$u20$as$u20$core..slice..index..SliceIndex$LT$$u5b$T$u5d$$GT$$GT$5index17h3fd8cbf615145278E
	.p2align	2
__ZN115_$LT$core..ops..range..RangeInclusive$LT$usize$GT$$u20$as$u20$core..slice..index..SliceIndex$LT$$u5b$T$u5d$$GT$$GT$5index17h3fd8cbf615145278E:
Lfunc_begin9:
	.file	13 "/rustc/4eb161250e340c8f48f66e2b929ef4a5bed7c181/library/core/src/slice" "index.rs"
	.loc	13 680 0
	.cfi_startproc
	sub	sp, sp, #224
	.cfi_def_cfa_offset 224
	stp	x29, x30, [sp, #208]
	add	x29, sp, #208
	.cfi_def_cfa w29, 16
	.cfi_offset w30, -8
	.cfi_offset w29, -16
	str	x0, [sp, #32]
Ltmp198:
	str	x1, [sp, #40]
	str	x2, [sp, #48]
	str	x3, [sp, #56]
Ltmp199:
	str	x1, [sp, #80]
	str	x2, [sp, #88]
Ltmp200:
	.loc	13 681 13 prologue_end
	mov	x8, x0
	str	x8, [sp, #96]
	.loc	13 681 12 is_stmt 0
	ldr	x8, [x0, #8]
	str	x8, [sp, #64]
	str	x8, [sp, #104]
	adds	x8, x8, #1
Ltmp201:
	b.eq	LBB9_2
	b	LBB9_1
Ltmp202:
LBB9_1:
	.loc	13 0 12
	ldr	x9, [sp, #64]
	ldr	x8, [sp, #32]
	.loc	13 684 9 is_stmt 1
	ldr	x10, [x8]
	str	x10, [sp, #16]
	stur	x10, [x29, #-96]
	ldrb	w8, [x8, #16]
	mov	w10, #1
	and	w10, w8, w10
	sturb	w10, [x29, #-81]
Ltmp203:
	.file	14 "/rustc/4eb161250e340c8f48f66e2b929ef4a5bed7c181/library/core/src/ops" "range.rs"
	.loc	14 458 29
	add	x9, x9, #1
	str	x9, [sp, #24]
	stur	x9, [x29, #-80]
Ltmp204:
	.loc	14 459 24
	tbnz	w8, #0, LBB9_4
	b	LBB9_3
Ltmp205:
LBB9_2:
	.loc	14 0 24 is_stmt 0
	ldr	x0, [sp, #56]
	.loc	13 682 13 is_stmt 1
	bl	__ZN4core5slice5index29slice_end_index_overflow_fail17hb914b077ac1f2057E
Ltmp206:
LBB9_3:
	.loc	13 0 13 is_stmt 0
	ldr	x8, [sp, #16]
Ltmp207:
	.loc	14 459 64 is_stmt 1
	str	x8, [sp, #72]
	.loc	14 459 21 is_stmt 0
	b	LBB9_5
Ltmp208:
LBB9_4:
	.loc	14 0 21
	ldr	x8, [sp, #24]
	.loc	14 459 41
	str	x8, [sp, #72]
	.loc	14 459 21
	b	LBB9_5
Ltmp209:
LBB9_5:
	.loc	14 0 21
	ldr	x8, [sp, #24]
	ldr	x10, [sp, #48]
	ldr	x11, [sp, #40]
Ltmp210:
	.loc	14 460 9 is_stmt 1
	ldr	x9, [sp, #72]
	str	x9, [sp, #8]
	stur	x9, [x29, #-56]
	stur	x8, [x29, #-48]
	stur	x11, [x29, #-40]
	stur	x10, [x29, #-32]
Ltmp211:
	.loc	13 433 48
	stur	x8, [x29, #-24]
	.loc	13 433 58 is_stmt 0
	stur	x9, [x29, #-16]
Ltmp212:
	.loc	5 659 16 is_stmt 1
	subs	x8, x8, x9
	b.lo	LBB9_7
	b	LBB9_6
Ltmp213:
LBB9_6:
	.loc	5 0 16 is_stmt 0
	ldr	x8, [sp, #24]
	ldr	x9, [sp, #48]
	ldr	x10, [sp, #8]
	.loc	5 663 31 is_stmt 1
	subs	x10, x8, x10
	.loc	5 663 17 is_stmt 0
	stur	x10, [x29, #-64]
	mov	w10, #1
	stur	x10, [x29, #-72]
Ltmp214:
	.loc	13 433 18 is_stmt 1
	ldur	x10, [x29, #-64]
	str	x10, [sp]
	stur	x10, [x29, #-8]
Ltmp215:
	.loc	13 436 12
	subs	x8, x8, x9
	b.hi	LBB9_8
	b	LBB9_9
Ltmp216:
LBB9_7:
	.loc	13 0 12 is_stmt 0
	ldr	x2, [sp, #56]
	ldr	x1, [sp, #24]
	ldr	x0, [sp, #8]
	.loc	13 434 13 is_stmt 1
	bl	__ZN4core5slice5index22slice_index_order_fail17h3310f1abc637cf13E
Ltmp217:
LBB9_8:
	.loc	13 0 13 is_stmt 0
	ldr	x2, [sp, #56]
	ldr	x1, [sp, #48]
	ldr	x0, [sp, #24]
Ltmp218:
	.loc	13 437 13 is_stmt 1
	bl	__ZN4core5slice5index24slice_end_index_len_fail17h0189a5e61950f867E
Ltmp219:
LBB9_9:
	.loc	13 0 13 is_stmt 0
	ldr	x1, [sp]
	ldr	x8, [sp, #40]
	ldr	x9, [sp, #8]
Ltmp220:
	.loc	13 90 14 is_stmt 1
	add	x0, x8, x9, lsl #2
Ltmp221:
	.cfi_def_cfa wsp, 224
	.loc	13 685 6 epilogue_begin
	ldp	x29, x30, [sp, #208]
	add	sp, sp, #224
Ltmp222:
	.cfi_def_cfa_offset 0
	.cfi_restore w30
	.cfi_restore w29
	ret
Ltmp223:
Lfunc_end9:
	.cfi_endproc

	.p2align	2
__ZN47_$LT$i32$u20$as$u20$core..iter..range..Step$GT$13steps_between17hbf485c9283fc8c63E:
Lfunc_begin10:
	.file	15 "/rustc/4eb161250e340c8f48f66e2b929ef4a5bed7c181/library/core/src/iter" "range.rs"
	.loc	15 296 0
	.cfi_startproc
	sub	sp, sp, #80
	.cfi_def_cfa_offset 80
	str	x8, [sp]
	str	x0, [sp, #8]
	str	x1, [sp, #16]
	mov	x8, x0
	str	x8, [sp, #40]
	mov	x8, x1
	str	x8, [sp, #48]
Ltmp225:
	.loc	15 297 24 prologue_end
	ldr	w8, [x0]
	.loc	15 297 34 is_stmt 0
	ldr	w9, [x1]
	.loc	15 297 24
	subs	w8, w8, w9
	b.le	LBB10_2
	b	LBB10_1
LBB10_1:
	.loc	15 0 24
	ldr	x9, [sp]
	.loc	15 306 25 is_stmt 1
	str	xzr, [x9]
	adrp	x10, l___unnamed_1@PAGE
	adrp	x8, l___unnamed_1@PAGE
	add	x8, x8, l___unnamed_1@PAGEOFF
	ldr	x10, [x10, l___unnamed_1@PAGEOFF]
	ldr	x8, [x8, #8]
	str	x10, [x9, #8]
	str	x8, [x9, #16]
	.loc	15 297 21
	b	LBB10_3
LBB10_2:
	.loc	15 0 21 is_stmt 0
	ldr	x9, [sp]
	ldr	x10, [sp, #8]
	ldr	x8, [sp, #16]
	.loc	15 303 38 is_stmt 1
	ldrsw	x8, [x8]
	.loc	15 303 37 is_stmt 0
	str	x8, [sp, #56]
	.loc	15 303 66
	ldrsw	x10, [x10]
	str	x10, [sp, #64]
Ltmp226:
	.file	16 "/rustc/4eb161250e340c8f48f66e2b929ef4a5bed7c181/library/core/src/num" "int_macros.rs"
	.loc	16 1932 13 is_stmt 1
	subs	x8, x8, x10
Ltmp227:
	.loc	15 303 37
	str	x8, [sp, #72]
Ltmp228:
	.loc	15 304 33
	str	x8, [sp, #32]
	mov	w10, #1
	str	x10, [sp, #24]
	.loc	15 304 25 is_stmt 0
	str	x8, [x9]
	ldr	x10, [sp, #24]
	ldr	x8, [sp, #32]
	str	x10, [x9, #8]
	str	x8, [x9, #16]
Ltmp229:
	.loc	15 297 21 is_stmt 1
	b	LBB10_3
LBB10_3:
	.loc	15 308 18 epilogue_begin
	add	sp, sp, #80
	.cfi_def_cfa_offset 0
	ret
Ltmp230:
Lfunc_end10:
	.cfi_endproc

	.p2align	2
__ZN47_$LT$i32$u20$as$u20$core..iter..range..Step$GT$17forward_unchecked17h9521ce2407e79047E:
Lfunc_begin11:
	.loc	15 187 0
	.cfi_startproc
	sub	sp, sp, #64
	.cfi_def_cfa_offset 64
	stp	x29, x30, [sp, #48]
	add	x29, sp, #48
	.cfi_def_cfa w29, 16
	.cfi_offset w30, -8
	.cfi_offset w29, -16
	.cfi_remember_state
	str	w0, [sp, #20]
	str	x1, [sp, #24]
Ltmp231:
	.loc	15 189 49 prologue_end
	mov	x9, x1
	mov	x8, x1
	stur	w8, [x29, #-16]
Ltmp232:
	.loc	16 2298 26
	adds	w10, w0, w9
	str	w10, [sp, #8]
	cset	w8, vs
	.loc	16 2298 18 is_stmt 0
	stur	w10, [x29, #-12]
Ltmp233:
	.loc	16 2382 32 is_stmt 1
	subs	w9, w9, #0
	cset	w9, lt
	.loc	16 2382 19 is_stmt 0
	eor	w8, w8, w9
	and	w9, w8, #0x1
	sturb	w9, [x29, #-5]
Ltmp234:
	.file	17 "/rustc/4eb161250e340c8f48f66e2b929ef4a5bed7c181/library/core/src/intrinsics" "mod.rs"
	.loc	17 1529 8 is_stmt 1
	tbnz	w8, #0, LBB11_2
	b	LBB11_1
Ltmp235:
LBB11_1:
	.loc	17 0 8 is_stmt 0
	ldr	w8, [sp, #8]
	.loc	16 547 56 is_stmt 1
	str	w8, [sp, #16]
	mov	w8, #1
	str	w8, [sp, #12]
Ltmp236:
	.loc	8 1085 18
	ldr	w0, [sp, #16]
	stur	w0, [x29, #-4]
Ltmp237:
	.cfi_def_cfa wsp, 64
	.loc	15 190 10 epilogue_begin
	ldp	x29, x30, [sp, #48]
	add	sp, sp, #64
	.cfi_def_cfa_offset 0
	.cfi_restore w30
	.cfi_restore w29
	ret
LBB11_2:
	.cfi_restore_state
	.loc	15 0 10 is_stmt 0
	adrp	x9, l___unnamed_2@PAGE
	adrp	x8, l___unnamed_2@PAGE
	add	x8, x8, l___unnamed_2@PAGEOFF
Ltmp238:
	.loc	16 547 42 is_stmt 1
	ldr	w9, [x9, l___unnamed_2@PAGEOFF]
	ldr	w8, [x8, #4]
	str	w9, [sp, #12]
	str	w8, [sp, #16]
Ltmp239:
	.file	18 "/rustc/4eb161250e340c8f48f66e2b929ef4a5bed7c181/library/core/src" "ub_checks.rs"
	.loc	18 75 17
	bl	__ZN4core4hint21unreachable_unchecked18precondition_check17h3684e739dc015c14E
Ltmp240:
	.loc	4 0 0 is_stmt 0
	brk	#0x1
Ltmp241:
Lfunc_end11:
	.cfi_endproc
	.file	19 "/rustc/4eb161250e340c8f48f66e2b929ef4a5bed7c181/library/core/src" "hint.rs"

	.p2align	2
__ZN4core10intrinsics9cold_path17hd6b3252077833e99E:
Lfunc_begin12:
	.cfi_startproc
	.loc	17 1489 28 prologue_end is_stmt 1
	ret
Ltmp242:
Lfunc_end12:
	.cfi_endproc

	.globl	__ZN4core3mem11size_of_val17hb178677f302822a8E
	.p2align	2
__ZN4core3mem11size_of_val17hb178677f302822a8E:
Lfunc_begin13:
	.file	20 "/rustc/4eb161250e340c8f48f66e2b929ef4a5bed7c181/library/core/src/mem" "mod.rs"
	.loc	20 338 0
	.cfi_startproc
	sub	sp, sp, #32
	.cfi_def_cfa_offset 32
	str	x0, [sp, #8]
	str	x1, [sp, #16]
Ltmp244:
	.loc	20 340 14 prologue_end
	lsl	x8, x1, #2
	str	x8, [sp, #24]
	ldr	x0, [sp, #24]
	.loc	20 341 2 epilogue_begin
	add	sp, sp, #32
	.cfi_def_cfa_offset 0
	ret
Ltmp245:
Lfunc_end13:
	.cfi_endproc

	.p2align	2
__ZN4core3num21_$LT$impl$u20$u32$GT$11checked_add17h8b89684b360ded0dE:
Lfunc_begin14:
	.loc	5 486 0
	.cfi_startproc
	sub	sp, sp, #32
	.cfi_def_cfa_offset 32
	str	w0, [sp, #4]
	str	w1, [sp, #8]
	str	w0, [sp, #20]
	str	w1, [sp, #24]
Ltmp247:
	.loc	5 494 37 prologue_end
	adds	w8, w0, w1
	cset	w8, hs
	strb	w8, [sp, #31]
Ltmp248:
	.loc	17 1529 8
	tbnz	w8, #0, LBB14_2
	b	LBB14_1
Ltmp249:
LBB14_1:
	.loc	17 0 8 is_stmt 0
	ldr	w8, [sp, #4]
	ldr	w9, [sp, #8]
	.loc	5 498 31 is_stmt 1
	add	w8, w8, w9
	.loc	5 498 17 is_stmt 0
	str	w8, [sp, #16]
	mov	w8, #1
	str	w8, [sp, #12]
	.loc	5 494 13 is_stmt 1
	b	LBB14_3
LBB14_2:
	.loc	5 0 13 is_stmt 0
	adrp	x9, l___unnamed_2@PAGE
	adrp	x8, l___unnamed_2@PAGE
	add	x8, x8, l___unnamed_2@PAGEOFF
	.loc	5 495 17 is_stmt 1
	ldr	w9, [x9, l___unnamed_2@PAGEOFF]
	ldr	w8, [x8, #4]
	str	w9, [sp, #12]
	str	w8, [sp, #16]
	.loc	5 494 13
	b	LBB14_3
LBB14_3:
	.loc	5 500 10
	ldr	w0, [sp, #12]
	ldr	w1, [sp, #16]
	.loc	5 500 10 epilogue_begin is_stmt 0
	add	sp, sp, #32
	.cfi_def_cfa_offset 0
	ret
Ltmp250:
Lfunc_end14:
	.cfi_endproc

	.p2align	2
__ZN4core3num21_$LT$impl$u20$u64$GT$11checked_add17hb86b7a41b580d8e2E:
Lfunc_begin15:
	.loc	5 486 0 is_stmt 1
	.cfi_startproc
	sub	sp, sp, #64
	.cfi_def_cfa_offset 64
	str	x0, [sp, #8]
	str	x1, [sp, #16]
	str	x0, [sp, #40]
	str	x1, [sp, #48]
Ltmp252:
	.loc	5 494 37 prologue_end
	adds	x8, x0, x1
	cset	w8, hs
	strb	w8, [sp, #63]
Ltmp253:
	.loc	17 1529 8
	tbnz	w8, #0, LBB15_2
	b	LBB15_1
Ltmp254:
LBB15_1:
	.loc	17 0 8 is_stmt 0
	ldr	x8, [sp, #8]
	ldr	x9, [sp, #16]
	.loc	5 498 31 is_stmt 1
	add	x8, x8, x9
	.loc	5 498 17 is_stmt 0
	str	x8, [sp, #32]
	mov	w8, #1
	str	x8, [sp, #24]
	.loc	5 494 13 is_stmt 1
	b	LBB15_3
LBB15_2:
	.loc	5 0 13 is_stmt 0
	adrp	x9, l___unnamed_1@PAGE
	adrp	x8, l___unnamed_1@PAGE
	add	x8, x8, l___unnamed_1@PAGEOFF
	.loc	5 495 17 is_stmt 1
	ldr	x9, [x9, l___unnamed_1@PAGEOFF]
	ldr	x8, [x8, #8]
	str	x9, [sp, #24]
	str	x8, [sp, #32]
	.loc	5 494 13
	b	LBB15_3
LBB15_3:
	.loc	5 500 10
	ldr	x0, [sp, #24]
	ldr	x1, [sp, #32]
	.loc	5 500 10 epilogue_begin is_stmt 0
	add	sp, sp, #64
	.cfi_def_cfa_offset 0
	ret
Ltmp255:
Lfunc_end15:
	.cfi_endproc

	.globl	__ZN4core3ops5range25RangeInclusive$LT$Idx$GT$3new17h33f417fc8905bda0E
	.p2align	2
__ZN4core3ops5range25RangeInclusive$LT$Idx$GT$3new17h33f417fc8905bda0E:
Lfunc_begin16:
	.loc	14 378 0 is_stmt 1
	.cfi_startproc
	sub	sp, sp, #16
	.cfi_def_cfa_offset 16
	str	x0, [sp]
	str	x1, [sp, #8]
Ltmp257:
	.loc	14 379 9 prologue_end
	str	x0, [x8]
	str	x1, [x8, #8]
	strb	wzr, [x8, #16]
	.loc	14 380 6 epilogue_begin
	add	sp, sp, #16
	.cfi_def_cfa_offset 0
	ret
Ltmp258:
Lfunc_end16:
	.cfi_endproc

	.globl	__ZN4core3ptr134drop_in_place$LT$alloc..vec..Vec$LT$i32$GT$..extend_trusted$LT$core..ops..range..Range$LT$i32$GT$$GT$..$u7b$$u7b$closure$u7d$$u7d$$GT$17ha7b3a76dd8255dabE
	.p2align	2
__ZN4core3ptr134drop_in_place$LT$alloc..vec..Vec$LT$i32$GT$..extend_trusted$LT$core..ops..range..Range$LT$i32$GT$$GT$..$u7b$$u7b$closure$u7d$$u7d$$GT$17ha7b3a76dd8255dabE:
Lfunc_begin17:
	.file	21 "/rustc/4eb161250e340c8f48f66e2b929ef4a5bed7c181/library/core/src/ptr" "mod.rs"
	.loc	21 523 0
	.cfi_startproc
	sub	sp, sp, #32
	.cfi_def_cfa_offset 32
	stp	x29, x30, [sp, #16]
	add	x29, sp, #16
	.cfi_def_cfa w29, 16
	.cfi_offset w30, -8
	.cfi_offset w29, -16
	mov	x8, x0
	str	x8, [sp, #8]
Ltmp259:
	.loc	21 523 1 prologue_end
	bl	__ZN4core3ptr62drop_in_place$LT$alloc..vec..set_len_on_drop..SetLenOnDrop$GT$17hc358867ab8020e25E
	.cfi_def_cfa wsp, 32
	.loc	21 523 1 epilogue_begin is_stmt 0
	ldp	x29, x30, [sp, #16]
	add	sp, sp, #32
	.cfi_def_cfa_offset 0
	.cfi_restore w30
	.cfi_restore w29
	ret
Ltmp260:
Lfunc_end17:
	.cfi_endproc

	.globl	__ZN4core3ptr231drop_in_place$LT$core..iter..traits..iterator..Iterator..for_each..call$LT$i32$C$alloc..vec..Vec$LT$i32$GT$..extend_trusted$LT$core..ops..range..Range$LT$i32$GT$$GT$..$u7b$$u7b$closure$u7d$$u7d$$GT$..$u7b$$u7b$closure$u7d$$u7d$$GT$17hd24074a9aeb84800E
	.p2align	2
__ZN4core3ptr231drop_in_place$LT$core..iter..traits..iterator..Iterator..for_each..call$LT$i32$C$alloc..vec..Vec$LT$i32$GT$..extend_trusted$LT$core..ops..range..Range$LT$i32$GT$$GT$..$u7b$$u7b$closure$u7d$$u7d$$GT$..$u7b$$u7b$closure$u7d$$u7d$$GT$17hd24074a9aeb84800E:
Lfunc_begin18:
	.loc	21 523 0 is_stmt 1
	.cfi_startproc
	sub	sp, sp, #32
	.cfi_def_cfa_offset 32
	stp	x29, x30, [sp, #16]
	add	x29, sp, #16
	.cfi_def_cfa w29, 16
	.cfi_offset w30, -8
	.cfi_offset w29, -16
	mov	x8, x0
	str	x8, [sp, #8]
Ltmp261:
	.loc	21 523 1 prologue_end
	bl	__ZN4core3ptr134drop_in_place$LT$alloc..vec..Vec$LT$i32$GT$..extend_trusted$LT$core..ops..range..Range$LT$i32$GT$$GT$..$u7b$$u7b$closure$u7d$$u7d$$GT$17ha7b3a76dd8255dabE
	.cfi_def_cfa wsp, 32
	.loc	21 523 1 epilogue_begin is_stmt 0
	ldp	x29, x30, [sp, #16]
	add	sp, sp, #32
	.cfi_def_cfa_offset 0
	.cfi_restore w30
	.cfi_restore w29
	ret
Ltmp262:
Lfunc_end18:
	.cfi_endproc

	.globl	__ZN4core3ptr47drop_in_place$LT$alloc..vec..Vec$LT$i32$GT$$GT$17hff8d523a476e2ee3E
	.p2align	2
__ZN4core3ptr47drop_in_place$LT$alloc..vec..Vec$LT$i32$GT$$GT$17hff8d523a476e2ee3E:
Lfunc_begin19:
	.loc	21 523 0 is_stmt 1
	.cfi_startproc
	.cfi_personality 155, _rust_eh_personality
	.cfi_lsda 16, Lexception6
	sub	sp, sp, #48
	.cfi_def_cfa_offset 48
	stp	x29, x30, [sp, #32]
	add	x29, sp, #32
	.cfi_def_cfa w29, 16
	.cfi_offset w30, -8
	.cfi_offset w29, -16
	.cfi_remember_state
	str	x0, [sp]
	mov	x8, x0
	str	x8, [sp, #8]
Ltmp263:
Ltmp269:
	.loc	21 523 1 prologue_end
	bl	__ZN70_$LT$alloc..vec..Vec$LT$T$C$A$GT$$u20$as$u20$core..ops..drop..Drop$GT$4drop17h1a8d59109d11c4ddE
Ltmp264:
	b	LBB19_3
LBB19_1:
Ltmp266:
	.loc	21 0 1 is_stmt 0
	ldr	x0, [sp]
	.loc	21 523 1
	bl	__ZN4core3ptr54drop_in_place$LT$alloc..raw_vec..RawVec$LT$i32$GT$$GT$17he97467b72e9e862bE
Ltmp267:
	b	LBB19_5
LBB19_2:
Ltmp265:
	.loc	21 0 1
	str	x0, [sp, #16]
	mov	x8, x1
	str	w8, [sp, #24]
	b	LBB19_1
LBB19_3:
	ldr	x0, [sp]
	.loc	21 523 1
	bl	__ZN4core3ptr54drop_in_place$LT$alloc..raw_vec..RawVec$LT$i32$GT$$GT$17he97467b72e9e862bE
	.cfi_def_cfa wsp, 48
	.loc	21 523 1 epilogue_begin
	ldp	x29, x30, [sp, #32]
	add	sp, sp, #48
	.cfi_def_cfa_offset 0
	.cfi_restore w30
	.cfi_restore w29
	ret
LBB19_4:
	.cfi_restore_state
Ltmp268:
	bl	__ZN4core9panicking16panic_in_cleanup17h7339610fb5fc966cE
LBB19_5:
	ldr	x0, [sp, #16]
	bl	__Unwind_Resume
Ltmp270:
Lfunc_end19:
	.cfi_endproc
	.section	__TEXT,__gcc_except_tab
	.p2align	2, 0x0
GCC_except_table19:
Lexception6:
	.byte	255
	.byte	155
	.uleb128 Lttbase1-Lttbaseref1
Lttbaseref1:
	.byte	1
	.uleb128 Lcst_end6-Lcst_begin6
Lcst_begin6:
	.uleb128 Ltmp263-Lfunc_begin19
	.uleb128 Ltmp264-Ltmp263
	.uleb128 Ltmp265-Lfunc_begin19
	.byte	0
	.uleb128 Ltmp266-Lfunc_begin19
	.uleb128 Ltmp267-Ltmp266
	.uleb128 Ltmp268-Lfunc_begin19
	.byte	1
	.uleb128 Ltmp267-Lfunc_begin19
	.uleb128 Lfunc_end19-Ltmp267
	.byte	0
	.byte	0
Lcst_end6:
	.byte	127
	.byte	0
	.p2align	2, 0x0
Lttbase1:
	.byte	0
	.p2align	2, 0x0

	.section	__TEXT,__text,regular,pure_instructions
	.p2align	2
__ZN4core3ptr48drop_in_place$LT$rand..distr..uniform..Error$GT$17h99f27e7e3795f5beE:
Lfunc_begin20:
	.loc	21 523 0 is_stmt 1
	.cfi_startproc
	sub	sp, sp, #16
	.cfi_def_cfa_offset 16
	str	x0, [sp, #8]
Ltmp272:
	.loc	21 523 1 prologue_end epilogue_begin
	add	sp, sp, #16
	.cfi_def_cfa_offset 0
	ret
Ltmp273:
Lfunc_end20:
	.cfi_endproc

	.globl	__ZN4core3ptr50drop_in_place$LT$rand..rngs..thread..ThreadRng$GT$17h8f7fadae46d69bddE
	.p2align	2
__ZN4core3ptr50drop_in_place$LT$rand..rngs..thread..ThreadRng$GT$17h8f7fadae46d69bddE:
Lfunc_begin21:
	.loc	21 523 0
	.cfi_startproc
	sub	sp, sp, #32
	.cfi_def_cfa_offset 32
	stp	x29, x30, [sp, #16]
	add	x29, sp, #16
	.cfi_def_cfa w29, 16
	.cfi_offset w30, -8
	.cfi_offset w29, -16
	mov	x8, x0
	str	x8, [sp, #8]
Ltmp274:
	.loc	21 523 1 prologue_end
	bl	__ZN4core3ptr171drop_in_place$LT$alloc..rc..Rc$LT$core..cell..UnsafeCell$LT$rand..rngs..reseeding..ReseedingRng$LT$rand_chacha..chacha..ChaCha12Core$C$rand_core..os..OsRng$GT$$GT$$GT$$GT$17h776f3d4641319570E
	.cfi_def_cfa wsp, 32
	.loc	21 523 1 epilogue_begin is_stmt 0
	ldp	x29, x30, [sp, #16]
	add	sp, sp, #32
	.cfi_def_cfa_offset 0
	.cfi_restore w30
	.cfi_restore w29
	ret
Ltmp275:
Lfunc_end21:
	.cfi_endproc

	.globl	__ZN4core3ptr54drop_in_place$LT$alloc..raw_vec..RawVec$LT$i32$GT$$GT$17he97467b72e9e862bE
	.p2align	2
__ZN4core3ptr54drop_in_place$LT$alloc..raw_vec..RawVec$LT$i32$GT$$GT$17he97467b72e9e862bE:
Lfunc_begin22:
	.loc	21 523 0 is_stmt 1
	.cfi_startproc
	sub	sp, sp, #32
	.cfi_def_cfa_offset 32
	stp	x29, x30, [sp, #16]
	add	x29, sp, #16
	.cfi_def_cfa w29, 16
	.cfi_offset w30, -8
	.cfi_offset w29, -16
	mov	x8, x0
	str	x8, [sp, #8]
Ltmp276:
	.loc	21 523 1 prologue_end
	bl	__ZN77_$LT$alloc..raw_vec..RawVec$LT$T$C$A$GT$$u20$as$u20$core..ops..drop..Drop$GT$4drop17he9ef99e55bed1912E
	.cfi_def_cfa wsp, 32
	.loc	21 523 1 epilogue_begin is_stmt 0
	ldp	x29, x30, [sp, #16]
	add	sp, sp, #32
	.cfi_def_cfa_offset 0
	.cfi_restore w30
	.cfi_restore w29
	ret
Ltmp277:
Lfunc_end22:
	.cfi_endproc

	.globl	__ZN4core3ptr62drop_in_place$LT$alloc..vec..set_len_on_drop..SetLenOnDrop$GT$17hc358867ab8020e25E
	.p2align	2
__ZN4core3ptr62drop_in_place$LT$alloc..vec..set_len_on_drop..SetLenOnDrop$GT$17hc358867ab8020e25E:
Lfunc_begin23:
	.loc	21 523 0 is_stmt 1
	.cfi_startproc
	sub	sp, sp, #32
	.cfi_def_cfa_offset 32
	stp	x29, x30, [sp, #16]
	add	x29, sp, #16
	.cfi_def_cfa w29, 16
	.cfi_offset w30, -8
	.cfi_offset w29, -16
	mov	x8, x0
	str	x8, [sp, #8]
Ltmp278:
	.loc	21 523 1 prologue_end
	bl	__ZN83_$LT$alloc..vec..set_len_on_drop..SetLenOnDrop$u20$as$u20$core..ops..drop..Drop$GT$4drop17h9466639fa39497d9E
	.cfi_def_cfa wsp, 32
	.loc	21 523 1 epilogue_begin is_stmt 0
	ldp	x29, x30, [sp, #16]
	add	sp, sp, #32
	.cfi_def_cfa_offset 0
	.cfi_restore w30
	.cfi_restore w29
	ret
Ltmp279:
Lfunc_end23:
	.cfi_endproc

	.p2align	2
__ZN4core4hint16assert_unchecked18precondition_check17h0c8c6949fce235b5E:
Lfunc_begin24:
	.loc	18 66 0 is_stmt 1
	.cfi_startproc
	sub	sp, sp, #32
	.cfi_def_cfa_offset 32
	stp	x29, x30, [sp, #16]
	add	x29, sp, #16
	.cfi_def_cfa w29, 16
	.cfi_offset w30, -8
	.cfi_offset w29, -16
	sturb	w0, [x29, #-1]
Ltmp280:
	.loc	19 206 36 prologue_end
	tbnz	w0, #0, LBB24_2
	b	LBB24_1
LBB24_1:
	.loc	18 68 21
	adrp	x0, l_alloc_ab14703751a9eb3585c49b2e55e9a9e5@PAGE
	add	x0, x0, l_alloc_ab14703751a9eb3585c49b2e55e9a9e5@PAGEOFF
	mov	w8, #104
	mov	x1, x8
	bl	__ZN4core9panicking14panic_nounwind17h072d1e65f18d6201E
LBB24_2:
	.cfi_def_cfa wsp, 32
	.loc	18 72 14 epilogue_begin
	ldp	x29, x30, [sp, #16]
	add	sp, sp, #32
	.cfi_def_cfa_offset 0
	.cfi_restore w30
	.cfi_restore w29
	ret
Ltmp281:
Lfunc_end24:
	.cfi_endproc

	.p2align	2
__ZN4core4hint21unreachable_unchecked18precondition_check17h3684e739dc015c14E:
Lfunc_begin25:
	.loc	18 66 0
	.cfi_startproc
	stp	x29, x30, [sp, #-16]!
	.cfi_def_cfa_offset 16
	mov	x29, sp
	.cfi_def_cfa w29, 16
	.cfi_offset w30, -8
	.cfi_offset w29, -16
Ltmp282:
	.loc	18 68 21 prologue_end
	adrp	x0, l_alloc_1eb6f53a157dccb32488e066ad957e6d@PAGE
	add	x0, x0, l_alloc_1eb6f53a157dccb32488e066ad957e6d@PAGEOFF
	mov	w8, #82
	mov	x1, x8
	bl	__ZN4core9panicking14panic_nounwind17h072d1e65f18d6201E
Ltmp283:
Lfunc_end25:
	.cfi_endproc

	.globl	__ZN4core4iter5range101_$LT$impl$u20$core..iter..traits..iterator..Iterator$u20$for$u20$core..ops..range..Range$LT$A$GT$$GT$4next17h174156a1ec62a177E
	.p2align	2
__ZN4core4iter5range101_$LT$impl$u20$core..iter..traits..iterator..Iterator$u20$for$u20$core..ops..range..Range$LT$A$GT$$GT$4next17h174156a1ec62a177E:
Lfunc_begin26:
	.loc	15 848 0
	.cfi_startproc
	sub	sp, sp, #32
	.cfi_def_cfa_offset 32
	stp	x29, x30, [sp, #16]
	add	x29, sp, #16
	.cfi_def_cfa w29, 16
	.cfi_offset w30, -8
	.cfi_offset w29, -16
	mov	x8, x0
	str	x8, [sp, #8]
Ltmp284:
	.loc	15 849 9 prologue_end
	bl	__ZN89_$LT$core..ops..range..Range$LT$T$GT$$u20$as$u20$core..iter..range..RangeIteratorImpl$GT$9spec_next17hf3551be47edfd81aE
	.cfi_def_cfa wsp, 32
	.loc	15 850 6 epilogue_begin
	ldp	x29, x30, [sp, #16]
	add	sp, sp, #32
	.cfi_def_cfa_offset 0
	.cfi_restore w30
	.cfi_restore w29
	ret
Ltmp285:
Lfunc_end26:
	.cfi_endproc

	.globl	__ZN4core4iter5range101_$LT$impl$u20$core..iter..traits..iterator..Iterator$u20$for$u20$core..ops..range..Range$LT$A$GT$$GT$9size_hint17hbf7455fe253fca91E
	.p2align	2
__ZN4core4iter5range101_$LT$impl$u20$core..iter..traits..iterator..Iterator$u20$for$u20$core..ops..range..Range$LT$A$GT$$GT$9size_hint17hbf7455fe253fca91E:
Lfunc_begin27:
	.loc	15 853 0
	.cfi_startproc
	sub	sp, sp, #64
	.cfi_def_cfa_offset 64
	stp	x29, x30, [sp, #48]
	add	x29, sp, #48
	.cfi_def_cfa w29, 16
	.cfi_offset w30, -8
	.cfi_offset w29, -16
	str	x8, [sp, #8]
	str	x0, [sp, #16]
	mov	x8, x0
	str	x8, [sp, #24]
	mov	x8, x0
	stur	x8, [x29, #-16]
Ltmp286:
	.loc	15 854 25 prologue_end
	add	x8, x0, #4
	stur	x8, [x29, #-8]
Ltmp287:
	.file	22 "/rustc/4eb161250e340c8f48f66e2b929ef4a5bed7c181/library/core/src" "cmp.rs"
	.loc	22 1720 52
	ldr	w8, [x0]
	.loc	22 1720 62 is_stmt 0
	ldr	w9, [x0, #4]
Ltmp288:
	.loc	15 854 12 is_stmt 1
	subs	w8, w8, w9
	b.lt	LBB27_2
	b	LBB27_1
LBB27_1:
	.loc	15 0 12 is_stmt 0
	ldr	x9, [sp, #8]
	.loc	15 857 13 is_stmt 1
	str	xzr, [x9]
	adrp	x10, l___unnamed_3@PAGE
	adrp	x8, l___unnamed_3@PAGE
	add	x8, x8, l___unnamed_3@PAGEOFF
	ldr	x10, [x10, l___unnamed_3@PAGEOFF]
	ldr	x8, [x8, #8]
	str	x10, [x9, #8]
	str	x8, [x9, #16]
	.loc	15 854 9
	b	LBB27_3
LBB27_2:
	.loc	15 0 9 is_stmt 0
	ldr	x0, [sp, #16]
	ldr	x8, [sp, #8]
	.loc	15 855 46 is_stmt 1
	add	x1, x0, #4
	.loc	15 855 13 is_stmt 0
	bl	__ZN47_$LT$i32$u20$as$u20$core..iter..range..Step$GT$13steps_between17hbf485c9283fc8c63E
	b	LBB27_3
LBB27_3:
	.cfi_def_cfa wsp, 64
	.loc	15 859 6 epilogue_begin is_stmt 1
	ldp	x29, x30, [sp, #48]
	add	sp, sp, #64
	.cfi_def_cfa_offset 0
	.cfi_restore w30
	.cfi_restore w29
	ret
Ltmp289:
Lfunc_end27:
	.cfi_endproc

	.globl	__ZN4core4iter6traits8iterator8Iterator4fold17hfbcb6725dc87632fE
	.p2align	2
__ZN4core4iter6traits8iterator8Iterator4fold17hfbcb6725dc87632fE:
Lfunc_begin28:
	.file	23 "/rustc/4eb161250e340c8f48f66e2b929ef4a5bed7c181/library/core/src/iter/traits" "iterator.rs"
	.loc	23 2539 0
	.cfi_startproc
	.cfi_personality 155, _rust_eh_personality
	.cfi_lsda 16, Lexception7
	sub	sp, sp, #80
	.cfi_def_cfa_offset 80
	stp	x29, x30, [sp, #64]
	add	x29, sp, #64
	.cfi_def_cfa w29, 16
	.cfi_offset w30, -8
	.cfi_offset w29, -16
	.cfi_remember_state
	str	x2, [sp, #8]
Ltmp301:
	str	w0, [sp, #20]
	str	w1, [sp, #24]
Ltmp302:
	.loc	23 2544 25 prologue_end
	mov	w8, #1
	sturb	w8, [x29, #-27]
Ltmp303:
	.loc	23 2545 9
	b	LBB28_1
Ltmp304:
LBB28_1:
Ltmp290:
	.loc	23 2545 29 is_stmt 0
	add	x0, sp, #20
	bl	__ZN4core4iter5range101_$LT$impl$u20$core..iter..traits..iterator..Iterator$u20$for$u20$core..ops..range..Range$LT$A$GT$$GT$4next17h174156a1ec62a177E
	str	w0, [sp]
	str	w1, [sp, #4]
Ltmp291:
	b	LBB28_4
Ltmp305:
LBB28_2:
	.loc	23 2549 5 is_stmt 1
	ldurb	w8, [x29, #-27]
	tbnz	w8, #0, LBB28_13
	b	LBB28_12
Ltmp306:
LBB28_3:
Ltmp297:
	.loc	23 0 5 is_stmt 0
	stur	x0, [x29, #-24]
	mov	x8, x1
	stur	w8, [x29, #-16]
	b	LBB28_2
Ltmp307:
LBB28_4:
	ldr	w8, [sp, #4]
	ldr	w9, [sp]
Ltmp308:
	.loc	23 2545 29 is_stmt 1
	str	w9, [sp, #28]
	str	w8, [sp, #32]
	ldr	w8, [sp, #28]
	.loc	23 2545 19 is_stmt 0
	subs	x8, x8, #1
	b.ne	LBB28_6
	b	LBB28_5
Ltmp309:
LBB28_5:
	.loc	23 0 19
	ldr	x0, [sp, #8]
	.loc	23 2545 24
	ldr	w1, [sp, #32]
	stur	w1, [x29, #-4]
	.loc	23 2546 23 is_stmt 1
	sturb	wzr, [x29, #-27]
Ltmp295:
	.loc	23 2546 21 is_stmt 0
	bl	__ZN4core4iter6traits8iterator8Iterator8for_each4call28_$u7b$$u7b$closure$u7d$$u7d$17h36dcfd6203bf2759E
Ltmp296:
	b	LBB28_7
Ltmp310:
LBB28_6:
	.loc	23 2547 9 is_stmt 1
	b	LBB28_8
Ltmp311:
LBB28_7:
	.loc	23 2546 13
	mov	w8, #1
	sturb	w8, [x29, #-27]
Ltmp312:
	.loc	23 2545 9
	b	LBB28_1
Ltmp313:
LBB28_8:
Ltmp292:
	.loc	23 0 9 is_stmt 0
	ldr	x0, [sp, #8]
	.loc	23 2549 5 is_stmt 1
	bl	__ZN4core3ptr231drop_in_place$LT$core..iter..traits..iterator..Iterator..for_each..call$LT$i32$C$alloc..vec..Vec$LT$i32$GT$..extend_trusted$LT$core..ops..range..Range$LT$i32$GT$$GT$..$u7b$$u7b$closure$u7d$$u7d$$GT$..$u7b$$u7b$closure$u7d$$u7d$$GT$17hd24074a9aeb84800E
Ltmp293:
	b	LBB28_11
Ltmp314:
LBB28_9:
	.loc	23 2539 5
	ldur	x0, [x29, #-24]
	bl	__Unwind_Resume
Ltmp315:
LBB28_10:
Ltmp294:
	.loc	23 0 5 is_stmt 0
	stur	x0, [x29, #-24]
	mov	x8, x1
	stur	w8, [x29, #-16]
	b	LBB28_9
Ltmp316:
LBB28_11:
	.cfi_def_cfa wsp, 80
	.loc	23 2549 6 epilogue_begin is_stmt 1
	ldp	x29, x30, [sp, #64]
	add	sp, sp, #80
Ltmp317:
	.cfi_def_cfa_offset 0
	.cfi_restore w30
	.cfi_restore w29
	ret
LBB28_12:
	.cfi_restore_state
Ltmp318:
Ltmp298:
	.loc	23 0 6 is_stmt 0
	ldr	x0, [sp, #8]
	.loc	23 2549 5
	bl	__ZN4core3ptr231drop_in_place$LT$core..iter..traits..iterator..Iterator..for_each..call$LT$i32$C$alloc..vec..Vec$LT$i32$GT$..extend_trusted$LT$core..ops..range..Range$LT$i32$GT$$GT$..$u7b$$u7b$closure$u7d$$u7d$$GT$..$u7b$$u7b$closure$u7d$$u7d$$GT$17hd24074a9aeb84800E
Ltmp299:
	b	LBB28_9
Ltmp319:
LBB28_13:
	b	LBB28_12
Ltmp320:
LBB28_14:
Ltmp300:
	.loc	23 2539 5 is_stmt 1
	bl	__ZN4core9panicking16panic_in_cleanup17h7339610fb5fc966cE
Ltmp321:
Lfunc_end28:
	.cfi_endproc
	.section	__TEXT,__gcc_except_tab
	.p2align	2, 0x0
GCC_except_table28:
Lexception7:
	.byte	255
	.byte	155
	.uleb128 Lttbase2-Lttbaseref2
Lttbaseref2:
	.byte	1
	.uleb128 Lcst_end7-Lcst_begin7
Lcst_begin7:
	.uleb128 Ltmp290-Lfunc_begin28
	.uleb128 Ltmp296-Ltmp290
	.uleb128 Ltmp297-Lfunc_begin28
	.byte	0
	.uleb128 Ltmp292-Lfunc_begin28
	.uleb128 Ltmp293-Ltmp292
	.uleb128 Ltmp294-Lfunc_begin28
	.byte	0
	.uleb128 Ltmp293-Lfunc_begin28
	.uleb128 Ltmp298-Ltmp293
	.byte	0
	.byte	0
	.uleb128 Ltmp298-Lfunc_begin28
	.uleb128 Ltmp299-Ltmp298
	.uleb128 Ltmp300-Lfunc_begin28
	.byte	1
Lcst_end7:
	.byte	127
	.byte	0
	.p2align	2, 0x0
Lttbase2:
	.byte	0
	.p2align	2, 0x0

	.section	__TEXT,__text,regular,pure_instructions
	.globl	__ZN4core4iter6traits8iterator8Iterator7collect17h71ef0801cb46b51cE
	.p2align	2
__ZN4core4iter6traits8iterator8Iterator7collect17h71ef0801cb46b51cE:
Lfunc_begin29:
	.loc	23 1967 0
	.cfi_startproc
	sub	sp, sp, #32
	.cfi_def_cfa_offset 32
	stp	x29, x30, [sp, #16]
	add	x29, sp, #16
	.cfi_def_cfa w29, 16
	.cfi_offset w30, -8
	.cfi_offset w29, -16
	str	w0, [sp, #8]
	str	w1, [sp, #12]
Ltmp322:
	.loc	23 1971 9 prologue_end
	adrp	x2, l_alloc_ca96f6a372a20ad240fc8048bf4b5e42@PAGE
	add	x2, x2, l_alloc_ca96f6a372a20ad240fc8048bf4b5e42@PAGEOFF
	bl	__ZN95_$LT$alloc..vec..Vec$LT$T$GT$$u20$as$u20$core..iter..traits..collect..FromIterator$LT$T$GT$$GT$9from_iter17hc81d959b848ef56cE
	.cfi_def_cfa wsp, 32
	.loc	23 1972 6 epilogue_begin
	ldp	x29, x30, [sp, #16]
	add	sp, sp, #32
	.cfi_def_cfa_offset 0
	.cfi_restore w30
	.cfi_restore w29
	ret
Ltmp323:
Lfunc_end29:
	.cfi_endproc

	.globl	__ZN4core4iter6traits8iterator8Iterator8for_each17hfde7f00c9f31ff7fE
	.p2align	2
__ZN4core4iter6traits8iterator8Iterator8for_each17hfde7f00c9f31ff7fE:
Lfunc_begin30:
	.loc	23 790 0
	.cfi_startproc
	sub	sp, sp, #48
	.cfi_def_cfa_offset 48
	stp	x29, x30, [sp, #32]
	add	x29, sp, #32
	.cfi_def_cfa w29, 16
	.cfi_offset w30, -8
	.cfi_offset w29, -16
	mov	x8, x2
	stur	w0, [x29, #-8]
	stur	w1, [x29, #-4]
Ltmp324:
	.loc	23 797 13 prologue_end
	ldr	q0, [x8]
	mov	x2, sp
	str	q0, [sp]
	ldr	x8, [x8, #16]
Ltmp325:
	str	x8, [sp, #16]
Ltmp326:
	.loc	23 800 9
	bl	__ZN4core4iter6traits8iterator8Iterator4fold17hfbcb6725dc87632fE
	.cfi_def_cfa wsp, 48
	.loc	23 801 6 epilogue_begin
	ldp	x29, x30, [sp, #32]
	add	sp, sp, #48
	.cfi_def_cfa_offset 0
	.cfi_restore w30
	.cfi_restore w29
	ret
Ltmp327:
Lfunc_end30:
	.cfi_endproc

	.globl	__ZN4core4iter6traits8iterator8Iterator8for_each4call28_$u7b$$u7b$closure$u7d$$u7d$17h36dcfd6203bf2759E
	.p2align	2
__ZN4core4iter6traits8iterator8Iterator8for_each4call28_$u7b$$u7b$closure$u7d$$u7d$17h36dcfd6203bf2759E:
Lfunc_begin31:
	.loc	23 797 0
	.cfi_startproc
	sub	sp, sp, #32
	.cfi_def_cfa_offset 32
	stp	x29, x30, [sp, #16]
	add	x29, sp, #16
	.cfi_def_cfa w29, 16
	.cfi_offset w30, -8
	.cfi_offset w29, -16
	mov	x8, x0
	str	x8, [sp]
	stur	w1, [x29, #-4]
Ltmp328:
	.loc	23 797 29 prologue_end
	bl	__ZN5alloc3vec16Vec$LT$T$C$A$GT$14extend_trusted28_$u7b$$u7b$closure$u7d$$u7d$17hf8b41efeea9054eaE
	.cfi_def_cfa wsp, 32
	.loc	23 797 36 epilogue_begin is_stmt 0
	ldp	x29, x30, [sp, #16]
	add	sp, sp, #32
	.cfi_def_cfa_offset 0
	.cfi_restore w30
	.cfi_restore w29
	ret
Ltmp329:
Lfunc_end31:
	.cfi_endproc

	.globl	__ZN4core4iter6traits8iterator8Iterator9enumerate17h3558aa0e6709bf88E
	.p2align	2
__ZN4core4iter6traits8iterator8Iterator9enumerate17h3558aa0e6709bf88E:
Lfunc_begin32:
	.loc	23 958 0 is_stmt 1
	.cfi_startproc
	sub	sp, sp, #16
	.cfi_def_cfa_offset 16
	mov	x9, x0
	str	x9, [sp]
	mov	x9, x1
	str	x9, [sp, #8]
Ltmp331:
	.loc	7 24 9 prologue_end
	str	x0, [x8]
	str	x1, [x8, #8]
	str	xzr, [x8, #16]
Ltmp332:
	.loc	23 963 6 epilogue_begin
	add	sp, sp, #16
	.cfi_def_cfa_offset 0
	ret
Ltmp333:
Lfunc_end32:
	.cfi_endproc

	.globl	__ZN4core5slice29_$LT$impl$u20$$u5b$T$u5d$$GT$4iter17hf0ba48d62be5c31cE
	.p2align	2
__ZN4core5slice29_$LT$impl$u20$$u5b$T$u5d$$GT$4iter17hf0ba48d62be5c31cE:
Lfunc_begin33:
	.file	24 "/rustc/4eb161250e340c8f48f66e2b929ef4a5bed7c181/library/core/src/slice" "mod.rs"
	.loc	24 1050 0
	.cfi_startproc
	sub	sp, sp, #32
	.cfi_def_cfa_offset 32
	stp	x29, x30, [sp, #16]
	add	x29, sp, #16
	.cfi_def_cfa w29, 16
	.cfi_offset w30, -8
	.cfi_offset w29, -16
	mov	x8, x0
	str	x8, [sp]
	str	x1, [sp, #8]
Ltmp334:
	.loc	24 1051 9 prologue_end
	bl	__ZN4core5slice4iter13Iter$LT$T$GT$3new17h79e131909233af06E
	.cfi_def_cfa wsp, 32
	.loc	24 1052 6 epilogue_begin
	ldp	x29, x30, [sp, #16]
	add	sp, sp, #32
	.cfi_def_cfa_offset 0
	.cfi_restore w30
	.cfi_restore w29
	ret
Ltmp335:
Lfunc_end33:
	.cfi_endproc

	.p2align	2
__ZN4core5slice3raw14from_raw_parts18precondition_check17h39b77ea8ca96e21dE:
Lfunc_begin34:
	.loc	18 66 0
	.cfi_startproc
	.cfi_personality 155, _rust_eh_personality
	.cfi_lsda 16, Lexception8
	sub	sp, sp, #176
	.cfi_def_cfa_offset 176
	stp	x29, x30, [sp, #160]
	add	x29, sp, #160
	.cfi_def_cfa w29, 16
	.cfi_offset w30, -8
	.cfi_offset w29, -16
	.cfi_remember_state
	str	x0, [sp, #8]
	str	x1, [sp, #16]
	str	x2, [sp, #24]
	str	x3, [sp, #32]
	stur	x0, [x29, #-64]
	stur	x1, [x29, #-56]
	stur	x2, [x29, #-48]
	stur	x3, [x29, #-40]
Ltmp341:
	.loc	18 119 5 prologue_end
	sturb	wzr, [x29, #-26]
Ltmp342:
	.loc	17 3857 40
	sturb	wzr, [x29, #-25]
Ltmp343:
	.loc	10 591 44
	adrp	x8, l_alloc_e92e94d0ff530782b571cfd99ec66aef@PAGE
	add	x8, x8, l_alloc_e92e94d0ff530782b571cfd99ec66aef@PAGEOFF
	stur	x8, [x29, #-24]
Ltmp344:
	.file	25 "/rustc/4eb161250e340c8f48f66e2b929ef4a5bed7c181/library/core/src/slice" "raw.rs"
	.loc	25 135 54
	stur	x0, [x29, #-16]
Ltmp345:
	.loc	5 85 20
	fmov	d0, x2
	cnt.8b	v0, v0
	uaddlv.8b	h0, v0
	stur	s0, [x29, #-4]
	ldur	w8, [x29, #-4]
Ltmp346:
	.file	26 "/rustc/4eb161250e340c8f48f66e2b929ef4a5bed7c181/library/core/src/ptr" "const_ptr.rs"
	.loc	26 1479 13
	subs	w8, w8, #1
	b.ne	LBB34_2
	b	LBB34_1
LBB34_1:
	.loc	26 0 13 is_stmt 0
	ldr	x8, [sp, #8]
	ldr	x9, [sp, #24]
	.loc	26 1483 23 is_stmt 1
	subs	x9, x9, #1
	.loc	26 1483 9 is_stmt 0
	and	x8, x8, x9
Ltmp347:
	.loc	18 127 13 is_stmt 1
	cbz	x8, LBB34_3
	b	LBB34_4
LBB34_2:
	.loc	18 0 13 is_stmt 0
	add	x0, sp, #40
Ltmp348:
	.loc	10 593 9 is_stmt 1
	adrp	x8, l_alloc_e92e94d0ff530782b571cfd99ec66aef@PAGE
	add	x8, x8, l_alloc_e92e94d0ff530782b571cfd99ec66aef@PAGEOFF
	str	x8, [sp, #40]
	mov	w8, #1
	str	x8, [sp, #48]
	adrp	x8, l___unnamed_1@PAGE
	adrp	x9, l___unnamed_1@PAGE
	add	x9, x9, l___unnamed_1@PAGEOFF
	ldr	x10, [x8, l___unnamed_1@PAGEOFF]
	mov	w8, #8
	ldr	x9, [x9, #8]
	str	x10, [sp, #72]
	str	x9, [sp, #80]
	str	x8, [sp, #56]
	str	xzr, [sp, #64]
Ltmp349:
Ltmp336:
	.loc	26 1480 13
	adrp	x1, l_alloc_68990143625ec2db4c689f394fa1b298@PAGE
	add	x1, x1, l_alloc_68990143625ec2db4c689f394fa1b298@PAGEOFF
	bl	__ZN4core9panicking9panic_fmt17ha0b5c5252c2f1706E
Ltmp337:
	b	LBB34_13
Ltmp350:
LBB34_3:
	.loc	26 0 13 is_stmt 0
	ldr	x8, [sp, #8]
	.loc	25 135 13 is_stmt 1
	cbnz	x8, LBB34_6
	b	LBB34_5
LBB34_4:
	b	LBB34_5
LBB34_5:
	.loc	4 0 0 is_stmt 0
	b	LBB34_16
LBB34_6:
	ldr	x8, [sp, #16]
Ltmp351:
	.loc	18 134 22 is_stmt 1
	cbnz	x8, LBB34_8
	b	LBB34_7
LBB34_7:
	.loc	18 134 34 is_stmt 0
	mov	x8, #-1
	stur	x8, [x29, #-72]
	.loc	18 134 19
	b	LBB34_9
LBB34_8:
	.loc	18 0 19
	ldr	x8, [sp, #16]
	.loc	18 134 54
	cbz	x8, LBB34_11
	b	LBB34_10
LBB34_9:
	.loc	18 0 54
	ldr	x8, [sp, #32]
Ltmp352:
	.loc	18 135 12 is_stmt 1
	ldur	x9, [x29, #-72]
Ltmp353:
	.loc	25 136 20
	subs	x8, x8, x9
	b.ls	LBB34_15
	b	LBB34_14
LBB34_10:
	.loc	25 0 20 is_stmt 0
	ldr	x9, [sp, #16]
Ltmp354:
	.loc	18 134 54 is_stmt 1
	mov	x8, #9223372036854775807
	udiv	x8, x8, x9
	stur	x8, [x29, #-72]
	.loc	18 134 19 is_stmt 0
	b	LBB34_9
LBB34_11:
Ltmp338:
	.loc	18 134 54
	adrp	x0, l_alloc_1b63dcb5834fe0aae9c810c57972c0d7@PAGE
	add	x0, x0, l_alloc_1b63dcb5834fe0aae9c810c57972c0d7@PAGEOFF
	bl	__ZN4core9panicking11panic_const23panic_const_div_by_zero17he01ffb20ed1c332bE
Ltmp339:
	b	LBB34_13
Ltmp355:
LBB34_12:
Ltmp340:
	.loc	18 66 13 is_stmt 1
	bl	__ZN4core9panicking19panic_cannot_unwind17h14da2d2699e88696E
LBB34_13:
	.loc	18 0 13 is_stmt 0
	brk	#0x1
LBB34_14:
	b	LBB34_16
LBB34_15:
	.cfi_def_cfa wsp, 176
	.loc	18 72 14 epilogue_begin is_stmt 1
	ldp	x29, x30, [sp, #160]
	add	sp, sp, #176
	.cfi_def_cfa_offset 0
	.cfi_restore w30
	.cfi_restore w29
	ret
LBB34_16:
	.cfi_restore_state
	.loc	18 68 21
	adrp	x0, l_alloc_11195730e5236cfdc15ea13be1c301f9@PAGE
	add	x0, x0, l_alloc_11195730e5236cfdc15ea13be1c301f9@PAGEOFF
	mov	w8, #162
	mov	x1, x8
	bl	__ZN4core9panicking14panic_nounwind17h072d1e65f18d6201E
Ltmp356:
Lfunc_end34:
	.cfi_endproc
	.section	__TEXT,__gcc_except_tab
	.p2align	2, 0x0
GCC_except_table34:
Lexception8:
	.byte	255
	.byte	155
	.uleb128 Lttbase3-Lttbaseref3
Lttbaseref3:
	.byte	1
	.uleb128 Lcst_end8-Lcst_begin8
Lcst_begin8:
	.uleb128 Ltmp336-Lfunc_begin34
	.uleb128 Ltmp339-Ltmp336
	.uleb128 Ltmp340-Lfunc_begin34
	.byte	1
Lcst_end8:
	.byte	127
	.byte	0
	.p2align	2, 0x0
Lttbase3:
	.byte	0
	.p2align	2, 0x0

	.section	__TEXT,__text,regular,pure_instructions
	.globl	__ZN4core5slice4iter13Iter$LT$T$GT$3new17h79e131909233af06E
	.p2align	2
__ZN4core5slice4iter13Iter$LT$T$GT$3new17h79e131909233af06E:
Lfunc_begin35:
	.file	27 "/rustc/4eb161250e340c8f48f66e2b929ef4a5bed7c181/library/core/src/slice" "iter.rs"
	.loc	27 96 0
	.cfi_startproc
	sub	sp, sp, #80
	.cfi_def_cfa_offset 80
	str	x0, [sp]
	str	x1, [sp, #8]
	str	x0, [sp, #24]
	str	x1, [sp, #32]
Ltmp358:
	.loc	27 97 19 prologue_end
	str	x1, [sp, #40]
Ltmp359:
	.file	28 "/rustc/4eb161250e340c8f48f66e2b929ef4a5bed7c181/library/core/src/ptr" "non_null.rs"
	.loc	28 243 18
	str	x0, [sp, #48]
	str	x1, [sp, #56]
Ltmp360:
	.loc	28 449 18
	str	x0, [sp, #64]
Ltmp361:
	.loc	27 102 20
	b	LBB35_1
LBB35_1:
	.loc	27 0 20 is_stmt 0
	ldr	x8, [sp]
	ldr	x9, [sp, #8]
Ltmp362:
	.loc	28 352 18 is_stmt 1
	str	x8, [sp, #72]
Ltmp363:
	.file	29 "/rustc/4eb161250e340c8f48f66e2b929ef4a5bed7c181/library/core/src/ptr" "mut_ptr.rs"
	.loc	29 1057 18
	add	x8, x8, x9, lsl #3
Ltmp364:
	.loc	27 102 63
	str	x8, [sp, #16]
	.loc	27 102 17 is_stmt 0
	b	LBB35_2
LBB35_2:
	.loc	27 0 17
	ldr	x0, [sp]
Ltmp365:
	.loc	27 104 25 is_stmt 1
	ldr	x1, [sp, #16]
Ltmp366:
	.loc	27 106 6 epilogue_begin
	add	sp, sp, #80
	.cfi_def_cfa_offset 0
	ret
Ltmp367:
Lfunc_end35:
	.cfi_endproc

	.globl	__ZN4core6option15Option$LT$T$GT$7is_none17h2c6a71db0f0147d2E
	.p2align	2
__ZN4core6option15Option$LT$T$GT$7is_none17h2c6a71db0f0147d2E:
Lfunc_begin36:
	.loc	8 651 0
	.cfi_startproc
	sub	sp, sp, #16
	.cfi_def_cfa_offset 16
	mov	x8, x0
	str	x8, [sp, #8]
Ltmp369:
	.loc	8 608 18 prologue_end
	ldr	w8, [x0]
	.file	30 "/rustc/4eb161250e340c8f48f66e2b929ef4a5bed7c181/library/core/src/macros" "mod.rs"
	.loc	30 475 9
	subs	x8, x8, #1
	cset	w0, ne
Ltmp370:
	.loc	8 653 6 epilogue_begin
	add	sp, sp, #16
	.cfi_def_cfa_offset 0
	ret
Ltmp371:
Lfunc_end36:
	.cfi_endproc

	.globl	__ZN4core6option15Option$LT$T$GT$7is_none17h52b5235e5684048eE
	.p2align	2
__ZN4core6option15Option$LT$T$GT$7is_none17h52b5235e5684048eE:
Lfunc_begin37:
	.loc	8 651 0
	.cfi_startproc
	sub	sp, sp, #16
	.cfi_def_cfa_offset 16
	mov	x8, x0
	str	x8, [sp, #8]
Ltmp373:
	.loc	8 608 18 prologue_end
	ldr	x8, [x0]
	.loc	30 475 9
	subs	x8, x8, #1
	cset	w0, ne
Ltmp374:
	.loc	8 653 6 epilogue_begin
	add	sp, sp, #16
	.cfi_def_cfa_offset 0
	ret
Ltmp375:
Lfunc_end37:
	.cfi_endproc

	.globl	__ZN4core6result19Result$LT$T$C$E$GT$3map17h5f56ad2be16beb1cE
	.p2align	2
__ZN4core6result19Result$LT$T$C$E$GT$3map17h5f56ad2be16beb1cE:
Lfunc_begin38:
	.file	31 "/rustc/4eb161250e340c8f48f66e2b929ef4a5bed7c181/library/core/src" "result.rs"
	.loc	31 771 0
	.cfi_startproc
	sub	sp, sp, #64
	.cfi_def_cfa_offset 64
	stp	x29, x30, [sp, #48]
	add	x29, sp, #48
	.cfi_def_cfa w29, 16
	.cfi_offset w30, -8
	.cfi_offset w29, -16
	str	x8, [sp, #8]
	str	x0, [sp, #16]
Ltmp376:
	.loc	31 772 15 prologue_end
	ldrb	w8, [x0]
Ltmp377:
	.loc	31 772 9 is_stmt 0
	tbnz	w8, #0, LBB38_2
	b	LBB38_1
Ltmp378:
LBB38_1:
	.loc	31 0 9
	ldr	x8, [sp, #16]
	.loc	31 773 16 is_stmt 1
	ldr	x0, [x8, #8]
	stur	x0, [x29, #-16]
Ltmp379:
	.loc	31 773 25 is_stmt 0
	bl	__ZN96_$LT$rand..distr..uniform..int..UniformUsize$u20$as$u20$rand..distr..uniform..UniformSampler$GT$13sample_single28_$u7b$$u7b$closure$u7d$$u7d$17h1b3b8c6a621391d5E
	ldr	x8, [sp, #8]
	.loc	31 773 22
	str	x0, [x8, #8]
	strb	wzr, [x8]
Ltmp380:
	.loc	31 773 30
	b	LBB38_3
Ltmp381:
LBB38_2:
	.loc	31 0 30
	ldr	x9, [sp, #8]
	ldr	x8, [sp, #16]
	.loc	31 774 17 is_stmt 1
	ldrb	w10, [x8, #1]
	.loc	31 774 0 is_stmt 0
	mov	w8, #1
	mov	w11, #1
	.loc	31 774 17
	and	w11, w10, w11
	sturb	w11, [x29, #-1]
Ltmp382:
	.loc	31 774 23
	and	w10, w10, #0x1
	strb	w10, [x9, #1]
	strb	w8, [x9]
Ltmp383:
	.loc	31 776 5 is_stmt 1
	b	LBB38_3
Ltmp384:
LBB38_3:
	.cfi_def_cfa wsp, 64
	.loc	31 776 6 epilogue_begin is_stmt 0
	ldp	x29, x30, [sp, #48]
	add	sp, sp, #64
Ltmp385:
	.cfi_def_cfa_offset 0
	.cfi_restore w30
	.cfi_restore w29
	ret
Ltmp386:
Lfunc_end38:
	.cfi_endproc

	.globl	__ZN4core6result19Result$LT$T$C$E$GT$3map17hd43c21f91900db31E
	.p2align	2
__ZN4core6result19Result$LT$T$C$E$GT$3map17hd43c21f91900db31E:
Lfunc_begin39:
	.loc	31 771 0 is_stmt 1
	.cfi_startproc
	sub	sp, sp, #64
	.cfi_def_cfa_offset 64
	stp	x29, x30, [sp, #48]
	add	x29, sp, #48
	.cfi_def_cfa w29, 16
	.cfi_offset w30, -8
	.cfi_offset w29, -16
	str	x8, [sp, #8]
	str	x0, [sp, #24]
	ldr	x8, [sp, #24]
	str	x8, [sp, #16]
Ltmp387:
	.loc	31 772 15 prologue_end
	ldrb	w8, [sp, #16]
	.loc	31 772 9 is_stmt 0
	tbnz	w8, #0, LBB39_2
	b	LBB39_1
LBB39_1:
	.loc	31 773 16 is_stmt 1
	ldr	w0, [sp, #20]
	stur	w0, [x29, #-8]
Ltmp388:
	.loc	31 773 25 is_stmt 0
	bl	__ZN96_$LT$rand..distr..uniform..int..UniformUsize$u20$as$u20$rand..distr..uniform..UniformSampler$GT$13sample_single28_$u7b$$u7b$closure$u7d$$u7d$17h638b807bf11b2a70E
	ldr	x8, [sp, #8]
	.loc	31 773 22
	str	x0, [x8, #8]
	strb	wzr, [x8]
Ltmp389:
	.loc	31 773 30
	b	LBB39_3
LBB39_2:
	.loc	31 0 30
	ldr	x9, [sp, #8]
	.loc	31 774 17 is_stmt 1
	ldrb	w10, [sp, #17]
	.loc	31 774 0 is_stmt 0
	mov	w8, #1
	mov	w11, #1
	.loc	31 774 17
	and	w11, w10, w11
	sturb	w11, [x29, #-1]
Ltmp390:
	.loc	31 774 23
	and	w10, w10, #0x1
	strb	w10, [x9, #1]
	strb	w8, [x9]
Ltmp391:
	.loc	31 776 5 is_stmt 1
	b	LBB39_3
LBB39_3:
	.cfi_def_cfa wsp, 64
	.loc	31 776 6 epilogue_begin is_stmt 0
	ldp	x29, x30, [sp, #48]
	add	sp, sp, #64
	.cfi_def_cfa_offset 0
	.cfi_restore w30
	.cfi_restore w29
	ret
Ltmp392:
Lfunc_end39:
	.cfi_endproc

	.globl	__ZN4rand3rng3Rng12random_range17hbe136876ddfba625E
	.p2align	2
__ZN4rand3rng3Rng12random_range17hbe136876ddfba625E:
Lfunc_begin40:
	.file	32 "/Users/np/.cargo/registry/src/index.crates.io-1949cf8c6b5b557f/rand-0.9.0/src" "rng.rs"
	.loc	32 161 0 is_stmt 1
	.cfi_startproc
	.cfi_personality 155, _rust_eh_personality
	.cfi_lsda 16, Lexception9
	sub	sp, sp, #208
	.cfi_def_cfa_offset 208
	stp	x29, x30, [sp, #192]
	add	x29, sp, #192
	.cfi_def_cfa w29, 16
	.cfi_offset w30, -8
	.cfi_offset w29, -16
	.cfi_remember_state
	mov	x8, x0
	str	x8, [sp, #32]
	str	x2, [sp, #40]
	add	x0, sp, #56
	str	x1, [sp, #56]
	stur	x8, [x29, #-56]
Ltmp405:
	.loc	32 166 9 prologue_end
	sturb	wzr, [x29, #-57]
	mov	w8, #1
	sturb	w8, [x29, #-57]
Ltmp393:
	.loc	32 166 18 is_stmt 0
	bl	__ZN105_$LT$core..ops..range..RangeTo$LT$usize$GT$$u20$as$u20$rand..distr..uniform..SampleRange$LT$usize$GT$$GT$8is_empty17h23921f4355903150E
	str	w0, [sp, #52]
Ltmp394:
	b	LBB40_4
LBB40_1:
	.loc	32 168 5 is_stmt 1
	ldurb	w8, [x29, #-57]
	tbnz	w8, #0, LBB40_16
	b	LBB40_15
LBB40_2:
Ltmp404:
	.loc	32 0 5 is_stmt 0
	mov	x8, x1
	str	x0, [sp, #16]
	str	w8, [sp, #28]
	b	LBB40_3
LBB40_3:
	ldr	x9, [sp, #16]
	ldr	w8, [sp, #28]
	stur	x9, [x29, #-48]
	stur	w8, [x29, #-40]
	b	LBB40_1
LBB40_4:
	ldr	w8, [sp, #52]
	.loc	32 166 18 is_stmt 1
	tbnz	w8, #0, LBB40_6
	b	LBB40_5
LBB40_5:
	.loc	32 0 18 is_stmt 0
	ldr	x1, [sp, #32]
	.loc	32 167 9 is_stmt 1
	sturb	wzr, [x29, #-57]
	ldr	x0, [sp, #56]
Ltmp395:
	sub	x8, x29, #80
	bl	__ZN105_$LT$core..ops..range..RangeTo$LT$usize$GT$$u20$as$u20$rand..distr..uniform..SampleRange$LT$usize$GT$$GT$13sample_single17h7b74b8c0a7052301E
Ltmp396:
	b	LBB40_7
LBB40_6:
Ltmp400:
	.loc	32 166 9
	add	x8, sp, #64
	adrp	x0, l_alloc_e3be51554e15d7681718bfd79e1370cf@PAGE
	add	x0, x0, l_alloc_e3be51554e15d7681718bfd79e1370cf@PAGEOFF
	bl	__ZN4core3fmt9Arguments9new_const17h35abe3fac7c7bd4dE
Ltmp401:
	b	LBB40_13
LBB40_7:
Ltmp406:
	.loc	31 1107 15
	ldurb	w8, [x29, #-80]
	.loc	31 1107 9 is_stmt 0
	tbz	w8, #0, LBB40_11
	b	LBB40_8
LBB40_8:
	.loc	31 0 9
	ldr	x4, [sp, #40]
	.loc	31 1109 17 is_stmt 1
	ldurb	w8, [x29, #-79]
	and	w8, w8, #0x1
	sub	x2, x29, #25
	sturb	w8, [x29, #-25]
Ltmp397:
Ltmp407:
	.loc	31 1109 23 is_stmt 0
	adrp	x0, l_alloc_00ae4b301f7fab8ac9617c03fcbd7274@PAGE
	add	x0, x0, l_alloc_00ae4b301f7fab8ac9617c03fcbd7274@PAGEOFF
	mov	w8, #43
	mov	x1, x8
	adrp	x3, l_vtable.0@PAGE
	add	x3, x3, l_vtable.0@PAGEOFF
	bl	__ZN4core6result13unwrap_failed17h49b97238f5f454fcE
Ltmp398:
	b	LBB40_10
Ltmp408:
LBB40_9:
Ltmp399:
	.loc	31 0 23
	stur	x0, [x29, #-16]
	mov	x8, x1
	stur	w8, [x29, #-8]
	.loc	31 1103 5 is_stmt 1
	ldur	x9, [x29, #-16]
	ldur	w8, [x29, #-8]
	str	x9, [sp, #16]
	str	w8, [sp, #28]
	b	LBB40_3
LBB40_10:
	.loc	31 0 5 is_stmt 0
	brk	#0x1
LBB40_11:
	.loc	31 1108 16 is_stmt 1
	ldur	x8, [x29, #-72]
	str	x8, [sp, #8]
	stur	x8, [x29, #-24]
	.loc	31 1111 6
	b	LBB40_12
Ltmp409:
LBB40_12:
	.loc	31 0 6 is_stmt 0
	ldr	x0, [sp, #8]
	.cfi_def_cfa wsp, 208
	.loc	32 168 6 epilogue_begin is_stmt 1
	ldp	x29, x30, [sp, #192]
	add	sp, sp, #208
	.cfi_def_cfa_offset 0
	.cfi_restore w30
	.cfi_restore w29
	ret
LBB40_13:
	.cfi_restore_state
Ltmp402:
	.loc	32 0 6 is_stmt 0
	ldr	x1, [sp, #40]
	.loc	32 166 9 is_stmt 1
	add	x0, sp, #64
	bl	__ZN4core9panicking9panic_fmt17ha0b5c5252c2f1706E
Ltmp403:
	b	LBB40_14
LBB40_14:
	.loc	32 0 9 is_stmt 0
	brk	#0x1
LBB40_15:
	.loc	32 161 5 is_stmt 1
	ldur	x0, [x29, #-48]
	bl	__Unwind_Resume
LBB40_16:
	.loc	32 168 5
	b	LBB40_15
Ltmp410:
Lfunc_end40:
	.cfi_endproc
	.section	__TEXT,__gcc_except_tab
	.p2align	2, 0x0
GCC_except_table40:
Lexception9:
	.byte	255
	.byte	255
	.byte	1
	.uleb128 Lcst_end9-Lcst_begin9
Lcst_begin9:
	.uleb128 Ltmp393-Lfunc_begin40
	.uleb128 Ltmp401-Ltmp393
	.uleb128 Ltmp404-Lfunc_begin40
	.byte	0
	.uleb128 Ltmp397-Lfunc_begin40
	.uleb128 Ltmp398-Ltmp397
	.uleb128 Ltmp399-Lfunc_begin40
	.byte	0
	.uleb128 Ltmp402-Lfunc_begin40
	.uleb128 Ltmp403-Ltmp402
	.uleb128 Ltmp404-Lfunc_begin40
	.byte	0
	.uleb128 Ltmp403-Lfunc_begin40
	.uleb128 Lfunc_end40-Ltmp403
	.byte	0
	.byte	0
Lcst_end9:
	.p2align	2, 0x0

	.section	__TEXT,__text,regular,pure_instructions
	.globl	__ZN4rand3rng3Rng6random17h768dbe24d7e7b3baE
	.p2align	2
__ZN4rand3rng3Rng6random17h768dbe24d7e7b3baE:
Lfunc_begin41:
	.loc	32 95 0
	.cfi_startproc
	sub	sp, sp, #32
	.cfi_def_cfa_offset 32
	stp	x29, x30, [sp, #16]
	add	x29, sp, #16
	.cfi_def_cfa w29, 16
	.cfi_offset w30, -8
	.cfi_offset w29, -16
	mov	x1, x0
	mov	x0, x1
	str	x0, [sp, #8]
Ltmp411:
	.loc	32 99 9 prologue_end
	mov	w8, #1
	mov	x0, x8
	bl	__ZN4rand5distr7integer109_$LT$impl$u20$rand..distr..distribution..Distribution$LT$u64$GT$$u20$for$u20$rand..distr..StandardUniform$GT$6sample17h3ca0b7062896ba53E
	.cfi_def_cfa wsp, 32
	.loc	32 100 6 epilogue_begin
	ldp	x29, x30, [sp, #16]
	add	sp, sp, #32
	.cfi_def_cfa_offset 0
	.cfi_restore w30
	.cfi_restore w29
	ret
Ltmp412:
Lfunc_end41:
	.cfi_endproc

	.globl	__ZN4rand3rng3Rng6random17h7aa41a4f691dbf5aE
	.p2align	2
__ZN4rand3rng3Rng6random17h7aa41a4f691dbf5aE:
Lfunc_begin42:
	.loc	32 95 0
	.cfi_startproc
	sub	sp, sp, #32
	.cfi_def_cfa_offset 32
	stp	x29, x30, [sp, #16]
	add	x29, sp, #16
	.cfi_def_cfa w29, 16
	.cfi_offset w30, -8
	.cfi_offset w29, -16
	mov	x1, x0
	mov	x0, x1
	str	x0, [sp, #8]
Ltmp413:
	.loc	32 99 9 prologue_end
	mov	w8, #1
	mov	x0, x8
	bl	__ZN4rand5distr7integer109_$LT$impl$u20$rand..distr..distribution..Distribution$LT$u32$GT$$u20$for$u20$rand..distr..StandardUniform$GT$6sample17h46c43be9246f6d8bE
	.cfi_def_cfa wsp, 32
	.loc	32 100 6 epilogue_begin
	ldp	x29, x30, [sp, #16]
	add	sp, sp, #32
	.cfi_def_cfa_offset 0
	.cfi_restore w30
	.cfi_restore w29
	ret
Ltmp414:
Lfunc_end42:
	.cfi_endproc

	.globl	__ZN4rand3seq5slice13IndexedRandom6choose17h11b4d3d529b674cbE
	.p2align	2
__ZN4rand3seq5slice13IndexedRandom6choose17h11b4d3d529b674cbE:
Lfunc_begin43:
	.file	33 "/Users/np/.cargo/registry/src/index.crates.io-1949cf8c6b5b557f/rand-0.9.0/src/seq" "slice.rs"
	.loc	33 52 0
	.cfi_startproc
	sub	sp, sp, #96
	.cfi_def_cfa_offset 96
	stp	x29, x30, [sp, #80]
	add	x29, sp, #80
	.cfi_def_cfa w29, 16
	.cfi_offset w30, -8
	.cfi_offset w29, -16
	str	x0, [sp]
	str	x1, [sp, #8]
	str	x2, [sp, #16]
	mov	x8, x0
	str	x8, [sp, #32]
	str	x1, [sp, #40]
	stur	x2, [x29, #-32]
Ltmp415:
	.loc	33 56 12 prologue_end
	bl	__ZN4rand3seq5slice13IndexedRandom8is_empty17h30a619833ab0387eE
	tbnz	w0, #0, LBB43_2
	b	LBB43_1
LBB43_1:
	.loc	33 0 12 is_stmt 0
	ldr	x1, [sp, #8]
	ldr	x0, [sp]
	.loc	33 59 43 is_stmt 1
	bl	__ZN63_$LT$$u5b$T$u5d$$u20$as$u20$rand..seq..slice..IndexedRandom$GT$3len17h9bfe6fd58f26f7faE
	mov	x1, x0
	ldr	x0, [sp, #16]
	.loc	33 59 24 is_stmt 0
	adrp	x2, l_alloc_30fa4ccda1523126b1deefe5cab5ef25@PAGE
	add	x2, x2, l_alloc_30fa4ccda1523126b1deefe5cab5ef25@PAGEOFF
	bl	__ZN4rand3rng3Rng12random_range17hbe136876ddfba625E
	ldr	x1, [sp]
	ldr	x2, [sp, #8]
	mov	x8, x1
	stur	x8, [x29, #-24]
	stur	x2, [x29, #-16]
	stur	x0, [x29, #-8]
Ltmp416:
	.loc	13 16 9 is_stmt 1
	adrp	x3, l_alloc_2f5e0075a9762e333e897b7b14942db9@PAGE
	add	x3, x3, l_alloc_2f5e0075a9762e333e897b7b14942db9@PAGEOFF
	bl	__ZN75_$LT$usize$u20$as$u20$core..slice..index..SliceIndex$LT$$u5b$T$u5d$$GT$$GT$5index17h324e077aac9c2bc2E
Ltmp417:
	.loc	33 59 13
	str	x0, [sp, #24]
	.loc	33 56 9
	b	LBB43_3
LBB43_2:
	.loc	33 57 13
	str	xzr, [sp, #24]
	.loc	33 56 9
	b	LBB43_3
LBB43_3:
	.loc	33 61 6
	ldr	x0, [sp, #24]
	.cfi_def_cfa wsp, 96
	.loc	33 61 6 epilogue_begin is_stmt 0
	ldp	x29, x30, [sp, #80]
	add	sp, sp, #96
	.cfi_def_cfa_offset 0
	.cfi_restore w30
	.cfi_restore w29
	ret
Ltmp418:
Lfunc_end43:
	.cfi_endproc

	.globl	__ZN4rand3seq5slice13IndexedRandom8is_empty17h30a619833ab0387eE
	.p2align	2
__ZN4rand3seq5slice13IndexedRandom8is_empty17h30a619833ab0387eE:
Lfunc_begin44:
	.loc	33 31 0 is_stmt 1
	.cfi_startproc
	sub	sp, sp, #32
	.cfi_def_cfa_offset 32
	stp	x29, x30, [sp, #16]
	add	x29, sp, #16
	.cfi_def_cfa w29, 16
	.cfi_offset w30, -8
	.cfi_offset w29, -16
	mov	x8, x0
	str	x8, [sp]
	str	x1, [sp, #8]
Ltmp419:
	.loc	33 32 9 prologue_end
	bl	__ZN63_$LT$$u5b$T$u5d$$u20$as$u20$rand..seq..slice..IndexedRandom$GT$3len17h9bfe6fd58f26f7faE
	subs	x8, x0, #0
	cset	w0, eq
	.cfi_def_cfa wsp, 32
	.loc	33 33 6 epilogue_begin
	ldp	x29, x30, [sp, #16]
	add	sp, sp, #32
	.cfi_def_cfa_offset 0
	.cfi_restore w30
	.cfi_restore w29
	ret
Ltmp420:
Lfunc_end44:
	.cfi_endproc

	.globl	__ZN4rand4rngs9reseeding29ReseedingCore$LT$R$C$Rsdr$GT$19reseed_and_generate17h5049cbb919042d83E
	.p2align	2
__ZN4rand4rngs9reseeding29ReseedingCore$LT$R$C$Rsdr$GT$19reseed_and_generate17h5049cbb919042d83E:
Lfunc_begin45:
	.loc	1 216 0
	.cfi_startproc
	sub	sp, sp, #80
	.cfi_def_cfa_offset 80
	stp	x29, x30, [sp, #64]
	add	x29, sp, #64
	.cfi_def_cfa w29, 16
	.cfi_offset w30, -8
	.cfi_offset w29, -16
	.cfi_remember_state
	mov	x8, x0
	str	x8, [sp, #8]
	add	x0, sp, #24
	str	x1, [sp, #24]
	stur	x8, [x29, #-24]
Ltmp421:
	.loc	1 219 13 prologue_end
	sturb	wzr, [x29, #-25]
	.loc	1 219 37 is_stmt 0
	bl	__ZN63_$LT$$RF$mut$u20$T$u20$as$u20$core..convert..AsRef$LT$U$GT$$GT$6as_ref17h8a10da507e8438beE
	.loc	1 219 25
	bl	__ZN4core3mem11size_of_val17hb178677f302822a8E
	mov	x8, x0
	ldr	x0, [sp, #8]
	str	x8, [sp, #16]
	stur	x8, [x29, #-16]
Ltmp422:
	.loc	1 221 25 is_stmt 1
	mov	w8, #1
	sturb	w8, [x29, #-25]
	bl	__ZN4rand4rngs9reseeding29ReseedingCore$LT$R$C$Rsdr$GT$6reseed17h340a6a61c08ade07E
	str	w0, [sp, #32]
	ldr	w8, [sp, #32]
	subs	w8, w8, #0
	cset	x8, ne
	.loc	1 221 16 is_stmt 0
	subs	x8, x8, #1
	b.ne	LBB45_2
	b	LBB45_1
LBB45_1:
	.loc	1 221 20
	sturb	wzr, [x29, #-25]
	ldr	w8, [sp, #32]
	stur	w8, [x29, #-4]
Ltmp423:
	.loc	1 224 9 is_stmt 1
	b	LBB45_2
LBB45_2:
	ldr	w8, [sp, #32]
	subs	w8, w8, #0
	cset	x8, ne
	subs	x8, x8, #1
	b.ne	LBB45_4
	b	LBB45_3
LBB45_3:
	ldurb	w8, [x29, #-25]
	tbnz	w8, #0, LBB45_5
	b	LBB45_4
LBB45_4:
	.loc	1 0 9 is_stmt 0
	ldr	x9, [sp, #16]
	ldr	x8, [sp, #8]
	.loc	1 224 9
	sturb	wzr, [x29, #-25]
	.loc	1 226 35 is_stmt 1
	ldr	x8, [x8, #48]
	subs	x8, x8, x9
	str	x8, [sp]
	cset	w8, vs
	tbnz	w8, #0, LBB45_7
	b	LBB45_6
LBB45_5:
	.loc	1 224 9
	b	LBB45_4
LBB45_6:
	.loc	1 0 9 is_stmt 0
	ldr	x0, [sp, #8]
	ldr	x8, [sp]
	.loc	1 226 9 is_stmt 1
	str	x8, [x0, #56]
	.loc	1 227 9
	ldr	x1, [sp, #24]
	bl	__ZN84_$LT$rand_chacha..chacha..ChaCha12Core$u20$as$u20$rand_core..block..BlockRngCore$GT$8generate17h4ec65a216c4333c4E
Ltmp424:
	.cfi_def_cfa wsp, 80
	.loc	1 228 6 epilogue_begin
	ldp	x29, x30, [sp, #64]
	add	sp, sp, #80
	.cfi_def_cfa_offset 0
	.cfi_restore w30
	.cfi_restore w29
	ret
LBB45_7:
	.cfi_restore_state
Ltmp425:
	.loc	1 226 35
	adrp	x0, l_alloc_9cba3d2079b3eca5db2535852ec0ea6f@PAGE
	add	x0, x0, l_alloc_9cba3d2079b3eca5db2535852ec0ea6f@PAGEOFF
	bl	__ZN4core9panicking11panic_const24panic_const_sub_overflow17h8f97c6b3a4c962daE
Ltmp426:
Lfunc_end45:
	.cfi_endproc

	.globl	__ZN4rand5distr7integer109_$LT$impl$u20$rand..distr..distribution..Distribution$LT$u32$GT$$u20$for$u20$rand..distr..StandardUniform$GT$6sample17h46c43be9246f6d8bE
	.p2align	2
__ZN4rand5distr7integer109_$LT$impl$u20$rand..distr..distribution..Distribution$LT$u32$GT$$u20$for$u20$rand..distr..StandardUniform$GT$6sample17h46c43be9246f6d8bE:
Lfunc_begin46:
	.file	34 "/Users/np/.cargo/registry/src/index.crates.io-1949cf8c6b5b557f/rand-0.9.0/src/distr" "integer.rs"
	.loc	34 44 0
	.cfi_startproc
	sub	sp, sp, #80
	.cfi_def_cfa_offset 80
	stp	x29, x30, [sp, #64]
	add	x29, sp, #64
	.cfi_def_cfa w29, 16
	.cfi_offset w30, -8
	.cfi_offset w29, -16
	str	x0, [sp, #8]
	mov	x8, x1
	str	x8, [sp, #16]
	mov	x8, x1
	str	x8, [sp, #24]
	mov	x8, x1
	stur	x8, [x29, #-16]
Ltmp427:
	.loc	28 389 20 prologue_end
	ldr	x8, [x1]
Ltmp428:
	.file	35 "/rustc/4eb161250e340c8f48f66e2b929ef4a5bed7c181/library/alloc/src" "rc.rs"
	.loc	35 2248 9
	add	x0, x8, #16
	mov	x8, x0
	stur	x8, [x29, #-24]
Ltmp429:
	.file	36 "/Users/np/.cargo/registry/src/index.crates.io-1949cf8c6b5b557f/rand-0.9.0/src/rngs" "thread.rs"
	.loc	36 173 28
	mov	x8, x0
	str	x8, [sp, #32]
	mov	x8, x0
	stur	x8, [x29, #-8]
Ltmp430:
	.loc	1 114 9
	bl	__ZN74_$LT$rand_core..block..BlockRng$LT$R$GT$$u20$as$u20$rand_core..RngCore$GT$8next_u3217h4e8e58bf636ab8a9E
Ltmp431:
	.cfi_def_cfa wsp, 80
	.loc	34 46 6 epilogue_begin
	ldp	x29, x30, [sp, #64]
	add	sp, sp, #80
	.cfi_def_cfa_offset 0
	.cfi_restore w30
	.cfi_restore w29
	ret
Ltmp432:
Lfunc_end46:
	.cfi_endproc

	.globl	__ZN4rand5distr7integer109_$LT$impl$u20$rand..distr..distribution..Distribution$LT$u64$GT$$u20$for$u20$rand..distr..StandardUniform$GT$6sample17h3ca0b7062896ba53E
	.p2align	2
__ZN4rand5distr7integer109_$LT$impl$u20$rand..distr..distribution..Distribution$LT$u64$GT$$u20$for$u20$rand..distr..StandardUniform$GT$6sample17h3ca0b7062896ba53E:
Lfunc_begin47:
	.loc	34 51 0
	.cfi_startproc
	sub	sp, sp, #80
	.cfi_def_cfa_offset 80
	stp	x29, x30, [sp, #64]
	add	x29, sp, #64
	.cfi_def_cfa w29, 16
	.cfi_offset w30, -8
	.cfi_offset w29, -16
	str	x0, [sp, #8]
	mov	x8, x1
	str	x8, [sp, #16]
	mov	x8, x1
	str	x8, [sp, #24]
	mov	x8, x1
	stur	x8, [x29, #-16]
Ltmp433:
	.loc	28 389 20 prologue_end
	ldr	x8, [x1]
Ltmp434:
	.loc	35 2248 9
	add	x0, x8, #16
	mov	x8, x0
	stur	x8, [x29, #-24]
Ltmp435:
	.loc	36 181 28
	mov	x8, x0
	str	x8, [sp, #32]
	mov	x8, x0
	stur	x8, [x29, #-8]
Ltmp436:
	.loc	1 119 9
	bl	__ZN74_$LT$rand_core..block..BlockRng$LT$R$GT$$u20$as$u20$rand_core..RngCore$GT$8next_u6417h4d430803160e6722E
Ltmp437:
	.cfi_def_cfa wsp, 80
	.loc	34 53 6 epilogue_begin
	ldp	x29, x30, [sp, #64]
	add	sp, sp, #80
	.cfi_def_cfa_offset 0
	.cfi_restore w30
	.cfi_restore w29
	ret
Ltmp438:
Lfunc_end47:
	.cfi_endproc

	.globl	__ZN5alloc3vec16Vec$LT$T$C$A$GT$14extend_trusted17had4de16b00104ca9E
	.p2align	2
__ZN5alloc3vec16Vec$LT$T$C$A$GT$14extend_trusted17had4de16b00104ca9E:
Lfunc_begin48:
	.loc	12 3555 0
	.cfi_startproc
	.cfi_personality 155, _rust_eh_personality
	.cfi_lsda 16, Lexception10
	sub	sp, sp, #272
	.cfi_def_cfa_offset 272
	stp	x28, x27, [sp, #240]
	stp	x29, x30, [sp, #256]
	add	x29, sp, #256
	.cfi_def_cfa w29, 16
	.cfi_offset w30, -8
	.cfi_offset w29, -16
	.cfi_offset w27, -24
	.cfi_offset w28, -32
	.cfi_remember_state
	mov	x8, x0
	str	x8, [sp]
	str	x3, [sp, #8]
	add	x0, sp, #16
	str	w1, [sp, #16]
	str	w2, [sp, #20]
	stur	x8, [x29, #-112]
Ltmp448:
	.loc	12 3558 13 prologue_end
	sturb	wzr, [x29, #-97]
Ltmp449:
	.loc	10 600 9
	adrp	x8, l_alloc_f0c0bcdc51174ae2a47538e8553750ac@PAGE
	add	x8, x8, l_alloc_f0c0bcdc51174ae2a47538e8553750ac@PAGEOFF
	stur	x8, [x29, #-96]
Ltmp450:
	.loc	10 591 44
	adrp	x8, l_alloc_11d257f5ed6cc7fc38feaa801053bac6@PAGE
	add	x8, x8, l_alloc_11d257f5ed6cc7fc38feaa801053bac6@PAGEOFF
	stur	x8, [x29, #-88]
Ltmp451:
	.loc	12 3556 27
	mov	w8, #1
	sturb	w8, [x29, #-113]
Ltmp439:
	add	x8, sp, #40
	bl	__ZN4core4iter5range101_$LT$impl$u20$core..iter..traits..iterator..Iterator$u20$for$u20$core..ops..range..Range$LT$A$GT$$GT$9size_hint17hbf7455fe253fca91E
Ltmp440:
	b	LBB48_3
LBB48_1:
	.loc	12 3584 5
	ldurb	w8, [x29, #-113]
	tbnz	w8, #0, LBB48_10
	b	LBB48_9
LBB48_2:
Ltmp447:
	.loc	12 0 5 is_stmt 0
	stur	x0, [x29, #-80]
	mov	x8, x1
	stur	w8, [x29, #-72]
	b	LBB48_1
LBB48_3:
	.loc	12 3556 14 is_stmt 1
	ldr	x8, [sp, #40]
	stur	x8, [x29, #-64]
	.loc	12 3556 19 is_stmt 0
	ldr	x9, [sp, #48]
	ldr	x8, [sp, #56]
	str	x9, [sp, #24]
	str	x8, [sp, #32]
Ltmp452:
	.loc	12 3557 35 is_stmt 1
	ldr	x8, [sp, #24]
	.loc	12 3557 16 is_stmt 0
	subs	x8, x8, #1
	b.ne	LBB48_5
	b	LBB48_4
LBB48_4:
	.loc	12 0 16
	ldr	x2, [sp, #8]
	ldr	x0, [sp]
	.loc	12 3557 21
	ldr	x1, [sp, #32]
	stur	x1, [x29, #-56]
Ltmp443:
	.loc	12 3564 13 is_stmt 1
	bl	__ZN5alloc3vec16Vec$LT$T$C$A$GT$7reserve17h085673fb4ecb7096E
Ltmp444:
	b	LBB48_6
Ltmp453:
LBB48_5:
	.loc	12 0 13 is_stmt 0
	ldr	x1, [sp, #8]
	add	x0, sp, #88
Ltmp454:
	.loc	10 593 9 is_stmt 1
	adrp	x8, l_alloc_11d257f5ed6cc7fc38feaa801053bac6@PAGE
	add	x8, x8, l_alloc_11d257f5ed6cc7fc38feaa801053bac6@PAGEOFF
	str	x8, [sp, #88]
	mov	w8, #1
	str	x8, [sp, #96]
	adrp	x8, l___unnamed_1@PAGE
	adrp	x9, l___unnamed_1@PAGE
	add	x9, x9, l___unnamed_1@PAGEOFF
	ldr	x10, [x8, l___unnamed_1@PAGEOFF]
	mov	w8, #8
	ldr	x9, [x9, #8]
	str	x10, [sp, #120]
	str	x9, [sp, #128]
	str	x8, [sp, #104]
	str	xzr, [sp, #112]
Ltmp455:
Ltmp441:
	.loc	12 3582 13
	bl	__ZN4core9panicking9panic_fmt17ha0b5c5252c2f1706E
Ltmp442:
	b	LBB48_8
LBB48_6:
	.loc	12 0 13 is_stmt 0
	ldr	x8, [sp]
Ltmp456:
	.loc	11 506 9 is_stmt 1
	ldr	x10, [x8, #8]
Ltmp457:
	.loc	28 352 18
	stur	x10, [x29, #-48]
Ltmp458:
	.loc	12 3567 55
	add	x9, x8, #16
	mov	x11, x9
	stur	x11, [x29, #-40]
Ltmp459:
	.file	37 "/rustc/4eb161250e340c8f48f66e2b929ef4a5bed7c181/library/alloc/src/vec" "set_len_on_drop.rs"
	.loc	37 14 35
	ldr	x8, [x8, #16]
	.loc	37 14 9 is_stmt 0
	mov	x11, x9
	stur	x11, [x29, #-32]
	stur	x8, [x29, #-24]
Ltmp460:
	.loc	12 3568 17 is_stmt 1
	sturb	wzr, [x29, #-113]
	ldr	w0, [sp, #16]
	ldr	w1, [sp, #20]
	add	x2, sp, #64
	.loc	12 3568 35 is_stmt 0
	str	x10, [sp, #80]
	str	x9, [sp, #64]
	str	x8, [sp, #72]
Ltmp445:
	.loc	12 3568 17
	bl	__ZN4core4iter6traits8iterator8Iterator8for_each17hfde7f00c9f31ff7fE
Ltmp446:
	b	LBB48_7
Ltmp461:
LBB48_7:
	.cfi_def_cfa wsp, 272
	.loc	12 3584 6 epilogue_begin is_stmt 1
	ldp	x29, x30, [sp, #256]
	ldp	x28, x27, [sp, #240]
	add	sp, sp, #272
	.cfi_def_cfa_offset 0
	.cfi_restore w30
	.cfi_restore w29
	.cfi_restore w27
	.cfi_restore w28
	ret
LBB48_8:
	.cfi_restore_state
	.loc	12 0 6 is_stmt 0
	brk	#0x1
LBB48_9:
	.loc	12 3555 5 is_stmt 1
	ldur	x0, [x29, #-80]
	bl	__Unwind_Resume
LBB48_10:
	.loc	12 3584 5
	b	LBB48_9
Ltmp462:
Lfunc_end48:
	.cfi_endproc
	.section	__TEXT,__gcc_except_tab
	.p2align	2, 0x0
GCC_except_table48:
Lexception10:
	.byte	255
	.byte	255
	.byte	1
	.uleb128 Lcst_end10-Lcst_begin10
Lcst_begin10:
	.uleb128 Ltmp439-Lfunc_begin48
	.uleb128 Ltmp446-Ltmp439
	.uleb128 Ltmp447-Lfunc_begin48
	.byte	0
	.uleb128 Ltmp446-Lfunc_begin48
	.uleb128 Lfunc_end48-Ltmp446
	.byte	0
	.byte	0
Lcst_end10:
	.p2align	2, 0x0

	.section	__TEXT,__text,regular,pure_instructions
	.globl	__ZN5alloc3vec16Vec$LT$T$C$A$GT$14extend_trusted28_$u7b$$u7b$closure$u7d$$u7d$17hf8b41efeea9054eaE
	.p2align	2
__ZN5alloc3vec16Vec$LT$T$C$A$GT$14extend_trusted28_$u7b$$u7b$closure$u7d$$u7d$17hf8b41efeea9054eaE:
Lfunc_begin49:
	.loc	12 3568 0
	.cfi_startproc
	sub	sp, sp, #16
	.cfi_def_cfa_offset 16
	mov	x8, x0
	str	x8, [sp]
	str	w1, [sp, #12]
Ltmp464:
	.loc	12 3569 32 prologue_end
	ldr	x8, [x0, #16]
Ltmp465:
	.loc	37 24 9
	ldr	x9, [x0, #8]
Ltmp466:
	.loc	21 1587 9
	str	w1, [x8, x9, lsl #2]
Ltmp467:
	.loc	37 19 9
	ldr	x8, [x0, #8]
	add	x8, x8, #1
	str	x8, [x0, #8]
Ltmp468:
	.loc	12 3574 18 epilogue_begin
	add	sp, sp, #16
	.cfi_def_cfa_offset 0
	ret
Ltmp469:
Lfunc_end49:
	.cfi_endproc

	.globl	__ZN5alloc3vec16Vec$LT$T$C$A$GT$7reserve17h085673fb4ecb7096E
	.p2align	2
__ZN5alloc3vec16Vec$LT$T$C$A$GT$7reserve17h085673fb4ecb7096E:
Lfunc_begin50:
	.loc	12 1270 0
	.cfi_startproc
	sub	sp, sp, #144
	.cfi_def_cfa_offset 144
	stp	x29, x30, [sp, #128]
	add	x29, sp, #128
	.cfi_def_cfa w29, 16
	.cfi_offset w30, -8
	.cfi_offset w29, -16
	str	x0, [sp, #8]
	str	x1, [sp, #16]
	mov	x8, x0
	str	x8, [sp, #56]
	str	x1, [sp, #64]
Ltmp470:
	.loc	12 1271 9 prologue_end
	mov	x8, x0
	stur	x8, [x29, #-56]
	.loc	12 1271 26 is_stmt 0
	ldr	x8, [x0, #16]
	str	x8, [sp, #24]
	stur	x8, [x29, #-48]
Ltmp471:
	.loc	11 333 9 is_stmt 1
	stur	x0, [x29, #-40]
	mov	w8, #4
	.loc	11 333 20 is_stmt 0
	stur	x8, [x29, #-32]
	stur	x8, [x29, #-24]
	add	x9, sp, #32
Ltmp472:
	.loc	11 556 48 is_stmt 1
	str	x8, [sp, #32]
	str	x8, [sp, #40]
Ltmp473:
	.loc	11 621 36
	stur	x9, [x29, #-16]
Ltmp474:
	.file	38 "/rustc/4eb161250e340c8f48f66e2b929ef4a5bed7c181/library/core/src/alloc" "layout.rs"
	.loc	38 149 9
	stur	x8, [x29, #-8]
Ltmp475:
	.loc	11 511 12
	b	LBB50_1
LBB50_1:
	.loc	11 0 12 is_stmt 0
	ldr	x8, [sp, #8]
	.loc	11 511 49
	ldr	x8, [x8]
	str	x8, [sp, #48]
	.loc	11 511 9
	b	LBB50_2
Ltmp476:
LBB50_2:
	.loc	11 0 9
	ldr	x8, [sp, #16]
	ldr	x10, [sp, #24]
Ltmp477:
	.loc	5 1978 13 is_stmt 1
	ldr	x9, [sp, #48]
	subs	x9, x9, x10
Ltmp478:
	.loc	11 556 12
	subs	x8, x8, x9
	b.hi	LBB50_4
	b	LBB50_3
LBB50_3:
	.loc	11 556 9 is_stmt 0
	b	LBB50_5
LBB50_4:
	.loc	11 0 9
	ldr	x2, [sp, #16]
	ldr	x1, [sp, #24]
	ldr	x0, [sp, #8]
	mov	w8, #4
	mov	x4, x8
	.loc	11 557 13 is_stmt 1
	mov	x3, x4
	bl	__ZN5alloc7raw_vec20RawVecInner$LT$A$GT$7reserve21do_reserve_and_handle17hadf3a4060476aa80E
	b	LBB50_5
Ltmp479:
LBB50_5:
	.cfi_def_cfa wsp, 144
	.loc	12 1272 6 epilogue_begin
	ldp	x29, x30, [sp, #128]
	add	sp, sp, #144
	.cfi_def_cfa_offset 0
	.cfi_restore w30
	.cfi_restore w29
	ret
Ltmp480:
Lfunc_end50:
	.cfi_endproc

	.globl	__ZN5alloc3vec16Vec$LT$T$C$A$GT$8as_slice17hcb33d08f5541bd81E
	.p2align	2
__ZN5alloc3vec16Vec$LT$T$C$A$GT$8as_slice17hcb33d08f5541bd81E:
Lfunc_begin51:
	.loc	12 1560 0
	.cfi_startproc
	sub	sp, sp, #64
	.cfi_def_cfa_offset 64
	stp	x29, x30, [sp, #48]
	add	x29, sp, #48
	.cfi_def_cfa w29, 16
	.cfi_offset w30, -8
	.cfi_offset w29, -16
	mov	x8, x0
	str	x8, [sp, #24]
Ltmp481:
	.loc	11 506 9 prologue_end
	ldr	x8, [x0, #8]
	str	x8, [sp, #8]
Ltmp482:
	.loc	12 1670 9
	stur	x8, [x29, #-16]
Ltmp483:
	.loc	12 1574 55
	ldr	x8, [x0, #16]
	str	x8, [sp, #16]
	stur	x8, [x29, #-8]
Ltmp484:
	.loc	18 74 35
	b	LBB51_1
LBB51_1:
	.loc	18 0 35 is_stmt 0
	ldr	x3, [sp, #16]
	ldr	x0, [sp, #8]
	mov	w8, #4
	mov	x2, x8
	.loc	18 75 17 is_stmt 1
	mov	x1, x2
	bl	__ZN4core5slice3raw14from_raw_parts18precondition_check17h39b77ea8ca96e21dE
	.loc	18 74 13
	b	LBB51_2
Ltmp485:
LBB51_2:
	.loc	18 0 13 is_stmt 0
	ldr	x1, [sp, #16]
	ldr	x0, [sp, #8]
	.cfi_def_cfa wsp, 64
	.loc	12 1575 6 epilogue_begin is_stmt 1
	ldp	x29, x30, [sp, #48]
	add	sp, sp, #64
	.cfi_def_cfa_offset 0
	.cfi_restore w30
	.cfi_restore w29
	ret
Ltmp486:
Lfunc_end51:
	.cfi_endproc

	.globl	__ZN5alloc7raw_vec20RawVecInner$LT$A$GT$16with_capacity_in17ha2e49e9ad8404297E
	.p2align	2
__ZN5alloc7raw_vec20RawVecInner$LT$A$GT$16with_capacity_in17ha2e49e9ad8404297E:
Lfunc_begin52:
	.loc	11 419 0
	.cfi_startproc
	sub	sp, sp, #224
	.cfi_def_cfa_offset 224
	stp	x29, x30, [sp, #208]
	add	x29, sp, #208
	.cfi_def_cfa w29, 16
	.cfi_offset w30, -8
	.cfi_offset w29, -16
	str	x0, [sp, #16]
	str	x1, [sp, #24]
	mov	x8, x2
	ldr	x2, [sp, #24]
	str	x8, [sp, #32]
	mov	x1, x3
	ldr	x3, [sp, #32]
	str	x1, [sp, #40]
	stur	x0, [x29, #-96]
	stur	x2, [x29, #-80]
	stur	x3, [x29, #-72]
Ltmp487:
	.loc	11 620 29 prologue_end
	stur	xzr, [x29, #-64]
Ltmp488:
	.loc	5 1977 41
	stur	xzr, [x29, #-56]
	add	x8, sp, #48
	mov	w9, #0
Ltmp489:
	.loc	11 420 15
	and	w1, w9, #0x1
	bl	__ZN5alloc7raw_vec20RawVecInner$LT$A$GT$15try_allocate_in17hba33529122a3f65dE
	ldr	x8, [sp, #48]
	.loc	11 420 9 is_stmt 0
	cbnz	x8, LBB52_2
	b	LBB52_1
LBB52_1:
	.loc	11 0 9
	ldr	x8, [sp, #32]
	ldr	x10, [sp, #24]
	.loc	11 421 16 is_stmt 1
	ldr	x12, [sp, #56]
	ldr	x11, [sp, #64]
	add	x9, sp, #72
	str	x12, [sp, #72]
	str	x11, [sp, #80]
Ltmp490:
	.loc	11 424 45
	stur	x9, [x29, #-48]
	add	x9, sp, #88
	.loc	11 424 77 is_stmt 0
	str	x10, [sp, #88]
	str	x8, [sp, #96]
Ltmp491:
	.loc	11 621 36 is_stmt 1
	stur	x9, [x29, #-40]
Ltmp492:
	.loc	38 149 9
	stur	x8, [x29, #-32]
Ltmp493:
	.loc	11 511 12
	cbz	x8, LBB52_3
	b	LBB52_4
Ltmp494:
LBB52_2:
	.loc	11 0 12 is_stmt 0
	ldr	x2, [sp, #40]
	.loc	11 428 17 is_stmt 1
	ldr	x0, [sp, #56]
	ldr	x1, [sp, #64]
	stur	x0, [x29, #-16]
	stur	x1, [x29, #-8]
Ltmp495:
	.loc	11 428 25 is_stmt 0
	bl	__ZN5alloc7raw_vec12handle_error17h3a2b2a11ce049f14E
Ltmp496:
LBB52_3:
	.loc	11 511 29 is_stmt 1
	mov	x8, #-1
	str	x8, [sp, #104]
	.loc	11 511 9 is_stmt 0
	b	LBB52_5
LBB52_4:
	.loc	11 511 49
	ldr	x8, [sp, #72]
	str	x8, [sp, #104]
	.loc	11 511 9
	b	LBB52_5
Ltmp497:
LBB52_5:
	.loc	11 0 9
	ldr	x8, [sp, #16]
Ltmp498:
	.loc	5 1978 13 is_stmt 1
	ldr	x9, [sp, #104]
	subs	x9, x9, #0
Ltmp499:
	.loc	11 621 9
	subs	x8, x8, x9
	cset	w8, ls
	str	w8, [sp, #12]
Ltmp500:
	.loc	11 424 44
	sturb	w8, [x29, #-17]
Ltmp501:
	.loc	18 74 35
	b	LBB52_6
LBB52_6:
	.loc	18 0 35 is_stmt 0
	ldr	w0, [sp, #12]
	.loc	18 75 17 is_stmt 1
	bl	__ZN4core4hint16assert_unchecked18precondition_check17h0c8c6949fce235b5E
	b	LBB52_7
Ltmp502:
LBB52_7:
	.loc	11 426 17
	ldr	x0, [sp, #72]
	ldr	x1, [sp, #80]
Ltmp503:
	.cfi_def_cfa wsp, 224
	.loc	11 430 6 epilogue_begin
	ldp	x29, x30, [sp, #208]
	add	sp, sp, #224
	.cfi_def_cfa_offset 0
	.cfi_restore w30
	.cfi_restore w29
	ret
Ltmp504:
Lfunc_end52:
	.cfi_endproc

	.globl	__ZN63_$LT$$RF$mut$u20$T$u20$as$u20$core..convert..AsRef$LT$U$GT$$GT$6as_ref17h8a10da507e8438beE
	.p2align	2
__ZN63_$LT$$RF$mut$u20$T$u20$as$u20$core..convert..AsRef$LT$U$GT$$GT$6as_ref17h8a10da507e8438beE:
Lfunc_begin53:
	.file	39 "/rustc/4eb161250e340c8f48f66e2b929ef4a5bed7c181/library/core/src/convert" "mod.rs"
	.loc	39 715 0
	.cfi_startproc
	sub	sp, sp, #32
	.cfi_def_cfa_offset 32
	stp	x29, x30, [sp, #16]
	add	x29, sp, #16
	.cfi_def_cfa w29, 16
	.cfi_offset w30, -8
	.cfi_offset w29, -16
	mov	x8, x0
	str	x8, [sp, #8]
Ltmp505:
	.loc	39 716 33 prologue_end
	ldr	x0, [x0]
	.loc	39 716 9 is_stmt 0
	bl	__ZN97_$LT$rand_chacha..chacha..Array64$LT$T$GT$$u20$as$u20$core..convert..AsRef$LT$$u5b$T$u5d$$GT$$GT$6as_ref17h675649b1da53e1b8E
	.cfi_def_cfa wsp, 32
	.loc	39 717 6 epilogue_begin is_stmt 1
	ldp	x29, x30, [sp, #16]
	add	sp, sp, #32
	.cfi_def_cfa_offset 0
	.cfi_restore w30
	.cfi_restore w29
	ret
Ltmp506:
Lfunc_end53:
	.cfi_endproc

	.globl	__ZN63_$LT$$u5b$T$u5d$$u20$as$u20$rand..seq..slice..IndexedRandom$GT$3len17h9bfe6fd58f26f7faE
	.p2align	2
__ZN63_$LT$$u5b$T$u5d$$u20$as$u20$rand..seq..slice..IndexedRandom$GT$3len17h9bfe6fd58f26f7faE:
Lfunc_begin54:
	.loc	33 369 0
	.cfi_startproc
	sub	sp, sp, #16
	.cfi_def_cfa_offset 16
	mov	x8, x0
	mov	x0, x1
	str	x8, [sp]
	str	x0, [sp, #8]
Ltmp508:
	.loc	33 371 6 prologue_end epilogue_begin
	add	sp, sp, #16
	.cfi_def_cfa_offset 0
	ret
Ltmp509:
Lfunc_end54:
	.cfi_endproc

	.globl	__ZN63_$LT$I$u20$as$u20$core..iter..traits..collect..IntoIterator$GT$9into_iter17h9e4aa80abbf79d54E
	.p2align	2
__ZN63_$LT$I$u20$as$u20$core..iter..traits..collect..IntoIterator$GT$9into_iter17h9e4aa80abbf79d54E:
Lfunc_begin55:
	.file	40 "/rustc/4eb161250e340c8f48f66e2b929ef4a5bed7c181/library/core/src/iter/traits" "collect.rs"
	.loc	40 322 0
	.cfi_startproc
	mov	x9, x8
Ltmp510:
	.loc	40 323 9 prologue_end
	ldr	q0, [x0]
	str	q0, [x9]
	ldr	x8, [x0, #16]
	str	x8, [x9, #16]
	.loc	40 324 6
	ret
Ltmp511:
Lfunc_end55:
	.cfi_endproc

	.globl	__ZN63_$LT$I$u20$as$u20$core..iter..traits..collect..IntoIterator$GT$9into_iter17hd47abcfca4a34ba1E
	.p2align	2
__ZN63_$LT$I$u20$as$u20$core..iter..traits..collect..IntoIterator$GT$9into_iter17hd47abcfca4a34ba1E:
Lfunc_begin56:
	.loc	40 322 0
	.cfi_startproc
	sub	sp, sp, #16
	.cfi_def_cfa_offset 16
	str	w0, [sp, #8]
	str	w1, [sp, #12]
Ltmp513:
	.loc	40 324 6 prologue_end epilogue_begin
	add	sp, sp, #16
	.cfi_def_cfa_offset 0
	ret
Ltmp514:
Lfunc_end56:
	.cfi_endproc

	.p2align	2
__ZN64_$LT$rand..distr..uniform..Error$u20$as$u20$core..fmt..Debug$GT$3fmt17h73f804d86feb7c10E:
Lfunc_begin57:
	.loc	2 119 0
	.cfi_startproc
	sub	sp, sp, #64
	.cfi_def_cfa_offset 64
	stp	x29, x30, [sp, #48]
	add	x29, sp, #48
	.cfi_def_cfa w29, 16
	.cfi_offset w30, -8
	.cfi_offset w29, -16
	str	x1, [sp, #8]
	mov	x8, x0
	stur	x8, [x29, #-16]
	stur	x1, [x29, #-8]
Ltmp515:
	.loc	2 119 23 prologue_end
	ldrb	w8, [x0]
	tbnz	w8, #0, LBB57_2
	b	LBB57_1
LBB57_1:
	adrp	x8, l_alloc_469dc6e050263e96b5bbf6041562962d@PAGE
	add	x8, x8, l_alloc_469dc6e050263e96b5bbf6041562962d@PAGEOFF
	str	x8, [sp, #16]
	mov	w8, #10
	str	x8, [sp, #24]
	.loc	2 119 27 is_stmt 0
	b	LBB57_3
LBB57_2:
	.loc	2 119 23
	adrp	x8, l_alloc_e12739f6e50f2bfa7992d9688152e366@PAGE
	add	x8, x8, l_alloc_e12739f6e50f2bfa7992d9688152e366@PAGEOFF
	str	x8, [sp, #16]
	mov	w8, #9
	str	x8, [sp, #24]
	.loc	2 119 27
	b	LBB57_3
LBB57_3:
	.loc	2 0 27
	ldr	x0, [sp, #8]
	.loc	2 119 23
	ldr	x1, [sp, #16]
	ldr	x2, [sp, #24]
	bl	__ZN4core3fmt9Formatter9write_str17hfd0385b3b22db6b8E
	.cfi_def_cfa wsp, 64
	.loc	2 119 28 epilogue_begin
	ldp	x29, x30, [sp, #48]
	add	sp, sp, #64
	.cfi_def_cfa_offset 0
	.cfi_restore w30
	.cfi_restore w29
	ret
Ltmp516:
Lfunc_end57:
	.cfi_endproc

	.globl	__ZN70_$LT$alloc..vec..Vec$LT$T$C$A$GT$$u20$as$u20$core..ops..drop..Drop$GT$4drop17h1a8d59109d11c4ddE
	.p2align	2
__ZN70_$LT$alloc..vec..Vec$LT$T$C$A$GT$$u20$as$u20$core..ops..drop..Drop$GT$4drop17h1a8d59109d11c4ddE:
Lfunc_begin58:
	.loc	12 3774 0 is_stmt 1
	.cfi_startproc
	sub	sp, sp, #32
	.cfi_def_cfa_offset 32
	mov	x8, x0
	str	x8, [sp, #8]
Ltmp518:
	.loc	11 506 9 prologue_end
	ldr	x8, [x0, #8]
Ltmp519:
	.loc	28 352 18
	str	x8, [sp, #16]
Ltmp520:
	.loc	12 3779 81
	ldr	x8, [x0, #16]
	str	x8, [sp, #24]
	.loc	12 3782 6 epilogue_begin
	add	sp, sp, #32
	.cfi_def_cfa_offset 0
	ret
Ltmp521:
Lfunc_end58:
	.cfi_endproc

	.globl	__ZN72_$LT$alloc..vec..Vec$LT$T$C$A$GT$$u20$as$u20$core..ops..deref..Deref$GT$5deref17h82681a04b4f438faE
	.p2align	2
__ZN72_$LT$alloc..vec..Vec$LT$T$C$A$GT$$u20$as$u20$core..ops..deref..Deref$GT$5deref17h82681a04b4f438faE:
Lfunc_begin59:
	.loc	12 3268 0
	.cfi_startproc
	sub	sp, sp, #32
	.cfi_def_cfa_offset 32
	stp	x29, x30, [sp, #16]
	add	x29, sp, #16
	.cfi_def_cfa w29, 16
	.cfi_offset w30, -8
	.cfi_offset w29, -16
	mov	x8, x0
	str	x8, [sp, #8]
Ltmp522:
	.loc	12 3269 9 prologue_end
	bl	__ZN5alloc3vec16Vec$LT$T$C$A$GT$8as_slice17hcb33d08f5541bd81E
	.cfi_def_cfa wsp, 32
	.loc	12 3270 6 epilogue_begin
	ldp	x29, x30, [sp, #16]
	add	sp, sp, #32
	.cfi_def_cfa_offset 0
	.cfi_restore w30
	.cfi_restore w29
	ret
Ltmp523:
Lfunc_end59:
	.cfi_endproc

	.globl	__ZN74_$LT$rand_core..block..BlockRng$LT$R$GT$$u20$as$u20$rand_core..RngCore$GT$8next_u3217h4e8e58bf636ab8a9E
	.p2align	2
__ZN74_$LT$rand_core..block..BlockRng$LT$R$GT$$u20$as$u20$rand_core..RngCore$GT$8next_u3217h4e8e58bf636ab8a9E:
Lfunc_begin60:
	.file	41 "/Users/np/.cargo/registry/src/index.crates.io-1949cf8c6b5b557f/rand_core-0.9.3/src" "block.rs"
	.loc	41 186 0
	.cfi_startproc
	sub	sp, sp, #96
	.cfi_def_cfa_offset 96
	stp	x29, x30, [sp, #80]
	add	x29, sp, #80
	.cfi_def_cfa w29, 16
	.cfi_offset w30, -8
	.cfi_offset w29, -16
	.cfi_remember_state
	stur	x0, [x29, #-32]
	mov	x8, x0
	stur	x8, [x29, #-16]
Ltmp524:
	.loc	41 187 12 prologue_end
	ldr	x8, [x0, #320]
	stur	x8, [x29, #-24]
	.loc	41 187 26 is_stmt 0
	bl	__ZN97_$LT$rand_chacha..chacha..Array64$LT$T$GT$$u20$as$u20$core..convert..AsRef$LT$$u5b$T$u5d$$GT$$GT$6as_ref17h675649b1da53e1b8E
	ldur	x8, [x29, #-24]
	.loc	41 187 12
	subs	x8, x8, x1
	b.hs	LBB60_2
	b	LBB60_1
LBB60_1:
	.loc	41 0 12
	ldur	x0, [x29, #-32]
	.loc	41 191 21 is_stmt 1
	bl	__ZN97_$LT$rand_chacha..chacha..Array64$LT$T$GT$$u20$as$u20$core..convert..AsRef$LT$$u5b$T$u5d$$GT$$GT$6as_ref17h675649b1da53e1b8E
	ldur	x8, [x29, #-32]
	str	x0, [sp, #24]
	str	x1, [sp, #32]
	.loc	41 191 43 is_stmt 0
	ldr	x8, [x8, #320]
	str	x8, [sp, #40]
	.loc	41 191 21
	subs	x8, x8, x1
	b.lo	LBB60_3
	b	LBB60_4
LBB60_2:
	.loc	41 0 21
	ldur	x0, [x29, #-32]
	.loc	41 188 13 is_stmt 1
	mov	x1, #0
	bl	__ZN9rand_core5block17BlockRng$LT$R$GT$16generate_and_set17h3a65391a1e3418d3E
	b	LBB60_1
LBB60_3:
	.loc	41 0 13 is_stmt 0
	ldur	x8, [x29, #-32]
	ldr	x9, [sp, #24]
	ldr	x10, [sp, #40]
	.loc	41 191 21 is_stmt 1
	ldr	w9, [x9, x10, lsl #2]
	str	w9, [sp, #12]
	stur	w9, [x29, #-4]
Ltmp525:
	.loc	41 192 9
	ldr	x8, [x8, #320]
	adds	x8, x8, #1
	str	x8, [sp, #16]
	cset	w8, hs
	tbnz	w8, #0, LBB60_6
	b	LBB60_5
Ltmp526:
LBB60_4:
	.loc	41 0 9 is_stmt 0
	ldr	x1, [sp, #32]
	ldr	x0, [sp, #40]
	.loc	41 191 21 is_stmt 1
	adrp	x2, l_alloc_d58627c8b7d22ff445dfd075c0e26e70@PAGE
	add	x2, x2, l_alloc_d58627c8b7d22ff445dfd075c0e26e70@PAGEOFF
	bl	__ZN4core9panicking18panic_bounds_check17ha80623d135cf5628E
LBB60_5:
	.loc	41 0 21 is_stmt 0
	ldr	w0, [sp, #12]
	ldr	x8, [sp, #16]
	ldur	x9, [x29, #-32]
Ltmp527:
	.loc	41 192 9 is_stmt 1
	str	x8, [x9, #320]
Ltmp528:
	.cfi_def_cfa wsp, 96
	.loc	41 194 6 epilogue_begin
	ldp	x29, x30, [sp, #80]
	add	sp, sp, #96
	.cfi_def_cfa_offset 0
	.cfi_restore w30
	.cfi_restore w29
	ret
LBB60_6:
	.cfi_restore_state
Ltmp529:
	.loc	41 192 9
	adrp	x0, l_alloc_235f0e991384b252c512ec3728f3019f@PAGE
	add	x0, x0, l_alloc_235f0e991384b252c512ec3728f3019f@PAGEOFF
	bl	__ZN4core9panicking11panic_const24panic_const_add_overflow17h585c583b627172f8E
Ltmp530:
Lfunc_end60:
	.cfi_endproc

	.globl	__ZN74_$LT$rand_core..block..BlockRng$LT$R$GT$$u20$as$u20$rand_core..RngCore$GT$8next_u6417h4d430803160e6722E
	.p2align	2
__ZN74_$LT$rand_core..block..BlockRng$LT$R$GT$$u20$as$u20$rand_core..RngCore$GT$8next_u6417h4d430803160e6722E:
Lfunc_begin61:
	.loc	41 197 0
	.cfi_startproc
	sub	sp, sp, #224
	.cfi_def_cfa_offset 224
	stp	x29, x30, [sp, #208]
	add	x29, sp, #208
	.cfi_def_cfa w29, 16
	.cfi_offset w30, -8
	.cfi_offset w29, -16
	.cfi_remember_state
	str	x0, [sp, #56]
	mov	x8, x0
	stur	x8, [x29, #-56]
Ltmp531:
	.loc	41 203 19 prologue_end
	bl	__ZN97_$LT$rand_chacha..chacha..Array64$LT$T$GT$$u20$as$u20$core..convert..AsRef$LT$$u5b$T$u5d$$GT$$GT$6as_ref17h675649b1da53e1b8E
	ldr	x0, [sp, #56]
	str	x1, [sp, #64]
	stur	x1, [x29, #-40]
Ltmp532:
	.loc	41 205 21
	ldr	x8, [x0, #320]
	str	x8, [sp, #72]
	stur	x8, [x29, #-32]
Ltmp533:
	.loc	41 206 20
	subs	x8, x1, #1
	str	x8, [sp, #80]
	subs	x8, x1, #1
	b.lo	LBB61_2
	b	LBB61_1
LBB61_1:
	.loc	41 0 20 is_stmt 0
	ldr	x8, [sp, #72]
	ldr	x9, [sp, #80]
	.loc	41 206 12
	subs	x8, x8, x9
	b.lo	LBB61_4
	b	LBB61_3
LBB61_2:
	.loc	41 206 20
	adrp	x0, l_alloc_713d52eb880bae319ff4cbd7740a3e64@PAGE
	add	x0, x0, l_alloc_713d52eb880bae319ff4cbd7740a3e64@PAGEOFF
	bl	__ZN4core9panicking11panic_const24panic_const_sub_overflow17h8f97c6b3a4c962daE
LBB61_3:
	.loc	41 0 20
	ldr	x8, [sp, #72]
	ldr	x9, [sp, #64]
	.loc	41 210 19 is_stmt 1
	subs	x8, x8, x9
	b.hs	LBB61_6
	b	LBB61_5
LBB61_4:
	.loc	41 0 19 is_stmt 0
	ldr	x8, [sp, #56]
	.loc	41 207 13 is_stmt 1
	ldr	x8, [x8, #320]
	adds	x8, x8, #2
	str	x8, [sp, #48]
	cset	w8, hs
	tbnz	w8, #0, LBB61_15
	b	LBB61_14
LBB61_5:
	.loc	41 0 13 is_stmt 0
	ldr	x0, [sp, #56]
	.loc	41 214 31 is_stmt 1
	bl	__ZN97_$LT$rand_chacha..chacha..Array64$LT$T$GT$$u20$as$u20$core..convert..AsRef$LT$$u5b$T$u5d$$GT$$GT$6as_ref17h675649b1da53e1b8E
	ldr	x8, [sp, #64]
	str	x0, [sp, #24]
	str	x1, [sp, #32]
	.loc	41 214 53 is_stmt 0
	subs	x9, x8, #1
	str	x9, [sp, #40]
	subs	x8, x8, #1
	b.lo	LBB61_8
	b	LBB61_7
LBB61_6:
	.loc	41 0 53
	ldr	x0, [sp, #56]
	.loc	41 211 13 is_stmt 1
	mov	w8, #2
	mov	x1, x8
	bl	__ZN9rand_core5block17BlockRng$LT$R$GT$16generate_and_set17h3a65391a1e3418d3E
	ldr	x0, [sp, #56]
	.loc	41 212 22
	bl	__ZN97_$LT$rand_chacha..chacha..Array64$LT$T$GT$$u20$as$u20$core..convert..AsRef$LT$$u5b$T$u5d$$GT$$GT$6as_ref17h675649b1da53e1b8E
	.loc	41 212 13 is_stmt 0
	stur	x0, [x29, #-80]
	stur	x1, [x29, #-72]
	stur	xzr, [x29, #-64]
	ldur	x1, [x29, #-80]
	ldur	x2, [x29, #-72]
	ldur	x3, [x29, #-64]
	add	x0, sp, #103
	bl	__ZN74_$LT$rand_core..block..BlockRng$LT$R$GT$$u20$as$u20$rand_core..RngCore$GT$8next_u6428_$u7b$$u7b$closure$u7d$$u7d$17h6bdeabd06d0a9b48E
	str	x0, [sp, #88]
	b	LBB61_13
LBB61_7:
	.loc	41 0 13
	ldr	x8, [sp, #40]
	ldr	x9, [sp, #32]
	.loc	41 214 31 is_stmt 1
	subs	x8, x8, x9
	b.lo	LBB61_9
	b	LBB61_10
LBB61_8:
	.loc	41 214 53 is_stmt 0
	adrp	x0, l_alloc_455f58f4ff2dab1ddfa3112333b8a638@PAGE
	add	x0, x0, l_alloc_455f58f4ff2dab1ddfa3112333b8a638@PAGEOFF
	bl	__ZN4core9panicking11panic_const24panic_const_sub_overflow17h8f97c6b3a4c962daE
LBB61_9:
	.loc	41 0 53
	ldr	x0, [sp, #56]
	ldr	x8, [sp, #24]
	ldr	x9, [sp, #40]
	.loc	41 214 31
	ldr	w8, [x8, x9, lsl #2]
	str	x8, [sp]
	mov	x9, x8
	stur	w9, [x29, #-4]
	.loc	41 214 21
	stur	x8, [x29, #-24]
Ltmp534:
	.loc	41 215 13 is_stmt 1
	mov	w8, #1
	mov	x1, x8
	bl	__ZN9rand_core5block17BlockRng$LT$R$GT$16generate_and_set17h3a65391a1e3418d3E
	ldr	x0, [sp, #56]
	.loc	41 216 31
	bl	__ZN97_$LT$rand_chacha..chacha..Array64$LT$T$GT$$u20$as$u20$core..convert..AsRef$LT$$u5b$T$u5d$$GT$$GT$6as_ref17h675649b1da53e1b8E
	str	x0, [sp, #8]
	str	x1, [sp, #16]
	mov	x8, #0
	subs	x8, x8, x1
	b.lo	LBB61_11
	b	LBB61_12
Ltmp535:
LBB61_10:
	.loc	41 0 31 is_stmt 0
	ldr	x1, [sp, #32]
	ldr	x0, [sp, #40]
	.loc	41 214 31 is_stmt 1
	adrp	x2, l_alloc_3cc342ee88a539c975b102e7fa201c3d@PAGE
	add	x2, x2, l_alloc_3cc342ee88a539c975b102e7fa201c3d@PAGEOFF
	bl	__ZN4core9panicking18panic_bounds_check17ha80623d135cf5628E
LBB61_11:
	.loc	41 0 31 is_stmt 0
	ldr	x8, [sp]
	ldr	x9, [sp, #8]
Ltmp536:
	.loc	41 216 31 is_stmt 1
	ldr	w9, [x9]
	mov	x10, x9
	stur	w10, [x29, #-8]
	.loc	41 216 21 is_stmt 0
	stur	x9, [x29, #-16]
Ltmp537:
	.loc	41 217 13 is_stmt 1
	orr	x8, x8, x9, lsl #32
	str	x8, [sp, #88]
Ltmp538:
	.loc	41 210 16
	b	LBB61_13
LBB61_12:
	.loc	41 0 16 is_stmt 0
	ldr	x1, [sp, #16]
Ltmp539:
	.loc	41 216 31 is_stmt 1
	mov	x0, #0
	adrp	x2, l_alloc_4c3189bd1f5fdb237107f268c9262483@PAGE
	add	x2, x2, l_alloc_4c3189bd1f5fdb237107f268c9262483@PAGEOFF
	bl	__ZN4core9panicking18panic_bounds_check17ha80623d135cf5628E
Ltmp540:
LBB61_13:
	.loc	41 219 6
	ldr	x0, [sp, #88]
	.cfi_def_cfa wsp, 224
	.loc	41 219 6 epilogue_begin is_stmt 0
	ldp	x29, x30, [sp, #208]
	add	sp, sp, #224
	.cfi_def_cfa_offset 0
	.cfi_restore w30
	.cfi_restore w29
	ret
LBB61_14:
	.cfi_restore_state
	.loc	41 0 6
	ldr	x0, [sp, #56]
	ldr	x8, [sp, #48]
Ltmp541:
	.loc	41 207 13 is_stmt 1
	str	x8, [x0, #320]
	.loc	41 209 22
	bl	__ZN97_$LT$rand_chacha..chacha..Array64$LT$T$GT$$u20$as$u20$core..convert..AsRef$LT$$u5b$T$u5d$$GT$$GT$6as_ref17h675649b1da53e1b8E
	ldr	x8, [sp, #72]
	.loc	41 209 13 is_stmt 0
	str	x0, [sp, #104]
	str	x1, [sp, #112]
	str	x8, [sp, #120]
	ldr	x1, [sp, #104]
	ldr	x2, [sp, #112]
	ldr	x3, [sp, #120]
	add	x0, sp, #103
	bl	__ZN74_$LT$rand_core..block..BlockRng$LT$R$GT$$u20$as$u20$rand_core..RngCore$GT$8next_u6428_$u7b$$u7b$closure$u7d$$u7d$17h6bdeabd06d0a9b48E
	str	x0, [sp, #88]
	b	LBB61_13
LBB61_15:
	.loc	41 207 13 is_stmt 1
	adrp	x0, l_alloc_8211d49787e16b67f616bb6cd05c132c@PAGE
	add	x0, x0, l_alloc_8211d49787e16b67f616bb6cd05c132c@PAGEOFF
	bl	__ZN4core9panicking11panic_const24panic_const_add_overflow17h585c583b627172f8E
Ltmp542:
Lfunc_end61:
	.cfi_endproc

	.globl	__ZN74_$LT$rand_core..block..BlockRng$LT$R$GT$$u20$as$u20$rand_core..RngCore$GT$8next_u6428_$u7b$$u7b$closure$u7d$$u7d$17h6bdeabd06d0a9b48E
	.p2align	2
__ZN74_$LT$rand_core..block..BlockRng$LT$R$GT$$u20$as$u20$rand_core..RngCore$GT$8next_u6428_$u7b$$u7b$closure$u7d$$u7d$17h6bdeabd06d0a9b48E:
Lfunc_begin62:
	.loc	41 198 0
	.cfi_startproc
	sub	sp, sp, #176
	.cfi_def_cfa_offset 176
	stp	x29, x30, [sp, #160]
	add	x29, sp, #160
	.cfi_def_cfa w29, 16
	.cfi_offset w30, -8
	.cfi_offset w29, -16
	.cfi_remember_state
	str	x1, [sp, #32]
	str	x2, [sp, #40]
	str	x3, [sp, #48]
	stur	x0, [x29, #-72]
	stur	x1, [x29, #-64]
	stur	x2, [x29, #-56]
	stur	x3, [x29, #-48]
Ltmp543:
	.loc	41 199 41 prologue_end
	adds	x8, x3, #1
	str	x8, [sp, #56]
	cset	w8, hs
	tbnz	w8, #0, LBB62_2
	b	LBB62_1
LBB62_1:
	.loc	41 0 41 is_stmt 0
	ldr	x1, [sp, #56]
	ldr	x0, [sp, #48]
	add	x8, sp, #64
	str	x8, [sp, #8]
	.loc	41 199 33
	bl	__ZN4core3ops5range25RangeInclusive$LT$Idx$GT$3new17h33f417fc8905bda0E
	ldr	x0, [sp, #8]
	ldr	x1, [sp, #32]
	ldr	x2, [sp, #40]
	mov	x8, x1
	stur	x8, [x29, #-24]
	stur	x2, [x29, #-16]
Ltmp544:
	.loc	13 16 9 is_stmt 1
	adrp	x3, l_alloc_8df363046774bb3c05580f35679f3587@PAGE
	add	x3, x3, l_alloc_8df363046774bb3c05580f35679f3587@PAGEOFF
	bl	__ZN115_$LT$core..ops..range..RangeInclusive$LT$usize$GT$$u20$as$u20$core..slice..index..SliceIndex$LT$$u5b$T$u5d$$GT$$GT$5index17h3fd8cbf615145278E
	str	x0, [sp, #16]
	str	x1, [sp, #24]
Ltmp545:
	.loc	41 199 32
	stur	x0, [x29, #-40]
	stur	x1, [x29, #-32]
Ltmp546:
	.loc	41 200 24
	mov	w8, #1
	subs	x8, x8, x1
	b.lo	LBB62_3
	b	LBB62_4
Ltmp547:
LBB62_2:
	.loc	41 199 41
	adrp	x0, l_alloc_e6df7d8c54fa679e06696170aa0f7f59@PAGE
	add	x0, x0, l_alloc_e6df7d8c54fa679e06696170aa0f7f59@PAGEOFF
	bl	__ZN4core9panicking11panic_const24panic_const_add_overflow17h585c583b627172f8E
LBB62_3:
	.loc	41 0 41 is_stmt 0
	ldr	x9, [sp, #24]
	ldr	x8, [sp, #16]
Ltmp548:
	.loc	41 200 24 is_stmt 1
	ldr	w8, [x8, #4]
	str	x8, [sp]
	stur	w8, [x29, #-4]
	.loc	41 200 52 is_stmt 0
	mov	x8, #0
	subs	x8, x8, x9
	b.lo	LBB62_5
	b	LBB62_6
LBB62_4:
	.loc	41 0 52
	ldr	x1, [sp, #24]
	.loc	41 200 24
	mov	w8, #1
	mov	x0, x8
	adrp	x2, l_alloc_e5c5095d6ea4aded3dba75a8b19a51fe@PAGE
	add	x2, x2, l_alloc_e5c5095d6ea4aded3dba75a8b19a51fe@PAGEOFF
	bl	__ZN4core9panicking18panic_bounds_check17ha80623d135cf5628E
LBB62_5:
	.loc	41 0 24
	ldr	x9, [sp]
	ldr	x8, [sp, #16]
	.loc	41 200 52
	ldr	w8, [x8]
	mov	x10, x8
	stur	w10, [x29, #-8]
	.loc	41 200 13
	orr	x0, x8, x9, lsl #32
Ltmp549:
	.cfi_def_cfa wsp, 176
	.loc	41 201 10 epilogue_begin is_stmt 1
	ldp	x29, x30, [sp, #160]
	add	sp, sp, #176
	.cfi_def_cfa_offset 0
	.cfi_restore w30
	.cfi_restore w29
	ret
LBB62_6:
	.cfi_restore_state
	.loc	41 0 10 is_stmt 0
	ldr	x1, [sp, #24]
Ltmp550:
	.loc	41 200 52 is_stmt 1
	mov	x0, #0
	adrp	x2, l_alloc_1e801a89cb7cbe249384aab6cc3da5a5@PAGE
	add	x2, x2, l_alloc_1e801a89cb7cbe249384aab6cc3da5a5@PAGEOFF
	bl	__ZN4core9panicking18panic_bounds_check17ha80623d135cf5628E
Ltmp551:
Lfunc_end62:
	.cfi_endproc

	.globl	__ZN75_$LT$usize$u20$as$u20$core..slice..index..SliceIndex$LT$$u5b$T$u5d$$GT$$GT$5index17h324e077aac9c2bc2E
	.p2align	2
__ZN75_$LT$usize$u20$as$u20$core..slice..index..SliceIndex$LT$$u5b$T$u5d$$GT$$GT$5index17h324e077aac9c2bc2E:
Lfunc_begin63:
	.loc	13 272 0
	.cfi_startproc
	sub	sp, sp, #80
	.cfi_def_cfa_offset 80
	stp	x29, x30, [sp, #64]
	add	x29, sp, #64
	.cfi_def_cfa w29, 16
	.cfi_offset w30, -8
	.cfi_offset w29, -16
	.cfi_remember_state
	str	x0, [sp, #8]
	str	x1, [sp, #16]
	str	x2, [sp, #24]
	str	x3, [sp, #32]
	stur	x0, [x29, #-24]
	stur	x1, [x29, #-16]
	stur	x2, [x29, #-8]
Ltmp552:
	.loc	13 274 10 prologue_end
	subs	x8, x0, x2
	b.hs	LBB63_2
	b	LBB63_1
LBB63_1:
	.loc	13 0 10 is_stmt 0
	ldr	x8, [sp, #16]
	ldr	x9, [sp, #8]
	.loc	13 274 9
	add	x0, x8, x9, lsl #2
	.cfi_def_cfa wsp, 80
	.loc	13 275 6 epilogue_begin is_stmt 1
	ldp	x29, x30, [sp, #64]
	add	sp, sp, #80
	.cfi_def_cfa_offset 0
	.cfi_restore w30
	.cfi_restore w29
	ret
LBB63_2:
	.cfi_restore_state
	.loc	13 0 6 is_stmt 0
	ldr	x2, [sp, #32]
	ldr	x1, [sp, #24]
	ldr	x0, [sp, #8]
	.loc	13 274 10 is_stmt 1
	bl	__ZN4core9panicking18panic_bounds_check17ha80623d135cf5628E
Ltmp553:
Lfunc_end63:
	.cfi_endproc

	.globl	__ZN77_$LT$alloc..raw_vec..RawVec$LT$T$C$A$GT$$u20$as$u20$core..ops..drop..Drop$GT$4drop17he9ef99e55bed1912E
	.p2align	2
__ZN77_$LT$alloc..raw_vec..RawVec$LT$T$C$A$GT$$u20$as$u20$core..ops..drop..Drop$GT$4drop17he9ef99e55bed1912E:
Lfunc_begin64:
	.loc	11 402 0
	.cfi_startproc
	sub	sp, sp, #32
	.cfi_def_cfa_offset 32
	stp	x29, x30, [sp, #16]
	add	x29, sp, #16
	.cfi_def_cfa w29, 16
	.cfi_offset w30, -8
	.cfi_offset w29, -16
	mov	x8, x0
	str	x8, [sp, #8]
	mov	w8, #4
	mov	x2, x8
Ltmp554:
	.loc	11 404 18 prologue_end
	mov	x1, x2
	bl	__ZN5alloc7raw_vec20RawVecInner$LT$A$GT$10deallocate17h7b2eeac487f6d27aE
	.cfi_def_cfa wsp, 32
	.loc	11 405 6 epilogue_begin
	ldp	x29, x30, [sp, #16]
	add	sp, sp, #32
	.cfi_def_cfa_offset 0
	.cfi_restore w30
	.cfi_restore w29
	ret
Ltmp555:
Lfunc_end64:
	.cfi_endproc

	.p2align	2
__ZN83_$LT$alloc..vec..set_len_on_drop..SetLenOnDrop$u20$as$u20$core..ops..drop..Drop$GT$4drop17h9466639fa39497d9E:
Lfunc_begin65:
	.loc	37 30 0
	.cfi_startproc
	sub	sp, sp, #16
	.cfi_def_cfa_offset 16
	mov	x8, x0
	str	x8, [sp, #8]
Ltmp557:
	.loc	37 31 21 prologue_end
	ldr	x8, [x0, #8]
	.loc	37 31 9 is_stmt 0
	ldr	x9, [x0]
	str	x8, [x9]
	.loc	37 32 6 epilogue_begin is_stmt 1
	add	sp, sp, #16
	.cfi_def_cfa_offset 0
	ret
Ltmp558:
Lfunc_end65:
	.cfi_endproc

	.p2align	2
__ZN84_$LT$rand_chacha..chacha..ChaCha12Core$u20$as$u20$rand_core..block..BlockRngCore$GT$8generate17h4ec65a216c4333c4E:
Lfunc_begin66:
	.file	42 "/Users/np/.cargo/registry/src/index.crates.io-1949cf8c6b5b557f/rand_chacha-0.9.0/src" "chacha.rs"
	.loc	42 90 0
	.cfi_startproc
	.cfi_personality 155, _rust_eh_personality
	.cfi_lsda 16, Lexception11
	stp	x28, x27, [sp, #-32]!
	.cfi_def_cfa_offset 32
	stp	x29, x30, [sp, #16]
	add	x29, sp, #16
	.cfi_def_cfa w29, 16
	.cfi_offset w30, -8
	.cfi_offset w29, -16
	.cfi_offset w27, -24
	.cfi_offset w28, -32
	.cfi_remember_state
	sub	x9, sp, #10, lsl #12
LBB66_1:
	sub	sp, sp, #1, lsl #12
	str	xzr, [sp]
	cmp	sp, x9
	b.ne	LBB66_1
	sub	sp, sp, #3264
	str	xzr, [sp]
	add	x8, sp, #10, lsl #12
	add	x8, x8, #1760
	str	x8, [sp, #3328]
	add	x8, sp, #6, lsl #12
	add	x8, x8, #1744
	str	x8, [sp, #3336]
	add	x8, sp, #6, lsl #12
	add	x8, x8, #1487
	str	x8, [sp, #3344]
	add	x8, sp, #5, lsl #12
	add	x8, x8, #1472
	str	x8, [sp, #3352]
	add	x8, sp, #5, lsl #12
	add	x8, x8, #1215
	str	x8, [sp, #3360]
	add	x8, sp, #4, lsl #12
	add	x8, x8, #928
	str	x8, [sp, #3440]
	add	x8, sp, #4, lsl #12
	add	x8, x8, #655
	str	x8, [sp, #3368]
	add	x9, sp, #2, lsl #12
	add	x9, x9, #800
	str	x9, [sp, #3432]
	add	x8, sp, #2, lsl #12
	add	x8, x8, #460
	str	x8, [sp, #3376]
	add	x8, sp, #1, lsl #12
	add	x8, x8, #3764
	str	x8, [sp, #3384]
	add	x8, sp, #3584
	str	x8, [sp, #3408]
	str	x0, [sp, #3400]
	str	x1, [sp, #3392]
	mov	x10, x0
	str	x10, [sp, #3448]
	mov	x10, x1
	str	x10, [sp, #3456]
	mov	x10, x0
	str	x10, [sp, #3464]
	mov	w10, #6
	str	w10, [sp, #3476]
	mov	x11, x1
	str	x11, [sp, #3480]
	mov	x11, x0
	str	x11, [sp, #3488]
	str	w10, [sp, #3500]
	mov	x11, x1
	str	x11, [sp, #3504]
	mov	x11, x0
	str	x11, [sp, #3512]
	str	w10, [sp, #3524]
	mov	x11, x1
	str	x11, [sp, #3528]
	mov	x11, x0
	str	x11, [sp, #7832]
	str	w10, [sp, #7844]
	str	x1, [sp, #7848]
Ltmp1292:
	.file	43 "/Users/np/.cargo/registry/src/index.crates.io-1949cf8c6b5b557f/rand_chacha-0.9.0/src" "guts.rs"
	.loc	43 158 19 prologue_end
	mov	w10, #30821
	movk	w10, #24944, lsl #16
	str	w10, [sp, #3552]
	mov	w10, #25710
	movk	w10, #13088, lsl #16
	str	w10, [sp, #3556]
	mov	w10, #11570
	movk	w10, #31074, lsl #16
	str	w10, [sp, #3560]
	mov	w10, #25972
	movk	w10, #27424, lsl #16
	str	w10, [sp, #3564]
Ltmp1293:
	.file	44 "/Users/np/.cargo/registry/src/index.crates.io-1949cf8c6b5b557f/ppv-lite86-0.2.21/src" "generic.rs"
	.loc	44 656 9
	ldr	q0, [sp, #3552]
	str	q0, [sp, #3536]
Ltmp1294:
	.loc	43 159 22
	ldr	q0, [x0]
	str	q0, [x8]
Ltmp1295:
	.loc	44 499 14
	ldr	q0, [x8]
	str	q0, [x9, #4736]
	.loc	44 499 9 is_stmt 0
	ldr	q0, [x9, #4736]
	str	q0, [sp, #3568]
Ltmp1296:
	.loc	43 160 22 is_stmt 1
	ldr	q0, [x0, #16]
	str	q0, [x8, #32]
Ltmp1297:
	.loc	44 499 14
	ldr	q0, [x8, #32]
	str	q0, [x9, #4720]
	.loc	44 499 9 is_stmt 0
	ldr	q0, [x9, #4720]
	str	q0, [x8, #16]
Ltmp1298:
	.loc	43 162 38 is_stmt 1
	ldr	q0, [sp, #3536]
	add	x1, sp, #3952
	str	q0, [x8, #368]
	ldr	q0, [sp, #3536]
	str	q0, [x8, #384]
	ldr	q0, [sp, #3536]
	str	q0, [x8, #400]
	ldr	q0, [sp, #3536]
	str	q0, [x8, #416]
Ltmp1299:
	.file	45 "/Users/np/.cargo/registry/src/index.crates.io-1949cf8c6b5b557f/ppv-lite86-0.2.21/src" "soft.rs"
	.loc	45 400 9
	add	x0, sp, #3888
	mov	w8, #64
	mov	x2, x8
	str	x2, [sp, #3424]
	bl	_memcpy
	ldr	x8, [sp, #3408]
	ldr	x2, [sp, #3424]
Ltmp1300:
	.loc	43 163 38
	ldr	q0, [sp, #3568]
	add	x1, sp, #4080
	str	q0, [x8, #496]
	ldr	q0, [sp, #3568]
	str	q0, [x8, #512]
	ldr	q0, [sp, #3568]
	str	q0, [x8, #528]
	ldr	q0, [sp, #3568]
	str	q0, [x8, #544]
Ltmp1301:
	.loc	45 400 9
	add	x0, sp, #4016
	bl	_memcpy
	ldr	x8, [sp, #3408]
	ldr	x2, [sp, #3424]
Ltmp1302:
	.loc	43 164 38
	ldr	q0, [x8, #16]
	add	x1, sp, #1, lsl #12
	add	x1, x1, #112
	str	q0, [x8, #624]
	ldr	q0, [x8, #16]
	str	q0, [x8, #640]
	ldr	q0, [x8, #16]
	str	q0, [x8, #656]
	ldr	q0, [x8, #16]
	str	q0, [x8, #672]
Ltmp1303:
	.loc	45 400 9
	add	x0, sp, #1, lsl #12
	add	x0, x0, #48
	bl	_memcpy
	ldr	x0, [sp, #3400]
	ldr	x9, [sp, #3408]
	ldr	x2, [sp, #3424]
	ldr	x8, [sp, #3432]
Ltmp1304:
	.loc	43 165 21
	ldr	q0, [x0, #32]
	str	q0, [x9, #752]
Ltmp1305:
	.loc	43 144 27
	ldr	q0, [x9, #752]
	str	q0, [x8, #1456]
Ltmp1306:
	.loc	44 505 14
	ldr	q0, [x8, #1456]
	str	q0, [x8, #4784]
	.loc	44 505 9 is_stmt 0
	ldr	q0, [x8, #4784]
	str	q0, [x8, #928]
Ltmp1307:
	.loc	43 146 42 is_stmt 1
	str	xzr, [sp, #10080]
	str	xzr, [sp, #10088]
Ltmp1308:
	.loc	44 666 9
	ldr	q0, [x8, #1088]
	str	q0, [x8, #1072]
Ltmp1309:
	.loc	43 146 57
	mov	w9, #1
	str	x9, [sp, #10112]
	str	xzr, [sp, #10120]
Ltmp1310:
	.loc	44 666 9
	ldr	q0, [x8, #1120]
	str	q0, [x8, #1104]
Ltmp1311:
	.loc	43 146 72
	mov	w9, #2
	str	x9, [sp, #10144]
	str	xzr, [sp, #10152]
Ltmp1312:
	.loc	44 666 9
	ldr	q0, [x8, #1152]
	str	q0, [x8, #1136]
Ltmp1313:
	.loc	43 146 87
	mov	w9, #3
	str	x9, [sp, #10176]
	str	xzr, [sp, #10184]
Ltmp1314:
	.loc	44 666 9
	ldr	q0, [x8, #1184]
	str	q0, [x8, #1168]
Ltmp1315:
	.loc	43 146 35
	ldr	q0, [x8, #1072]
	add	x1, sp, #2, lsl #12
	add	x1, x1, #1808
	str	q0, [x8, #1008]
	ldr	q0, [x8, #1104]
	str	q0, [x8, #1024]
	ldr	q0, [x8, #1136]
	str	q0, [x8, #1040]
	ldr	q0, [x8, #1168]
	str	q0, [x8, #1056]
	add	x0, sp, #2, lsl #12
	add	x0, x0, #1744
	str	x0, [sp, #3416]
Ltmp1316:
	.loc	45 400 9
	bl	_memcpy
	ldr	x2, [sp, #3424]
	ldr	x8, [sp, #3432]
Ltmp1317:
	.loc	43 147 41
	ldr	q0, [x8, #928]
	add	x1, sp, #2, lsl #12
	add	x1, x1, #2192
	str	q0, [x8, #1392]
	ldr	q0, [x8, #928]
	str	q0, [x8, #1408]
	ldr	q0, [x8, #928]
	str	q0, [x8, #1424]
	ldr	q0, [x8, #928]
	str	q0, [x8, #1440]
	add	x0, sp, #2, lsl #12
	add	x0, x0, #2128
Ltmp1318:
	.loc	45 400 9
	bl	_memcpy
	ldr	x1, [sp, #3416]
	ldr	x2, [sp, #3424]
	add	x0, sp, #2, lsl #12
	add	x0, x0, #2272
Ltmp1319:
	.loc	43 147 14
	bl	_memcpy
	ldr	x8, [sp, #3432]
	ldr	x9, [sp, #3440]
Ltmp1320:
	.loc	45 247 21
	ldr	q0, [x8, #1328]
	str	q0, [x9, #320]
	.loc	45 247 35 is_stmt 0
	ldr	q0, [x8, #1472]
	str	q0, [x9, #304]
Ltmp1321:
	.loc	44 530 9 is_stmt 1
	ldr	q0, [x9, #320]
	add	x0, sp, #4, lsl #12
	add	x0, x0, #1216
	str	q0, [x9, #288]
	ldr	q0, [x9, #304]
	str	q0, [x9, #336]
Ltmp1322:
	.loc	44 153 9
	strb	wzr, [x9, #495]
	mov	w8, #1
	strb	w8, [x9, #495]
Ltmp559:
	.loc	44 153 29 is_stmt 0
	add	x8, sp, #4, lsl #12
	add	x8, x8, #1296
	adrp	x1, l_alloc_8993d95a2b5eb1e10afdc3dee81c8c60@PAGE
	add	x1, x1, l_alloc_8993d95a2b5eb1e10afdc3dee81c8c60@PAGEOFF
	bl	__ZN50_$LT$T$u20$as$u20$core..convert..Into$LT$U$GT$$GT$4into17h6b95e28156015536E
Ltmp560:
	b	LBB66_4
LBB66_3:
Ltmp567:
	.loc	44 0 29
	ldr	x8, [sp, #3440]
	str	x0, [sp, #17808]
	mov	x9, x1
	add	x10, sp, #1436
	str	w9, [x10, #16380]
	.loc	44 161 1 is_stmt 1
	ldrb	w8, [x8, #495]
	tbnz	w8, #0, LBB66_8
	b	LBB66_7
LBB66_4:
	.loc	44 0 1 is_stmt 0
	ldr	x8, [sp, #3440]
Ltmp1323:
	.loc	44 154 29 is_stmt 1
	strb	wzr, [x8, #495]
	ldr	q0, [x8, #336]
	add	x0, sp, #4, lsl #12
	add	x0, x0, #1328
	str	q0, [x8, #400]
Ltmp561:
	add	x8, sp, #4, lsl #12
	add	x8, x8, #1312
	adrp	x1, l_alloc_77ee8835248a1929d048736225bc495f@PAGE
	add	x1, x1, l_alloc_77ee8835248a1929d048736225bc495f@PAGEOFF
	bl	__ZN50_$LT$T$u20$as$u20$core..convert..Into$LT$U$GT$$GT$4into17h6b95e28156015536E
Ltmp562:
	b	LBB66_5
LBB66_5:
	.loc	44 0 29 is_stmt 0
	ldr	x8, [sp, #3440]
Ltmp1324:
	.loc	44 155 23 is_stmt 1
	ldr	q0, [x8, #368]
	str	q0, [x8, #416]
Ltmp1325:
	.loc	44 156 23
	ldr	q0, [x8, #384]
	str	q0, [x8, #432]
Ltmp1326:
	.loc	44 158 15
	ldr	x1, [sp, #17728]
	.loc	44 158 22 is_stmt 0
	ldr	x2, [sp, #17744]
Ltmp563:
	.loc	44 158 13
	add	x0, sp, #4, lsl #12
	add	x0, x0, #1295
	bl	__ZN76_$LT$ppv_lite86..generic..u64x2_generic$u20$as$u20$core..ops..arith..Add$GT$3add28_$u7b$$u7b$closure$u7d$$u7d$17he66a94d667fbedf0E
	str	x0, [sp, #3320]
Ltmp564:
	b	LBB66_6
LBB66_6:
	.loc	44 158 32
	ldr	x1, [sp, #17736]
	.loc	44 158 39
	ldr	x2, [sp, #17752]
Ltmp565:
	.loc	44 158 30
	add	x0, sp, #4, lsl #12
	add	x0, x0, #1295
	bl	__ZN76_$LT$ppv_lite86..generic..u64x2_generic$u20$as$u20$core..ops..arith..Add$GT$3add28_$u7b$$u7b$closure$u7d$$u7d$17he66a94d667fbedf0E
	str	x0, [sp, #3312]
Ltmp566:
	b	LBB66_9
Ltmp1327:
LBB66_7:
	.loc	44 148 1 is_stmt 1
	ldr	x8, [sp, #17808]
	str	x8, [sp, #3304]
	b	LBB66_651
LBB66_8:
	.loc	44 161 1
	b	LBB66_7
LBB66_9:
	.loc	44 0 1 is_stmt 0
	ldr	x9, [sp, #3440]
	ldr	x8, [sp, #3432]
	ldr	x10, [sp, #3312]
	ldr	x11, [sp, #3320]
Ltmp1328:
	.loc	44 158 12 is_stmt 1
	str	x11, [sp, #17784]
	str	x10, [sp, #17792]
	.loc	44 157 13
	add	x10, sp, #4, lsl #12
	add	x10, x10, #1145
	ldur	q0, [x10, #255]
	str	q0, [x9, #448]
Ltmp1329:
	.loc	44 160 14
	ldr	q0, [x9, #448]
	str	q0, [x9, #512]
Ltmp1330:
	.loc	44 505 14
	ldr	q0, [x9, #512]
	str	q0, [x9, #528]
	.loc	44 505 9 is_stmt 0
	ldr	q0, [x9, #528]
	str	q0, [x8, #5584]
Ltmp1331:
	.loc	45 248 21 is_stmt 1
	ldr	q0, [x8, #1344]
	str	q0, [x9, #64]
	.loc	45 248 35 is_stmt 0
	ldr	q0, [x8, #1488]
	str	q0, [x9, #48]
Ltmp1332:
	.loc	44 530 9 is_stmt 1
	ldr	q0, [x9, #64]
	add	x0, sp, #4, lsl #12
	add	x0, x0, #960
	str	q0, [x9, #32]
	ldr	q0, [x9, #48]
	str	q0, [x9, #80]
Ltmp1333:
	.loc	44 153 9
	strb	wzr, [x9, #239]
	mov	w8, #1
	strb	w8, [x9, #239]
Ltmp568:
	.loc	44 153 29 is_stmt 0
	add	x8, sp, #4, lsl #12
	add	x8, x8, #1040
	adrp	x1, l_alloc_8993d95a2b5eb1e10afdc3dee81c8c60@PAGE
	add	x1, x1, l_alloc_8993d95a2b5eb1e10afdc3dee81c8c60@PAGEOFF
	bl	__ZN50_$LT$T$u20$as$u20$core..convert..Into$LT$U$GT$$GT$4into17h6b95e28156015536E
Ltmp569:
	b	LBB66_11
LBB66_10:
Ltmp576:
	.loc	44 0 29
	ldr	x8, [sp, #3440]
	str	x0, [sp, #17552]
	mov	x9, x1
	add	x10, sp, #1180
	str	w9, [x10, #16380]
	.loc	44 161 1 is_stmt 1
	ldrb	w8, [x8, #239]
	tbnz	w8, #0, LBB66_15
	b	LBB66_14
LBB66_11:
	.loc	44 0 1 is_stmt 0
	ldr	x8, [sp, #3440]
Ltmp1334:
	.loc	44 154 29 is_stmt 1
	strb	wzr, [x8, #239]
	ldr	q0, [x8, #80]
	add	x0, sp, #4, lsl #12
	add	x0, x0, #1072
	str	q0, [x8, #144]
Ltmp570:
	add	x8, sp, #4, lsl #12
	add	x8, x8, #1056
	adrp	x1, l_alloc_77ee8835248a1929d048736225bc495f@PAGE
	add	x1, x1, l_alloc_77ee8835248a1929d048736225bc495f@PAGEOFF
	bl	__ZN50_$LT$T$u20$as$u20$core..convert..Into$LT$U$GT$$GT$4into17h6b95e28156015536E
Ltmp571:
	b	LBB66_12
LBB66_12:
	.loc	44 0 29 is_stmt 0
	ldr	x8, [sp, #3440]
Ltmp1335:
	.loc	44 155 23 is_stmt 1
	ldr	q0, [x8, #112]
	str	q0, [x8, #160]
Ltmp1336:
	.loc	44 156 23
	ldr	q0, [x8, #128]
	str	q0, [x8, #176]
Ltmp1337:
	.loc	44 158 15
	ldr	x1, [sp, #17472]
	.loc	44 158 22 is_stmt 0
	ldr	x2, [sp, #17488]
Ltmp572:
	.loc	44 158 13
	add	x0, sp, #4, lsl #12
	add	x0, x0, #1039
	bl	__ZN76_$LT$ppv_lite86..generic..u64x2_generic$u20$as$u20$core..ops..arith..Add$GT$3add28_$u7b$$u7b$closure$u7d$$u7d$17he66a94d667fbedf0E
	str	x0, [sp, #3296]
Ltmp573:
	b	LBB66_13
LBB66_13:
	.loc	44 158 32
	ldr	x1, [sp, #17480]
	.loc	44 158 39
	ldr	x2, [sp, #17496]
Ltmp574:
	.loc	44 158 30
	add	x0, sp, #4, lsl #12
	add	x0, x0, #1039
	bl	__ZN76_$LT$ppv_lite86..generic..u64x2_generic$u20$as$u20$core..ops..arith..Add$GT$3add28_$u7b$$u7b$closure$u7d$$u7d$17he66a94d667fbedf0E
	str	x0, [sp, #3288]
Ltmp575:
	b	LBB66_16
Ltmp1338:
LBB66_14:
	.loc	44 148 1 is_stmt 1
	ldr	x8, [sp, #17552]
	str	x8, [sp, #3272]
	add	x8, sp, #1180
	ldr	w8, [x8, #16380]
	str	w8, [sp, #3284]
	b	LBB66_18
LBB66_15:
	.loc	44 161 1
	b	LBB66_14
LBB66_16:
	.loc	44 0 1 is_stmt 0
	ldr	x8, [sp, #3432]
	ldr	x9, [sp, #3440]
	ldr	x10, [sp, #3288]
	ldr	x11, [sp, #3296]
Ltmp1339:
	.loc	44 158 12 is_stmt 1
	str	x11, [sp, #17528]
	str	x10, [sp, #17536]
	.loc	44 157 13
	add	x10, sp, #4, lsl #12
	add	x10, x10, #889
	ldur	q0, [x10, #255]
	str	q0, [x9, #192]
Ltmp1340:
	.loc	44 160 14
	ldr	q0, [x9, #192]
	str	q0, [x9, #256]
Ltmp1341:
	.loc	44 505 14
	ldr	q0, [x9, #256]
	str	q0, [x9, #272]
	.loc	44 505 9 is_stmt 0
	ldr	q0, [x9, #272]
	str	q0, [x8, #5600]
Ltmp1342:
	.loc	44 531 6 is_stmt 1
	b	LBB66_19
Ltmp1343:
LBB66_17:
	.loc	45 245 13
	ldr	x8, [sp, #14640]
	str	x8, [sp, #3304]
	b	LBB66_651
LBB66_18:
	.loc	45 0 13 is_stmt 0
	ldr	w8, [sp, #3284]
	ldr	x9, [sp, #3272]
	str	x9, [sp, #14640]
	str	w8, [sp, #14648]
	b	LBB66_17
LBB66_19:
	ldr	x9, [sp, #3368]
	ldr	x8, [sp, #3432]
	.loc	45 249 21 is_stmt 1
	ldr	q0, [x8, #1360]
	stur	q0, [x9, #81]
	.loc	45 249 35 is_stmt 0
	ldr	q0, [x8, #1504]
	stur	q0, [x9, #65]
Ltmp1344:
	.loc	44 530 9 is_stmt 1
	ldur	q0, [x9, #81]
	add	x0, sp, #4, lsl #12
	add	x0, x0, #704
	stur	q0, [x9, #49]
	ldur	q0, [x9, #65]
	stur	q0, [x9, #97]
Ltmp1345:
	.loc	44 153 9
	strb	wzr, [x9, #256]
	mov	w8, #1
	strb	w8, [x9, #256]
Ltmp577:
	.loc	44 153 29 is_stmt 0
	add	x8, sp, #4, lsl #12
	add	x8, x8, #784
	adrp	x1, l_alloc_8993d95a2b5eb1e10afdc3dee81c8c60@PAGE
	add	x1, x1, l_alloc_8993d95a2b5eb1e10afdc3dee81c8c60@PAGEOFF
	bl	__ZN50_$LT$T$u20$as$u20$core..convert..Into$LT$U$GT$$GT$4into17h6b95e28156015536E
Ltmp578:
	b	LBB66_21
LBB66_20:
Ltmp585:
	.loc	44 0 29
	ldr	x8, [sp, #3368]
	str	x0, [sp, #17296]
	mov	x9, x1
	add	x10, sp, #924
	str	w9, [x10, #16380]
	.loc	44 161 1 is_stmt 1
	ldrb	w8, [x8, #256]
	tbnz	w8, #0, LBB66_25
	b	LBB66_24
LBB66_21:
	.loc	44 0 1 is_stmt 0
	ldr	x8, [sp, #3368]
Ltmp1346:
	.loc	44 154 29 is_stmt 1
	strb	wzr, [x8, #256]
	ldur	q0, [x8, #97]
	add	x0, sp, #4, lsl #12
	add	x0, x0, #816
	stur	q0, [x8, #161]
Ltmp579:
	add	x8, sp, #4, lsl #12
	add	x8, x8, #800
	adrp	x1, l_alloc_77ee8835248a1929d048736225bc495f@PAGE
	add	x1, x1, l_alloc_77ee8835248a1929d048736225bc495f@PAGEOFF
	bl	__ZN50_$LT$T$u20$as$u20$core..convert..Into$LT$U$GT$$GT$4into17h6b95e28156015536E
Ltmp580:
	b	LBB66_22
LBB66_22:
	.loc	44 0 29 is_stmt 0
	ldr	x8, [sp, #3368]
Ltmp1347:
	.loc	44 155 23 is_stmt 1
	ldur	q0, [x8, #129]
	stur	q0, [x8, #177]
Ltmp1348:
	.loc	44 156 23
	ldur	q0, [x8, #145]
	stur	q0, [x8, #193]
Ltmp1349:
	.loc	44 158 15
	ldr	x1, [sp, #17216]
	.loc	44 158 22 is_stmt 0
	ldr	x2, [sp, #17232]
Ltmp581:
	.loc	44 158 13
	add	x0, sp, #4, lsl #12
	add	x0, x0, #783
	bl	__ZN76_$LT$ppv_lite86..generic..u64x2_generic$u20$as$u20$core..ops..arith..Add$GT$3add28_$u7b$$u7b$closure$u7d$$u7d$17he66a94d667fbedf0E
	str	x0, [sp, #3264]
Ltmp582:
	b	LBB66_23
LBB66_23:
	.loc	44 158 32
	ldr	x1, [sp, #17224]
	.loc	44 158 39
	ldr	x2, [sp, #17240]
Ltmp583:
	.loc	44 158 30
	add	x0, sp, #4, lsl #12
	add	x0, x0, #783
	bl	__ZN76_$LT$ppv_lite86..generic..u64x2_generic$u20$as$u20$core..ops..arith..Add$GT$3add28_$u7b$$u7b$closure$u7d$$u7d$17he66a94d667fbedf0E
	str	x0, [sp, #3256]
Ltmp584:
	b	LBB66_26
Ltmp1350:
LBB66_24:
	.loc	44 148 1 is_stmt 1
	ldr	x8, [sp, #17296]
	str	x8, [sp, #3240]
	add	x8, sp, #924
	ldr	w8, [x8, #16380]
	str	w8, [sp, #3252]
	b	LBB66_28
LBB66_25:
	.loc	44 161 1
	b	LBB66_24
LBB66_26:
	.loc	44 0 1 is_stmt 0
	ldr	x8, [sp, #3432]
	ldr	x9, [sp, #3440]
	ldr	x10, [sp, #3368]
	ldr	x11, [sp, #3256]
	ldr	x12, [sp, #3264]
Ltmp1351:
	.loc	44 158 12 is_stmt 1
	str	x12, [sp, #17272]
	str	x11, [sp, #17280]
	.loc	44 157 13
	add	x11, sp, #4, lsl #12
	add	x11, x11, #633
	ldur	q0, [x11, #255]
	stur	q0, [x10, #209]
Ltmp1352:
	.loc	44 160 14
	ldur	q0, [x10, #209]
	str	q0, [x9]
Ltmp1353:
	.loc	44 505 14
	ldr	q0, [x9]
	str	q0, [x9, #16]
	.loc	44 505 9 is_stmt 0
	ldr	q0, [x9, #16]
	str	q0, [x8, #5616]
Ltmp1354:
	.loc	44 531 6 is_stmt 1
	b	LBB66_29
Ltmp1355:
LBB66_27:
	.loc	45 251 17
	b	LBB66_17
LBB66_28:
	.loc	45 0 17 is_stmt 0
	ldr	w8, [sp, #3252]
	ldr	x9, [sp, #3240]
	str	x9, [sp, #14640]
	str	w8, [sp, #14648]
	b	LBB66_27
LBB66_29:
	ldr	x9, [sp, #3368]
	ldr	x8, [sp, #3432]
	.loc	45 250 21 is_stmt 1
	ldr	q0, [x8, #1376]
	str	q0, [x8, #7872]
	.loc	45 250 35 is_stmt 0
	ldr	q0, [x8, #1520]
	str	q0, [x8, #7856]
Ltmp1356:
	.loc	44 530 9 is_stmt 1
	ldr	q0, [x8, #7872]
	add	x0, sp, #4, lsl #12
	add	x0, x0, #448
	str	q0, [x8, #7840]
	ldr	q0, [x8, #7856]
	str	q0, [x8, #7888]
Ltmp1357:
	.loc	44 153 9
	strb	wzr, [x9]
	mov	w8, #1
	strb	w8, [x9]
Ltmp586:
	.loc	44 153 29 is_stmt 0
	add	x8, sp, #4, lsl #12
	add	x8, x8, #528
	adrp	x1, l_alloc_8993d95a2b5eb1e10afdc3dee81c8c60@PAGE
	add	x1, x1, l_alloc_8993d95a2b5eb1e10afdc3dee81c8c60@PAGEOFF
	bl	__ZN50_$LT$T$u20$as$u20$core..convert..Into$LT$U$GT$$GT$4into17h6b95e28156015536E
Ltmp587:
	b	LBB66_31
LBB66_30:
Ltmp594:
	.loc	44 0 29
	ldr	x8, [sp, #3368]
	str	x0, [sp, #17040]
	mov	x9, x1
	add	x10, sp, #668
	str	w9, [x10, #16380]
	.loc	44 161 1 is_stmt 1
	ldrb	w8, [x8]
	tbnz	w8, #0, LBB66_35
	b	LBB66_34
LBB66_31:
	.loc	44 0 1 is_stmt 0
	ldr	x8, [sp, #3432]
	ldr	x9, [sp, #3368]
Ltmp1358:
	.loc	44 154 29 is_stmt 1
	strb	wzr, [x9]
	ldr	q0, [x8, #7888]
	add	x0, sp, #4, lsl #12
	add	x0, x0, #560
	str	q0, [x8, #7952]
Ltmp588:
	add	x8, sp, #4, lsl #12
	add	x8, x8, #544
	adrp	x1, l_alloc_77ee8835248a1929d048736225bc495f@PAGE
	add	x1, x1, l_alloc_77ee8835248a1929d048736225bc495f@PAGEOFF
	bl	__ZN50_$LT$T$u20$as$u20$core..convert..Into$LT$U$GT$$GT$4into17h6b95e28156015536E
Ltmp589:
	b	LBB66_32
LBB66_32:
	.loc	44 0 29 is_stmt 0
	ldr	x8, [sp, #3432]
Ltmp1359:
	.loc	44 155 23 is_stmt 1
	ldr	q0, [x8, #7920]
	str	q0, [x8, #7968]
Ltmp1360:
	.loc	44 156 23
	ldr	q0, [x8, #7936]
	str	q0, [x8, #7984]
Ltmp1361:
	.loc	44 158 15
	ldr	x1, [sp, #16960]
	.loc	44 158 22 is_stmt 0
	ldr	x2, [sp, #16976]
Ltmp590:
	.loc	44 158 13
	add	x0, sp, #4, lsl #12
	add	x0, x0, #527
	bl	__ZN76_$LT$ppv_lite86..generic..u64x2_generic$u20$as$u20$core..ops..arith..Add$GT$3add28_$u7b$$u7b$closure$u7d$$u7d$17he66a94d667fbedf0E
	str	x0, [sp, #3232]
Ltmp591:
	b	LBB66_33
LBB66_33:
	.loc	44 158 32
	ldr	x1, [sp, #16968]
	.loc	44 158 39
	ldr	x2, [sp, #16984]
Ltmp592:
	.loc	44 158 30
	add	x0, sp, #4, lsl #12
	add	x0, x0, #527
	bl	__ZN76_$LT$ppv_lite86..generic..u64x2_generic$u20$as$u20$core..ops..arith..Add$GT$3add28_$u7b$$u7b$closure$u7d$$u7d$17he66a94d667fbedf0E
	str	x0, [sp, #3224]
Ltmp593:
	b	LBB66_36
Ltmp1362:
LBB66_34:
	.loc	44 148 1 is_stmt 1
	ldr	x8, [sp, #17040]
	str	x8, [sp, #3208]
	add	x8, sp, #668
	ldr	w8, [x8, #16380]
	str	w8, [sp, #3220]
	b	LBB66_37
LBB66_35:
	.loc	44 161 1
	b	LBB66_34
LBB66_36:
	.loc	44 0 1 is_stmt 0
	ldr	x8, [sp, #3432]
	ldr	x9, [sp, #3368]
	ldr	x10, [sp, #3224]
	ldr	x11, [sp, #3232]
Ltmp1363:
	.loc	44 158 12 is_stmt 1
	str	x11, [sp, #17016]
	str	x10, [sp, #17024]
	.loc	44 157 13
	add	x10, sp, #4, lsl #12
	add	x10, x10, #377
	ldur	q0, [x10, #255]
	str	q0, [x8, #8000]
Ltmp1364:
	.loc	44 160 14
	ldr	q0, [x8, #8000]
	stur	q0, [x9, #17]
Ltmp1365:
	.loc	44 505 14
	ldur	q0, [x9, #17]
	stur	q0, [x9, #33]
	.loc	44 505 9 is_stmt 0
	ldur	q0, [x9, #33]
	str	q0, [x8, #5632]
Ltmp1366:
	.loc	44 531 6 is_stmt 1
	b	LBB66_38
Ltmp1367:
LBB66_37:
	.loc	44 0 6 is_stmt 0
	ldr	w8, [sp, #3220]
	ldr	x9, [sp, #3208]
	str	x9, [sp, #14640]
	str	w8, [sp, #14648]
	.loc	45 251 17 is_stmt 1
	b	LBB66_27
LBB66_38:
	.loc	45 0 17 is_stmt 0
	ldr	x8, [sp, #3432]
	.loc	45 246 20 is_stmt 1
	ldr	q0, [x8, #5584]
	add	x1, sp, #3, lsl #12
	add	x1, x1, #2224
	str	q0, [x8, #5520]
	ldr	q0, [x8, #5600]
	str	q0, [x8, #5536]
	ldr	q0, [x8, #5616]
	str	q0, [x8, #5552]
	ldr	q0, [x8, #5632]
	str	q0, [x8, #5568]
	add	x0, sp, #2, lsl #12
	add	x0, x0, #2064
	str	x0, [sp, #3160]
	mov	w8, #64
	mov	x2, x8
	str	x2, [sp, #3200]
	.loc	45 246 17 is_stmt 0
	bl	_memcpy
	ldr	x0, [sp, #3160]
	add	x8, sp, #2, lsl #12
	add	x8, x8, #2000
	str	x8, [sp, #3168]
Ltmp1368:
	.loc	43 147 14 is_stmt 1
	adrp	x1, l_alloc_e32af199185f4c8353045deb01caf697@PAGE
	add	x1, x1, l_alloc_e32af199185f4c8353045deb01caf697@PAGEOFF
	bl	__ZN50_$LT$T$u20$as$u20$core..convert..Into$LT$U$GT$$GT$4into17h71ead39af51405c8E
	ldr	x1, [sp, #3168]
	ldr	x2, [sp, #3200]
	add	x0, sp, #2, lsl #12
	add	x0, x0, #2592
	str	x0, [sp, #3176]
Ltmp1369:
	.loc	45 362 17
	bl	_memcpy
	ldr	x1, [sp, #3176]
	ldr	x2, [sp, #3200]
	add	x0, sp, #2, lsl #12
	add	x0, x0, #2336
Ltmp1370:
	.loc	44 95 9
	bl	_memcpy
	ldr	x8, [sp, #3432]
	ldr	x2, [sp, #3200]
Ltmp1371:
	.loc	45 364 23
	ldr	q0, [x8, #1536]
	str	q0, [x8, #1680]
Ltmp1372:
	.loc	44 499 14
	ldr	q0, [x8, #1680]
	str	q0, [x8, #4704]
	.loc	44 499 9 is_stmt 0
	ldr	q0, [x8, #4704]
	str	q0, [x8, #1664]
Ltmp1373:
	.loc	45 365 23 is_stmt 1
	ldr	q0, [x8, #1552]
	str	q0, [x8, #1712]
Ltmp1374:
	.loc	44 499 14
	ldr	q0, [x8, #1712]
	str	q0, [x8, #4688]
	.loc	44 499 9 is_stmt 0
	ldr	q0, [x8, #4688]
	str	q0, [x8, #1696]
Ltmp1375:
	.loc	45 366 23 is_stmt 1
	ldr	q0, [x8, #1568]
	str	q0, [x8, #1744]
Ltmp1376:
	.loc	44 499 14
	ldr	q0, [x8, #1744]
	str	q0, [x8, #4672]
	.loc	44 499 9 is_stmt 0
	ldr	q0, [x8, #4672]
	str	q0, [x8, #1728]
Ltmp1377:
	.loc	45 367 23 is_stmt 1
	ldr	q0, [x8, #1584]
	str	q0, [x8, #1776]
Ltmp1378:
	.loc	44 499 14
	ldr	q0, [x8, #1776]
	str	q0, [x8, #4656]
	.loc	44 499 9 is_stmt 0
	ldr	q0, [x8, #4656]
	str	q0, [x8, #1760]
Ltmp1379:
	.loc	45 363 12 is_stmt 1
	ldr	q0, [x8, #1664]
	add	x1, sp, #2, lsl #12
	add	x1, x1, #2400
	str	q0, [x8, #1600]
	ldr	q0, [x8, #1696]
	str	q0, [x8, #1616]
	ldr	q0, [x8, #1728]
	str	q0, [x8, #1632]
	ldr	q0, [x8, #1760]
	str	q0, [x8, #1648]
	add	x0, sp, #1, lsl #12
	add	x0, x0, #176
	str	x0, [sp, #3192]
	.loc	45 363 9 is_stmt 0
	bl	_memcpy
	ldr	x2, [sp, #3200]
	add	x0, sp, #3632
	str	x0, [sp, #3184]
Ltmp1380:
	.loc	43 161 17 is_stmt 1
	add	x1, sp, #3888
	bl	_memcpy
	ldr	x8, [sp, #3184]
	ldr	x2, [sp, #3200]
	add	x0, x8, #64
	add	x1, sp, #4016
	bl	_memcpy
	ldr	x8, [sp, #3184]
	ldr	x2, [sp, #3200]
	add	x0, x8, #128
	add	x1, sp, #1, lsl #12
	add	x1, x1, #48
	bl	_memcpy
	ldr	x8, [sp, #3184]
	ldr	x1, [sp, #3192]
	ldr	x2, [sp, #3200]
	add	x0, x8, #192
	bl	_memcpy
Ltmp1381:
	.loc	43 167 14
	mov	w0, #0
	mov	w1, #6
	bl	__ZN63_$LT$I$u20$as$u20$core..iter..traits..collect..IntoIterator$GT$9into_iter17h5b69597c9f1621d3E
	str	w0, [sp, #4352]
	str	w1, [sp, #4356]
Ltmp1382:
	.loc	43 167 5 is_stmt 0
	b	LBB66_39
LBB66_39:
	.loc	43 167 14
	add	x0, sp, #1, lsl #12
	add	x0, x0, #256
	bl	__ZN4core4iter5range101_$LT$impl$u20$core..iter..traits..iterator..Iterator$u20$for$u20$core..ops..range..Range$LT$A$GT$$GT$4next17h5ba4841aa3f20219E
	str	w0, [sp, #4360]
	str	w1, [sp, #4364]
	ldr	w8, [sp, #4360]
	cbz	x8, LBB66_563
	b	LBB66_40
LBB66_40:
	.loc	43 168 19 is_stmt 1
	add	x1, sp, #3632
	add	x0, sp, #1, lsl #12
	add	x0, x0, #528
	str	x0, [sp, #3144]
	mov	w8, #256
	mov	x2, x8
	bl	_memcpy
	ldr	x8, [sp, #3144]
Ltmp1383:
	.loc	43 46 12
	add	x1, x8, #64
	add	x0, sp, #2, lsl #12
	add	x0, x0, #3936
	mov	w8, #64
	mov	x2, x8
	str	x2, [sp, #3152]
	bl	_memcpy
	ldr	x8, [sp, #3336]
	ldr	x9, [sp, #3408]
	ldr	x10, [sp, #3144]
	ldr	x11, [sp, #3432]
	mov	x12, x10
	str	x12, [sp, #30520]
Ltmp1384:
	.loc	45 261 38
	ldr	q0, [x11, #3136]
	str	q0, [x8, #4128]
	str	x10, [sp, #31608]
Ltmp1385:
	.loc	44 543 17
	ldr	q0, [x9, #1040]
	str	q0, [x8, #5328]
	ldr	q0, [x8, #4128]
	str	q0, [x8, #5312]
Ltmp1386:
	.loc	44 523 9
	ldr	q0, [x8, #5328]
	add	x0, sp, #7, lsl #12
	add	x0, x0, #2944
	str	q0, [x8, #5296]
	ldr	q0, [x8, #5312]
	add	x1, sp, #7, lsl #12
	add	x1, x1, #2992
	str	q0, [x8, #5344]
	add	x8, sp, #7, lsl #12
	add	x8, x8, #2920
	bl	__ZN10ppv_lite867generic5dmap217h136734bbcd323e59E
	ldr	x8, [sp, #3336]
	ldr	x9, [sp, #3408]
	ldr	x10, [sp, #3144]
	ldr	x11, [sp, #3432]
Ltmp1387:
	.loc	44 543 9
	add	x12, sp, #7, lsl #12
	add	x12, x12, #2665
	ldur	q0, [x12, #255]
	str	q0, [x9, #1040]
Ltmp1388:
	.loc	45 262 17
	add	x10, x10, #16
	.loc	45 262 38 is_stmt 0
	ldr	q0, [x11, #3152]
	str	q0, [x8, #4144]
	str	x10, [sp, #31512]
Ltmp1389:
	.loc	44 543 17 is_stmt 1
	ldr	q0, [x9, #1056]
	str	q0, [x8, #5232]
	ldr	q0, [x8, #4144]
	str	q0, [x8, #5216]
Ltmp1390:
	.loc	44 523 9
	ldr	q0, [x8, #5232]
	add	x0, sp, #7, lsl #12
	add	x0, x0, #2848
	str	q0, [x8, #5200]
	ldr	q0, [x8, #5216]
	add	x1, sp, #7, lsl #12
	add	x1, x1, #2896
	str	q0, [x8, #5248]
	add	x8, sp, #7, lsl #12
	add	x8, x8, #2824
	bl	__ZN10ppv_lite867generic5dmap217h136734bbcd323e59E
	ldr	x8, [sp, #3336]
	ldr	x9, [sp, #3408]
	ldr	x10, [sp, #3144]
	ldr	x11, [sp, #3432]
Ltmp1391:
	.loc	44 543 9
	add	x12, sp, #7, lsl #12
	add	x12, x12, #2569
	ldur	q0, [x12, #255]
	str	q0, [x9, #1056]
Ltmp1392:
	.loc	45 263 17
	add	x10, x10, #32
	.loc	45 263 38 is_stmt 0
	ldr	q0, [x11, #3168]
	str	q0, [x8, #4160]
	str	x10, [sp, #31416]
Ltmp1393:
	.loc	44 543 17 is_stmt 1
	ldr	q0, [x9, #1072]
	str	q0, [x8, #5136]
	ldr	q0, [x8, #4160]
	str	q0, [x8, #5120]
Ltmp1394:
	.loc	44 523 9
	ldr	q0, [x8, #5136]
	add	x0, sp, #7, lsl #12
	add	x0, x0, #2752
	str	q0, [x8, #5104]
	ldr	q0, [x8, #5120]
	add	x1, sp, #7, lsl #12
	add	x1, x1, #2800
	str	q0, [x8, #5152]
	add	x8, sp, #7, lsl #12
	add	x8, x8, #2728
	bl	__ZN10ppv_lite867generic5dmap217h136734bbcd323e59E
	ldr	x8, [sp, #3336]
	ldr	x9, [sp, #3408]
	ldr	x10, [sp, #3144]
	ldr	x11, [sp, #3432]
Ltmp1395:
	.loc	44 543 9
	add	x12, sp, #7, lsl #12
	add	x12, x12, #2473
	ldur	q0, [x12, #255]
	str	q0, [x9, #1072]
Ltmp1396:
	.loc	45 264 17
	add	x10, x10, #48
	.loc	45 264 38 is_stmt 0
	ldr	q0, [x11, #3184]
	str	q0, [x8, #4176]
	str	x10, [sp, #31320]
Ltmp1397:
	.loc	44 543 17 is_stmt 1
	ldr	q0, [x9, #1088]
	str	q0, [x8, #5040]
	ldr	q0, [x8, #4176]
	str	q0, [x8, #5024]
Ltmp1398:
	.loc	44 523 9
	ldr	q0, [x8, #5040]
	add	x0, sp, #7, lsl #12
	add	x0, x0, #2656
	str	q0, [x8, #5008]
	ldr	q0, [x8, #5024]
	add	x1, sp, #7, lsl #12
	add	x1, x1, #2704
	str	q0, [x8, #5056]
	add	x8, sp, #7, lsl #12
	add	x8, x8, #2632
	bl	__ZN10ppv_lite867generic5dmap217h136734bbcd323e59E
	ldr	x9, [sp, #3408]
	ldr	x8, [sp, #3144]
	ldr	x2, [sp, #3152]
Ltmp1399:
	.loc	44 543 9
	add	x10, sp, #7, lsl #12
	add	x10, x10, #2377
	ldur	q0, [x10, #255]
	str	q0, [x9, #1088]
Ltmp1400:
	.loc	43 47 12
	add	x1, x8, #192
	add	x0, sp, #3, lsl #12
	add	x0, x0, #32
	bl	_memcpy
	ldr	x1, [sp, #3144]
	ldr	x2, [sp, #3152]
	add	x0, sp, #3, lsl #12
	add	x0, x0, #96
	.loc	43 47 18 is_stmt 0
	bl	_memcpy
	ldr	x8, [sp, #3432]
	ldr	x9, [sp, #3440]
Ltmp1401:
	.loc	45 247 21 is_stmt 1
	ldr	q0, [x8, #3328]
	str	q0, [x9, #2864]
	.loc	45 247 35 is_stmt 0
	ldr	q0, [x8, #3392]
	str	q0, [x9, #2848]
Ltmp1402:
	.loc	44 239 17 is_stmt 1
	ldr	q0, [x9, #2864]
	add	x0, sp, #4, lsl #12
	add	x0, x0, #3760
	str	q0, [x9, #2832]
	ldr	q0, [x9, #2848]
	str	q0, [x9, #2880]
Ltmp1403:
	.loc	44 191 9
	strb	wzr, [x9, #3039]
	mov	w8, #1
	strb	w8, [x9, #3039]
Ltmp595:
	.loc	44 191 29 is_stmt 0
	add	x8, sp, #4, lsl #12
	add	x8, x8, #3840
	adrp	x1, l_alloc_d6cd646a032ab5661bff8aa78f551e65@PAGE
	add	x1, x1, l_alloc_d6cd646a032ab5661bff8aa78f551e65@PAGEOFF
	bl	__ZN50_$LT$T$u20$as$u20$core..convert..Into$LT$U$GT$$GT$4into17hb9c0fa23cb5a2aabE
Ltmp596:
	b	LBB66_42
LBB66_41:
Ltmp601:
	.loc	44 0 29
	ldr	x8, [sp, #3440]
	str	x0, [sp, #20352]
	mov	x9, x1
	str	w9, [x8, #3048]
	.loc	44 199 1 is_stmt 1
	ldrb	w8, [x8, #3039]
	tbnz	w8, #0, LBB66_45
	b	LBB66_44
LBB66_42:
	.loc	44 0 1 is_stmt 0
	ldr	x8, [sp, #3440]
Ltmp1404:
	.loc	44 192 29 is_stmt 1
	strb	wzr, [x8, #3039]
	ldr	q0, [x8, #2880]
	add	x0, sp, #4, lsl #12
	add	x0, x0, #3872
	str	q0, [x8, #2944]
Ltmp597:
	add	x8, sp, #4, lsl #12
	add	x8, x8, #3856
	adrp	x1, l_alloc_eb8937521ab56b1815db886b021bd11a@PAGE
	add	x1, x1, l_alloc_eb8937521ab56b1815db886b021bd11a@PAGEOFF
	bl	__ZN50_$LT$T$u20$as$u20$core..convert..Into$LT$U$GT$$GT$4into17hb9c0fa23cb5a2aabE
Ltmp598:
	b	LBB66_43
LBB66_43:
	.loc	44 0 29 is_stmt 0
	ldr	x8, [sp, #3440]
Ltmp1405:
	.loc	44 193 30 is_stmt 1
	ldr	q0, [x8, #2912]
	str	q0, [x8, #2960]
Ltmp1406:
	.loc	44 165 16
	ldr	x11, [sp, #20272]
	mov	x9, #0
	str	x11, [sp, #20456]
	.loc	44 165 36 is_stmt 0
	ldr	x10, [sp, #20280]
	str	x10, [sp, #20448]
	.loc	44 165 5
	orr	x1, x11, x9
	orr	x2, x9, x10
	mov.d	v0[0], x1
	mov.d	v0[1], x2
Ltmp1407:
	.loc	44 193 14 is_stmt 1
	str	q0, [x8, #3056]
Ltmp1408:
	.loc	44 194 30
	ldr	q0, [x8, #2928]
	str	q0, [x8, #2976]
Ltmp1409:
	.loc	44 165 16
	ldr	x11, [sp, #20288]
	str	x11, [sp, #20472]
	.loc	44 165 36 is_stmt 0
	ldr	x10, [sp, #20296]
	str	x10, [sp, #20464]
	.loc	44 165 5
	orr	x3, x11, x9
	orr	x4, x9, x10
	mov.d	v0[0], x3
	mov.d	v0[1], x4
Ltmp1410:
	.loc	44 194 14 is_stmt 1
	str	q0, [x8, #3072]
Ltmp599:
Ltmp1411:
	.loc	44 196 19
	add	x0, sp, #4, lsl #12
	add	x0, x0, #3839
	bl	__ZN77_$LT$ppv_lite86..generic..u32x4_generic$u20$as$u20$core..ops..bit..BitXor$GT$6bitxor28_$u7b$$u7b$closure$u7d$$u7d$17hbf1305eccfd97e53E
	str	x0, [sp, #3104]
	str	x1, [sp, #3112]
	mov.d	v0[0], x0
	mov.d	v0[1], x1
	str	q0, [sp, #3120]
Ltmp600:
	b	LBB66_46
Ltmp1412:
LBB66_44:
	.loc	44 186 1
	ldr	x8, [sp, #20352]
	str	x8, [sp, #3304]
	b	LBB66_651
LBB66_45:
	.loc	44 199 1
	b	LBB66_44
LBB66_46:
	.loc	44 0 1 is_stmt 0
	ldr	x9, [sp, #3440]
	ldr	x8, [sp, #3432]
	ldr	x10, [sp, #3112]
	ldr	x11, [sp, #3104]
	ldr	q0, [sp, #3120]
	str	q0, [x9, #3104]
Ltmp1413:
	.loc	44 170 5 is_stmt 1
	str	x11, [sp, #20328]
	str	x10, [sp, #20336]
Ltmp1414:
	.loc	44 195 13
	add	x10, sp, #4, lsl #12
	add	x10, x10, #3689
	ldur	q0, [x10, #255]
	str	q0, [x9, #2992]
Ltmp1415:
	.loc	44 198 14
	ldr	q0, [x9, #2992]
	str	q0, [x9, #3088]
Ltmp1416:
	.loc	44 499 14
	ldr	q0, [x9, #3088]
	str	q0, [x9, #3120]
	.loc	44 499 9 is_stmt 0
	ldr	q0, [x9, #3120]
	str	q0, [x8, #6736]
Ltmp1417:
	.loc	45 248 21 is_stmt 1
	ldr	q0, [x8, #3344]
	str	q0, [x9, #2528]
	.loc	45 248 35 is_stmt 0
	ldr	q0, [x8, #3408]
	str	q0, [x9, #2512]
Ltmp1418:
	.loc	44 239 17 is_stmt 1
	ldr	q0, [x9, #2528]
	add	x0, sp, #4, lsl #12
	add	x0, x0, #3424
	str	q0, [x9, #2496]
	ldr	q0, [x9, #2512]
	str	q0, [x9, #2544]
Ltmp1419:
	.loc	44 191 9
	strb	wzr, [x9, #2703]
	mov	w8, #1
	strb	w8, [x9, #2703]
Ltmp602:
	.loc	44 191 29 is_stmt 0
	add	x8, sp, #4, lsl #12
	add	x8, x8, #3504
	adrp	x1, l_alloc_d6cd646a032ab5661bff8aa78f551e65@PAGE
	add	x1, x1, l_alloc_d6cd646a032ab5661bff8aa78f551e65@PAGEOFF
	bl	__ZN50_$LT$T$u20$as$u20$core..convert..Into$LT$U$GT$$GT$4into17hb9c0fa23cb5a2aabE
Ltmp603:
	b	LBB66_48
LBB66_47:
Ltmp608:
	.loc	44 0 29
	ldr	x8, [sp, #3440]
	str	x0, [sp, #20016]
	mov	x9, x1
	str	w9, [x8, #2712]
	.loc	44 199 1 is_stmt 1
	ldrb	w8, [x8, #2703]
	tbnz	w8, #0, LBB66_51
	b	LBB66_50
LBB66_48:
	.loc	44 0 1 is_stmt 0
	ldr	x8, [sp, #3440]
Ltmp1420:
	.loc	44 192 29 is_stmt 1
	strb	wzr, [x8, #2703]
	ldr	q0, [x8, #2544]
	add	x0, sp, #4, lsl #12
	add	x0, x0, #3536
	str	q0, [x8, #2608]
Ltmp604:
	add	x8, sp, #4, lsl #12
	add	x8, x8, #3520
	adrp	x1, l_alloc_eb8937521ab56b1815db886b021bd11a@PAGE
	add	x1, x1, l_alloc_eb8937521ab56b1815db886b021bd11a@PAGEOFF
	bl	__ZN50_$LT$T$u20$as$u20$core..convert..Into$LT$U$GT$$GT$4into17hb9c0fa23cb5a2aabE
Ltmp605:
	b	LBB66_49
LBB66_49:
	.loc	44 0 29 is_stmt 0
	ldr	x8, [sp, #3440]
Ltmp1421:
	.loc	44 193 30 is_stmt 1
	ldr	q0, [x8, #2576]
	str	q0, [x8, #2624]
Ltmp1422:
	.loc	44 165 16
	ldr	x11, [sp, #19936]
	mov	x9, #0
	str	x11, [sp, #20120]
	.loc	44 165 36 is_stmt 0
	ldr	x10, [sp, #19944]
	str	x10, [sp, #20112]
	.loc	44 165 5
	orr	x1, x11, x9
	orr	x2, x9, x10
	mov.d	v0[0], x1
	mov.d	v0[1], x2
Ltmp1423:
	.loc	44 193 14 is_stmt 1
	str	q0, [x8, #2720]
Ltmp1424:
	.loc	44 194 30
	ldr	q0, [x8, #2592]
	str	q0, [x8, #2640]
Ltmp1425:
	.loc	44 165 16
	ldr	x11, [sp, #19952]
	str	x11, [sp, #20136]
	.loc	44 165 36 is_stmt 0
	ldr	x10, [sp, #19960]
	str	x10, [sp, #20128]
	.loc	44 165 5
	orr	x3, x11, x9
	orr	x4, x9, x10
	mov.d	v0[0], x3
	mov.d	v0[1], x4
Ltmp1426:
	.loc	44 194 14 is_stmt 1
	str	q0, [x8, #2736]
Ltmp606:
Ltmp1427:
	.loc	44 196 19
	add	x0, sp, #4, lsl #12
	add	x0, x0, #3503
	bl	__ZN77_$LT$ppv_lite86..generic..u32x4_generic$u20$as$u20$core..ops..bit..BitXor$GT$6bitxor28_$u7b$$u7b$closure$u7d$$u7d$17hbf1305eccfd97e53E
	str	x0, [sp, #3072]
	str	x1, [sp, #3080]
	mov.d	v0[0], x0
	mov.d	v0[1], x1
	str	q0, [sp, #3088]
Ltmp607:
	b	LBB66_52
Ltmp1428:
LBB66_50:
	.loc	44 0 19 is_stmt 0
	ldr	x8, [sp, #3440]
	.loc	44 186 1 is_stmt 1
	ldr	x9, [sp, #20016]
	str	x9, [sp, #3056]
	ldr	w8, [x8, #2712]
	str	w8, [sp, #3068]
	b	LBB66_54
LBB66_51:
	.loc	44 199 1
	b	LBB66_50
LBB66_52:
	.loc	44 0 1 is_stmt 0
	ldr	x8, [sp, #3432]
	ldr	x9, [sp, #3440]
	ldr	x10, [sp, #3080]
	ldr	x11, [sp, #3072]
	ldr	q0, [sp, #3088]
	str	q0, [x9, #2768]
Ltmp1429:
	.loc	44 170 5 is_stmt 1
	str	x11, [sp, #19992]
	str	x10, [sp, #20000]
Ltmp1430:
	.loc	44 195 13
	add	x10, sp, #4, lsl #12
	add	x10, x10, #3353
	ldur	q0, [x10, #255]
	str	q0, [x9, #2656]
Ltmp1431:
	.loc	44 198 14
	ldr	q0, [x9, #2656]
	str	q0, [x9, #2752]
Ltmp1432:
	.loc	44 499 14
	ldr	q0, [x9, #2752]
	str	q0, [x9, #2784]
	.loc	44 499 9 is_stmt 0
	ldr	q0, [x9, #2784]
	str	q0, [x8, #6752]
Ltmp1433:
	.loc	44 240 14 is_stmt 1
	b	LBB66_55
Ltmp1434:
LBB66_53:
	.loc	45 245 13
	ldr	x8, [sp, #15792]
	str	x8, [sp, #3304]
	b	LBB66_651
LBB66_54:
	.loc	45 0 13 is_stmt 0
	ldr	w8, [sp, #3068]
	ldr	x9, [sp, #3056]
	str	x9, [sp, #15792]
	str	w8, [sp, #15800]
	b	LBB66_53
LBB66_55:
	ldr	x9, [sp, #3440]
	ldr	x8, [sp, #3432]
	.loc	45 249 21 is_stmt 1
	ldr	q0, [x8, #3360]
	str	q0, [x9, #2192]
	.loc	45 249 35 is_stmt 0
	ldr	q0, [x8, #3424]
	str	q0, [x9, #2176]
Ltmp1435:
	.loc	44 239 17 is_stmt 1
	ldr	q0, [x9, #2192]
	add	x0, sp, #4, lsl #12
	add	x0, x0, #3088
	str	q0, [x9, #2160]
	ldr	q0, [x9, #2176]
	str	q0, [x9, #2208]
Ltmp1436:
	.loc	44 191 9
	strb	wzr, [x9, #2367]
	mov	w8, #1
	strb	w8, [x9, #2367]
Ltmp609:
	.loc	44 191 29 is_stmt 0
	add	x8, sp, #4, lsl #12
	add	x8, x8, #3168
	adrp	x1, l_alloc_d6cd646a032ab5661bff8aa78f551e65@PAGE
	add	x1, x1, l_alloc_d6cd646a032ab5661bff8aa78f551e65@PAGEOFF
	bl	__ZN50_$LT$T$u20$as$u20$core..convert..Into$LT$U$GT$$GT$4into17hb9c0fa23cb5a2aabE
Ltmp610:
	b	LBB66_57
LBB66_56:
Ltmp615:
	.loc	44 0 29
	ldr	x8, [sp, #3440]
	str	x0, [sp, #19680]
	mov	x9, x1
	add	x10, sp, #3308
	str	w9, [x10, #16380]
	.loc	44 199 1 is_stmt 1
	ldrb	w8, [x8, #2367]
	tbnz	w8, #0, LBB66_60
	b	LBB66_59
LBB66_57:
	.loc	44 0 1 is_stmt 0
	ldr	x8, [sp, #3440]
Ltmp1437:
	.loc	44 192 29 is_stmt 1
	strb	wzr, [x8, #2367]
	ldr	q0, [x8, #2208]
	add	x0, sp, #4, lsl #12
	add	x0, x0, #3200
	str	q0, [x8, #2272]
Ltmp611:
	add	x8, sp, #4, lsl #12
	add	x8, x8, #3184
	adrp	x1, l_alloc_eb8937521ab56b1815db886b021bd11a@PAGE
	add	x1, x1, l_alloc_eb8937521ab56b1815db886b021bd11a@PAGEOFF
	bl	__ZN50_$LT$T$u20$as$u20$core..convert..Into$LT$U$GT$$GT$4into17hb9c0fa23cb5a2aabE
Ltmp612:
	b	LBB66_58
LBB66_58:
	.loc	44 0 29 is_stmt 0
	ldr	x8, [sp, #3440]
Ltmp1438:
	.loc	44 193 30 is_stmt 1
	ldr	q0, [x8, #2240]
	str	q0, [x8, #2288]
Ltmp1439:
	.loc	44 165 16
	ldr	x11, [sp, #19600]
	mov	x9, #0
	str	x11, [sp, #19784]
	.loc	44 165 36 is_stmt 0
	ldr	x10, [sp, #19608]
	str	x10, [sp, #19776]
	.loc	44 165 5
	orr	x1, x11, x9
	orr	x2, x9, x10
	mov.d	v0[0], x1
	mov.d	v0[1], x2
Ltmp1440:
	.loc	44 193 14 is_stmt 1
	str	q0, [x8, #2384]
Ltmp1441:
	.loc	44 194 30
	ldr	q0, [x8, #2256]
	str	q0, [x8, #2304]
Ltmp1442:
	.loc	44 165 16
	ldr	x11, [sp, #19616]
	str	x11, [sp, #19800]
	.loc	44 165 36 is_stmt 0
	ldr	x10, [sp, #19624]
	str	x10, [sp, #19792]
	.loc	44 165 5
	orr	x3, x11, x9
	orr	x4, x9, x10
	mov.d	v0[0], x3
	mov.d	v0[1], x4
Ltmp1443:
	.loc	44 194 14 is_stmt 1
	str	q0, [x8, #2400]
Ltmp613:
Ltmp1444:
	.loc	44 196 19
	add	x0, sp, #4, lsl #12
	add	x0, x0, #3167
	bl	__ZN77_$LT$ppv_lite86..generic..u32x4_generic$u20$as$u20$core..ops..bit..BitXor$GT$6bitxor28_$u7b$$u7b$closure$u7d$$u7d$17hbf1305eccfd97e53E
	str	x0, [sp, #3024]
	str	x1, [sp, #3032]
	mov.d	v0[0], x0
	mov.d	v0[1], x1
	str	q0, [sp, #3040]
Ltmp614:
	b	LBB66_61
Ltmp1445:
LBB66_59:
	.loc	44 186 1
	ldr	x8, [sp, #19680]
	str	x8, [sp, #3008]
	add	x8, sp, #3308
	ldr	w8, [x8, #16380]
	str	w8, [sp, #3020]
	b	LBB66_63
LBB66_60:
	.loc	44 199 1
	b	LBB66_59
LBB66_61:
	.loc	44 0 1 is_stmt 0
	ldr	x8, [sp, #3432]
	ldr	x9, [sp, #3440]
	ldr	x10, [sp, #3032]
	ldr	x11, [sp, #3024]
	ldr	q0, [sp, #3040]
	str	q0, [x9, #2432]
Ltmp1446:
	.loc	44 170 5 is_stmt 1
	str	x11, [sp, #19656]
	str	x10, [sp, #19664]
Ltmp1447:
	.loc	44 195 13
	add	x10, sp, #4, lsl #12
	add	x10, x10, #3017
	ldur	q0, [x10, #255]
	str	q0, [x9, #2320]
Ltmp1448:
	.loc	44 198 14
	ldr	q0, [x9, #2320]
	str	q0, [x9, #2416]
Ltmp1449:
	.loc	44 499 14
	ldr	q0, [x9, #2416]
	str	q0, [x9, #2448]
	.loc	44 499 9 is_stmt 0
	ldr	q0, [x9, #2448]
	str	q0, [x8, #6768]
Ltmp1450:
	.loc	44 240 14 is_stmt 1
	b	LBB66_64
Ltmp1451:
LBB66_62:
	.loc	45 251 17
	b	LBB66_53
LBB66_63:
	.loc	45 0 17 is_stmt 0
	ldr	w8, [sp, #3020]
	ldr	x9, [sp, #3008]
	str	x9, [sp, #15792]
	str	w8, [sp, #15800]
	b	LBB66_62
LBB66_64:
	ldr	x9, [sp, #3440]
	ldr	x8, [sp, #3432]
	.loc	45 250 21 is_stmt 1
	ldr	q0, [x8, #3376]
	str	q0, [x9, #1856]
	.loc	45 250 35 is_stmt 0
	ldr	q0, [x8, #3440]
	str	q0, [x9, #1840]
Ltmp1452:
	.loc	44 239 17 is_stmt 1
	ldr	q0, [x9, #1856]
	add	x0, sp, #4, lsl #12
	add	x0, x0, #2752
	str	q0, [x9, #1824]
	ldr	q0, [x9, #1840]
	str	q0, [x9, #1872]
Ltmp1453:
	.loc	44 191 9
	strb	wzr, [x9, #2031]
	mov	w8, #1
	strb	w8, [x9, #2031]
Ltmp616:
	.loc	44 191 29 is_stmt 0
	add	x8, sp, #4, lsl #12
	add	x8, x8, #2832
	adrp	x1, l_alloc_d6cd646a032ab5661bff8aa78f551e65@PAGE
	add	x1, x1, l_alloc_d6cd646a032ab5661bff8aa78f551e65@PAGEOFF
	bl	__ZN50_$LT$T$u20$as$u20$core..convert..Into$LT$U$GT$$GT$4into17hb9c0fa23cb5a2aabE
Ltmp617:
	b	LBB66_66
LBB66_65:
Ltmp622:
	.loc	44 0 29
	ldr	x8, [sp, #3440]
	str	x0, [sp, #19344]
	mov	x9, x1
	add	x10, sp, #2972
	str	w9, [x10, #16380]
	.loc	44 199 1 is_stmt 1
	ldrb	w8, [x8, #2031]
	tbnz	w8, #0, LBB66_69
	b	LBB66_68
LBB66_66:
	.loc	44 0 1 is_stmt 0
	ldr	x8, [sp, #3440]
Ltmp1454:
	.loc	44 192 29 is_stmt 1
	strb	wzr, [x8, #2031]
	ldr	q0, [x8, #1872]
	add	x0, sp, #4, lsl #12
	add	x0, x0, #2864
	str	q0, [x8, #1936]
Ltmp618:
	add	x8, sp, #4, lsl #12
	add	x8, x8, #2848
	adrp	x1, l_alloc_eb8937521ab56b1815db886b021bd11a@PAGE
	add	x1, x1, l_alloc_eb8937521ab56b1815db886b021bd11a@PAGEOFF
	bl	__ZN50_$LT$T$u20$as$u20$core..convert..Into$LT$U$GT$$GT$4into17hb9c0fa23cb5a2aabE
Ltmp619:
	b	LBB66_67
LBB66_67:
	.loc	44 0 29 is_stmt 0
	ldr	x8, [sp, #3440]
Ltmp1455:
	.loc	44 193 30 is_stmt 1
	ldr	q0, [x8, #1904]
	str	q0, [x8, #1952]
Ltmp1456:
	.loc	44 165 16
	ldr	x11, [sp, #19264]
	mov	x9, #0
	str	x11, [sp, #19448]
	.loc	44 165 36 is_stmt 0
	ldr	x10, [sp, #19272]
	str	x10, [sp, #19440]
	.loc	44 165 5
	orr	x1, x11, x9
	orr	x2, x9, x10
	mov.d	v0[0], x1
	mov.d	v0[1], x2
Ltmp1457:
	.loc	44 193 14 is_stmt 1
	str	q0, [x8, #2048]
Ltmp1458:
	.loc	44 194 30
	ldr	q0, [x8, #1920]
	str	q0, [x8, #1968]
Ltmp1459:
	.loc	44 165 16
	ldr	x11, [sp, #19280]
	str	x11, [sp, #19464]
	.loc	44 165 36 is_stmt 0
	ldr	x10, [sp, #19288]
	str	x10, [sp, #19456]
	.loc	44 165 5
	orr	x3, x11, x9
	orr	x4, x9, x10
	mov.d	v0[0], x3
	mov.d	v0[1], x4
Ltmp1460:
	.loc	44 194 14 is_stmt 1
	str	q0, [x8, #2064]
Ltmp620:
Ltmp1461:
	.loc	44 196 19
	add	x0, sp, #4, lsl #12
	add	x0, x0, #2831
	bl	__ZN77_$LT$ppv_lite86..generic..u32x4_generic$u20$as$u20$core..ops..bit..BitXor$GT$6bitxor28_$u7b$$u7b$closure$u7d$$u7d$17hbf1305eccfd97e53E
	str	x0, [sp, #2976]
	str	x1, [sp, #2984]
	mov.d	v0[0], x0
	mov.d	v0[1], x1
	str	q0, [sp, #2992]
Ltmp621:
	b	LBB66_70
Ltmp1462:
LBB66_68:
	.loc	44 186 1
	ldr	x8, [sp, #19344]
	str	x8, [sp, #2960]
	add	x8, sp, #2972
	ldr	w8, [x8, #16380]
	str	w8, [sp, #2972]
	b	LBB66_71
LBB66_69:
	.loc	44 199 1
	b	LBB66_68
LBB66_70:
	.loc	44 0 1 is_stmt 0
	ldr	x8, [sp, #3432]
	ldr	x9, [sp, #3440]
	ldr	x10, [sp, #2984]
	ldr	x11, [sp, #2976]
	ldr	q0, [sp, #2992]
	str	q0, [x9, #2096]
Ltmp1463:
	.loc	44 170 5 is_stmt 1
	str	x11, [sp, #19320]
	str	x10, [sp, #19328]
Ltmp1464:
	.loc	44 195 13
	add	x10, sp, #4, lsl #12
	add	x10, x10, #2681
	ldur	q0, [x10, #255]
	str	q0, [x9, #1984]
Ltmp1465:
	.loc	44 198 14
	ldr	q0, [x9, #1984]
	str	q0, [x9, #2080]
Ltmp1466:
	.loc	44 499 14
	ldr	q0, [x9, #2080]
	str	q0, [x9, #2112]
	.loc	44 499 9 is_stmt 0
	ldr	q0, [x9, #2112]
	str	q0, [x8, #6784]
Ltmp1467:
	.loc	44 240 14 is_stmt 1
	b	LBB66_72
Ltmp1468:
LBB66_71:
	.loc	44 0 14 is_stmt 0
	ldr	w8, [sp, #2972]
	ldr	x9, [sp, #2960]
	str	x9, [sp, #15792]
	str	w8, [sp, #15800]
	.loc	45 251 17 is_stmt 1
	b	LBB66_62
LBB66_72:
	.loc	45 0 17 is_stmt 0
	ldr	x8, [sp, #3432]
	.loc	45 246 20 is_stmt 1
	ldr	q0, [x8, #6736]
	add	x1, sp, #3, lsl #12
	add	x1, x1, #3376
	str	q0, [x8, #6672]
	ldr	q0, [x8, #6752]
	str	q0, [x8, #6688]
	ldr	q0, [x8, #6768]
	str	q0, [x8, #6704]
	ldr	q0, [x8, #6784]
	str	q0, [x8, #6720]
	add	x0, sp, #2, lsl #12
	add	x0, x0, #4064
	.loc	45 246 17 is_stmt 0
	mov	w8, #64
	mov	x2, x8
	bl	_memcpy
	ldr	x9, [sp, #3432]
	ldr	x8, [sp, #3336]
Ltmp1469:
	.loc	45 274 17 is_stmt 1
	ldr	q0, [x9, #3264]
	str	q0, [x8, #13280]
Ltmp1470:
	.loc	44 331 9
	ldr	q0, [x8, #13280]
	add	x0, sp, #9, lsl #12
	add	x0, x0, #2720
	str	q0, [x8, #13264]
Ltmp623:
Ltmp1471:
	.loc	44 105 29
	add	x8, sp, #9, lsl #12
	add	x8, x8, #2768
	adrp	x1, l_alloc_345ce69d67e2022250dbe2d202815e5b@PAGE
	add	x1, x1, l_alloc_345ce69d67e2022250dbe2d202815e5b@PAGEOFF
	bl	__ZN50_$LT$T$u20$as$u20$core..convert..Into$LT$U$GT$$GT$4into17hb9c0fa23cb5a2aabE
Ltmp624:
	b	LBB66_74
LBB66_73:
Ltmp633:
	.loc	44 0 29 is_stmt 0
	ldr	x8, [sp, #3336]
	str	x0, [x8, #13376]
	mov	x9, x1
	str	w9, [x8, #13384]
	.loc	44 100 1 is_stmt 1
	ldr	x8, [x8, #13376]
	str	x8, [sp, #3304]
	b	LBB66_651
LBB66_74:
	.loc	44 0 1 is_stmt 0
	ldr	x8, [sp, #3336]
Ltmp1472:
	.loc	44 106 22 is_stmt 1
	ldr	q0, [x8, #13312]
	str	q0, [x8, #13328]
Ltmp1473:
	.loc	44 108 15
	ldr	w1, [x8, #13328]
Ltmp625:
	.loc	44 108 13 is_stmt 0
	add	x0, sp, #9, lsl #12
	add	x0, x0, #2767
	bl	__ZN90_$LT$ppv_lite86..generic..u32x4_generic$u20$as$u20$ppv_lite86..types..RotateEachWord32$GT$24rotate_each_word_right1628_$u7b$$u7b$closure$u7d$$u7d$17ha1ad721df1a671d8E
	str	w0, [sp, #2956]
Ltmp626:
	b	LBB66_75
LBB66_75:
	.loc	44 0 13
	ldr	x8, [sp, #3336]
	.loc	44 108 24
	ldr	w1, [x8, #13332]
Ltmp627:
	.loc	44 108 22
	add	x0, sp, #9, lsl #12
	add	x0, x0, #2767
	bl	__ZN90_$LT$ppv_lite86..generic..u32x4_generic$u20$as$u20$ppv_lite86..types..RotateEachWord32$GT$24rotate_each_word_right1628_$u7b$$u7b$closure$u7d$$u7d$17ha1ad721df1a671d8E
	str	w0, [sp, #2952]
Ltmp628:
	b	LBB66_76
LBB66_76:
	.loc	44 0 22
	ldr	x8, [sp, #3336]
	.loc	44 108 33
	ldr	w1, [x8, #13336]
Ltmp629:
	.loc	44 108 31
	add	x0, sp, #9, lsl #12
	add	x0, x0, #2767
	bl	__ZN90_$LT$ppv_lite86..generic..u32x4_generic$u20$as$u20$ppv_lite86..types..RotateEachWord32$GT$24rotate_each_word_right1628_$u7b$$u7b$closure$u7d$$u7d$17ha1ad721df1a671d8E
	str	w0, [sp, #2948]
Ltmp630:
	b	LBB66_77
LBB66_77:
	.loc	44 0 31
	ldr	x8, [sp, #3336]
	.loc	44 108 42
	ldr	w1, [x8, #13340]
Ltmp631:
	.loc	44 108 40
	add	x0, sp, #9, lsl #12
	add	x0, x0, #2767
	bl	__ZN90_$LT$ppv_lite86..generic..u32x4_generic$u20$as$u20$ppv_lite86..types..RotateEachWord32$GT$24rotate_each_word_right1628_$u7b$$u7b$closure$u7d$$u7d$17ha1ad721df1a671d8E
	str	w0, [sp, #2944]
Ltmp632:
	b	LBB66_78
LBB66_78:
	.loc	44 0 40
	ldr	x8, [sp, #3336]
	ldr	x9, [sp, #3432]
	ldr	w10, [sp, #2944]
	ldr	w11, [sp, #2948]
	ldr	w12, [sp, #2952]
	ldr	w13, [sp, #2956]
	.loc	44 108 12
	str	w13, [x8, #13360]
	str	w12, [x8, #13364]
	str	w11, [x8, #13368]
	str	w10, [x8, #13372]
	.loc	44 107 13 is_stmt 1
	ldr	q0, [x8, #13360]
	str	q0, [x8, #13344]
Ltmp1474:
	.loc	44 110 14
	ldr	q0, [x8, #13344]
	str	q0, [x8, #13392]
Ltmp1475:
	.loc	44 499 14
	ldr	q0, [x8, #13392]
	str	q0, [x8, #13408]
	.loc	44 499 9 is_stmt 0
	ldr	q0, [x8, #13408]
	str	q0, [x8, #11184]
Ltmp1476:
	.loc	45 275 17 is_stmt 1
	ldr	q0, [x9, #3280]
	str	q0, [x8, #13120]
Ltmp1477:
	.loc	44 331 9
	ldr	q0, [x8, #13120]
	add	x0, sp, #9, lsl #12
	add	x0, x0, #2560
	str	q0, [x8, #13104]
Ltmp634:
Ltmp1478:
	.loc	44 105 29
	add	x8, sp, #9, lsl #12
	add	x8, x8, #2608
	adrp	x1, l_alloc_345ce69d67e2022250dbe2d202815e5b@PAGE
	add	x1, x1, l_alloc_345ce69d67e2022250dbe2d202815e5b@PAGEOFF
	bl	__ZN50_$LT$T$u20$as$u20$core..convert..Into$LT$U$GT$$GT$4into17hb9c0fa23cb5a2aabE
Ltmp635:
	b	LBB66_80
LBB66_79:
Ltmp644:
	.loc	44 0 29 is_stmt 0
	ldr	x8, [sp, #3336]
	str	x0, [x8, #13216]
	mov	x9, x1
	str	w9, [x8, #13224]
	.loc	44 100 1 is_stmt 1
	ldr	x8, [x8, #13216]
	str	x8, [sp, #3304]
	b	LBB66_651
LBB66_80:
	.loc	44 0 1 is_stmt 0
	ldr	x8, [sp, #3336]
Ltmp1479:
	.loc	44 106 22 is_stmt 1
	ldr	q0, [x8, #13152]
	str	q0, [x8, #13168]
Ltmp1480:
	.loc	44 108 15
	ldr	w1, [x8, #13168]
Ltmp636:
	.loc	44 108 13 is_stmt 0
	add	x0, sp, #9, lsl #12
	add	x0, x0, #2607
	bl	__ZN90_$LT$ppv_lite86..generic..u32x4_generic$u20$as$u20$ppv_lite86..types..RotateEachWord32$GT$24rotate_each_word_right1628_$u7b$$u7b$closure$u7d$$u7d$17ha1ad721df1a671d8E
	str	w0, [sp, #2940]
Ltmp637:
	b	LBB66_81
LBB66_81:
	.loc	44 0 13
	ldr	x8, [sp, #3336]
	.loc	44 108 24
	ldr	w1, [x8, #13172]
Ltmp638:
	.loc	44 108 22
	add	x0, sp, #9, lsl #12
	add	x0, x0, #2607
	bl	__ZN90_$LT$ppv_lite86..generic..u32x4_generic$u20$as$u20$ppv_lite86..types..RotateEachWord32$GT$24rotate_each_word_right1628_$u7b$$u7b$closure$u7d$$u7d$17ha1ad721df1a671d8E
	str	w0, [sp, #2936]
Ltmp639:
	b	LBB66_82
LBB66_82:
	.loc	44 0 22
	ldr	x8, [sp, #3336]
	.loc	44 108 33
	ldr	w1, [x8, #13176]
Ltmp640:
	.loc	44 108 31
	add	x0, sp, #9, lsl #12
	add	x0, x0, #2607
	bl	__ZN90_$LT$ppv_lite86..generic..u32x4_generic$u20$as$u20$ppv_lite86..types..RotateEachWord32$GT$24rotate_each_word_right1628_$u7b$$u7b$closure$u7d$$u7d$17ha1ad721df1a671d8E
	str	w0, [sp, #2932]
Ltmp641:
	b	LBB66_83
LBB66_83:
	.loc	44 0 31
	ldr	x8, [sp, #3336]
	.loc	44 108 42
	ldr	w1, [x8, #13180]
Ltmp642:
	.loc	44 108 40
	add	x0, sp, #9, lsl #12
	add	x0, x0, #2607
	bl	__ZN90_$LT$ppv_lite86..generic..u32x4_generic$u20$as$u20$ppv_lite86..types..RotateEachWord32$GT$24rotate_each_word_right1628_$u7b$$u7b$closure$u7d$$u7d$17ha1ad721df1a671d8E
	str	w0, [sp, #2928]
Ltmp643:
	b	LBB66_84
LBB66_84:
	.loc	44 0 40
	ldr	x8, [sp, #3336]
	ldr	x9, [sp, #3432]
	ldr	w10, [sp, #2928]
	ldr	w11, [sp, #2932]
	ldr	w12, [sp, #2936]
	ldr	w13, [sp, #2940]
	.loc	44 108 12
	str	w13, [x8, #13200]
	str	w12, [x8, #13204]
	str	w11, [x8, #13208]
	str	w10, [x8, #13212]
	.loc	44 107 13 is_stmt 1
	ldr	q0, [x8, #13200]
	str	q0, [x8, #13184]
Ltmp1481:
	.loc	44 110 14
	ldr	q0, [x8, #13184]
	str	q0, [x8, #13232]
Ltmp1482:
	.loc	44 499 14
	ldr	q0, [x8, #13232]
	str	q0, [x8, #13248]
	.loc	44 499 9 is_stmt 0
	ldr	q0, [x8, #13248]
	str	q0, [x8, #11200]
Ltmp1483:
	.loc	45 276 17 is_stmt 1
	ldr	q0, [x9, #3296]
	str	q0, [x8, #12960]
Ltmp1484:
	.loc	44 331 9
	ldr	q0, [x8, #12960]
	add	x0, sp, #9, lsl #12
	add	x0, x0, #2400
	str	q0, [x8, #12944]
Ltmp645:
Ltmp1485:
	.loc	44 105 29
	add	x8, sp, #9, lsl #12
	add	x8, x8, #2448
	adrp	x1, l_alloc_345ce69d67e2022250dbe2d202815e5b@PAGE
	add	x1, x1, l_alloc_345ce69d67e2022250dbe2d202815e5b@PAGEOFF
	bl	__ZN50_$LT$T$u20$as$u20$core..convert..Into$LT$U$GT$$GT$4into17hb9c0fa23cb5a2aabE
Ltmp646:
	b	LBB66_86
LBB66_85:
Ltmp655:
	.loc	44 0 29 is_stmt 0
	ldr	x8, [sp, #3336]
	str	x0, [x8, #13056]
	mov	x9, x1
	str	w9, [x8, #13064]
	.loc	44 100 1 is_stmt 1
	ldr	x8, [x8, #13056]
	str	x8, [sp, #3304]
	b	LBB66_651
LBB66_86:
	.loc	44 0 1 is_stmt 0
	ldr	x8, [sp, #3336]
Ltmp1486:
	.loc	44 106 22 is_stmt 1
	ldr	q0, [x8, #12992]
	str	q0, [x8, #13008]
Ltmp1487:
	.loc	44 108 15
	ldr	w1, [x8, #13008]
Ltmp647:
	.loc	44 108 13 is_stmt 0
	add	x0, sp, #9, lsl #12
	add	x0, x0, #2447
	bl	__ZN90_$LT$ppv_lite86..generic..u32x4_generic$u20$as$u20$ppv_lite86..types..RotateEachWord32$GT$24rotate_each_word_right1628_$u7b$$u7b$closure$u7d$$u7d$17ha1ad721df1a671d8E
	str	w0, [sp, #2924]
Ltmp648:
	b	LBB66_87
LBB66_87:
	.loc	44 0 13
	ldr	x8, [sp, #3336]
	.loc	44 108 24
	ldr	w1, [x8, #13012]
Ltmp649:
	.loc	44 108 22
	add	x0, sp, #9, lsl #12
	add	x0, x0, #2447
	bl	__ZN90_$LT$ppv_lite86..generic..u32x4_generic$u20$as$u20$ppv_lite86..types..RotateEachWord32$GT$24rotate_each_word_right1628_$u7b$$u7b$closure$u7d$$u7d$17ha1ad721df1a671d8E
	str	w0, [sp, #2920]
Ltmp650:
	b	LBB66_88
LBB66_88:
	.loc	44 0 22
	ldr	x8, [sp, #3336]
	.loc	44 108 33
	ldr	w1, [x8, #13016]
Ltmp651:
	.loc	44 108 31
	add	x0, sp, #9, lsl #12
	add	x0, x0, #2447
	bl	__ZN90_$LT$ppv_lite86..generic..u32x4_generic$u20$as$u20$ppv_lite86..types..RotateEachWord32$GT$24rotate_each_word_right1628_$u7b$$u7b$closure$u7d$$u7d$17ha1ad721df1a671d8E
	str	w0, [sp, #2916]
Ltmp652:
	b	LBB66_89
LBB66_89:
	.loc	44 0 31
	ldr	x8, [sp, #3336]
	.loc	44 108 42
	ldr	w1, [x8, #13020]
Ltmp653:
	.loc	44 108 40
	add	x0, sp, #9, lsl #12
	add	x0, x0, #2447
	bl	__ZN90_$LT$ppv_lite86..generic..u32x4_generic$u20$as$u20$ppv_lite86..types..RotateEachWord32$GT$24rotate_each_word_right1628_$u7b$$u7b$closure$u7d$$u7d$17ha1ad721df1a671d8E
	str	w0, [sp, #2912]
Ltmp654:
	b	LBB66_90
LBB66_90:
	.loc	44 0 40
	ldr	x8, [sp, #3336]
	ldr	x9, [sp, #3432]
	ldr	w10, [sp, #2912]
	ldr	w11, [sp, #2916]
	ldr	w12, [sp, #2920]
	ldr	w13, [sp, #2924]
	.loc	44 108 12
	str	w13, [x8, #13040]
	str	w12, [x8, #13044]
	str	w11, [x8, #13048]
	str	w10, [x8, #13052]
	.loc	44 107 13 is_stmt 1
	ldr	q0, [x8, #13040]
	str	q0, [x8, #13024]
Ltmp1488:
	.loc	44 110 14
	ldr	q0, [x8, #13024]
	str	q0, [x8, #13072]
Ltmp1489:
	.loc	44 499 14
	ldr	q0, [x8, #13072]
	str	q0, [x8, #13088]
	.loc	44 499 9 is_stmt 0
	ldr	q0, [x8, #13088]
	str	q0, [x8, #11216]
Ltmp1490:
	.loc	45 277 17 is_stmt 1
	ldr	q0, [x9, #3312]
	str	q0, [x8, #12800]
Ltmp1491:
	.loc	44 331 9
	ldr	q0, [x8, #12800]
	add	x0, sp, #9, lsl #12
	add	x0, x0, #2240
	str	q0, [x8, #12784]
Ltmp656:
Ltmp1492:
	.loc	44 105 29
	add	x8, sp, #9, lsl #12
	add	x8, x8, #2288
	adrp	x1, l_alloc_345ce69d67e2022250dbe2d202815e5b@PAGE
	add	x1, x1, l_alloc_345ce69d67e2022250dbe2d202815e5b@PAGEOFF
	bl	__ZN50_$LT$T$u20$as$u20$core..convert..Into$LT$U$GT$$GT$4into17hb9c0fa23cb5a2aabE
Ltmp657:
	b	LBB66_92
LBB66_91:
Ltmp666:
	.loc	44 0 29 is_stmt 0
	ldr	x8, [sp, #3336]
	str	x0, [x8, #12896]
	mov	x9, x1
	str	w9, [x8, #12904]
	.loc	44 100 1 is_stmt 1
	ldr	x8, [x8, #12896]
	str	x8, [sp, #3304]
	b	LBB66_651
LBB66_92:
	.loc	44 0 1 is_stmt 0
	ldr	x8, [sp, #3336]
Ltmp1493:
	.loc	44 106 22 is_stmt 1
	ldr	q0, [x8, #12832]
	str	q0, [x8, #12848]
Ltmp1494:
	.loc	44 108 15
	ldr	w1, [x8, #12848]
Ltmp658:
	.loc	44 108 13 is_stmt 0
	add	x0, sp, #9, lsl #12
	add	x0, x0, #2287
	bl	__ZN90_$LT$ppv_lite86..generic..u32x4_generic$u20$as$u20$ppv_lite86..types..RotateEachWord32$GT$24rotate_each_word_right1628_$u7b$$u7b$closure$u7d$$u7d$17ha1ad721df1a671d8E
	str	w0, [sp, #2908]
Ltmp659:
	b	LBB66_93
LBB66_93:
	.loc	44 0 13
	ldr	x8, [sp, #3336]
	.loc	44 108 24
	ldr	w1, [x8, #12852]
Ltmp660:
	.loc	44 108 22
	add	x0, sp, #9, lsl #12
	add	x0, x0, #2287
	bl	__ZN90_$LT$ppv_lite86..generic..u32x4_generic$u20$as$u20$ppv_lite86..types..RotateEachWord32$GT$24rotate_each_word_right1628_$u7b$$u7b$closure$u7d$$u7d$17ha1ad721df1a671d8E
	str	w0, [sp, #2904]
Ltmp661:
	b	LBB66_94
LBB66_94:
	.loc	44 0 22
	ldr	x8, [sp, #3336]
	.loc	44 108 33
	ldr	w1, [x8, #12856]
Ltmp662:
	.loc	44 108 31
	add	x0, sp, #9, lsl #12
	add	x0, x0, #2287
	bl	__ZN90_$LT$ppv_lite86..generic..u32x4_generic$u20$as$u20$ppv_lite86..types..RotateEachWord32$GT$24rotate_each_word_right1628_$u7b$$u7b$closure$u7d$$u7d$17ha1ad721df1a671d8E
	str	w0, [sp, #2900]
Ltmp663:
	b	LBB66_95
LBB66_95:
	.loc	44 0 31
	ldr	x8, [sp, #3336]
	.loc	44 108 42
	ldr	w1, [x8, #12860]
Ltmp664:
	.loc	44 108 40
	add	x0, sp, #9, lsl #12
	add	x0, x0, #2287
	bl	__ZN90_$LT$ppv_lite86..generic..u32x4_generic$u20$as$u20$ppv_lite86..types..RotateEachWord32$GT$24rotate_each_word_right1628_$u7b$$u7b$closure$u7d$$u7d$17ha1ad721df1a671d8E
	str	w0, [sp, #2896]
Ltmp665:
	b	LBB66_96
LBB66_96:
	.loc	44 0 40
	ldr	x8, [sp, #3336]
	ldr	w9, [sp, #2896]
	ldr	w10, [sp, #2900]
	ldr	w11, [sp, #2904]
	ldr	w12, [sp, #2908]
	.loc	44 108 12
	str	w12, [x8, #12880]
	str	w11, [x8, #12884]
	str	w10, [x8, #12888]
	str	w9, [x8, #12892]
	.loc	44 107 13 is_stmt 1
	ldr	q0, [x8, #12880]
	str	q0, [x8, #12864]
Ltmp1495:
	.loc	44 110 14
	ldr	q0, [x8, #12864]
	str	q0, [x8, #12912]
Ltmp1496:
	.loc	44 499 14
	ldr	q0, [x8, #12912]
	str	q0, [x8, #12928]
	.loc	44 499 9 is_stmt 0
	ldr	q0, [x8, #12928]
	str	q0, [x8, #11232]
Ltmp1497:
	.loc	45 273 16 is_stmt 1
	ldr	q0, [x8, #11184]
	add	x1, sp, #9, lsl #12
	add	x1, x1, #576
	str	q0, [x8, #11120]
	ldr	q0, [x8, #11200]
	str	q0, [x8, #11136]
	ldr	q0, [x8, #11216]
	str	q0, [x8, #11152]
	ldr	q0, [x8, #11232]
	str	q0, [x8, #11168]
	add	x0, sp, #2, lsl #12
	add	x0, x0, #4000
	str	x0, [sp, #2864]
	mov	w8, #64
	mov	x2, x8
	str	x2, [sp, #2888]
	.loc	45 273 13 is_stmt 0
	bl	_memcpy
	ldr	x1, [sp, #2864]
	ldr	x2, [sp, #2888]
	add	x8, sp, #1, lsl #12
	add	x8, x8, #528
	str	x8, [sp, #2880]
Ltmp1498:
	.loc	43 47 5 is_stmt 1
	add	x0, x8, #192
	bl	_memcpy
	ldr	x8, [sp, #2880]
	ldr	x2, [sp, #2888]
	.loc	43 48 5
	add	x9, x8, #128
	str	x9, [sp, #2872]
	.loc	43 48 12 is_stmt 0
	add	x1, x8, #192
	add	x0, sp, #3, lsl #12
	add	x0, x0, #160
	bl	_memcpy
	ldr	x10, [sp, #2872]
	ldr	x8, [sp, #3336]
	ldr	x9, [sp, #3408]
	ldr	x11, [sp, #3432]
	mov	x12, x10
	str	x12, [sp, #30440]
Ltmp1499:
	.loc	45 261 38 is_stmt 1
	ldr	q0, [x11, #3456]
	str	q0, [x8, #4048]
	str	x10, [sp, #31992]
Ltmp1500:
	.loc	44 543 17
	ldr	q0, [x9, #1168]
	str	q0, [x8, #5712]
	ldr	q0, [x8, #4048]
	str	q0, [x8, #5696]
Ltmp1501:
	.loc	44 523 9
	ldr	q0, [x8, #5712]
	add	x0, sp, #7, lsl #12
	add	x0, x0, #3328
	str	q0, [x8, #5680]
	ldr	q0, [x8, #5696]
	add	x1, sp, #7, lsl #12
	add	x1, x1, #3376
	str	q0, [x8, #5728]
	add	x8, sp, #7, lsl #12
	add	x8, x8, #3304
	bl	__ZN10ppv_lite867generic5dmap217h136734bbcd323e59E
	ldr	x8, [sp, #3336]
	ldr	x9, [sp, #3408]
	ldr	x10, [sp, #2880]
	ldr	x11, [sp, #3432]
Ltmp1502:
	.loc	44 543 9
	add	x12, sp, #7, lsl #12
	add	x12, x12, #3049
	ldur	q0, [x12, #255]
	str	q0, [x9, #1168]
Ltmp1503:
	.loc	45 262 17
	add	x10, x10, #144
	.loc	45 262 38 is_stmt 0
	ldr	q0, [x11, #3472]
	str	q0, [x8, #4064]
	str	x10, [sp, #31896]
Ltmp1504:
	.loc	44 543 17 is_stmt 1
	ldr	q0, [x9, #1184]
	str	q0, [x8, #5616]
	ldr	q0, [x8, #4064]
	str	q0, [x8, #5600]
Ltmp1505:
	.loc	44 523 9
	ldr	q0, [x8, #5616]
	add	x0, sp, #7, lsl #12
	add	x0, x0, #3232
	str	q0, [x8, #5584]
	ldr	q0, [x8, #5600]
	add	x1, sp, #7, lsl #12
	add	x1, x1, #3280
	str	q0, [x8, #5632]
	add	x8, sp, #7, lsl #12
	add	x8, x8, #3208
	bl	__ZN10ppv_lite867generic5dmap217h136734bbcd323e59E
	ldr	x8, [sp, #3336]
	ldr	x9, [sp, #3408]
	ldr	x10, [sp, #2880]
	ldr	x11, [sp, #3432]
Ltmp1506:
	.loc	44 543 9
	add	x12, sp, #7, lsl #12
	add	x12, x12, #2953
	ldur	q0, [x12, #255]
	str	q0, [x9, #1184]
Ltmp1507:
	.loc	45 263 17
	add	x10, x10, #160
	.loc	45 263 38 is_stmt 0
	ldr	q0, [x11, #3488]
	str	q0, [x8, #4080]
	str	x10, [sp, #31800]
Ltmp1508:
	.loc	44 543 17 is_stmt 1
	ldr	q0, [x9, #1200]
	str	q0, [x8, #5520]
	ldr	q0, [x8, #4080]
	str	q0, [x8, #5504]
Ltmp1509:
	.loc	44 523 9
	ldr	q0, [x8, #5520]
	add	x0, sp, #7, lsl #12
	add	x0, x0, #3136
	str	q0, [x8, #5488]
	ldr	q0, [x8, #5504]
	add	x1, sp, #7, lsl #12
	add	x1, x1, #3184
	str	q0, [x8, #5536]
	add	x8, sp, #7, lsl #12
	add	x8, x8, #3112
	bl	__ZN10ppv_lite867generic5dmap217h136734bbcd323e59E
	ldr	x8, [sp, #3336]
	ldr	x9, [sp, #3408]
	ldr	x10, [sp, #2880]
	ldr	x11, [sp, #3432]
Ltmp1510:
	.loc	44 543 9
	add	x12, sp, #7, lsl #12
	add	x12, x12, #2857
	ldur	q0, [x12, #255]
	str	q0, [x9, #1200]
Ltmp1511:
	.loc	45 264 17
	add	x10, x10, #176
	.loc	45 264 38 is_stmt 0
	ldr	q0, [x11, #3504]
	str	q0, [x8, #4096]
	str	x10, [sp, #31704]
Ltmp1512:
	.loc	44 543 17 is_stmt 1
	ldr	q0, [x9, #1216]
	str	q0, [x8, #5424]
	ldr	q0, [x8, #4096]
	str	q0, [x8, #5408]
Ltmp1513:
	.loc	44 523 9
	ldr	q0, [x8, #5424]
	add	x0, sp, #7, lsl #12
	add	x0, x0, #3040
	str	q0, [x8, #5392]
	ldr	q0, [x8, #5408]
	add	x1, sp, #7, lsl #12
	add	x1, x1, #3088
	str	q0, [x8, #5440]
	add	x8, sp, #7, lsl #12
	add	x8, x8, #3016
	bl	__ZN10ppv_lite867generic5dmap217h136734bbcd323e59E
	ldr	x9, [sp, #3408]
	ldr	x8, [sp, #2880]
	ldr	x2, [sp, #2888]
Ltmp1514:
	.loc	44 543 9
	add	x10, sp, #7, lsl #12
	add	x10, x10, #2761
	ldur	q0, [x10, #255]
	str	q0, [x9, #1216]
Ltmp1515:
	.loc	43 49 12
	add	x1, x8, #64
	add	x0, sp, #3, lsl #12
	add	x0, x0, #352
	bl	_memcpy
	ldr	x8, [sp, #2880]
	ldr	x2, [sp, #2888]
	.loc	43 49 18 is_stmt 0
	add	x1, x8, #128
	add	x0, sp, #3, lsl #12
	add	x0, x0, #416
	bl	_memcpy
	ldr	x10, [sp, #3432]
	ldr	x8, [sp, #3440]
	ldr	x9, [sp, #3360]
Ltmp1516:
	.loc	45 247 21 is_stmt 1
	ldr	q0, [x10, #3648]
	str	q0, [x8, #4208]
	.loc	45 247 35 is_stmt 0
	ldr	q0, [x10, #3712]
	str	q0, [x8, #4192]
Ltmp1517:
	.loc	44 239 17 is_stmt 1
	ldr	q0, [x8, #4208]
	add	x0, sp, #5, lsl #12
	add	x0, x0, #1008
	str	q0, [x8, #4176]
	ldr	q0, [x8, #4192]
	str	q0, [x8, #4224]
Ltmp1518:
	.loc	44 191 9
	strb	wzr, [x9]
	mov	w8, #1
	strb	w8, [x9]
Ltmp667:
	.loc	44 191 29 is_stmt 0
	add	x8, sp, #5, lsl #12
	add	x8, x8, #1088
	adrp	x1, l_alloc_d6cd646a032ab5661bff8aa78f551e65@PAGE
	add	x1, x1, l_alloc_d6cd646a032ab5661bff8aa78f551e65@PAGEOFF
	bl	__ZN50_$LT$T$u20$as$u20$core..convert..Into$LT$U$GT$$GT$4into17hb9c0fa23cb5a2aabE
Ltmp668:
	b	LBB66_98
LBB66_97:
Ltmp673:
	.loc	44 0 29
	ldr	x8, [sp, #3360]
	str	x0, [sp, #21696]
	mov	x9, x1
	stur	w9, [x8, #9]
	.loc	44 199 1 is_stmt 1
	ldrb	w8, [x8]
	tbnz	w8, #0, LBB66_101
	b	LBB66_100
LBB66_98:
	.loc	44 0 1 is_stmt 0
	ldr	x8, [sp, #3440]
	ldr	x9, [sp, #3360]
Ltmp1519:
	.loc	44 192 29 is_stmt 1
	strb	wzr, [x9]
	ldr	q0, [x8, #4224]
	add	x0, sp, #5, lsl #12
	add	x0, x0, #1120
	str	q0, [x8, #4288]
Ltmp669:
	add	x8, sp, #5, lsl #12
	add	x8, x8, #1104
	adrp	x1, l_alloc_eb8937521ab56b1815db886b021bd11a@PAGE
	add	x1, x1, l_alloc_eb8937521ab56b1815db886b021bd11a@PAGEOFF
	bl	__ZN50_$LT$T$u20$as$u20$core..convert..Into$LT$U$GT$$GT$4into17hb9c0fa23cb5a2aabE
Ltmp670:
	b	LBB66_99
LBB66_99:
	.loc	44 0 29 is_stmt 0
	ldr	x8, [sp, #3360]
	ldr	x10, [sp, #3440]
Ltmp1520:
	.loc	44 193 30 is_stmt 1
	ldr	q0, [x10, #4256]
	str	q0, [x10, #4304]
Ltmp1521:
	.loc	44 165 16
	ldr	x12, [sp, #21616]
	mov	x9, #0
	str	x12, [sp, #21800]
	.loc	44 165 36 is_stmt 0
	ldr	x11, [sp, #21624]
	str	x11, [sp, #21792]
	.loc	44 165 5
	orr	x1, x12, x9
	orr	x2, x9, x11
	mov.d	v0[0], x1
	mov.d	v0[1], x2
Ltmp1522:
	.loc	44 193 14 is_stmt 1
	stur	q0, [x8, #17]
Ltmp1523:
	.loc	44 194 30
	ldr	q0, [x10, #4272]
	str	q0, [x10, #4320]
Ltmp1524:
	.loc	44 165 16
	ldr	x11, [sp, #21632]
	str	x11, [sp, #21816]
	.loc	44 165 36 is_stmt 0
	ldr	x10, [sp, #21640]
	str	x10, [sp, #21808]
	.loc	44 165 5
	orr	x3, x11, x9
	orr	x4, x9, x10
	mov.d	v0[0], x3
	mov.d	v0[1], x4
Ltmp1525:
	.loc	44 194 14 is_stmt 1
	stur	q0, [x8, #33]
Ltmp671:
Ltmp1526:
	.loc	44 196 19
	add	x0, sp, #5, lsl #12
	add	x0, x0, #1087
	bl	__ZN77_$LT$ppv_lite86..generic..u32x4_generic$u20$as$u20$core..ops..bit..BitXor$GT$6bitxor28_$u7b$$u7b$closure$u7d$$u7d$17hbf1305eccfd97e53E
	str	x0, [sp, #2832]
	str	x1, [sp, #2840]
	mov.d	v0[0], x0
	mov.d	v0[1], x1
	str	q0, [sp, #2848]
Ltmp672:
	b	LBB66_102
Ltmp1527:
LBB66_100:
	.loc	44 186 1
	ldr	x8, [sp, #21696]
	str	x8, [sp, #3304]
	b	LBB66_651
LBB66_101:
	.loc	44 199 1
	b	LBB66_100
LBB66_102:
	.loc	44 0 1 is_stmt 0
	ldr	x9, [sp, #3440]
	ldr	x8, [sp, #3432]
	ldr	x10, [sp, #3360]
	ldr	x11, [sp, #2840]
	ldr	x12, [sp, #2832]
	ldr	q0, [sp, #2848]
	stur	q0, [x10, #65]
Ltmp1528:
	.loc	44 170 5 is_stmt 1
	str	x12, [sp, #21672]
	str	x11, [sp, #21680]
Ltmp1529:
	.loc	44 195 13
	add	x11, sp, #5, lsl #12
	add	x11, x11, #937
	ldur	q0, [x11, #255]
	str	q0, [x9, #4336]
Ltmp1530:
	.loc	44 198 14
	ldr	q0, [x9, #4336]
	stur	q0, [x10, #49]
Ltmp1531:
	.loc	44 499 14
	ldur	q0, [x10, #49]
	stur	q0, [x10, #81]
	.loc	44 499 9 is_stmt 0
	ldur	q0, [x10, #81]
	str	q0, [x8, #6592]
Ltmp1532:
	.loc	45 248 21 is_stmt 1
	ldr	q0, [x8, #3664]
	str	q0, [x9, #3872]
	.loc	45 248 35 is_stmt 0
	ldr	q0, [x8, #3728]
	str	q0, [x9, #3856]
Ltmp1533:
	.loc	44 239 17 is_stmt 1
	ldr	q0, [x9, #3872]
	add	x0, sp, #5, lsl #12
	add	x0, x0, #672
	str	q0, [x9, #3840]
	ldr	q0, [x9, #3856]
	str	q0, [x9, #3888]
Ltmp1534:
	.loc	44 191 9
	strb	wzr, [x9, #4047]
	mov	w8, #1
	strb	w8, [x9, #4047]
Ltmp674:
	.loc	44 191 29 is_stmt 0
	add	x8, sp, #5, lsl #12
	add	x8, x8, #752
	adrp	x1, l_alloc_d6cd646a032ab5661bff8aa78f551e65@PAGE
	add	x1, x1, l_alloc_d6cd646a032ab5661bff8aa78f551e65@PAGEOFF
	bl	__ZN50_$LT$T$u20$as$u20$core..convert..Into$LT$U$GT$$GT$4into17hb9c0fa23cb5a2aabE
Ltmp675:
	b	LBB66_104
LBB66_103:
Ltmp680:
	.loc	44 0 29
	ldr	x8, [sp, #3440]
	str	x0, [sp, #21360]
	mov	x9, x1
	str	w9, [x8, #4056]
	.loc	44 199 1 is_stmt 1
	ldrb	w8, [x8, #4047]
	tbnz	w8, #0, LBB66_107
	b	LBB66_106
LBB66_104:
	.loc	44 0 1 is_stmt 0
	ldr	x8, [sp, #3440]
Ltmp1535:
	.loc	44 192 29 is_stmt 1
	strb	wzr, [x8, #4047]
	ldr	q0, [x8, #3888]
	add	x0, sp, #5, lsl #12
	add	x0, x0, #784
	str	q0, [x8, #3952]
Ltmp676:
	add	x8, sp, #5, lsl #12
	add	x8, x8, #768
	adrp	x1, l_alloc_eb8937521ab56b1815db886b021bd11a@PAGE
	add	x1, x1, l_alloc_eb8937521ab56b1815db886b021bd11a@PAGEOFF
	bl	__ZN50_$LT$T$u20$as$u20$core..convert..Into$LT$U$GT$$GT$4into17hb9c0fa23cb5a2aabE
Ltmp677:
	b	LBB66_105
LBB66_105:
	.loc	44 0 29 is_stmt 0
	ldr	x8, [sp, #3440]
Ltmp1536:
	.loc	44 193 30 is_stmt 1
	ldr	q0, [x8, #3920]
	str	q0, [x8, #3968]
Ltmp1537:
	.loc	44 165 16
	ldr	x11, [sp, #21280]
	mov	x9, #0
	str	x11, [sp, #21464]
	.loc	44 165 36 is_stmt 0
	ldr	x10, [sp, #21288]
	str	x10, [sp, #21456]
	.loc	44 165 5
	orr	x1, x11, x9
	orr	x2, x9, x10
	mov.d	v0[0], x1
	mov.d	v0[1], x2
Ltmp1538:
	.loc	44 193 14 is_stmt 1
	str	q0, [x8, #4064]
Ltmp1539:
	.loc	44 194 30
	ldr	q0, [x8, #3936]
	str	q0, [x8, #3984]
Ltmp1540:
	.loc	44 165 16
	ldr	x11, [sp, #21296]
	str	x11, [sp, #21480]
	.loc	44 165 36 is_stmt 0
	ldr	x10, [sp, #21304]
	str	x10, [sp, #21472]
	.loc	44 165 5
	orr	x3, x11, x9
	orr	x4, x9, x10
	mov.d	v0[0], x3
	mov.d	v0[1], x4
Ltmp1541:
	.loc	44 194 14 is_stmt 1
	str	q0, [x8, #4080]
Ltmp678:
Ltmp1542:
	.loc	44 196 19
	add	x0, sp, #5, lsl #12
	add	x0, x0, #751
	bl	__ZN77_$LT$ppv_lite86..generic..u32x4_generic$u20$as$u20$core..ops..bit..BitXor$GT$6bitxor28_$u7b$$u7b$closure$u7d$$u7d$17hbf1305eccfd97e53E
	str	x0, [sp, #2800]
	str	x1, [sp, #2808]
	mov.d	v0[0], x0
	mov.d	v0[1], x1
	str	q0, [sp, #2816]
Ltmp679:
	b	LBB66_108
Ltmp1543:
LBB66_106:
	.loc	44 0 19 is_stmt 0
	ldr	x8, [sp, #3440]
	.loc	44 186 1 is_stmt 1
	ldr	x9, [sp, #21360]
	str	x9, [sp, #2784]
	ldr	w8, [x8, #4056]
	str	w8, [sp, #2796]
	b	LBB66_110
LBB66_107:
	.loc	44 199 1
	b	LBB66_106
LBB66_108:
	.loc	44 0 1 is_stmt 0
	ldr	x8, [sp, #3432]
	ldr	x9, [sp, #3440]
	ldr	x10, [sp, #2808]
	ldr	x11, [sp, #2800]
	ldr	q0, [sp, #2816]
	str	q0, [x9, #4112]
Ltmp1544:
	.loc	44 170 5 is_stmt 1
	str	x11, [sp, #21336]
	str	x10, [sp, #21344]
Ltmp1545:
	.loc	44 195 13
	add	x10, sp, #5, lsl #12
	add	x10, x10, #601
	ldur	q0, [x10, #255]
	str	q0, [x9, #4000]
Ltmp1546:
	.loc	44 198 14
	ldr	q0, [x9, #4000]
	str	q0, [x9, #4096]
Ltmp1547:
	.loc	44 499 14
	ldr	q0, [x9, #4096]
	str	q0, [x9, #4128]
	.loc	44 499 9 is_stmt 0
	ldr	q0, [x9, #4128]
	str	q0, [x8, #6608]
Ltmp1548:
	.loc	44 240 14 is_stmt 1
	b	LBB66_111
Ltmp1549:
LBB66_109:
	.loc	45 245 13
	ldr	x8, [sp, #15648]
	str	x8, [sp, #3304]
	b	LBB66_651
LBB66_110:
	.loc	45 0 13 is_stmt 0
	ldr	w8, [sp, #2796]
	ldr	x9, [sp, #2784]
	str	x9, [sp, #15648]
	str	w8, [sp, #15656]
	b	LBB66_109
LBB66_111:
	ldr	x9, [sp, #3440]
	ldr	x8, [sp, #3432]
	.loc	45 249 21 is_stmt 1
	ldr	q0, [x8, #3680]
	str	q0, [x9, #3536]
	.loc	45 249 35 is_stmt 0
	ldr	q0, [x8, #3744]
	str	q0, [x9, #3520]
Ltmp1550:
	.loc	44 239 17 is_stmt 1
	ldr	q0, [x9, #3536]
	add	x0, sp, #5, lsl #12
	add	x0, x0, #336
	str	q0, [x9, #3504]
	ldr	q0, [x9, #3520]
	str	q0, [x9, #3552]
Ltmp1551:
	.loc	44 191 9
	strb	wzr, [x9, #3711]
	mov	w8, #1
	strb	w8, [x9, #3711]
Ltmp681:
	.loc	44 191 29 is_stmt 0
	add	x8, sp, #5, lsl #12
	add	x8, x8, #416
	adrp	x1, l_alloc_d6cd646a032ab5661bff8aa78f551e65@PAGE
	add	x1, x1, l_alloc_d6cd646a032ab5661bff8aa78f551e65@PAGEOFF
	bl	__ZN50_$LT$T$u20$as$u20$core..convert..Into$LT$U$GT$$GT$4into17hb9c0fa23cb5a2aabE
Ltmp682:
	b	LBB66_113
LBB66_112:
Ltmp687:
	.loc	44 0 29
	ldr	x8, [sp, #3440]
	str	x0, [sp, #21024]
	mov	x9, x1
	str	w9, [x8, #3720]
	.loc	44 199 1 is_stmt 1
	ldrb	w8, [x8, #3711]
	tbnz	w8, #0, LBB66_116
	b	LBB66_115
LBB66_113:
	.loc	44 0 1 is_stmt 0
	ldr	x8, [sp, #3440]
Ltmp1552:
	.loc	44 192 29 is_stmt 1
	strb	wzr, [x8, #3711]
	ldr	q0, [x8, #3552]
	add	x0, sp, #5, lsl #12
	add	x0, x0, #448
	str	q0, [x8, #3616]
Ltmp683:
	add	x8, sp, #5, lsl #12
	add	x8, x8, #432
	adrp	x1, l_alloc_eb8937521ab56b1815db886b021bd11a@PAGE
	add	x1, x1, l_alloc_eb8937521ab56b1815db886b021bd11a@PAGEOFF
	bl	__ZN50_$LT$T$u20$as$u20$core..convert..Into$LT$U$GT$$GT$4into17hb9c0fa23cb5a2aabE
Ltmp684:
	b	LBB66_114
LBB66_114:
	.loc	44 0 29 is_stmt 0
	ldr	x8, [sp, #3440]
Ltmp1553:
	.loc	44 193 30 is_stmt 1
	ldr	q0, [x8, #3584]
	str	q0, [x8, #3632]
Ltmp1554:
	.loc	44 165 16
	ldr	x11, [sp, #20944]
	mov	x9, #0
	str	x11, [sp, #21128]
	.loc	44 165 36 is_stmt 0
	ldr	x10, [sp, #20952]
	str	x10, [sp, #21120]
	.loc	44 165 5
	orr	x1, x11, x9
	orr	x2, x9, x10
	mov.d	v0[0], x1
	mov.d	v0[1], x2
Ltmp1555:
	.loc	44 193 14 is_stmt 1
	str	q0, [x8, #3728]
Ltmp1556:
	.loc	44 194 30
	ldr	q0, [x8, #3600]
	str	q0, [x8, #3648]
Ltmp1557:
	.loc	44 165 16
	ldr	x11, [sp, #20960]
	str	x11, [sp, #21144]
	.loc	44 165 36 is_stmt 0
	ldr	x10, [sp, #20968]
	str	x10, [sp, #21136]
	.loc	44 165 5
	orr	x3, x11, x9
	orr	x4, x9, x10
	mov.d	v0[0], x3
	mov.d	v0[1], x4
Ltmp1558:
	.loc	44 194 14 is_stmt 1
	str	q0, [x8, #3744]
Ltmp685:
Ltmp1559:
	.loc	44 196 19
	add	x0, sp, #5, lsl #12
	add	x0, x0, #415
	bl	__ZN77_$LT$ppv_lite86..generic..u32x4_generic$u20$as$u20$core..ops..bit..BitXor$GT$6bitxor28_$u7b$$u7b$closure$u7d$$u7d$17hbf1305eccfd97e53E
	str	x0, [sp, #2752]
	str	x1, [sp, #2760]
	mov.d	v0[0], x0
	mov.d	v0[1], x1
	str	q0, [sp, #2768]
Ltmp686:
	b	LBB66_117
Ltmp1560:
LBB66_115:
	.loc	44 0 19 is_stmt 0
	ldr	x8, [sp, #3440]
	.loc	44 186 1 is_stmt 1
	ldr	x9, [sp, #21024]
	str	x9, [sp, #2736]
	ldr	w8, [x8, #3720]
	str	w8, [sp, #2748]
	b	LBB66_119
LBB66_116:
	.loc	44 199 1
	b	LBB66_115
LBB66_117:
	.loc	44 0 1 is_stmt 0
	ldr	x8, [sp, #3432]
	ldr	x9, [sp, #3440]
	ldr	x10, [sp, #2760]
	ldr	x11, [sp, #2752]
	ldr	q0, [sp, #2768]
	str	q0, [x9, #3776]
Ltmp1561:
	.loc	44 170 5 is_stmt 1
	str	x11, [sp, #21000]
	str	x10, [sp, #21008]
Ltmp1562:
	.loc	44 195 13
	add	x10, sp, #5, lsl #12
	add	x10, x10, #265
	ldur	q0, [x10, #255]
	str	q0, [x9, #3664]
Ltmp1563:
	.loc	44 198 14
	ldr	q0, [x9, #3664]
	str	q0, [x9, #3760]
Ltmp1564:
	.loc	44 499 14
	ldr	q0, [x9, #3760]
	str	q0, [x9, #3792]
	.loc	44 499 9 is_stmt 0
	ldr	q0, [x9, #3792]
	str	q0, [x8, #6624]
Ltmp1565:
	.loc	44 240 14 is_stmt 1
	b	LBB66_120
Ltmp1566:
LBB66_118:
	.loc	45 251 17
	b	LBB66_109
LBB66_119:
	.loc	45 0 17 is_stmt 0
	ldr	w8, [sp, #2748]
	ldr	x9, [sp, #2736]
	str	x9, [sp, #15648]
	str	w8, [sp, #15656]
	b	LBB66_118
LBB66_120:
	ldr	x9, [sp, #3440]
	ldr	x8, [sp, #3432]
	.loc	45 250 21 is_stmt 1
	ldr	q0, [x8, #3696]
	str	q0, [x9, #3200]
	.loc	45 250 35 is_stmt 0
	ldr	q0, [x8, #3760]
	str	q0, [x9, #3184]
Ltmp1567:
	.loc	44 239 17 is_stmt 1
	ldr	q0, [x9, #3200]
	add	x0, sp, #5, lsl #12
	str	q0, [x9, #3168]
	ldr	q0, [x9, #3184]
	str	q0, [x9, #3216]
Ltmp1568:
	.loc	44 191 9
	strb	wzr, [x9, #3375]
	mov	w8, #1
	strb	w8, [x9, #3375]
Ltmp688:
	.loc	44 191 29 is_stmt 0
	add	x8, sp, #5, lsl #12
	add	x8, x8, #80
	adrp	x1, l_alloc_d6cd646a032ab5661bff8aa78f551e65@PAGE
	add	x1, x1, l_alloc_d6cd646a032ab5661bff8aa78f551e65@PAGEOFF
	bl	__ZN50_$LT$T$u20$as$u20$core..convert..Into$LT$U$GT$$GT$4into17hb9c0fa23cb5a2aabE
Ltmp689:
	b	LBB66_122
LBB66_121:
Ltmp694:
	.loc	44 0 29
	ldr	x8, [sp, #3440]
	str	x0, [sp, #20688]
	mov	x9, x1
	str	w9, [x8, #3384]
	.loc	44 199 1 is_stmt 1
	ldrb	w8, [x8, #3375]
	tbnz	w8, #0, LBB66_125
	b	LBB66_124
LBB66_122:
	.loc	44 0 1 is_stmt 0
	ldr	x8, [sp, #3440]
Ltmp1569:
	.loc	44 192 29 is_stmt 1
	strb	wzr, [x8, #3375]
	ldr	q0, [x8, #3216]
	add	x0, sp, #5, lsl #12
	add	x0, x0, #112
	str	q0, [x8, #3280]
Ltmp690:
	add	x8, sp, #5, lsl #12
	add	x8, x8, #96
	adrp	x1, l_alloc_eb8937521ab56b1815db886b021bd11a@PAGE
	add	x1, x1, l_alloc_eb8937521ab56b1815db886b021bd11a@PAGEOFF
	bl	__ZN50_$LT$T$u20$as$u20$core..convert..Into$LT$U$GT$$GT$4into17hb9c0fa23cb5a2aabE
Ltmp691:
	b	LBB66_123
LBB66_123:
	.loc	44 0 29 is_stmt 0
	ldr	x8, [sp, #3440]
Ltmp1570:
	.loc	44 193 30 is_stmt 1
	ldr	q0, [x8, #3248]
	str	q0, [x8, #3296]
Ltmp1571:
	.loc	44 165 16
	ldr	x11, [sp, #20608]
	mov	x9, #0
	str	x11, [sp, #20792]
	.loc	44 165 36 is_stmt 0
	ldr	x10, [sp, #20616]
	str	x10, [sp, #20784]
	.loc	44 165 5
	orr	x1, x11, x9
	orr	x2, x9, x10
	mov.d	v0[0], x1
	mov.d	v0[1], x2
Ltmp1572:
	.loc	44 193 14 is_stmt 1
	str	q0, [x8, #3392]
Ltmp1573:
	.loc	44 194 30
	ldr	q0, [x8, #3264]
	str	q0, [x8, #3312]
Ltmp1574:
	.loc	44 165 16
	ldr	x11, [sp, #20624]
	str	x11, [sp, #20808]
	.loc	44 165 36 is_stmt 0
	ldr	x10, [sp, #20632]
	str	x10, [sp, #20800]
	.loc	44 165 5
	orr	x3, x11, x9
	orr	x4, x9, x10
	mov.d	v0[0], x3
	mov.d	v0[1], x4
Ltmp1575:
	.loc	44 194 14 is_stmt 1
	str	q0, [x8, #3408]
Ltmp692:
Ltmp1576:
	.loc	44 196 19
	add	x0, sp, #5, lsl #12
	add	x0, x0, #79
	bl	__ZN77_$LT$ppv_lite86..generic..u32x4_generic$u20$as$u20$core..ops..bit..BitXor$GT$6bitxor28_$u7b$$u7b$closure$u7d$$u7d$17hbf1305eccfd97e53E
	str	x0, [sp, #2704]
	str	x1, [sp, #2712]
	mov.d	v0[0], x0
	mov.d	v0[1], x1
	str	q0, [sp, #2720]
Ltmp693:
	b	LBB66_126
Ltmp1577:
LBB66_124:
	.loc	44 0 19 is_stmt 0
	ldr	x8, [sp, #3440]
	.loc	44 186 1 is_stmt 1
	ldr	x9, [sp, #20688]
	str	x9, [sp, #2688]
	ldr	w8, [x8, #3384]
	str	w8, [sp, #2700]
	b	LBB66_127
LBB66_125:
	.loc	44 199 1
	b	LBB66_124
LBB66_126:
	.loc	44 0 1 is_stmt 0
	ldr	x8, [sp, #3432]
	ldr	x9, [sp, #3440]
	ldr	x10, [sp, #2712]
	ldr	x11, [sp, #2704]
	ldr	q0, [sp, #2720]
	str	q0, [x9, #3440]
Ltmp1578:
	.loc	44 170 5 is_stmt 1
	str	x11, [sp, #20664]
	str	x10, [sp, #20672]
Ltmp1579:
	.loc	44 195 13
	add	x10, sp, #4, lsl #12
	add	x10, x10, #4025
	ldur	q0, [x10, #255]
	str	q0, [x9, #3328]
Ltmp1580:
	.loc	44 198 14
	ldr	q0, [x9, #3328]
	str	q0, [x9, #3424]
Ltmp1581:
	.loc	44 499 14
	ldr	q0, [x9, #3424]
	str	q0, [x9, #3456]
	.loc	44 499 9 is_stmt 0
	ldr	q0, [x9, #3456]
	str	q0, [x8, #6640]
Ltmp1582:
	.loc	44 240 14 is_stmt 1
	b	LBB66_128
Ltmp1583:
LBB66_127:
	.loc	44 0 14 is_stmt 0
	ldr	w8, [sp, #2700]
	ldr	x9, [sp, #2688]
	str	x9, [sp, #15648]
	str	w8, [sp, #15656]
	.loc	45 251 17 is_stmt 1
	b	LBB66_118
LBB66_128:
	.loc	45 0 17 is_stmt 0
	ldr	x8, [sp, #3432]
	.loc	45 246 20 is_stmt 1
	ldr	q0, [x8, #6592]
	add	x1, sp, #3, lsl #12
	add	x1, x1, #3232
	str	q0, [x8, #6528]
	ldr	q0, [x8, #6608]
	str	q0, [x8, #6544]
	ldr	q0, [x8, #6624]
	str	q0, [x8, #6560]
	ldr	q0, [x8, #6640]
	str	q0, [x8, #6576]
	add	x0, sp, #3, lsl #12
	add	x0, x0, #288
	.loc	45 246 17 is_stmt 0
	mov	w8, #64
	mov	x2, x8
	bl	_memcpy
	ldr	x9, [sp, #3432]
	ldr	x8, [sp, #3336]
Ltmp1584:
	.loc	45 274 17 is_stmt 1
	ldr	q0, [x9, #3584]
	str	q0, [x8, #14560]
Ltmp1585:
	.loc	44 335 9
	ldr	q0, [x8, #14560]
	add	x0, sp, #9, lsl #12
	add	x0, x0, #4000
	str	q0, [x8, #14544]
Ltmp695:
Ltmp1586:
	.loc	44 105 29
	add	x8, sp, #9, lsl #12
	add	x8, x8, #4048
	adrp	x1, l_alloc_345ce69d67e2022250dbe2d202815e5b@PAGE
	add	x1, x1, l_alloc_345ce69d67e2022250dbe2d202815e5b@PAGEOFF
	bl	__ZN50_$LT$T$u20$as$u20$core..convert..Into$LT$U$GT$$GT$4into17hb9c0fa23cb5a2aabE
Ltmp696:
	b	LBB66_130
LBB66_129:
Ltmp705:
	.loc	44 0 29 is_stmt 0
	ldr	x8, [sp, #3336]
	str	x0, [x8, #14656]
	mov	x9, x1
	str	w9, [x8, #14664]
	.loc	44 100 1 is_stmt 1
	ldr	x8, [x8, #14656]
	str	x8, [sp, #3304]
	b	LBB66_651
LBB66_130:
	.loc	44 0 1 is_stmt 0
	ldr	x8, [sp, #3336]
Ltmp1587:
	.loc	44 106 22 is_stmt 1
	ldr	q0, [x8, #14592]
	str	q0, [x8, #14608]
Ltmp1588:
	.loc	44 108 15
	ldr	w1, [x8, #14608]
Ltmp697:
	.loc	44 108 13 is_stmt 0
	add	x0, sp, #9, lsl #12
	add	x0, x0, #4047
	bl	__ZN90_$LT$ppv_lite86..generic..u32x4_generic$u20$as$u20$ppv_lite86..types..RotateEachWord32$GT$24rotate_each_word_right2028_$u7b$$u7b$closure$u7d$$u7d$17hed1b518b9d9a0615E
	str	w0, [sp, #2684]
Ltmp698:
	b	LBB66_131
LBB66_131:
	.loc	44 0 13
	ldr	x8, [sp, #3336]
	.loc	44 108 24
	ldr	w1, [x8, #14612]
Ltmp699:
	.loc	44 108 22
	add	x0, sp, #9, lsl #12
	add	x0, x0, #4047
	bl	__ZN90_$LT$ppv_lite86..generic..u32x4_generic$u20$as$u20$ppv_lite86..types..RotateEachWord32$GT$24rotate_each_word_right2028_$u7b$$u7b$closure$u7d$$u7d$17hed1b518b9d9a0615E
	str	w0, [sp, #2680]
Ltmp700:
	b	LBB66_132
LBB66_132:
	.loc	44 0 22
	ldr	x8, [sp, #3336]
	.loc	44 108 33
	ldr	w1, [x8, #14616]
Ltmp701:
	.loc	44 108 31
	add	x0, sp, #9, lsl #12
	add	x0, x0, #4047
	bl	__ZN90_$LT$ppv_lite86..generic..u32x4_generic$u20$as$u20$ppv_lite86..types..RotateEachWord32$GT$24rotate_each_word_right2028_$u7b$$u7b$closure$u7d$$u7d$17hed1b518b9d9a0615E
	str	w0, [sp, #2676]
Ltmp702:
	b	LBB66_133
LBB66_133:
	.loc	44 0 31
	ldr	x8, [sp, #3336]
	.loc	44 108 42
	ldr	w1, [x8, #14620]
Ltmp703:
	.loc	44 108 40
	add	x0, sp, #9, lsl #12
	add	x0, x0, #4047
	bl	__ZN90_$LT$ppv_lite86..generic..u32x4_generic$u20$as$u20$ppv_lite86..types..RotateEachWord32$GT$24rotate_each_word_right2028_$u7b$$u7b$closure$u7d$$u7d$17hed1b518b9d9a0615E
	str	w0, [sp, #2672]
Ltmp704:
	b	LBB66_134
LBB66_134:
	.loc	44 0 40
	ldr	x8, [sp, #3336]
	ldr	x9, [sp, #3432]
	ldr	w10, [sp, #2672]
	ldr	w11, [sp, #2676]
	ldr	w12, [sp, #2680]
	ldr	w13, [sp, #2684]
	.loc	44 108 12
	str	w13, [x8, #14640]
	str	w12, [x8, #14644]
	str	w11, [x8, #14648]
	str	w10, [x8, #14652]
	.loc	44 107 13 is_stmt 1
	ldr	q0, [x8, #14640]
	str	q0, [x8, #14624]
Ltmp1589:
	.loc	44 110 14
	ldr	q0, [x8, #14624]
	str	q0, [x8, #14672]
Ltmp1590:
	.loc	44 499 14
	ldr	q0, [x8, #14672]
	str	q0, [x8, #14688]
	.loc	44 499 9 is_stmt 0
	ldr	q0, [x8, #14688]
	str	q0, [x8, #11440]
Ltmp1591:
	.loc	45 275 17 is_stmt 1
	ldr	q0, [x9, #3600]
	str	q0, [x8, #14400]
Ltmp1592:
	.loc	44 335 9
	ldr	q0, [x8, #14400]
	add	x0, sp, #9, lsl #12
	add	x0, x0, #3840
	str	q0, [x8, #14384]
Ltmp706:
Ltmp1593:
	.loc	44 105 29
	add	x8, sp, #9, lsl #12
	add	x8, x8, #3888
	adrp	x1, l_alloc_345ce69d67e2022250dbe2d202815e5b@PAGE
	add	x1, x1, l_alloc_345ce69d67e2022250dbe2d202815e5b@PAGEOFF
	bl	__ZN50_$LT$T$u20$as$u20$core..convert..Into$LT$U$GT$$GT$4into17hb9c0fa23cb5a2aabE
Ltmp707:
	b	LBB66_136
LBB66_135:
Ltmp716:
	.loc	44 0 29 is_stmt 0
	ldr	x8, [sp, #3336]
	str	x0, [x8, #14496]
	mov	x9, x1
	str	w9, [x8, #14504]
	.loc	44 100 1 is_stmt 1
	ldr	x8, [x8, #14496]
	str	x8, [sp, #3304]
	b	LBB66_651
LBB66_136:
	.loc	44 0 1 is_stmt 0
	ldr	x8, [sp, #3336]
Ltmp1594:
	.loc	44 106 22 is_stmt 1
	ldr	q0, [x8, #14432]
	str	q0, [x8, #14448]
Ltmp1595:
	.loc	44 108 15
	ldr	w1, [x8, #14448]
Ltmp708:
	.loc	44 108 13 is_stmt 0
	add	x0, sp, #9, lsl #12
	add	x0, x0, #3887
	bl	__ZN90_$LT$ppv_lite86..generic..u32x4_generic$u20$as$u20$ppv_lite86..types..RotateEachWord32$GT$24rotate_each_word_right2028_$u7b$$u7b$closure$u7d$$u7d$17hed1b518b9d9a0615E
	str	w0, [sp, #2668]
Ltmp709:
	b	LBB66_137
LBB66_137:
	.loc	44 0 13
	ldr	x8, [sp, #3336]
	.loc	44 108 24
	ldr	w1, [x8, #14452]
Ltmp710:
	.loc	44 108 22
	add	x0, sp, #9, lsl #12
	add	x0, x0, #3887
	bl	__ZN90_$LT$ppv_lite86..generic..u32x4_generic$u20$as$u20$ppv_lite86..types..RotateEachWord32$GT$24rotate_each_word_right2028_$u7b$$u7b$closure$u7d$$u7d$17hed1b518b9d9a0615E
	str	w0, [sp, #2664]
Ltmp711:
	b	LBB66_138
LBB66_138:
	.loc	44 0 22
	ldr	x8, [sp, #3336]
	.loc	44 108 33
	ldr	w1, [x8, #14456]
Ltmp712:
	.loc	44 108 31
	add	x0, sp, #9, lsl #12
	add	x0, x0, #3887
	bl	__ZN90_$LT$ppv_lite86..generic..u32x4_generic$u20$as$u20$ppv_lite86..types..RotateEachWord32$GT$24rotate_each_word_right2028_$u7b$$u7b$closure$u7d$$u7d$17hed1b518b9d9a0615E
	str	w0, [sp, #2660]
Ltmp713:
	b	LBB66_139
LBB66_139:
	.loc	44 0 31
	ldr	x8, [sp, #3336]
	.loc	44 108 42
	ldr	w1, [x8, #14460]
Ltmp714:
	.loc	44 108 40
	add	x0, sp, #9, lsl #12
	add	x0, x0, #3887
	bl	__ZN90_$LT$ppv_lite86..generic..u32x4_generic$u20$as$u20$ppv_lite86..types..RotateEachWord32$GT$24rotate_each_word_right2028_$u7b$$u7b$closure$u7d$$u7d$17hed1b518b9d9a0615E
	str	w0, [sp, #2656]
Ltmp715:
	b	LBB66_140
LBB66_140:
	.loc	44 0 40
	ldr	x8, [sp, #3336]
	ldr	x9, [sp, #3432]
	ldr	w10, [sp, #2656]
	ldr	w11, [sp, #2660]
	ldr	w12, [sp, #2664]
	ldr	w13, [sp, #2668]
	.loc	44 108 12
	str	w13, [x8, #14480]
	str	w12, [x8, #14484]
	str	w11, [x8, #14488]
	str	w10, [x8, #14492]
	.loc	44 107 13 is_stmt 1
	ldr	q0, [x8, #14480]
	str	q0, [x8, #14464]
Ltmp1596:
	.loc	44 110 14
	ldr	q0, [x8, #14464]
	str	q0, [x8, #14512]
Ltmp1597:
	.loc	44 499 14
	ldr	q0, [x8, #14512]
	str	q0, [x8, #14528]
	.loc	44 499 9 is_stmt 0
	ldr	q0, [x8, #14528]
	str	q0, [x8, #11456]
Ltmp1598:
	.loc	45 276 17 is_stmt 1
	ldr	q0, [x9, #3616]
	str	q0, [x8, #14240]
Ltmp1599:
	.loc	44 335 9
	ldr	q0, [x8, #14240]
	add	x0, sp, #9, lsl #12
	add	x0, x0, #3680
	str	q0, [x8, #14224]
Ltmp717:
Ltmp1600:
	.loc	44 105 29
	add	x8, sp, #9, lsl #12
	add	x8, x8, #3728
	adrp	x1, l_alloc_345ce69d67e2022250dbe2d202815e5b@PAGE
	add	x1, x1, l_alloc_345ce69d67e2022250dbe2d202815e5b@PAGEOFF
	bl	__ZN50_$LT$T$u20$as$u20$core..convert..Into$LT$U$GT$$GT$4into17hb9c0fa23cb5a2aabE
Ltmp718:
	b	LBB66_142
LBB66_141:
Ltmp727:
	.loc	44 0 29 is_stmt 0
	ldr	x8, [sp, #3336]
	str	x0, [x8, #14336]
	mov	x9, x1
	str	w9, [x8, #14344]
	.loc	44 100 1 is_stmt 1
	ldr	x8, [x8, #14336]
	str	x8, [sp, #3304]
	b	LBB66_651
LBB66_142:
	.loc	44 0 1 is_stmt 0
	ldr	x8, [sp, #3336]
Ltmp1601:
	.loc	44 106 22 is_stmt 1
	ldr	q0, [x8, #14272]
	str	q0, [x8, #14288]
Ltmp1602:
	.loc	44 108 15
	ldr	w1, [x8, #14288]
Ltmp719:
	.loc	44 108 13 is_stmt 0
	add	x0, sp, #9, lsl #12
	add	x0, x0, #3727
	bl	__ZN90_$LT$ppv_lite86..generic..u32x4_generic$u20$as$u20$ppv_lite86..types..RotateEachWord32$GT$24rotate_each_word_right2028_$u7b$$u7b$closure$u7d$$u7d$17hed1b518b9d9a0615E
	str	w0, [sp, #2652]
Ltmp720:
	b	LBB66_143
LBB66_143:
	.loc	44 0 13
	ldr	x8, [sp, #3336]
	.loc	44 108 24
	ldr	w1, [x8, #14292]
Ltmp721:
	.loc	44 108 22
	add	x0, sp, #9, lsl #12
	add	x0, x0, #3727
	bl	__ZN90_$LT$ppv_lite86..generic..u32x4_generic$u20$as$u20$ppv_lite86..types..RotateEachWord32$GT$24rotate_each_word_right2028_$u7b$$u7b$closure$u7d$$u7d$17hed1b518b9d9a0615E
	str	w0, [sp, #2648]
Ltmp722:
	b	LBB66_144
LBB66_144:
	.loc	44 0 22
	ldr	x8, [sp, #3336]
	.loc	44 108 33
	ldr	w1, [x8, #14296]
Ltmp723:
	.loc	44 108 31
	add	x0, sp, #9, lsl #12
	add	x0, x0, #3727
	bl	__ZN90_$LT$ppv_lite86..generic..u32x4_generic$u20$as$u20$ppv_lite86..types..RotateEachWord32$GT$24rotate_each_word_right2028_$u7b$$u7b$closure$u7d$$u7d$17hed1b518b9d9a0615E
	str	w0, [sp, #2644]
Ltmp724:
	b	LBB66_145
LBB66_145:
	.loc	44 0 31
	ldr	x8, [sp, #3336]
	.loc	44 108 42
	ldr	w1, [x8, #14300]
Ltmp725:
	.loc	44 108 40
	add	x0, sp, #9, lsl #12
	add	x0, x0, #3727
	bl	__ZN90_$LT$ppv_lite86..generic..u32x4_generic$u20$as$u20$ppv_lite86..types..RotateEachWord32$GT$24rotate_each_word_right2028_$u7b$$u7b$closure$u7d$$u7d$17hed1b518b9d9a0615E
	str	w0, [sp, #2640]
Ltmp726:
	b	LBB66_146
LBB66_146:
	.loc	44 0 40
	ldr	x8, [sp, #3336]
	ldr	x9, [sp, #3432]
	ldr	w10, [sp, #2640]
	ldr	w11, [sp, #2644]
	ldr	w12, [sp, #2648]
	ldr	w13, [sp, #2652]
	.loc	44 108 12
	str	w13, [x8, #14320]
	str	w12, [x8, #14324]
	str	w11, [x8, #14328]
	str	w10, [x8, #14332]
	.loc	44 107 13 is_stmt 1
	ldr	q0, [x8, #14320]
	str	q0, [x8, #14304]
Ltmp1603:
	.loc	44 110 14
	ldr	q0, [x8, #14304]
	str	q0, [x8, #14352]
Ltmp1604:
	.loc	44 499 14
	ldr	q0, [x8, #14352]
	str	q0, [x8, #14368]
	.loc	44 499 9 is_stmt 0
	ldr	q0, [x8, #14368]
	str	q0, [x8, #11472]
Ltmp1605:
	.loc	45 277 17 is_stmt 1
	ldr	q0, [x9, #3632]
	str	q0, [x8, #14080]
Ltmp1606:
	.loc	44 335 9
	ldr	q0, [x8, #14080]
	add	x0, sp, #9, lsl #12
	add	x0, x0, #3520
	str	q0, [x8, #14064]
Ltmp728:
Ltmp1607:
	.loc	44 105 29
	add	x8, sp, #9, lsl #12
	add	x8, x8, #3568
	adrp	x1, l_alloc_345ce69d67e2022250dbe2d202815e5b@PAGE
	add	x1, x1, l_alloc_345ce69d67e2022250dbe2d202815e5b@PAGEOFF
	bl	__ZN50_$LT$T$u20$as$u20$core..convert..Into$LT$U$GT$$GT$4into17hb9c0fa23cb5a2aabE
Ltmp729:
	b	LBB66_148
LBB66_147:
Ltmp738:
	.loc	44 0 29 is_stmt 0
	ldr	x8, [sp, #3336]
	str	x0, [x8, #14176]
	mov	x9, x1
	str	w9, [x8, #14184]
	.loc	44 100 1 is_stmt 1
	ldr	x8, [x8, #14176]
	str	x8, [sp, #3304]
	b	LBB66_651
LBB66_148:
	.loc	44 0 1 is_stmt 0
	ldr	x8, [sp, #3336]
Ltmp1608:
	.loc	44 106 22 is_stmt 1
	ldr	q0, [x8, #14112]
	str	q0, [x8, #14128]
Ltmp1609:
	.loc	44 108 15
	ldr	w1, [x8, #14128]
Ltmp730:
	.loc	44 108 13 is_stmt 0
	add	x0, sp, #9, lsl #12
	add	x0, x0, #3567
	bl	__ZN90_$LT$ppv_lite86..generic..u32x4_generic$u20$as$u20$ppv_lite86..types..RotateEachWord32$GT$24rotate_each_word_right2028_$u7b$$u7b$closure$u7d$$u7d$17hed1b518b9d9a0615E
	str	w0, [sp, #2636]
Ltmp731:
	b	LBB66_149
LBB66_149:
	.loc	44 0 13
	ldr	x8, [sp, #3336]
	.loc	44 108 24
	ldr	w1, [x8, #14132]
Ltmp732:
	.loc	44 108 22
	add	x0, sp, #9, lsl #12
	add	x0, x0, #3567
	bl	__ZN90_$LT$ppv_lite86..generic..u32x4_generic$u20$as$u20$ppv_lite86..types..RotateEachWord32$GT$24rotate_each_word_right2028_$u7b$$u7b$closure$u7d$$u7d$17hed1b518b9d9a0615E
	str	w0, [sp, #2632]
Ltmp733:
	b	LBB66_150
LBB66_150:
	.loc	44 0 22
	ldr	x8, [sp, #3336]
	.loc	44 108 33
	ldr	w1, [x8, #14136]
Ltmp734:
	.loc	44 108 31
	add	x0, sp, #9, lsl #12
	add	x0, x0, #3567
	bl	__ZN90_$LT$ppv_lite86..generic..u32x4_generic$u20$as$u20$ppv_lite86..types..RotateEachWord32$GT$24rotate_each_word_right2028_$u7b$$u7b$closure$u7d$$u7d$17hed1b518b9d9a0615E
	str	w0, [sp, #2628]
Ltmp735:
	b	LBB66_151
LBB66_151:
	.loc	44 0 31
	ldr	x8, [sp, #3336]
	.loc	44 108 42
	ldr	w1, [x8, #14140]
Ltmp736:
	.loc	44 108 40
	add	x0, sp, #9, lsl #12
	add	x0, x0, #3567
	bl	__ZN90_$LT$ppv_lite86..generic..u32x4_generic$u20$as$u20$ppv_lite86..types..RotateEachWord32$GT$24rotate_each_word_right2028_$u7b$$u7b$closure$u7d$$u7d$17hed1b518b9d9a0615E
	str	w0, [sp, #2624]
Ltmp737:
	b	LBB66_152
LBB66_152:
	.loc	44 0 40
	ldr	x8, [sp, #3336]
	ldr	w9, [sp, #2624]
	ldr	w10, [sp, #2628]
	ldr	w11, [sp, #2632]
	ldr	w12, [sp, #2636]
	.loc	44 108 12
	str	w12, [x8, #14160]
	str	w11, [x8, #14164]
	str	w10, [x8, #14168]
	str	w9, [x8, #14172]
	.loc	44 107 13 is_stmt 1
	ldr	q0, [x8, #14160]
	str	q0, [x8, #14144]
Ltmp1610:
	.loc	44 110 14
	ldr	q0, [x8, #14144]
	str	q0, [x8, #14192]
Ltmp1611:
	.loc	44 499 14
	ldr	q0, [x8, #14192]
	str	q0, [x8, #14208]
	.loc	44 499 9 is_stmt 0
	ldr	q0, [x8, #14208]
	str	q0, [x8, #11488]
Ltmp1612:
	.loc	45 273 16 is_stmt 1
	ldr	q0, [x8, #11440]
	add	x1, sp, #9, lsl #12
	add	x1, x1, #832
	str	q0, [x8, #11376]
	ldr	q0, [x8, #11456]
	str	q0, [x8, #11392]
	ldr	q0, [x8, #11472]
	str	q0, [x8, #11408]
	ldr	q0, [x8, #11488]
	str	q0, [x8, #11424]
	add	x0, sp, #3, lsl #12
	add	x0, x0, #224
	str	x0, [sp, #2600]
	mov	w8, #64
	mov	x2, x8
	str	x2, [sp, #2616]
	.loc	45 273 13 is_stmt 0
	bl	_memcpy
	ldr	x1, [sp, #2600]
	ldr	x2, [sp, #2616]
	add	x8, sp, #1, lsl #12
	add	x8, x8, #528
	str	x8, [sp, #2608]
Ltmp1613:
	.loc	43 49 5 is_stmt 1
	add	x0, x8, #64
	bl	_memcpy
	ldr	x8, [sp, #2608]
	ldr	x2, [sp, #2616]
	.loc	43 50 12
	add	x1, x8, #64
	add	x0, sp, #3, lsl #12
	add	x0, x0, #480
	bl	_memcpy
	ldr	x8, [sp, #3336]
	ldr	x9, [sp, #3408]
	ldr	x10, [sp, #2608]
	ldr	x11, [sp, #3432]
	mov	x12, x10
	str	x12, [sp, #30360]
Ltmp1614:
	.loc	45 261 38
	ldr	q0, [x11, #3776]
	str	q0, [x8, #3968]
	str	x10, [sp, #32376]
Ltmp1615:
	.loc	44 543 17
	ldr	q0, [x9, #1040]
	str	q0, [x8, #6096]
	ldr	q0, [x8, #3968]
	str	q0, [x8, #6080]
Ltmp1616:
	.loc	44 523 9
	ldr	q0, [x8, #6096]
	add	x0, sp, #7, lsl #12
	add	x0, x0, #3712
	str	q0, [x8, #6064]
	ldr	q0, [x8, #6080]
	add	x1, sp, #7, lsl #12
	add	x1, x1, #3760
	str	q0, [x8, #6112]
	add	x8, sp, #7, lsl #12
	add	x8, x8, #3688
	bl	__ZN10ppv_lite867generic5dmap217h136734bbcd323e59E
	ldr	x8, [sp, #3336]
	ldr	x9, [sp, #3408]
	ldr	x10, [sp, #2608]
	ldr	x11, [sp, #3432]
Ltmp1617:
	.loc	44 543 9
	add	x12, sp, #7, lsl #12
	add	x12, x12, #3433
	ldur	q0, [x12, #255]
	str	q0, [x9, #1040]
Ltmp1618:
	.loc	45 262 17
	add	x10, x10, #16
	.loc	45 262 38 is_stmt 0
	ldr	q0, [x11, #3792]
	str	q0, [x8, #3984]
	str	x10, [sp, #32280]
Ltmp1619:
	.loc	44 543 17 is_stmt 1
	ldr	q0, [x9, #1056]
	str	q0, [x8, #6000]
	ldr	q0, [x8, #3984]
	str	q0, [x8, #5984]
Ltmp1620:
	.loc	44 523 9
	ldr	q0, [x8, #6000]
	add	x0, sp, #7, lsl #12
	add	x0, x0, #3616
	str	q0, [x8, #5968]
	ldr	q0, [x8, #5984]
	add	x1, sp, #7, lsl #12
	add	x1, x1, #3664
	str	q0, [x8, #6016]
	add	x8, sp, #7, lsl #12
	add	x8, x8, #3592
	bl	__ZN10ppv_lite867generic5dmap217h136734bbcd323e59E
	ldr	x8, [sp, #3336]
	ldr	x9, [sp, #3408]
	ldr	x10, [sp, #2608]
	ldr	x11, [sp, #3432]
Ltmp1621:
	.loc	44 543 9
	add	x12, sp, #7, lsl #12
	add	x12, x12, #3337
	ldur	q0, [x12, #255]
	str	q0, [x9, #1056]
Ltmp1622:
	.loc	45 263 17
	add	x10, x10, #32
	.loc	45 263 38 is_stmt 0
	ldr	q0, [x11, #3808]
	str	q0, [x8, #4000]
	str	x10, [sp, #32184]
Ltmp1623:
	.loc	44 543 17 is_stmt 1
	ldr	q0, [x9, #1072]
	str	q0, [x8, #5904]
	ldr	q0, [x8, #4000]
	str	q0, [x8, #5888]
Ltmp1624:
	.loc	44 523 9
	ldr	q0, [x8, #5904]
	add	x0, sp, #7, lsl #12
	add	x0, x0, #3520
	str	q0, [x8, #5872]
	ldr	q0, [x8, #5888]
	add	x1, sp, #7, lsl #12
	add	x1, x1, #3568
	str	q0, [x8, #5920]
	add	x8, sp, #7, lsl #12
	add	x8, x8, #3496
	bl	__ZN10ppv_lite867generic5dmap217h136734bbcd323e59E
	ldr	x8, [sp, #3336]
	ldr	x9, [sp, #3408]
	ldr	x10, [sp, #2608]
	ldr	x11, [sp, #3432]
Ltmp1625:
	.loc	44 543 9
	add	x12, sp, #7, lsl #12
	add	x12, x12, #3241
	ldur	q0, [x12, #255]
	str	q0, [x9, #1072]
Ltmp1626:
	.loc	45 264 17
	add	x10, x10, #48
	.loc	45 264 38 is_stmt 0
	ldr	q0, [x11, #3824]
	str	q0, [x8, #4016]
	str	x10, [sp, #32088]
Ltmp1627:
	.loc	44 543 17 is_stmt 1
	ldr	q0, [x9, #1088]
	str	q0, [x8, #5808]
	ldr	q0, [x8, #4016]
	str	q0, [x8, #5792]
Ltmp1628:
	.loc	44 523 9
	ldr	q0, [x8, #5808]
	add	x0, sp, #7, lsl #12
	add	x0, x0, #3424
	str	q0, [x8, #5776]
	ldr	q0, [x8, #5792]
	add	x1, sp, #7, lsl #12
	add	x1, x1, #3472
	str	q0, [x8, #5824]
	add	x8, sp, #7, lsl #12
	add	x8, x8, #3400
	bl	__ZN10ppv_lite867generic5dmap217h136734bbcd323e59E
	ldr	x9, [sp, #3408]
	ldr	x8, [sp, #2608]
	ldr	x2, [sp, #2616]
Ltmp1629:
	.loc	44 543 9
	add	x10, sp, #7, lsl #12
	add	x10, x10, #3145
	ldur	q0, [x10, #255]
	str	q0, [x9, #1088]
Ltmp1630:
	.loc	43 51 12
	add	x1, x8, #192
	add	x0, sp, #3, lsl #12
	add	x0, x0, #672
	bl	_memcpy
	ldr	x1, [sp, #2608]
	ldr	x2, [sp, #2616]
	add	x0, sp, #3, lsl #12
	add	x0, x0, #736
	.loc	43 51 18 is_stmt 0
	bl	_memcpy
	ldr	x8, [sp, #3432]
	ldr	x9, [sp, #3352]
Ltmp1631:
	.loc	45 247 21 is_stmt 1
	ldr	q0, [x8, #3968]
	str	q0, [x9, #912]
	.loc	45 247 35 is_stmt 0
	ldr	q0, [x8, #4032]
	str	q0, [x9, #896]
Ltmp1632:
	.loc	44 239 17 is_stmt 1
	ldr	q0, [x9, #912]
	add	x0, sp, #5, lsl #12
	add	x0, x0, #2352
	str	q0, [x9, #880]
	ldr	q0, [x9, #896]
	str	q0, [x9, #928]
Ltmp1633:
	.loc	44 191 9
	strb	wzr, [x9, #1087]
	mov	w8, #1
	strb	w8, [x9, #1087]
Ltmp739:
	.loc	44 191 29 is_stmt 0
	add	x8, sp, #5, lsl #12
	add	x8, x8, #2432
	adrp	x1, l_alloc_d6cd646a032ab5661bff8aa78f551e65@PAGE
	add	x1, x1, l_alloc_d6cd646a032ab5661bff8aa78f551e65@PAGEOFF
	bl	__ZN50_$LT$T$u20$as$u20$core..convert..Into$LT$U$GT$$GT$4into17hb9c0fa23cb5a2aabE
Ltmp740:
	b	LBB66_154
LBB66_153:
Ltmp745:
	.loc	44 0 29
	ldr	x8, [sp, #3352]
	str	x0, [sp, #23040]
	mov	x9, x1
	str	w9, [x8, #1096]
	.loc	44 199 1 is_stmt 1
	ldrb	w8, [x8, #1087]
	tbnz	w8, #0, LBB66_157
	b	LBB66_156
LBB66_154:
	.loc	44 0 1 is_stmt 0
	ldr	x8, [sp, #3352]
Ltmp1634:
	.loc	44 192 29 is_stmt 1
	strb	wzr, [x8, #1087]
	ldr	q0, [x8, #928]
	add	x0, sp, #5, lsl #12
	add	x0, x0, #2464
	str	q0, [x8, #992]
Ltmp741:
	add	x8, sp, #5, lsl #12
	add	x8, x8, #2448
	adrp	x1, l_alloc_eb8937521ab56b1815db886b021bd11a@PAGE
	add	x1, x1, l_alloc_eb8937521ab56b1815db886b021bd11a@PAGEOFF
	bl	__ZN50_$LT$T$u20$as$u20$core..convert..Into$LT$U$GT$$GT$4into17hb9c0fa23cb5a2aabE
Ltmp742:
	b	LBB66_155
LBB66_155:
	.loc	44 0 29 is_stmt 0
	ldr	x8, [sp, #3352]
Ltmp1635:
	.loc	44 193 30 is_stmt 1
	ldr	q0, [x8, #960]
	str	q0, [x8, #1008]
Ltmp1636:
	.loc	44 165 16
	ldr	x11, [sp, #22960]
	mov	x9, #0
	str	x11, [sp, #23144]
	.loc	44 165 36 is_stmt 0
	ldr	x10, [sp, #22968]
	str	x10, [sp, #23136]
	.loc	44 165 5
	orr	x1, x11, x9
	orr	x2, x9, x10
	mov.d	v0[0], x1
	mov.d	v0[1], x2
Ltmp1637:
	.loc	44 193 14 is_stmt 1
	str	q0, [x8, #1104]
Ltmp1638:
	.loc	44 194 30
	ldr	q0, [x8, #976]
	str	q0, [x8, #1024]
Ltmp1639:
	.loc	44 165 16
	ldr	x11, [sp, #22976]
	str	x11, [sp, #23160]
	.loc	44 165 36 is_stmt 0
	ldr	x10, [sp, #22984]
	str	x10, [sp, #23152]
	.loc	44 165 5
	orr	x3, x11, x9
	orr	x4, x9, x10
	mov.d	v0[0], x3
	mov.d	v0[1], x4
Ltmp1640:
	.loc	44 194 14 is_stmt 1
	str	q0, [x8, #1120]
Ltmp743:
Ltmp1641:
	.loc	44 196 19
	add	x0, sp, #5, lsl #12
	add	x0, x0, #2431
	bl	__ZN77_$LT$ppv_lite86..generic..u32x4_generic$u20$as$u20$core..ops..bit..BitXor$GT$6bitxor28_$u7b$$u7b$closure$u7d$$u7d$17hbf1305eccfd97e53E
	str	x0, [sp, #2560]
	str	x1, [sp, #2568]
	mov.d	v0[0], x0
	mov.d	v0[1], x1
	str	q0, [sp, #2576]
Ltmp744:
	b	LBB66_158
Ltmp1642:
LBB66_156:
	.loc	44 186 1
	ldr	x8, [sp, #23040]
	str	x8, [sp, #3304]
	b	LBB66_651
LBB66_157:
	.loc	44 199 1
	b	LBB66_156
LBB66_158:
	.loc	44 0 1 is_stmt 0
	ldr	x9, [sp, #3352]
	ldr	x8, [sp, #3432]
	ldr	x10, [sp, #2568]
	ldr	x11, [sp, #2560]
	ldr	q0, [sp, #2576]
	str	q0, [x9, #1152]
Ltmp1643:
	.loc	44 170 5 is_stmt 1
	str	x11, [sp, #23016]
	str	x10, [sp, #23024]
Ltmp1644:
	.loc	44 195 13
	add	x10, sp, #5, lsl #12
	add	x10, x10, #2281
	ldur	q0, [x10, #255]
	str	q0, [x9, #1040]
Ltmp1645:
	.loc	44 198 14
	ldr	q0, [x9, #1040]
	str	q0, [x9, #1136]
Ltmp1646:
	.loc	44 499 14
	ldr	q0, [x9, #1136]
	str	q0, [x9, #1168]
	.loc	44 499 9 is_stmt 0
	ldr	q0, [x9, #1168]
	str	q0, [x8, #6448]
Ltmp1647:
	.loc	45 248 21 is_stmt 1
	ldr	q0, [x8, #3984]
	str	q0, [x9, #576]
	.loc	45 248 35 is_stmt 0
	ldr	q0, [x8, #4048]
	str	q0, [x9, #560]
Ltmp1648:
	.loc	44 239 17 is_stmt 1
	ldr	q0, [x9, #576]
	add	x0, sp, #5, lsl #12
	add	x0, x0, #2016
	str	q0, [x9, #544]
	ldr	q0, [x9, #560]
	str	q0, [x9, #592]
Ltmp1649:
	.loc	44 191 9
	strb	wzr, [x9, #751]
	mov	w8, #1
	strb	w8, [x9, #751]
Ltmp746:
	.loc	44 191 29 is_stmt 0
	add	x8, sp, #5, lsl #12
	add	x8, x8, #2096
	adrp	x1, l_alloc_d6cd646a032ab5661bff8aa78f551e65@PAGE
	add	x1, x1, l_alloc_d6cd646a032ab5661bff8aa78f551e65@PAGEOFF
	bl	__ZN50_$LT$T$u20$as$u20$core..convert..Into$LT$U$GT$$GT$4into17hb9c0fa23cb5a2aabE
Ltmp747:
	b	LBB66_160
LBB66_159:
Ltmp752:
	.loc	44 0 29
	ldr	x8, [sp, #3352]
	str	x0, [sp, #22704]
	mov	x9, x1
	str	w9, [x8, #760]
	.loc	44 199 1 is_stmt 1
	ldrb	w8, [x8, #751]
	tbnz	w8, #0, LBB66_163
	b	LBB66_162
LBB66_160:
	.loc	44 0 1 is_stmt 0
	ldr	x8, [sp, #3352]
Ltmp1650:
	.loc	44 192 29 is_stmt 1
	strb	wzr, [x8, #751]
	ldr	q0, [x8, #592]
	add	x0, sp, #5, lsl #12
	add	x0, x0, #2128
	str	q0, [x8, #656]
Ltmp748:
	add	x8, sp, #5, lsl #12
	add	x8, x8, #2112
	adrp	x1, l_alloc_eb8937521ab56b1815db886b021bd11a@PAGE
	add	x1, x1, l_alloc_eb8937521ab56b1815db886b021bd11a@PAGEOFF
	bl	__ZN50_$LT$T$u20$as$u20$core..convert..Into$LT$U$GT$$GT$4into17hb9c0fa23cb5a2aabE
Ltmp749:
	b	LBB66_161
LBB66_161:
	.loc	44 0 29 is_stmt 0
	ldr	x8, [sp, #3352]
Ltmp1651:
	.loc	44 193 30 is_stmt 1
	ldr	q0, [x8, #624]
	str	q0, [x8, #672]
Ltmp1652:
	.loc	44 165 16
	ldr	x11, [sp, #22624]
	mov	x9, #0
	str	x11, [sp, #22808]
	.loc	44 165 36 is_stmt 0
	ldr	x10, [sp, #22632]
	str	x10, [sp, #22800]
	.loc	44 165 5
	orr	x1, x11, x9
	orr	x2, x9, x10
	mov.d	v0[0], x1
	mov.d	v0[1], x2
Ltmp1653:
	.loc	44 193 14 is_stmt 1
	str	q0, [x8, #768]
Ltmp1654:
	.loc	44 194 30
	ldr	q0, [x8, #640]
	str	q0, [x8, #688]
Ltmp1655:
	.loc	44 165 16
	ldr	x11, [sp, #22640]
	str	x11, [sp, #22824]
	.loc	44 165 36 is_stmt 0
	ldr	x10, [sp, #22648]
	str	x10, [sp, #22816]
	.loc	44 165 5
	orr	x3, x11, x9
	orr	x4, x9, x10
	mov.d	v0[0], x3
	mov.d	v0[1], x4
Ltmp1656:
	.loc	44 194 14 is_stmt 1
	str	q0, [x8, #784]
Ltmp750:
Ltmp1657:
	.loc	44 196 19
	add	x0, sp, #5, lsl #12
	add	x0, x0, #2095
	bl	__ZN77_$LT$ppv_lite86..generic..u32x4_generic$u20$as$u20$core..ops..bit..BitXor$GT$6bitxor28_$u7b$$u7b$closure$u7d$$u7d$17hbf1305eccfd97e53E
	str	x0, [sp, #2528]
	str	x1, [sp, #2536]
	mov.d	v0[0], x0
	mov.d	v0[1], x1
	str	q0, [sp, #2544]
Ltmp751:
	b	LBB66_164
Ltmp1658:
LBB66_162:
	.loc	44 0 19 is_stmt 0
	ldr	x8, [sp, #3352]
	.loc	44 186 1 is_stmt 1
	ldr	x9, [sp, #22704]
	str	x9, [sp, #2512]
	ldr	w8, [x8, #760]
	str	w8, [sp, #2524]
	b	LBB66_166
LBB66_163:
	.loc	44 199 1
	b	LBB66_162
LBB66_164:
	.loc	44 0 1 is_stmt 0
	ldr	x8, [sp, #3432]
	ldr	x9, [sp, #3352]
	ldr	x10, [sp, #2536]
	ldr	x11, [sp, #2528]
	ldr	q0, [sp, #2544]
	str	q0, [x9, #816]
Ltmp1659:
	.loc	44 170 5 is_stmt 1
	str	x11, [sp, #22680]
	str	x10, [sp, #22688]
Ltmp1660:
	.loc	44 195 13
	add	x10, sp, #5, lsl #12
	add	x10, x10, #1945
	ldur	q0, [x10, #255]
	str	q0, [x9, #704]
Ltmp1661:
	.loc	44 198 14
	ldr	q0, [x9, #704]
	str	q0, [x9, #800]
Ltmp1662:
	.loc	44 499 14
	ldr	q0, [x9, #800]
	str	q0, [x9, #832]
	.loc	44 499 9 is_stmt 0
	ldr	q0, [x9, #832]
	str	q0, [x8, #6464]
Ltmp1663:
	.loc	44 240 14 is_stmt 1
	b	LBB66_167
Ltmp1664:
LBB66_165:
	.loc	45 245 13
	ldr	x8, [sp, #15504]
	str	x8, [sp, #3304]
	b	LBB66_651
LBB66_166:
	.loc	45 0 13 is_stmt 0
	ldr	w8, [sp, #2524]
	ldr	x9, [sp, #2512]
	str	x9, [sp, #15504]
	str	w8, [sp, #15512]
	b	LBB66_165
LBB66_167:
	ldr	x9, [sp, #3352]
	ldr	x8, [sp, #3432]
	.loc	45 249 21 is_stmt 1
	ldr	q0, [x8, #4000]
	str	q0, [x9, #240]
	.loc	45 249 35 is_stmt 0
	ldr	q0, [x8, #4064]
	str	q0, [x9, #224]
Ltmp1665:
	.loc	44 239 17 is_stmt 1
	ldr	q0, [x9, #240]
	add	x0, sp, #5, lsl #12
	add	x0, x0, #1680
	str	q0, [x9, #208]
	ldr	q0, [x9, #224]
	str	q0, [x9, #256]
Ltmp1666:
	.loc	44 191 9
	strb	wzr, [x9, #415]
	mov	w8, #1
	strb	w8, [x9, #415]
Ltmp753:
	.loc	44 191 29 is_stmt 0
	add	x8, sp, #5, lsl #12
	add	x8, x8, #1760
	adrp	x1, l_alloc_d6cd646a032ab5661bff8aa78f551e65@PAGE
	add	x1, x1, l_alloc_d6cd646a032ab5661bff8aa78f551e65@PAGEOFF
	bl	__ZN50_$LT$T$u20$as$u20$core..convert..Into$LT$U$GT$$GT$4into17hb9c0fa23cb5a2aabE
Ltmp754:
	b	LBB66_169
LBB66_168:
Ltmp759:
	.loc	44 0 29
	ldr	x8, [sp, #3352]
	str	x0, [sp, #22368]
	mov	x9, x1
	str	w9, [x8, #424]
	.loc	44 199 1 is_stmt 1
	ldrb	w8, [x8, #415]
	tbnz	w8, #0, LBB66_172
	b	LBB66_171
LBB66_169:
	.loc	44 0 1 is_stmt 0
	ldr	x8, [sp, #3352]
Ltmp1667:
	.loc	44 192 29 is_stmt 1
	strb	wzr, [x8, #415]
	ldr	q0, [x8, #256]
	add	x0, sp, #5, lsl #12
	add	x0, x0, #1792
	str	q0, [x8, #320]
Ltmp755:
	add	x8, sp, #5, lsl #12
	add	x8, x8, #1776
	adrp	x1, l_alloc_eb8937521ab56b1815db886b021bd11a@PAGE
	add	x1, x1, l_alloc_eb8937521ab56b1815db886b021bd11a@PAGEOFF
	bl	__ZN50_$LT$T$u20$as$u20$core..convert..Into$LT$U$GT$$GT$4into17hb9c0fa23cb5a2aabE
Ltmp756:
	b	LBB66_170
LBB66_170:
	.loc	44 0 29 is_stmt 0
	ldr	x8, [sp, #3352]
Ltmp1668:
	.loc	44 193 30 is_stmt 1
	ldr	q0, [x8, #288]
	str	q0, [x8, #336]
Ltmp1669:
	.loc	44 165 16
	ldr	x11, [sp, #22288]
	mov	x9, #0
	str	x11, [sp, #22472]
	.loc	44 165 36 is_stmt 0
	ldr	x10, [sp, #22296]
	str	x10, [sp, #22464]
	.loc	44 165 5
	orr	x1, x11, x9
	orr	x2, x9, x10
	mov.d	v0[0], x1
	mov.d	v0[1], x2
Ltmp1670:
	.loc	44 193 14 is_stmt 1
	str	q0, [x8, #432]
Ltmp1671:
	.loc	44 194 30
	ldr	q0, [x8, #304]
	str	q0, [x8, #352]
Ltmp1672:
	.loc	44 165 16
	ldr	x11, [sp, #22304]
	str	x11, [sp, #22488]
	.loc	44 165 36 is_stmt 0
	ldr	x10, [sp, #22312]
	str	x10, [sp, #22480]
	.loc	44 165 5
	orr	x3, x11, x9
	orr	x4, x9, x10
	mov.d	v0[0], x3
	mov.d	v0[1], x4
Ltmp1673:
	.loc	44 194 14 is_stmt 1
	str	q0, [x8, #448]
Ltmp757:
Ltmp1674:
	.loc	44 196 19
	add	x0, sp, #5, lsl #12
	add	x0, x0, #1759
	bl	__ZN77_$LT$ppv_lite86..generic..u32x4_generic$u20$as$u20$core..ops..bit..BitXor$GT$6bitxor28_$u7b$$u7b$closure$u7d$$u7d$17hbf1305eccfd97e53E
	str	x0, [sp, #2480]
	str	x1, [sp, #2488]
	mov.d	v0[0], x0
	mov.d	v0[1], x1
	str	q0, [sp, #2496]
Ltmp758:
	b	LBB66_173
Ltmp1675:
LBB66_171:
	.loc	44 0 19 is_stmt 0
	ldr	x8, [sp, #3352]
	.loc	44 186 1 is_stmt 1
	ldr	x9, [sp, #22368]
	str	x9, [sp, #2464]
	ldr	w8, [x8, #424]
	str	w8, [sp, #2476]
	b	LBB66_175
LBB66_172:
	.loc	44 199 1
	b	LBB66_171
LBB66_173:
	.loc	44 0 1 is_stmt 0
	ldr	x8, [sp, #3432]
	ldr	x9, [sp, #3352]
	ldr	x10, [sp, #2488]
	ldr	x11, [sp, #2480]
	ldr	q0, [sp, #2496]
	str	q0, [x9, #480]
Ltmp1676:
	.loc	44 170 5 is_stmt 1
	str	x11, [sp, #22344]
	str	x10, [sp, #22352]
Ltmp1677:
	.loc	44 195 13
	add	x10, sp, #5, lsl #12
	add	x10, x10, #1609
	ldur	q0, [x10, #255]
	str	q0, [x9, #368]
Ltmp1678:
	.loc	44 198 14
	ldr	q0, [x9, #368]
	str	q0, [x9, #464]
Ltmp1679:
	.loc	44 499 14
	ldr	q0, [x9, #464]
	str	q0, [x9, #496]
	.loc	44 499 9 is_stmt 0
	ldr	q0, [x9, #496]
	str	q0, [x8, #6480]
Ltmp1680:
	.loc	44 240 14 is_stmt 1
	b	LBB66_176
Ltmp1681:
LBB66_174:
	.loc	45 251 17
	b	LBB66_165
LBB66_175:
	.loc	45 0 17 is_stmt 0
	ldr	w8, [sp, #2476]
	ldr	x9, [sp, #2464]
	str	x9, [sp, #15504]
	str	w8, [sp, #15512]
	b	LBB66_174
LBB66_176:
	ldr	x9, [sp, #3352]
	ldr	x8, [sp, #3360]
	ldr	x10, [sp, #3432]
	.loc	45 250 21 is_stmt 1
	ldr	q0, [x10, #4016]
	stur	q0, [x8, #161]
	.loc	45 250 35 is_stmt 0
	ldr	q0, [x10, #4080]
	stur	q0, [x8, #145]
Ltmp1682:
	.loc	44 239 17 is_stmt 1
	ldur	q0, [x8, #161]
	add	x0, sp, #5, lsl #12
	add	x0, x0, #1344
	stur	q0, [x8, #129]
	ldur	q0, [x8, #145]
	stur	q0, [x8, #177]
Ltmp1683:
	.loc	44 191 9
	strb	wzr, [x9, #79]
	mov	w8, #1
	strb	w8, [x9, #79]
Ltmp760:
	.loc	44 191 29 is_stmt 0
	add	x8, sp, #5, lsl #12
	add	x8, x8, #1424
	adrp	x1, l_alloc_d6cd646a032ab5661bff8aa78f551e65@PAGE
	add	x1, x1, l_alloc_d6cd646a032ab5661bff8aa78f551e65@PAGEOFF
	bl	__ZN50_$LT$T$u20$as$u20$core..convert..Into$LT$U$GT$$GT$4into17hb9c0fa23cb5a2aabE
Ltmp761:
	b	LBB66_178
LBB66_177:
Ltmp766:
	.loc	44 0 29
	ldr	x8, [sp, #3352]
	str	x0, [sp, #22032]
	mov	x9, x1
	str	w9, [x8, #88]
	.loc	44 199 1 is_stmt 1
	ldrb	w8, [x8, #79]
	tbnz	w8, #0, LBB66_181
	b	LBB66_180
LBB66_178:
	.loc	44 0 1 is_stmt 0
	ldr	x8, [sp, #3360]
	ldr	x9, [sp, #3352]
Ltmp1684:
	.loc	44 192 29 is_stmt 1
	strb	wzr, [x9, #79]
	ldur	q0, [x8, #177]
	add	x0, sp, #5, lsl #12
	add	x0, x0, #1456
	stur	q0, [x8, #241]
Ltmp762:
	add	x8, sp, #5, lsl #12
	add	x8, x8, #1440
	adrp	x1, l_alloc_eb8937521ab56b1815db886b021bd11a@PAGE
	add	x1, x1, l_alloc_eb8937521ab56b1815db886b021bd11a@PAGEOFF
	bl	__ZN50_$LT$T$u20$as$u20$core..convert..Into$LT$U$GT$$GT$4into17hb9c0fa23cb5a2aabE
Ltmp763:
	b	LBB66_179
LBB66_179:
	.loc	44 0 29 is_stmt 0
	ldr	x8, [sp, #3352]
	ldr	x10, [sp, #3360]
Ltmp1685:
	.loc	44 193 30 is_stmt 1
	ldur	q0, [x10, #209]
	str	q0, [x8]
Ltmp1686:
	.loc	44 165 16
	ldr	x12, [sp, #21952]
	mov	x9, #0
	str	x12, [sp, #22136]
	.loc	44 165 36 is_stmt 0
	ldr	x11, [sp, #21960]
	str	x11, [sp, #22128]
	.loc	44 165 5
	orr	x1, x12, x9
	orr	x2, x9, x11
	mov.d	v0[0], x1
	mov.d	v0[1], x2
Ltmp1687:
	.loc	44 193 14 is_stmt 1
	str	q0, [x8, #96]
Ltmp1688:
	.loc	44 194 30
	ldur	q0, [x10, #225]
	str	q0, [x8, #16]
Ltmp1689:
	.loc	44 165 16
	ldr	x11, [sp, #21968]
	str	x11, [sp, #22152]
	.loc	44 165 36 is_stmt 0
	ldr	x10, [sp, #21976]
	str	x10, [sp, #22144]
	.loc	44 165 5
	orr	x3, x11, x9
	orr	x4, x9, x10
	mov.d	v0[0], x3
	mov.d	v0[1], x4
Ltmp1690:
	.loc	44 194 14 is_stmt 1
	str	q0, [x8, #112]
Ltmp764:
Ltmp1691:
	.loc	44 196 19
	add	x0, sp, #5, lsl #12
	add	x0, x0, #1423
	bl	__ZN77_$LT$ppv_lite86..generic..u32x4_generic$u20$as$u20$core..ops..bit..BitXor$GT$6bitxor28_$u7b$$u7b$closure$u7d$$u7d$17hbf1305eccfd97e53E
	str	x0, [sp, #2432]
	str	x1, [sp, #2440]
	mov.d	v0[0], x0
	mov.d	v0[1], x1
	str	q0, [sp, #2448]
Ltmp765:
	b	LBB66_182
Ltmp1692:
LBB66_180:
	.loc	44 0 19 is_stmt 0
	ldr	x8, [sp, #3352]
	.loc	44 186 1 is_stmt 1
	ldr	x9, [sp, #22032]
	str	x9, [sp, #2416]
	ldr	w8, [x8, #88]
	str	w8, [sp, #2428]
	b	LBB66_183
LBB66_181:
	.loc	44 199 1
	b	LBB66_180
LBB66_182:
	.loc	44 0 1 is_stmt 0
	ldr	x8, [sp, #3432]
	ldr	x9, [sp, #3352]
	ldr	x10, [sp, #2440]
	ldr	x11, [sp, #2432]
	ldr	q0, [sp, #2448]
	str	q0, [x9, #144]
Ltmp1693:
	.loc	44 170 5 is_stmt 1
	str	x11, [sp, #22008]
	str	x10, [sp, #22016]
Ltmp1694:
	.loc	44 195 13
	add	x10, sp, #5, lsl #12
	add	x10, x10, #1273
	ldur	q0, [x10, #255]
	str	q0, [x9, #32]
Ltmp1695:
	.loc	44 198 14
	ldr	q0, [x9, #32]
	str	q0, [x9, #128]
Ltmp1696:
	.loc	44 499 14
	ldr	q0, [x9, #128]
	str	q0, [x9, #160]
	.loc	44 499 9 is_stmt 0
	ldr	q0, [x9, #160]
	str	q0, [x8, #6496]
Ltmp1697:
	.loc	44 240 14 is_stmt 1
	b	LBB66_184
Ltmp1698:
LBB66_183:
	.loc	44 0 14 is_stmt 0
	ldr	w8, [sp, #2428]
	ldr	x9, [sp, #2416]
	str	x9, [sp, #15504]
	str	w8, [sp, #15512]
	.loc	45 251 17 is_stmt 1
	b	LBB66_174
LBB66_184:
	.loc	45 0 17 is_stmt 0
	ldr	x8, [sp, #3432]
	.loc	45 246 20 is_stmt 1
	ldr	q0, [x8, #6448]
	add	x1, sp, #3, lsl #12
	add	x1, x1, #3088
	str	q0, [x8, #6384]
	ldr	q0, [x8, #6464]
	str	q0, [x8, #6400]
	ldr	q0, [x8, #6480]
	str	q0, [x8, #6416]
	ldr	q0, [x8, #6496]
	str	q0, [x8, #6432]
	add	x0, sp, #3, lsl #12
	add	x0, x0, #608
	.loc	45 246 17 is_stmt 0
	mov	w8, #64
	mov	x2, x8
	bl	_memcpy
	ldr	x9, [sp, #3432]
	ldr	x8, [sp, #3336]
Ltmp1699:
	.loc	45 274 17 is_stmt 1
	ldr	q0, [x9, #3904]
	str	q0, [x8, #15840]
Ltmp1700:
	.loc	44 339 9
	ldr	q0, [x8, #15840]
	add	x0, sp, #10, lsl #12
	add	x0, x0, #1184
	str	q0, [x8, #15824]
Ltmp767:
Ltmp1701:
	.loc	44 105 29
	add	x8, sp, #10, lsl #12
	add	x8, x8, #1232
	adrp	x1, l_alloc_345ce69d67e2022250dbe2d202815e5b@PAGE
	add	x1, x1, l_alloc_345ce69d67e2022250dbe2d202815e5b@PAGEOFF
	bl	__ZN50_$LT$T$u20$as$u20$core..convert..Into$LT$U$GT$$GT$4into17hb9c0fa23cb5a2aabE
Ltmp768:
	b	LBB66_186
LBB66_185:
Ltmp777:
	.loc	44 0 29 is_stmt 0
	ldr	x8, [sp, #3336]
	str	x0, [x8, #15936]
	mov	x9, x1
	str	w9, [x8, #15944]
	.loc	44 100 1 is_stmt 1
	ldr	x8, [x8, #15936]
	str	x8, [sp, #3304]
	b	LBB66_651
LBB66_186:
	.loc	44 0 1 is_stmt 0
	ldr	x8, [sp, #3336]
Ltmp1702:
	.loc	44 106 22 is_stmt 1
	ldr	q0, [x8, #15872]
	str	q0, [x8, #15888]
Ltmp1703:
	.loc	44 108 15
	ldr	w1, [x8, #15888]
Ltmp769:
	.loc	44 108 13 is_stmt 0
	add	x0, sp, #10, lsl #12
	add	x0, x0, #1231
	bl	__ZN90_$LT$ppv_lite86..generic..u32x4_generic$u20$as$u20$ppv_lite86..types..RotateEachWord32$GT$24rotate_each_word_right2428_$u7b$$u7b$closure$u7d$$u7d$17h1f6b56b6de443d6aE
	str	w0, [sp, #2412]
Ltmp770:
	b	LBB66_187
LBB66_187:
	.loc	44 0 13
	ldr	x8, [sp, #3336]
	.loc	44 108 24
	ldr	w1, [x8, #15892]
Ltmp771:
	.loc	44 108 22
	add	x0, sp, #10, lsl #12
	add	x0, x0, #1231
	bl	__ZN90_$LT$ppv_lite86..generic..u32x4_generic$u20$as$u20$ppv_lite86..types..RotateEachWord32$GT$24rotate_each_word_right2428_$u7b$$u7b$closure$u7d$$u7d$17h1f6b56b6de443d6aE
	str	w0, [sp, #2408]
Ltmp772:
	b	LBB66_188
LBB66_188:
	.loc	44 0 22
	ldr	x8, [sp, #3336]
	.loc	44 108 33
	ldr	w1, [x8, #15896]
Ltmp773:
	.loc	44 108 31
	add	x0, sp, #10, lsl #12
	add	x0, x0, #1231
	bl	__ZN90_$LT$ppv_lite86..generic..u32x4_generic$u20$as$u20$ppv_lite86..types..RotateEachWord32$GT$24rotate_each_word_right2428_$u7b$$u7b$closure$u7d$$u7d$17h1f6b56b6de443d6aE
	str	w0, [sp, #2404]
Ltmp774:
	b	LBB66_189
LBB66_189:
	.loc	44 0 31
	ldr	x8, [sp, #3336]
	.loc	44 108 42
	ldr	w1, [x8, #15900]
Ltmp775:
	.loc	44 108 40
	add	x0, sp, #10, lsl #12
	add	x0, x0, #1231
	bl	__ZN90_$LT$ppv_lite86..generic..u32x4_generic$u20$as$u20$ppv_lite86..types..RotateEachWord32$GT$24rotate_each_word_right2428_$u7b$$u7b$closure$u7d$$u7d$17h1f6b56b6de443d6aE
	str	w0, [sp, #2400]
Ltmp776:
	b	LBB66_190
LBB66_190:
	.loc	44 0 40
	ldr	x8, [sp, #3336]
	ldr	x9, [sp, #3432]
	ldr	w10, [sp, #2400]
	ldr	w11, [sp, #2404]
	ldr	w12, [sp, #2408]
	ldr	w13, [sp, #2412]
	.loc	44 108 12
	str	w13, [x8, #15920]
	str	w12, [x8, #15924]
	str	w11, [x8, #15928]
	str	w10, [x8, #15932]
	.loc	44 107 13 is_stmt 1
	ldr	q0, [x8, #15920]
	str	q0, [x8, #15904]
Ltmp1704:
	.loc	44 110 14
	ldr	q0, [x8, #15904]
	str	q0, [x8, #15952]
Ltmp1705:
	.loc	44 499 14
	ldr	q0, [x8, #15952]
	str	q0, [x8, #15968]
	.loc	44 499 9 is_stmt 0
	ldr	q0, [x8, #15968]
	str	q0, [x8, #11696]
Ltmp1706:
	.loc	45 275 17 is_stmt 1
	ldr	q0, [x9, #3920]
	str	q0, [x8, #15680]
Ltmp1707:
	.loc	44 339 9
	ldr	q0, [x8, #15680]
	add	x0, sp, #10, lsl #12
	add	x0, x0, #1024
	str	q0, [x8, #15664]
Ltmp778:
Ltmp1708:
	.loc	44 105 29
	add	x8, sp, #10, lsl #12
	add	x8, x8, #1072
	adrp	x1, l_alloc_345ce69d67e2022250dbe2d202815e5b@PAGE
	add	x1, x1, l_alloc_345ce69d67e2022250dbe2d202815e5b@PAGEOFF
	bl	__ZN50_$LT$T$u20$as$u20$core..convert..Into$LT$U$GT$$GT$4into17hb9c0fa23cb5a2aabE
Ltmp779:
	b	LBB66_192
LBB66_191:
Ltmp788:
	.loc	44 0 29 is_stmt 0
	ldr	x8, [sp, #3336]
	str	x0, [x8, #15776]
	mov	x9, x1
	str	w9, [x8, #15784]
	.loc	44 100 1 is_stmt 1
	ldr	x8, [x8, #15776]
	str	x8, [sp, #3304]
	b	LBB66_651
LBB66_192:
	.loc	44 0 1 is_stmt 0
	ldr	x8, [sp, #3336]
Ltmp1709:
	.loc	44 106 22 is_stmt 1
	ldr	q0, [x8, #15712]
	str	q0, [x8, #15728]
Ltmp1710:
	.loc	44 108 15
	ldr	w1, [x8, #15728]
Ltmp780:
	.loc	44 108 13 is_stmt 0
	add	x0, sp, #10, lsl #12
	add	x0, x0, #1071
	bl	__ZN90_$LT$ppv_lite86..generic..u32x4_generic$u20$as$u20$ppv_lite86..types..RotateEachWord32$GT$24rotate_each_word_right2428_$u7b$$u7b$closure$u7d$$u7d$17h1f6b56b6de443d6aE
	str	w0, [sp, #2396]
Ltmp781:
	b	LBB66_193
LBB66_193:
	.loc	44 0 13
	ldr	x8, [sp, #3336]
	.loc	44 108 24
	ldr	w1, [x8, #15732]
Ltmp782:
	.loc	44 108 22
	add	x0, sp, #10, lsl #12
	add	x0, x0, #1071
	bl	__ZN90_$LT$ppv_lite86..generic..u32x4_generic$u20$as$u20$ppv_lite86..types..RotateEachWord32$GT$24rotate_each_word_right2428_$u7b$$u7b$closure$u7d$$u7d$17h1f6b56b6de443d6aE
	str	w0, [sp, #2392]
Ltmp783:
	b	LBB66_194
LBB66_194:
	.loc	44 0 22
	ldr	x8, [sp, #3336]
	.loc	44 108 33
	ldr	w1, [x8, #15736]
Ltmp784:
	.loc	44 108 31
	add	x0, sp, #10, lsl #12
	add	x0, x0, #1071
	bl	__ZN90_$LT$ppv_lite86..generic..u32x4_generic$u20$as$u20$ppv_lite86..types..RotateEachWord32$GT$24rotate_each_word_right2428_$u7b$$u7b$closure$u7d$$u7d$17h1f6b56b6de443d6aE
	str	w0, [sp, #2388]
Ltmp785:
	b	LBB66_195
LBB66_195:
	.loc	44 0 31
	ldr	x8, [sp, #3336]
	.loc	44 108 42
	ldr	w1, [x8, #15740]
Ltmp786:
	.loc	44 108 40
	add	x0, sp, #10, lsl #12
	add	x0, x0, #1071
	bl	__ZN90_$LT$ppv_lite86..generic..u32x4_generic$u20$as$u20$ppv_lite86..types..RotateEachWord32$GT$24rotate_each_word_right2428_$u7b$$u7b$closure$u7d$$u7d$17h1f6b56b6de443d6aE
	str	w0, [sp, #2384]
Ltmp787:
	b	LBB66_196
LBB66_196:
	.loc	44 0 40
	ldr	x8, [sp, #3336]
	ldr	x9, [sp, #3432]
	ldr	w10, [sp, #2384]
	ldr	w11, [sp, #2388]
	ldr	w12, [sp, #2392]
	ldr	w13, [sp, #2396]
	.loc	44 108 12
	str	w13, [x8, #15760]
	str	w12, [x8, #15764]
	str	w11, [x8, #15768]
	str	w10, [x8, #15772]
	.loc	44 107 13 is_stmt 1
	ldr	q0, [x8, #15760]
	str	q0, [x8, #15744]
Ltmp1711:
	.loc	44 110 14
	ldr	q0, [x8, #15744]
	str	q0, [x8, #15792]
Ltmp1712:
	.loc	44 499 14
	ldr	q0, [x8, #15792]
	str	q0, [x8, #15808]
	.loc	44 499 9 is_stmt 0
	ldr	q0, [x8, #15808]
	str	q0, [x8, #11712]
Ltmp1713:
	.loc	45 276 17 is_stmt 1
	ldr	q0, [x9, #3936]
	str	q0, [x8, #15520]
Ltmp1714:
	.loc	44 339 9
	ldr	q0, [x8, #15520]
	add	x0, sp, #10, lsl #12
	add	x0, x0, #864
	str	q0, [x8, #15504]
Ltmp789:
Ltmp1715:
	.loc	44 105 29
	add	x8, sp, #10, lsl #12
	add	x8, x8, #912
	adrp	x1, l_alloc_345ce69d67e2022250dbe2d202815e5b@PAGE
	add	x1, x1, l_alloc_345ce69d67e2022250dbe2d202815e5b@PAGEOFF
	bl	__ZN50_$LT$T$u20$as$u20$core..convert..Into$LT$U$GT$$GT$4into17hb9c0fa23cb5a2aabE
Ltmp790:
	b	LBB66_198
LBB66_197:
Ltmp799:
	.loc	44 0 29 is_stmt 0
	ldr	x8, [sp, #3336]
	str	x0, [x8, #15616]
	mov	x9, x1
	str	w9, [x8, #15624]
	.loc	44 100 1 is_stmt 1
	ldr	x8, [x8, #15616]
	str	x8, [sp, #3304]
	b	LBB66_651
LBB66_198:
	.loc	44 0 1 is_stmt 0
	ldr	x8, [sp, #3336]
Ltmp1716:
	.loc	44 106 22 is_stmt 1
	ldr	q0, [x8, #15552]
	str	q0, [x8, #15568]
Ltmp1717:
	.loc	44 108 15
	ldr	w1, [x8, #15568]
Ltmp791:
	.loc	44 108 13 is_stmt 0
	add	x0, sp, #10, lsl #12
	add	x0, x0, #911
	bl	__ZN90_$LT$ppv_lite86..generic..u32x4_generic$u20$as$u20$ppv_lite86..types..RotateEachWord32$GT$24rotate_each_word_right2428_$u7b$$u7b$closure$u7d$$u7d$17h1f6b56b6de443d6aE
	str	w0, [sp, #2380]
Ltmp792:
	b	LBB66_199
LBB66_199:
	.loc	44 0 13
	ldr	x8, [sp, #3336]
	.loc	44 108 24
	ldr	w1, [x8, #15572]
Ltmp793:
	.loc	44 108 22
	add	x0, sp, #10, lsl #12
	add	x0, x0, #911
	bl	__ZN90_$LT$ppv_lite86..generic..u32x4_generic$u20$as$u20$ppv_lite86..types..RotateEachWord32$GT$24rotate_each_word_right2428_$u7b$$u7b$closure$u7d$$u7d$17h1f6b56b6de443d6aE
	str	w0, [sp, #2376]
Ltmp794:
	b	LBB66_200
LBB66_200:
	.loc	44 0 22
	ldr	x8, [sp, #3336]
	.loc	44 108 33
	ldr	w1, [x8, #15576]
Ltmp795:
	.loc	44 108 31
	add	x0, sp, #10, lsl #12
	add	x0, x0, #911
	bl	__ZN90_$LT$ppv_lite86..generic..u32x4_generic$u20$as$u20$ppv_lite86..types..RotateEachWord32$GT$24rotate_each_word_right2428_$u7b$$u7b$closure$u7d$$u7d$17h1f6b56b6de443d6aE
	str	w0, [sp, #2372]
Ltmp796:
	b	LBB66_201
LBB66_201:
	.loc	44 0 31
	ldr	x8, [sp, #3336]
	.loc	44 108 42
	ldr	w1, [x8, #15580]
Ltmp797:
	.loc	44 108 40
	add	x0, sp, #10, lsl #12
	add	x0, x0, #911
	bl	__ZN90_$LT$ppv_lite86..generic..u32x4_generic$u20$as$u20$ppv_lite86..types..RotateEachWord32$GT$24rotate_each_word_right2428_$u7b$$u7b$closure$u7d$$u7d$17h1f6b56b6de443d6aE
	str	w0, [sp, #2368]
Ltmp798:
	b	LBB66_202
LBB66_202:
	.loc	44 0 40
	ldr	x8, [sp, #3336]
	ldr	x9, [sp, #3432]
	ldr	w10, [sp, #2368]
	ldr	w11, [sp, #2372]
	ldr	w12, [sp, #2376]
	ldr	w13, [sp, #2380]
	.loc	44 108 12
	str	w13, [x8, #15600]
	str	w12, [x8, #15604]
	str	w11, [x8, #15608]
	str	w10, [x8, #15612]
	.loc	44 107 13 is_stmt 1
	ldr	q0, [x8, #15600]
	str	q0, [x8, #15584]
Ltmp1718:
	.loc	44 110 14
	ldr	q0, [x8, #15584]
	str	q0, [x8, #15632]
Ltmp1719:
	.loc	44 499 14
	ldr	q0, [x8, #15632]
	str	q0, [x8, #15648]
	.loc	44 499 9 is_stmt 0
	ldr	q0, [x8, #15648]
	str	q0, [x8, #11728]
Ltmp1720:
	.loc	45 277 17 is_stmt 1
	ldr	q0, [x9, #3952]
	str	q0, [x8, #15360]
Ltmp1721:
	.loc	44 339 9
	ldr	q0, [x8, #15360]
	add	x0, sp, #10, lsl #12
	add	x0, x0, #704
	str	q0, [x8, #15344]
Ltmp800:
Ltmp1722:
	.loc	44 105 29
	add	x8, sp, #10, lsl #12
	add	x8, x8, #752
	adrp	x1, l_alloc_345ce69d67e2022250dbe2d202815e5b@PAGE
	add	x1, x1, l_alloc_345ce69d67e2022250dbe2d202815e5b@PAGEOFF
	bl	__ZN50_$LT$T$u20$as$u20$core..convert..Into$LT$U$GT$$GT$4into17hb9c0fa23cb5a2aabE
Ltmp801:
	b	LBB66_204
LBB66_203:
Ltmp810:
	.loc	44 0 29 is_stmt 0
	ldr	x8, [sp, #3336]
	str	x0, [x8, #15456]
	mov	x9, x1
	str	w9, [x8, #15464]
	.loc	44 100 1 is_stmt 1
	ldr	x8, [x8, #15456]
	str	x8, [sp, #3304]
	b	LBB66_651
LBB66_204:
	.loc	44 0 1 is_stmt 0
	ldr	x8, [sp, #3336]
Ltmp1723:
	.loc	44 106 22 is_stmt 1
	ldr	q0, [x8, #15392]
	str	q0, [x8, #15408]
Ltmp1724:
	.loc	44 108 15
	ldr	w1, [x8, #15408]
Ltmp802:
	.loc	44 108 13 is_stmt 0
	add	x0, sp, #10, lsl #12
	add	x0, x0, #751
	bl	__ZN90_$LT$ppv_lite86..generic..u32x4_generic$u20$as$u20$ppv_lite86..types..RotateEachWord32$GT$24rotate_each_word_right2428_$u7b$$u7b$closure$u7d$$u7d$17h1f6b56b6de443d6aE
	str	w0, [sp, #2364]
Ltmp803:
	b	LBB66_205
LBB66_205:
	.loc	44 0 13
	ldr	x8, [sp, #3336]
	.loc	44 108 24
	ldr	w1, [x8, #15412]
Ltmp804:
	.loc	44 108 22
	add	x0, sp, #10, lsl #12
	add	x0, x0, #751
	bl	__ZN90_$LT$ppv_lite86..generic..u32x4_generic$u20$as$u20$ppv_lite86..types..RotateEachWord32$GT$24rotate_each_word_right2428_$u7b$$u7b$closure$u7d$$u7d$17h1f6b56b6de443d6aE
	str	w0, [sp, #2360]
Ltmp805:
	b	LBB66_206
LBB66_206:
	.loc	44 0 22
	ldr	x8, [sp, #3336]
	.loc	44 108 33
	ldr	w1, [x8, #15416]
Ltmp806:
	.loc	44 108 31
	add	x0, sp, #10, lsl #12
	add	x0, x0, #751
	bl	__ZN90_$LT$ppv_lite86..generic..u32x4_generic$u20$as$u20$ppv_lite86..types..RotateEachWord32$GT$24rotate_each_word_right2428_$u7b$$u7b$closure$u7d$$u7d$17h1f6b56b6de443d6aE
	str	w0, [sp, #2356]
Ltmp807:
	b	LBB66_207
LBB66_207:
	.loc	44 0 31
	ldr	x8, [sp, #3336]
	.loc	44 108 42
	ldr	w1, [x8, #15420]
Ltmp808:
	.loc	44 108 40
	add	x0, sp, #10, lsl #12
	add	x0, x0, #751
	bl	__ZN90_$LT$ppv_lite86..generic..u32x4_generic$u20$as$u20$ppv_lite86..types..RotateEachWord32$GT$24rotate_each_word_right2428_$u7b$$u7b$closure$u7d$$u7d$17h1f6b56b6de443d6aE
	str	w0, [sp, #2352]
Ltmp809:
	b	LBB66_208
LBB66_208:
	.loc	44 0 40
	ldr	x8, [sp, #3336]
	ldr	w9, [sp, #2352]
	ldr	w10, [sp, #2356]
	ldr	w11, [sp, #2360]
	ldr	w12, [sp, #2364]
	.loc	44 108 12
	str	w12, [x8, #15440]
	str	w11, [x8, #15444]
	str	w10, [x8, #15448]
	str	w9, [x8, #15452]
	.loc	44 107 13 is_stmt 1
	ldr	q0, [x8, #15440]
	str	q0, [x8, #15424]
Ltmp1725:
	.loc	44 110 14
	ldr	q0, [x8, #15424]
	str	q0, [x8, #15472]
Ltmp1726:
	.loc	44 499 14
	ldr	q0, [x8, #15472]
	str	q0, [x8, #15488]
	.loc	44 499 9 is_stmt 0
	ldr	q0, [x8, #15488]
	str	q0, [x8, #11744]
Ltmp1727:
	.loc	45 273 16 is_stmt 1
	ldr	q0, [x8, #11696]
	add	x1, sp, #9, lsl #12
	add	x1, x1, #1088
	str	q0, [x8, #11632]
	ldr	q0, [x8, #11712]
	str	q0, [x8, #11648]
	ldr	q0, [x8, #11728]
	str	q0, [x8, #11664]
	ldr	q0, [x8, #11744]
	str	q0, [x8, #11680]
	add	x0, sp, #3, lsl #12
	add	x0, x0, #544
	str	x0, [sp, #2320]
	mov	w8, #64
	mov	x2, x8
	str	x2, [sp, #2344]
	.loc	45 273 13 is_stmt 0
	bl	_memcpy
	ldr	x1, [sp, #2320]
	ldr	x2, [sp, #2344]
	add	x8, sp, #1, lsl #12
	add	x8, x8, #528
	str	x8, [sp, #2336]
Ltmp1728:
	.loc	43 51 5 is_stmt 1
	add	x0, x8, #192
	bl	_memcpy
	ldr	x8, [sp, #2336]
	ldr	x2, [sp, #2344]
	.loc	43 52 5
	add	x9, x8, #128
	str	x9, [sp, #2328]
	.loc	43 52 12 is_stmt 0
	add	x1, x8, #192
	add	x0, sp, #3, lsl #12
	add	x0, x0, #800
	bl	_memcpy
	ldr	x10, [sp, #2328]
	ldr	x8, [sp, #3336]
	ldr	x9, [sp, #3408]
	ldr	x11, [sp, #3432]
	mov	x12, x10
	str	x12, [sp, #30280]
Ltmp1729:
	.loc	45 261 38 is_stmt 1
	ldr	q0, [x11, #4096]
	str	q0, [x8, #3888]
	str	x10, [sp, #32760]
Ltmp1730:
	.loc	44 543 17
	ldr	q0, [x9, #1168]
	str	q0, [x8, #6480]
	ldr	q0, [x8, #3888]
	str	q0, [x8, #6464]
Ltmp1731:
	.loc	44 523 9
	ldr	q0, [x8, #6480]
	add	x0, sp, #8, lsl #12
	str	q0, [x8, #6448]
	ldr	q0, [x8, #6464]
	add	x1, sp, #8, lsl #12
	add	x1, x1, #48
	str	q0, [x8, #6496]
	add	x8, sp, #7, lsl #12
	add	x8, x8, #4072
	bl	__ZN10ppv_lite867generic5dmap217h136734bbcd323e59E
	ldr	x8, [sp, #3336]
	ldr	x9, [sp, #3408]
	ldr	x10, [sp, #2336]
	ldr	x11, [sp, #3432]
Ltmp1732:
	.loc	44 543 9
	add	x12, sp, #7, lsl #12
	add	x12, x12, #3817
	ldur	q0, [x12, #255]
	str	q0, [x9, #1168]
Ltmp1733:
	.loc	45 262 17
	add	x10, x10, #144
	.loc	45 262 38 is_stmt 0
	ldr	q0, [x11, #4112]
	str	q0, [x8, #3904]
	str	x10, [sp, #32664]
Ltmp1734:
	.loc	44 543 17 is_stmt 1
	ldr	q0, [x9, #1184]
	str	q0, [x8, #6384]
	ldr	q0, [x8, #3904]
	str	q0, [x8, #6368]
Ltmp1735:
	.loc	44 523 9
	ldr	q0, [x8, #6384]
	add	x0, sp, #7, lsl #12
	add	x0, x0, #4000
	str	q0, [x8, #6352]
	ldr	q0, [x8, #6368]
	add	x1, sp, #7, lsl #12
	add	x1, x1, #4048
	str	q0, [x8, #6400]
	add	x8, sp, #7, lsl #12
	add	x8, x8, #3976
	bl	__ZN10ppv_lite867generic5dmap217h136734bbcd323e59E
	ldr	x8, [sp, #3336]
	ldr	x9, [sp, #3408]
	ldr	x10, [sp, #2336]
	ldr	x11, [sp, #3432]
Ltmp1736:
	.loc	44 543 9
	add	x12, sp, #7, lsl #12
	add	x12, x12, #3721
	ldur	q0, [x12, #255]
	str	q0, [x9, #1184]
Ltmp1737:
	.loc	45 263 17
	add	x10, x10, #160
	.loc	45 263 38 is_stmt 0
	ldr	q0, [x11, #4128]
	str	q0, [x8, #3920]
	str	x10, [sp, #32568]
Ltmp1738:
	.loc	44 543 17 is_stmt 1
	ldr	q0, [x9, #1200]
	str	q0, [x8, #6288]
	ldr	q0, [x8, #3920]
	str	q0, [x8, #6272]
Ltmp1739:
	.loc	44 523 9
	ldr	q0, [x8, #6288]
	add	x0, sp, #7, lsl #12
	add	x0, x0, #3904
	str	q0, [x8, #6256]
	ldr	q0, [x8, #6272]
	add	x1, sp, #7, lsl #12
	add	x1, x1, #3952
	str	q0, [x8, #6304]
	add	x8, sp, #7, lsl #12
	add	x8, x8, #3880
	bl	__ZN10ppv_lite867generic5dmap217h136734bbcd323e59E
	ldr	x8, [sp, #3336]
	ldr	x9, [sp, #3408]
	ldr	x10, [sp, #2336]
	ldr	x11, [sp, #3432]
Ltmp1740:
	.loc	44 543 9
	add	x12, sp, #7, lsl #12
	add	x12, x12, #3625
	ldur	q0, [x12, #255]
	str	q0, [x9, #1200]
Ltmp1741:
	.loc	45 264 17
	add	x10, x10, #176
	.loc	45 264 38 is_stmt 0
	ldr	q0, [x11, #4144]
	str	q0, [x8, #3936]
	str	x10, [sp, #32472]
Ltmp1742:
	.loc	44 543 17 is_stmt 1
	ldr	q0, [x9, #1216]
	str	q0, [x8, #6192]
	ldr	q0, [x8, #3936]
	str	q0, [x8, #6176]
Ltmp1743:
	.loc	44 523 9
	ldr	q0, [x8, #6192]
	add	x0, sp, #7, lsl #12
	add	x0, x0, #3808
	str	q0, [x8, #6160]
	ldr	q0, [x8, #6176]
	add	x1, sp, #7, lsl #12
	add	x1, x1, #3856
	str	q0, [x8, #6208]
	add	x8, sp, #7, lsl #12
	add	x8, x8, #3784
	bl	__ZN10ppv_lite867generic5dmap217h136734bbcd323e59E
	ldr	x9, [sp, #3408]
	ldr	x8, [sp, #2336]
	ldr	x2, [sp, #2344]
Ltmp1744:
	.loc	44 543 9
	add	x10, sp, #7, lsl #12
	add	x10, x10, #3529
	ldur	q0, [x10, #255]
	str	q0, [x9, #1216]
Ltmp1745:
	.loc	43 53 12
	add	x1, x8, #64
	add	x0, sp, #3, lsl #12
	add	x0, x0, #992
	bl	_memcpy
	ldr	x8, [sp, #2336]
	ldr	x2, [sp, #2344]
	.loc	43 53 18 is_stmt 0
	add	x1, x8, #128
	add	x0, sp, #3, lsl #12
	add	x0, x0, #1056
	bl	_memcpy
	ldr	x8, [sp, #3432]
	ldr	x9, [sp, #3352]
Ltmp1746:
	.loc	45 247 21 is_stmt 1
	ldr	q0, [x8, #4288]
	str	q0, [x9, #2256]
	.loc	45 247 35 is_stmt 0
	ldr	q0, [x8, #4352]
	str	q0, [x9, #2240]
Ltmp1747:
	.loc	44 239 17 is_stmt 1
	ldr	q0, [x9, #2256]
	add	x0, sp, #5, lsl #12
	add	x0, x0, #3696
	str	q0, [x9, #2224]
	ldr	q0, [x9, #2240]
	str	q0, [x9, #2272]
Ltmp1748:
	.loc	44 191 9
	strb	wzr, [x9, #2431]
	mov	w8, #1
	strb	w8, [x9, #2431]
Ltmp811:
	.loc	44 191 29 is_stmt 0
	add	x8, sp, #5, lsl #12
	add	x8, x8, #3776
	adrp	x1, l_alloc_d6cd646a032ab5661bff8aa78f551e65@PAGE
	add	x1, x1, l_alloc_d6cd646a032ab5661bff8aa78f551e65@PAGEOFF
	bl	__ZN50_$LT$T$u20$as$u20$core..convert..Into$LT$U$GT$$GT$4into17hb9c0fa23cb5a2aabE
Ltmp812:
	b	LBB66_210
LBB66_209:
Ltmp817:
	.loc	44 0 29
	ldr	x8, [sp, #3352]
	str	x0, [sp, #24384]
	mov	x9, x1
	str	w9, [x8, #2440]
	.loc	44 199 1 is_stmt 1
	ldrb	w8, [x8, #2431]
	tbnz	w8, #0, LBB66_213
	b	LBB66_212
LBB66_210:
	.loc	44 0 1 is_stmt 0
	ldr	x8, [sp, #3352]
Ltmp1749:
	.loc	44 192 29 is_stmt 1
	strb	wzr, [x8, #2431]
	ldr	q0, [x8, #2272]
	add	x0, sp, #5, lsl #12
	add	x0, x0, #3808
	str	q0, [x8, #2336]
Ltmp813:
	add	x8, sp, #5, lsl #12
	add	x8, x8, #3792
	adrp	x1, l_alloc_eb8937521ab56b1815db886b021bd11a@PAGE
	add	x1, x1, l_alloc_eb8937521ab56b1815db886b021bd11a@PAGEOFF
	bl	__ZN50_$LT$T$u20$as$u20$core..convert..Into$LT$U$GT$$GT$4into17hb9c0fa23cb5a2aabE
Ltmp814:
	b	LBB66_211
LBB66_211:
	.loc	44 0 29 is_stmt 0
	ldr	x8, [sp, #3352]
Ltmp1750:
	.loc	44 193 30 is_stmt 1
	ldr	q0, [x8, #2304]
	str	q0, [x8, #2352]
Ltmp1751:
	.loc	44 165 16
	ldr	x11, [sp, #24304]
	mov	x9, #0
	str	x11, [sp, #24488]
	.loc	44 165 36 is_stmt 0
	ldr	x10, [sp, #24312]
	str	x10, [sp, #24480]
	.loc	44 165 5
	orr	x1, x11, x9
	orr	x2, x9, x10
	mov.d	v0[0], x1
	mov.d	v0[1], x2
Ltmp1752:
	.loc	44 193 14 is_stmt 1
	str	q0, [x8, #2448]
Ltmp1753:
	.loc	44 194 30
	ldr	q0, [x8, #2320]
	str	q0, [x8, #2368]
Ltmp1754:
	.loc	44 165 16
	ldr	x11, [sp, #24320]
	str	x11, [sp, #24504]
	.loc	44 165 36 is_stmt 0
	ldr	x10, [sp, #24328]
	str	x10, [sp, #24496]
	.loc	44 165 5
	orr	x3, x11, x9
	orr	x4, x9, x10
	mov.d	v0[0], x3
	mov.d	v0[1], x4
Ltmp1755:
	.loc	44 194 14 is_stmt 1
	str	q0, [x8, #2464]
Ltmp815:
Ltmp1756:
	.loc	44 196 19
	add	x0, sp, #5, lsl #12
	add	x0, x0, #3775
	bl	__ZN77_$LT$ppv_lite86..generic..u32x4_generic$u20$as$u20$core..ops..bit..BitXor$GT$6bitxor28_$u7b$$u7b$closure$u7d$$u7d$17hbf1305eccfd97e53E
	str	x0, [sp, #2288]
	str	x1, [sp, #2296]
	mov.d	v0[0], x0
	mov.d	v0[1], x1
	str	q0, [sp, #2304]
Ltmp816:
	b	LBB66_214
Ltmp1757:
LBB66_212:
	.loc	44 186 1
	ldr	x8, [sp, #24384]
	str	x8, [sp, #3304]
	b	LBB66_651
LBB66_213:
	.loc	44 199 1
	b	LBB66_212
LBB66_214:
	.loc	44 0 1 is_stmt 0
	ldr	x9, [sp, #3352]
	ldr	x8, [sp, #3432]
	ldr	x10, [sp, #2296]
	ldr	x11, [sp, #2288]
	ldr	q0, [sp, #2304]
	str	q0, [x9, #2496]
Ltmp1758:
	.loc	44 170 5 is_stmt 1
	str	x11, [sp, #24360]
	str	x10, [sp, #24368]
Ltmp1759:
	.loc	44 195 13
	add	x10, sp, #5, lsl #12
	add	x10, x10, #3625
	ldur	q0, [x10, #255]
	str	q0, [x9, #2384]
Ltmp1760:
	.loc	44 198 14
	ldr	q0, [x9, #2384]
	str	q0, [x9, #2480]
Ltmp1761:
	.loc	44 499 14
	ldr	q0, [x9, #2480]
	str	q0, [x9, #2512]
	.loc	44 499 9 is_stmt 0
	ldr	q0, [x9, #2512]
	str	q0, [x8, #6304]
Ltmp1762:
	.loc	45 248 21 is_stmt 1
	ldr	q0, [x8, #4304]
	str	q0, [x9, #1920]
	.loc	45 248 35 is_stmt 0
	ldr	q0, [x8, #4368]
	str	q0, [x9, #1904]
Ltmp1763:
	.loc	44 239 17 is_stmt 1
	ldr	q0, [x9, #1920]
	add	x0, sp, #5, lsl #12
	add	x0, x0, #3360
	str	q0, [x9, #1888]
	ldr	q0, [x9, #1904]
	str	q0, [x9, #1936]
Ltmp1764:
	.loc	44 191 9
	strb	wzr, [x9, #2095]
	mov	w8, #1
	strb	w8, [x9, #2095]
Ltmp818:
	.loc	44 191 29 is_stmt 0
	add	x8, sp, #5, lsl #12
	add	x8, x8, #3440
	adrp	x1, l_alloc_d6cd646a032ab5661bff8aa78f551e65@PAGE
	add	x1, x1, l_alloc_d6cd646a032ab5661bff8aa78f551e65@PAGEOFF
	bl	__ZN50_$LT$T$u20$as$u20$core..convert..Into$LT$U$GT$$GT$4into17hb9c0fa23cb5a2aabE
Ltmp819:
	b	LBB66_216
LBB66_215:
Ltmp824:
	.loc	44 0 29
	ldr	x8, [sp, #3352]
	str	x0, [sp, #24048]
	mov	x9, x1
	str	w9, [x8, #2104]
	.loc	44 199 1 is_stmt 1
	ldrb	w8, [x8, #2095]
	tbnz	w8, #0, LBB66_219
	b	LBB66_218
LBB66_216:
	.loc	44 0 1 is_stmt 0
	ldr	x8, [sp, #3352]
Ltmp1765:
	.loc	44 192 29 is_stmt 1
	strb	wzr, [x8, #2095]
	ldr	q0, [x8, #1936]
	add	x0, sp, #5, lsl #12
	add	x0, x0, #3472
	str	q0, [x8, #2000]
Ltmp820:
	add	x8, sp, #5, lsl #12
	add	x8, x8, #3456
	adrp	x1, l_alloc_eb8937521ab56b1815db886b021bd11a@PAGE
	add	x1, x1, l_alloc_eb8937521ab56b1815db886b021bd11a@PAGEOFF
	bl	__ZN50_$LT$T$u20$as$u20$core..convert..Into$LT$U$GT$$GT$4into17hb9c0fa23cb5a2aabE
Ltmp821:
	b	LBB66_217
LBB66_217:
	.loc	44 0 29 is_stmt 0
	ldr	x8, [sp, #3352]
Ltmp1766:
	.loc	44 193 30 is_stmt 1
	ldr	q0, [x8, #1968]
	str	q0, [x8, #2016]
Ltmp1767:
	.loc	44 165 16
	ldr	x11, [sp, #23968]
	mov	x9, #0
	str	x11, [sp, #24152]
	.loc	44 165 36 is_stmt 0
	ldr	x10, [sp, #23976]
	str	x10, [sp, #24144]
	.loc	44 165 5
	orr	x1, x11, x9
	orr	x2, x9, x10
	mov.d	v0[0], x1
	mov.d	v0[1], x2
Ltmp1768:
	.loc	44 193 14 is_stmt 1
	str	q0, [x8, #2112]
Ltmp1769:
	.loc	44 194 30
	ldr	q0, [x8, #1984]
	str	q0, [x8, #2032]
Ltmp1770:
	.loc	44 165 16
	ldr	x11, [sp, #23984]
	str	x11, [sp, #24168]
	.loc	44 165 36 is_stmt 0
	ldr	x10, [sp, #23992]
	str	x10, [sp, #24160]
	.loc	44 165 5
	orr	x3, x11, x9
	orr	x4, x9, x10
	mov.d	v0[0], x3
	mov.d	v0[1], x4
Ltmp1771:
	.loc	44 194 14 is_stmt 1
	str	q0, [x8, #2128]
Ltmp822:
Ltmp1772:
	.loc	44 196 19
	add	x0, sp, #5, lsl #12
	add	x0, x0, #3439
	bl	__ZN77_$LT$ppv_lite86..generic..u32x4_generic$u20$as$u20$core..ops..bit..BitXor$GT$6bitxor28_$u7b$$u7b$closure$u7d$$u7d$17hbf1305eccfd97e53E
	str	x0, [sp, #2256]
	str	x1, [sp, #2264]
	mov.d	v0[0], x0
	mov.d	v0[1], x1
	str	q0, [sp, #2272]
Ltmp823:
	b	LBB66_220
Ltmp1773:
LBB66_218:
	.loc	44 0 19 is_stmt 0
	ldr	x8, [sp, #3352]
	.loc	44 186 1 is_stmt 1
	ldr	x9, [sp, #24048]
	str	x9, [sp, #2240]
	ldr	w8, [x8, #2104]
	str	w8, [sp, #2252]
	b	LBB66_222
LBB66_219:
	.loc	44 199 1
	b	LBB66_218
LBB66_220:
	.loc	44 0 1 is_stmt 0
	ldr	x8, [sp, #3432]
	ldr	x9, [sp, #3352]
	ldr	x10, [sp, #2264]
	ldr	x11, [sp, #2256]
	ldr	q0, [sp, #2272]
	str	q0, [x9, #2160]
Ltmp1774:
	.loc	44 170 5 is_stmt 1
	str	x11, [sp, #24024]
	str	x10, [sp, #24032]
Ltmp1775:
	.loc	44 195 13
	add	x10, sp, #5, lsl #12
	add	x10, x10, #3289
	ldur	q0, [x10, #255]
	str	q0, [x9, #2048]
Ltmp1776:
	.loc	44 198 14
	ldr	q0, [x9, #2048]
	str	q0, [x9, #2144]
Ltmp1777:
	.loc	44 499 14
	ldr	q0, [x9, #2144]
	str	q0, [x9, #2176]
	.loc	44 499 9 is_stmt 0
	ldr	q0, [x9, #2176]
	str	q0, [x8, #6320]
Ltmp1778:
	.loc	44 240 14 is_stmt 1
	b	LBB66_223
Ltmp1779:
LBB66_221:
	.loc	45 245 13
	ldr	x8, [sp, #15360]
	str	x8, [sp, #3304]
	b	LBB66_651
LBB66_222:
	.loc	45 0 13 is_stmt 0
	ldr	w8, [sp, #2252]
	ldr	x9, [sp, #2240]
	str	x9, [sp, #15360]
	str	w8, [sp, #15368]
	b	LBB66_221
LBB66_223:
	ldr	x9, [sp, #3352]
	ldr	x8, [sp, #3432]
	.loc	45 249 21 is_stmt 1
	ldr	q0, [x8, #4320]
	str	q0, [x9, #1584]
	.loc	45 249 35 is_stmt 0
	ldr	q0, [x8, #4384]
	str	q0, [x9, #1568]
Ltmp1780:
	.loc	44 239 17 is_stmt 1
	ldr	q0, [x9, #1584]
	add	x0, sp, #5, lsl #12
	add	x0, x0, #3024
	str	q0, [x9, #1552]
	ldr	q0, [x9, #1568]
	str	q0, [x9, #1600]
Ltmp1781:
	.loc	44 191 9
	strb	wzr, [x9, #1759]
	mov	w8, #1
	strb	w8, [x9, #1759]
Ltmp825:
	.loc	44 191 29 is_stmt 0
	add	x8, sp, #5, lsl #12
	add	x8, x8, #3104
	adrp	x1, l_alloc_d6cd646a032ab5661bff8aa78f551e65@PAGE
	add	x1, x1, l_alloc_d6cd646a032ab5661bff8aa78f551e65@PAGEOFF
	bl	__ZN50_$LT$T$u20$as$u20$core..convert..Into$LT$U$GT$$GT$4into17hb9c0fa23cb5a2aabE
Ltmp826:
	b	LBB66_225
LBB66_224:
Ltmp831:
	.loc	44 0 29
	ldr	x8, [sp, #3352]
	str	x0, [sp, #23712]
	mov	x9, x1
	str	w9, [x8, #1768]
	.loc	44 199 1 is_stmt 1
	ldrb	w8, [x8, #1759]
	tbnz	w8, #0, LBB66_228
	b	LBB66_227
LBB66_225:
	.loc	44 0 1 is_stmt 0
	ldr	x8, [sp, #3352]
Ltmp1782:
	.loc	44 192 29 is_stmt 1
	strb	wzr, [x8, #1759]
	ldr	q0, [x8, #1600]
	add	x0, sp, #5, lsl #12
	add	x0, x0, #3136
	str	q0, [x8, #1664]
Ltmp827:
	add	x8, sp, #5, lsl #12
	add	x8, x8, #3120
	adrp	x1, l_alloc_eb8937521ab56b1815db886b021bd11a@PAGE
	add	x1, x1, l_alloc_eb8937521ab56b1815db886b021bd11a@PAGEOFF
	bl	__ZN50_$LT$T$u20$as$u20$core..convert..Into$LT$U$GT$$GT$4into17hb9c0fa23cb5a2aabE
Ltmp828:
	b	LBB66_226
LBB66_226:
	.loc	44 0 29 is_stmt 0
	ldr	x8, [sp, #3352]
Ltmp1783:
	.loc	44 193 30 is_stmt 1
	ldr	q0, [x8, #1632]
	str	q0, [x8, #1680]
Ltmp1784:
	.loc	44 165 16
	ldr	x11, [sp, #23632]
	mov	x9, #0
	str	x11, [sp, #23816]
	.loc	44 165 36 is_stmt 0
	ldr	x10, [sp, #23640]
	str	x10, [sp, #23808]
	.loc	44 165 5
	orr	x1, x11, x9
	orr	x2, x9, x10
	mov.d	v0[0], x1
	mov.d	v0[1], x2
Ltmp1785:
	.loc	44 193 14 is_stmt 1
	str	q0, [x8, #1776]
Ltmp1786:
	.loc	44 194 30
	ldr	q0, [x8, #1648]
	str	q0, [x8, #1696]
Ltmp1787:
	.loc	44 165 16
	ldr	x11, [sp, #23648]
	str	x11, [sp, #23832]
	.loc	44 165 36 is_stmt 0
	ldr	x10, [sp, #23656]
	str	x10, [sp, #23824]
	.loc	44 165 5
	orr	x3, x11, x9
	orr	x4, x9, x10
	mov.d	v0[0], x3
	mov.d	v0[1], x4
Ltmp1788:
	.loc	44 194 14 is_stmt 1
	str	q0, [x8, #1792]
Ltmp829:
Ltmp1789:
	.loc	44 196 19
	add	x0, sp, #5, lsl #12
	add	x0, x0, #3103
	bl	__ZN77_$LT$ppv_lite86..generic..u32x4_generic$u20$as$u20$core..ops..bit..BitXor$GT$6bitxor28_$u7b$$u7b$closure$u7d$$u7d$17hbf1305eccfd97e53E
	str	x0, [sp, #2208]
	str	x1, [sp, #2216]
	mov.d	v0[0], x0
	mov.d	v0[1], x1
	str	q0, [sp, #2224]
Ltmp830:
	b	LBB66_229
Ltmp1790:
LBB66_227:
	.loc	44 0 19 is_stmt 0
	ldr	x8, [sp, #3352]
	.loc	44 186 1 is_stmt 1
	ldr	x9, [sp, #23712]
	str	x9, [sp, #2192]
	ldr	w8, [x8, #1768]
	str	w8, [sp, #2204]
	b	LBB66_231
LBB66_228:
	.loc	44 199 1
	b	LBB66_227
LBB66_229:
	.loc	44 0 1 is_stmt 0
	ldr	x8, [sp, #3432]
	ldr	x9, [sp, #3352]
	ldr	x10, [sp, #2216]
	ldr	x11, [sp, #2208]
	ldr	q0, [sp, #2224]
	str	q0, [x9, #1824]
Ltmp1791:
	.loc	44 170 5 is_stmt 1
	str	x11, [sp, #23688]
	str	x10, [sp, #23696]
Ltmp1792:
	.loc	44 195 13
	add	x10, sp, #5, lsl #12
	add	x10, x10, #2953
	ldur	q0, [x10, #255]
	str	q0, [x9, #1712]
Ltmp1793:
	.loc	44 198 14
	ldr	q0, [x9, #1712]
	str	q0, [x9, #1808]
Ltmp1794:
	.loc	44 499 14
	ldr	q0, [x9, #1808]
	str	q0, [x9, #1840]
	.loc	44 499 9 is_stmt 0
	ldr	q0, [x9, #1840]
	str	q0, [x8, #6336]
Ltmp1795:
	.loc	44 240 14 is_stmt 1
	b	LBB66_232
Ltmp1796:
LBB66_230:
	.loc	45 251 17
	b	LBB66_221
LBB66_231:
	.loc	45 0 17 is_stmt 0
	ldr	w8, [sp, #2204]
	ldr	x9, [sp, #2192]
	str	x9, [sp, #15360]
	str	w8, [sp, #15368]
	b	LBB66_230
LBB66_232:
	ldr	x9, [sp, #3352]
	ldr	x8, [sp, #3432]
	.loc	45 250 21 is_stmt 1
	ldr	q0, [x8, #4336]
	str	q0, [x9, #1248]
	.loc	45 250 35 is_stmt 0
	ldr	q0, [x8, #4400]
	str	q0, [x9, #1232]
Ltmp1797:
	.loc	44 239 17 is_stmt 1
	ldr	q0, [x9, #1248]
	add	x0, sp, #5, lsl #12
	add	x0, x0, #2688
	str	q0, [x9, #1216]
	ldr	q0, [x9, #1232]
	str	q0, [x9, #1264]
Ltmp1798:
	.loc	44 191 9
	strb	wzr, [x9, #1423]
	mov	w8, #1
	strb	w8, [x9, #1423]
Ltmp832:
	.loc	44 191 29 is_stmt 0
	add	x8, sp, #5, lsl #12
	add	x8, x8, #2768
	adrp	x1, l_alloc_d6cd646a032ab5661bff8aa78f551e65@PAGE
	add	x1, x1, l_alloc_d6cd646a032ab5661bff8aa78f551e65@PAGEOFF
	bl	__ZN50_$LT$T$u20$as$u20$core..convert..Into$LT$U$GT$$GT$4into17hb9c0fa23cb5a2aabE
Ltmp833:
	b	LBB66_234
LBB66_233:
Ltmp838:
	.loc	44 0 29
	ldr	x8, [sp, #3352]
	str	x0, [sp, #23376]
	mov	x9, x1
	str	w9, [x8, #1432]
	.loc	44 199 1 is_stmt 1
	ldrb	w8, [x8, #1423]
	tbnz	w8, #0, LBB66_237
	b	LBB66_236
LBB66_234:
	.loc	44 0 1 is_stmt 0
	ldr	x8, [sp, #3352]
Ltmp1799:
	.loc	44 192 29 is_stmt 1
	strb	wzr, [x8, #1423]
	ldr	q0, [x8, #1264]
	add	x0, sp, #5, lsl #12
	add	x0, x0, #2800
	str	q0, [x8, #1328]
Ltmp834:
	add	x8, sp, #5, lsl #12
	add	x8, x8, #2784
	adrp	x1, l_alloc_eb8937521ab56b1815db886b021bd11a@PAGE
	add	x1, x1, l_alloc_eb8937521ab56b1815db886b021bd11a@PAGEOFF
	bl	__ZN50_$LT$T$u20$as$u20$core..convert..Into$LT$U$GT$$GT$4into17hb9c0fa23cb5a2aabE
Ltmp835:
	b	LBB66_235
LBB66_235:
	.loc	44 0 29 is_stmt 0
	ldr	x8, [sp, #3352]
Ltmp1800:
	.loc	44 193 30 is_stmt 1
	ldr	q0, [x8, #1296]
	str	q0, [x8, #1344]
Ltmp1801:
	.loc	44 165 16
	ldr	x11, [sp, #23296]
	mov	x9, #0
	str	x11, [sp, #23480]
	.loc	44 165 36 is_stmt 0
	ldr	x10, [sp, #23304]
	str	x10, [sp, #23472]
	.loc	44 165 5
	orr	x1, x11, x9
	orr	x2, x9, x10
	mov.d	v0[0], x1
	mov.d	v0[1], x2
Ltmp1802:
	.loc	44 193 14 is_stmt 1
	str	q0, [x8, #1440]
Ltmp1803:
	.loc	44 194 30
	ldr	q0, [x8, #1312]
	str	q0, [x8, #1360]
Ltmp1804:
	.loc	44 165 16
	ldr	x11, [sp, #23312]
	str	x11, [sp, #23496]
	.loc	44 165 36 is_stmt 0
	ldr	x10, [sp, #23320]
	str	x10, [sp, #23488]
	.loc	44 165 5
	orr	x3, x11, x9
	orr	x4, x9, x10
	mov.d	v0[0], x3
	mov.d	v0[1], x4
Ltmp1805:
	.loc	44 194 14 is_stmt 1
	str	q0, [x8, #1456]
Ltmp836:
Ltmp1806:
	.loc	44 196 19
	add	x0, sp, #5, lsl #12
	add	x0, x0, #2767
	bl	__ZN77_$LT$ppv_lite86..generic..u32x4_generic$u20$as$u20$core..ops..bit..BitXor$GT$6bitxor28_$u7b$$u7b$closure$u7d$$u7d$17hbf1305eccfd97e53E
	str	x0, [sp, #2160]
	str	x1, [sp, #2168]
	mov.d	v0[0], x0
	mov.d	v0[1], x1
	str	q0, [sp, #2176]
Ltmp837:
	b	LBB66_238
Ltmp1807:
LBB66_236:
	.loc	44 0 19 is_stmt 0
	ldr	x8, [sp, #3352]
	.loc	44 186 1 is_stmt 1
	ldr	x9, [sp, #23376]
	str	x9, [sp, #2144]
	ldr	w8, [x8, #1432]
	str	w8, [sp, #2156]
	b	LBB66_239
LBB66_237:
	.loc	44 199 1
	b	LBB66_236
LBB66_238:
	.loc	44 0 1 is_stmt 0
	ldr	x8, [sp, #3432]
	ldr	x9, [sp, #3352]
	ldr	x10, [sp, #2168]
	ldr	x11, [sp, #2160]
	ldr	q0, [sp, #2176]
	str	q0, [x9, #1488]
Ltmp1808:
	.loc	44 170 5 is_stmt 1
	str	x11, [sp, #23352]
	str	x10, [sp, #23360]
Ltmp1809:
	.loc	44 195 13
	add	x10, sp, #5, lsl #12
	add	x10, x10, #2617
	ldur	q0, [x10, #255]
	str	q0, [x9, #1376]
Ltmp1810:
	.loc	44 198 14
	ldr	q0, [x9, #1376]
	str	q0, [x9, #1472]
Ltmp1811:
	.loc	44 499 14
	ldr	q0, [x9, #1472]
	str	q0, [x9, #1504]
	.loc	44 499 9 is_stmt 0
	ldr	q0, [x9, #1504]
	str	q0, [x8, #6352]
Ltmp1812:
	.loc	44 240 14 is_stmt 1
	b	LBB66_240
Ltmp1813:
LBB66_239:
	.loc	44 0 14 is_stmt 0
	ldr	w8, [sp, #2156]
	ldr	x9, [sp, #2144]
	str	x9, [sp, #15360]
	str	w8, [sp, #15368]
	.loc	45 251 17 is_stmt 1
	b	LBB66_230
LBB66_240:
	.loc	45 0 17 is_stmt 0
	ldr	x8, [sp, #3432]
	.loc	45 246 20 is_stmt 1
	ldr	q0, [x8, #6304]
	add	x1, sp, #3, lsl #12
	add	x1, x1, #2944
	str	q0, [x8, #6240]
	ldr	q0, [x8, #6320]
	str	q0, [x8, #6256]
	ldr	q0, [x8, #6336]
	str	q0, [x8, #6272]
	ldr	q0, [x8, #6352]
	str	q0, [x8, #6288]
	add	x0, sp, #3, lsl #12
	add	x0, x0, #928
	.loc	45 246 17 is_stmt 0
	mov	w8, #64
	mov	x2, x8
	bl	_memcpy
	ldr	x9, [sp, #3432]
	ldr	x8, [sp, #3328]
Ltmp1814:
	.loc	45 274 17 is_stmt 1
	ldr	q0, [x9, #4224]
	str	q0, [x8, #720]
Ltmp1815:
	.loc	44 343 9
	ldr	q0, [x8, #720]
	add	x0, sp, #10, lsl #12
	add	x0, x0, #2464
	str	q0, [x8, #704]
Ltmp839:
Ltmp1816:
	.loc	44 105 29
	add	x8, sp, #10, lsl #12
	add	x8, x8, #2512
	adrp	x1, l_alloc_345ce69d67e2022250dbe2d202815e5b@PAGE
	add	x1, x1, l_alloc_345ce69d67e2022250dbe2d202815e5b@PAGEOFF
	bl	__ZN50_$LT$T$u20$as$u20$core..convert..Into$LT$U$GT$$GT$4into17hb9c0fa23cb5a2aabE
Ltmp840:
	b	LBB66_242
LBB66_241:
Ltmp849:
	.loc	44 0 29 is_stmt 0
	ldr	x8, [sp, #3328]
	str	x0, [x8, #816]
	mov	x9, x1
	str	w9, [x8, #824]
	.loc	44 100 1 is_stmt 1
	ldr	x8, [x8, #816]
	str	x8, [sp, #3304]
	b	LBB66_651
LBB66_242:
	.loc	44 0 1 is_stmt 0
	ldr	x8, [sp, #3328]
Ltmp1817:
	.loc	44 106 22 is_stmt 1
	ldr	q0, [x8, #752]
	str	q0, [x8, #768]
Ltmp1818:
	.loc	44 108 15
	ldr	w1, [x8, #768]
Ltmp841:
	.loc	44 108 13 is_stmt 0
	add	x0, sp, #10, lsl #12
	add	x0, x0, #2511
	bl	__ZN90_$LT$ppv_lite86..generic..u32x4_generic$u20$as$u20$ppv_lite86..types..RotateEachWord32$GT$24rotate_each_word_right2528_$u7b$$u7b$closure$u7d$$u7d$17h8d7855943613a79fE
	str	w0, [sp, #2140]
Ltmp842:
	b	LBB66_243
LBB66_243:
	.loc	44 0 13
	ldr	x8, [sp, #3328]
	.loc	44 108 24
	ldr	w1, [x8, #772]
Ltmp843:
	.loc	44 108 22
	add	x0, sp, #10, lsl #12
	add	x0, x0, #2511
	bl	__ZN90_$LT$ppv_lite86..generic..u32x4_generic$u20$as$u20$ppv_lite86..types..RotateEachWord32$GT$24rotate_each_word_right2528_$u7b$$u7b$closure$u7d$$u7d$17h8d7855943613a79fE
	str	w0, [sp, #2136]
Ltmp844:
	b	LBB66_244
LBB66_244:
	.loc	44 0 22
	ldr	x8, [sp, #3328]
	.loc	44 108 33
	ldr	w1, [x8, #776]
Ltmp845:
	.loc	44 108 31
	add	x0, sp, #10, lsl #12
	add	x0, x0, #2511
	bl	__ZN90_$LT$ppv_lite86..generic..u32x4_generic$u20$as$u20$ppv_lite86..types..RotateEachWord32$GT$24rotate_each_word_right2528_$u7b$$u7b$closure$u7d$$u7d$17h8d7855943613a79fE
	str	w0, [sp, #2132]
Ltmp846:
	b	LBB66_245
LBB66_245:
	.loc	44 0 31
	ldr	x8, [sp, #3328]
	.loc	44 108 42
	ldr	w1, [x8, #780]
Ltmp847:
	.loc	44 108 40
	add	x0, sp, #10, lsl #12
	add	x0, x0, #2511
	bl	__ZN90_$LT$ppv_lite86..generic..u32x4_generic$u20$as$u20$ppv_lite86..types..RotateEachWord32$GT$24rotate_each_word_right2528_$u7b$$u7b$closure$u7d$$u7d$17h8d7855943613a79fE
	str	w0, [sp, #2128]
Ltmp848:
	b	LBB66_246
LBB66_246:
	.loc	44 0 40
	ldr	x8, [sp, #3328]
	ldr	x9, [sp, #3432]
	ldr	x10, [sp, #3336]
	ldr	w11, [sp, #2128]
	ldr	w12, [sp, #2132]
	ldr	w13, [sp, #2136]
	ldr	w14, [sp, #2140]
	.loc	44 108 12
	str	w14, [x8, #800]
	str	w13, [x8, #804]
	str	w12, [x8, #808]
	str	w11, [x8, #812]
	.loc	44 107 13 is_stmt 1
	ldr	q0, [x8, #800]
	str	q0, [x8, #784]
Ltmp1819:
	.loc	44 110 14
	ldr	q0, [x8, #784]
	str	q0, [x8, #832]
Ltmp1820:
	.loc	44 499 14
	ldr	q0, [x8, #832]
	str	q0, [x8, #848]
	.loc	44 499 9 is_stmt 0
	ldr	q0, [x8, #848]
	str	q0, [x10, #11952]
Ltmp1821:
	.loc	45 275 17 is_stmt 1
	ldr	q0, [x9, #4240]
	str	q0, [x8, #560]
Ltmp1822:
	.loc	44 343 9
	ldr	q0, [x8, #560]
	add	x0, sp, #10, lsl #12
	add	x0, x0, #2304
	str	q0, [x8, #544]
Ltmp850:
Ltmp1823:
	.loc	44 105 29
	add	x8, sp, #10, lsl #12
	add	x8, x8, #2352
	adrp	x1, l_alloc_345ce69d67e2022250dbe2d202815e5b@PAGE
	add	x1, x1, l_alloc_345ce69d67e2022250dbe2d202815e5b@PAGEOFF
	bl	__ZN50_$LT$T$u20$as$u20$core..convert..Into$LT$U$GT$$GT$4into17hb9c0fa23cb5a2aabE
Ltmp851:
	b	LBB66_248
LBB66_247:
Ltmp860:
	.loc	44 0 29 is_stmt 0
	ldr	x8, [sp, #3328]
	str	x0, [x8, #656]
	mov	x9, x1
	str	w9, [x8, #664]
	.loc	44 100 1 is_stmt 1
	ldr	x8, [x8, #656]
	str	x8, [sp, #3304]
	b	LBB66_651
LBB66_248:
	.loc	44 0 1 is_stmt 0
	ldr	x8, [sp, #3328]
Ltmp1824:
	.loc	44 106 22 is_stmt 1
	ldr	q0, [x8, #592]
	str	q0, [x8, #608]
Ltmp1825:
	.loc	44 108 15
	ldr	w1, [x8, #608]
Ltmp852:
	.loc	44 108 13 is_stmt 0
	add	x0, sp, #10, lsl #12
	add	x0, x0, #2351
	bl	__ZN90_$LT$ppv_lite86..generic..u32x4_generic$u20$as$u20$ppv_lite86..types..RotateEachWord32$GT$24rotate_each_word_right2528_$u7b$$u7b$closure$u7d$$u7d$17h8d7855943613a79fE
	str	w0, [sp, #2124]
Ltmp853:
	b	LBB66_249
LBB66_249:
	.loc	44 0 13
	ldr	x8, [sp, #3328]
	.loc	44 108 24
	ldr	w1, [x8, #612]
Ltmp854:
	.loc	44 108 22
	add	x0, sp, #10, lsl #12
	add	x0, x0, #2351
	bl	__ZN90_$LT$ppv_lite86..generic..u32x4_generic$u20$as$u20$ppv_lite86..types..RotateEachWord32$GT$24rotate_each_word_right2528_$u7b$$u7b$closure$u7d$$u7d$17h8d7855943613a79fE
	str	w0, [sp, #2120]
Ltmp855:
	b	LBB66_250
LBB66_250:
	.loc	44 0 22
	ldr	x8, [sp, #3328]
	.loc	44 108 33
	ldr	w1, [x8, #616]
Ltmp856:
	.loc	44 108 31
	add	x0, sp, #10, lsl #12
	add	x0, x0, #2351
	bl	__ZN90_$LT$ppv_lite86..generic..u32x4_generic$u20$as$u20$ppv_lite86..types..RotateEachWord32$GT$24rotate_each_word_right2528_$u7b$$u7b$closure$u7d$$u7d$17h8d7855943613a79fE
	str	w0, [sp, #2116]
Ltmp857:
	b	LBB66_251
LBB66_251:
	.loc	44 0 31
	ldr	x8, [sp, #3328]
	.loc	44 108 42
	ldr	w1, [x8, #620]
Ltmp858:
	.loc	44 108 40
	add	x0, sp, #10, lsl #12
	add	x0, x0, #2351
	bl	__ZN90_$LT$ppv_lite86..generic..u32x4_generic$u20$as$u20$ppv_lite86..types..RotateEachWord32$GT$24rotate_each_word_right2528_$u7b$$u7b$closure$u7d$$u7d$17h8d7855943613a79fE
	str	w0, [sp, #2112]
Ltmp859:
	b	LBB66_252
LBB66_252:
	.loc	44 0 40
	ldr	x8, [sp, #3328]
	ldr	x9, [sp, #3432]
	ldr	x10, [sp, #3336]
	ldr	w11, [sp, #2112]
	ldr	w12, [sp, #2116]
	ldr	w13, [sp, #2120]
	ldr	w14, [sp, #2124]
	.loc	44 108 12
	str	w14, [x8, #640]
	str	w13, [x8, #644]
	str	w12, [x8, #648]
	str	w11, [x8, #652]
	.loc	44 107 13 is_stmt 1
	ldr	q0, [x8, #640]
	str	q0, [x8, #624]
Ltmp1826:
	.loc	44 110 14
	ldr	q0, [x8, #624]
	str	q0, [x8, #672]
Ltmp1827:
	.loc	44 499 14
	ldr	q0, [x8, #672]
	str	q0, [x8, #688]
	.loc	44 499 9 is_stmt 0
	ldr	q0, [x8, #688]
	str	q0, [x10, #11968]
Ltmp1828:
	.loc	45 276 17 is_stmt 1
	ldr	q0, [x9, #4256]
	str	q0, [x8, #400]
Ltmp1829:
	.loc	44 343 9
	ldr	q0, [x8, #400]
	add	x0, sp, #10, lsl #12
	add	x0, x0, #2144
	str	q0, [x8, #384]
Ltmp861:
Ltmp1830:
	.loc	44 105 29
	add	x8, sp, #10, lsl #12
	add	x8, x8, #2192
	adrp	x1, l_alloc_345ce69d67e2022250dbe2d202815e5b@PAGE
	add	x1, x1, l_alloc_345ce69d67e2022250dbe2d202815e5b@PAGEOFF
	bl	__ZN50_$LT$T$u20$as$u20$core..convert..Into$LT$U$GT$$GT$4into17hb9c0fa23cb5a2aabE
Ltmp862:
	b	LBB66_254
LBB66_253:
Ltmp871:
	.loc	44 0 29 is_stmt 0
	ldr	x8, [sp, #3328]
	str	x0, [x8, #496]
	mov	x9, x1
	str	w9, [x8, #504]
