	.file	"dp_ex.5c91ebfbd02dee49-cgu.0"
	.section	.text._ZN3std2rt10lang_start17h4be3234073074386E,"ax",@progbits
	.hidden	_ZN3std2rt10lang_start17h4be3234073074386E
	.globl	_ZN3std2rt10lang_start17h4be3234073074386E
	.p2align	4
	.type	_ZN3std2rt10lang_start17h4be3234073074386E,@function
_ZN3std2rt10lang_start17h4be3234073074386E:
.Lfunc_begin0:
	.file	1 "/rustc/ecade534c66478c51c5d3c1d3682dc4beb0ac972/library/std/src" "rt.rs"
	.loc	1 192 0
	.cfi_startproc
	pushq	%rax
	.cfi_def_cfa_offset 16
	movl	%ecx, %r8d
	movq	%rdx, %rcx
.Ltmp0:
	movq	%rsi, %rdx
.Ltmp1:
	.loc	1 199 10 prologue_end
	movq	%rdi, (%rsp)
	.loc	1 198 5
	leaq	.Lvtable.0(%rip), %rsi
.Ltmp2:
	.loc	1 0 5 is_stmt 0
	movq	%rsp, %rdi
.Ltmp3:
	.loc	1 198 5
	callq	*_ZN3std2rt19lang_start_internal17h179a86731aa5c4aaE@GOTPCREL(%rip)
.Ltmp4:
	.loc	1 204 2 epilogue_begin is_stmt 1
	popq	%rcx
	.cfi_def_cfa_offset 8
	retq
.Ltmp5:
.Lfunc_end0:
	.size	_ZN3std2rt10lang_start17h4be3234073074386E, .Lfunc_end0-_ZN3std2rt10lang_start17h4be3234073074386E
	.cfi_endproc

	.section	".text._ZN3std2rt10lang_start28_$u7b$$u7b$closure$u7d$$u7d$17h35042c385834d7a7E","ax",@progbits
	.p2align	4
	.type	_ZN3std2rt10lang_start28_$u7b$$u7b$closure$u7d$$u7d$17h35042c385834d7a7E,@function
_ZN3std2rt10lang_start28_$u7b$$u7b$closure$u7d$$u7d$17h35042c385834d7a7E:
.Lfunc_begin1:
	.loc	1 199 0
	.cfi_startproc
	pushq	%rax
	.cfi_def_cfa_offset 16
.Ltmp6:
	.loc	1 199 70 prologue_end
	movq	(%rdi), %rdi
.Ltmp7:
	.loc	1 199 18 is_stmt 0
	callq	_ZN3std3sys9backtrace28__rust_begin_short_backtrace17h4d6c13392805e6c7E
	.loc	1 199 93
	xorl	%eax, %eax
	.loc	1 199 93 epilogue_begin
	popq	%rcx
	.cfi_def_cfa_offset 8
	retq
.Ltmp8:
.Lfunc_end1:
	.size	_ZN3std2rt10lang_start28_$u7b$$u7b$closure$u7d$$u7d$17h35042c385834d7a7E, .Lfunc_end1-_ZN3std2rt10lang_start28_$u7b$$u7b$closure$u7d$$u7d$17h35042c385834d7a7E
	.cfi_endproc

	.section	.text._ZN3std3sys9backtrace28__rust_begin_short_backtrace17h4d6c13392805e6c7E,"ax",@progbits
	.p2align	4
	.type	_ZN3std3sys9backtrace28__rust_begin_short_backtrace17h4d6c13392805e6c7E,@function
_ZN3std3sys9backtrace28__rust_begin_short_backtrace17h4d6c13392805e6c7E:
.Lfunc_begin2:
	.file	2 "/rustc/ecade534c66478c51c5d3c1d3682dc4beb0ac972/library/std/src/sys" "backtrace.rs"
	.loc	2 148 0 is_stmt 1
	.cfi_startproc
	pushq	%rax
	.cfi_def_cfa_offset 16
.Ltmp9:
	.file	3 "/rustc/ecade534c66478c51c5d3c1d3682dc4beb0ac972/library/core/src/ops" "function.rs"
	.loc	3 250 5 prologue_end
	callq	*%rdi
.Ltmp10:
	.file	4 "/rustc/ecade534c66478c51c5d3c1d3682dc4beb0ac972/library/core/src" "hint.rs"
	.loc	4 477 5
	#APP
	#NO_APP
.Ltmp11:
	.loc	2 158 2 epilogue_begin
	popq	%rax
	.cfi_def_cfa_offset 8
	retq
.Ltmp12:
.Lfunc_end2:
	.size	_ZN3std3sys9backtrace28__rust_begin_short_backtrace17h4d6c13392805e6c7E, .Lfunc_end2-_ZN3std3sys9backtrace28__rust_begin_short_backtrace17h4d6c13392805e6c7E
	.cfi_endproc

	.section	".text._ZN4core3ops8function6FnOnce40call_once$u7b$$u7b$vtable.shim$u7d$$u7d$17ha781119b1797b6ceE","ax",@progbits
	.p2align	4
	.type	_ZN4core3ops8function6FnOnce40call_once$u7b$$u7b$vtable.shim$u7d$$u7d$17ha781119b1797b6ceE,@function
_ZN4core3ops8function6FnOnce40call_once$u7b$$u7b$vtable.shim$u7d$$u7d$17ha781119b1797b6ceE:
.Lfunc_begin3:
	.loc	3 250 0
	.cfi_startproc
	pushq	%rax
	.cfi_def_cfa_offset 16
.Ltmp13:
	.loc	3 250 5 prologue_end
	movq	(%rdi), %rdi
.Ltmp14:
	.loc	1 199 18
	callq	_ZN3std3sys9backtrace28__rust_begin_short_backtrace17h4d6c13392805e6c7E
.Ltmp15:
	.loc	3 250 5
	xorl	%eax, %eax
	.loc	3 250 5 epilogue_begin is_stmt 0
	popq	%rcx
	.cfi_def_cfa_offset 8
	retq
.Ltmp16:
.Lfunc_end3:
	.size	_ZN4core3ops8function6FnOnce40call_once$u7b$$u7b$vtable.shim$u7d$$u7d$17ha781119b1797b6ceE, .Lfunc_end3-_ZN4core3ops8function6FnOnce40call_once$u7b$$u7b$vtable.shim$u7d$$u7d$17ha781119b1797b6ceE
	.cfi_endproc

	.section	".text._ZN4rand4rngs9reseeding29ReseedingCore$LT$R$C$Rsdr$GT$19reseed_and_generate17ha6228666c915f093E","ax",@progbits
	.p2align	4
	.type	_ZN4rand4rngs9reseeding29ReseedingCore$LT$R$C$Rsdr$GT$19reseed_and_generate17ha6228666c915f093E,@function
_ZN4rand4rngs9reseeding29ReseedingCore$LT$R$C$Rsdr$GT$19reseed_and_generate17ha6228666c915f093E:
.Lfunc_begin4:
	.file	5 "/home/np/.cargo/registry/src/index.crates.io-1949cf8c6b5b557f/rand-0.9.2/src/rngs" "reseeding.rs"
	.loc	5 216 0 is_stmt 1
	.cfi_startproc
	pushq	%rbp
	.cfi_def_cfa_offset 16
	pushq	%r15
	.cfi_def_cfa_offset 24
	pushq	%r14
	.cfi_def_cfa_offset 32
	pushq	%r13
	.cfi_def_cfa_offset 40
	pushq	%r12
	.cfi_def_cfa_offset 48
	pushq	%rbx
	.cfi_def_cfa_offset 56
	subq	$136, %rsp
	.cfi_def_cfa_offset 192
	.cfi_offset %rbx, -56
	.cfi_offset %r12, -48
	.cfi_offset %r13, -40
	.cfi_offset %r14, -32
	.cfi_offset %r15, -24
	.cfi_offset %rbp, -16
	movq	%rsi, %rbx
	movq	%rdi, %r14
.Ltmp17:
	.file	6 "/rustc/ecade534c66478c51c5d3c1d3682dc4beb0ac972/library/core/src/array" "mod.rs"
	.loc	6 456 17 prologue_end
	xorps	%xmm0, %xmm0
	movaps	%xmm0, 16(%rsp)
	movaps	%xmm0, (%rsp)
.Ltmp18:
	.file	7 "/rustc/ecade534c66478c51c5d3c1d3682dc4beb0ac972/library/core/src/sync" "atomic.rs"
	.loc	7 3733 24
	movq	_ZN9getrandom8backends27linux_android_with_fallback12GETRANDOM_FN17hecc8036d0c0d1ff5E@GOTPCREL(%rip), %rax
.Ltmp19:
	movq	(%rax), %r15
.Ltmp20:
	.file	8 "/rustc/ecade534c66478c51c5d3c1d3682dc4beb0ac972/library/core/src/ptr" "non_null.rs"
	.loc	8 256 13
	testq	%r15, %r15
	je	.LBB4_1
.Ltmp21:
	.loc	8 1619 9
	cmpq	$-1, %r15
.Ltmp22:
	.file	9 "/home/np/.cargo/registry/src/index.crates.io-1949cf8c6b5b557f/getrandom-0.3.3/src/backends" "linux_android_with_fallback.rs"
	.loc	9 92 8
	je	.LBB4_11
.Ltmp23:
.LBB4_3:
	.loc	9 0 8 is_stmt 0
	movl	$32, %r12d
	movq	%rsp, %r13
	movq	_ZN9getrandom8backends8use_file9util_libc13last_os_error17h3226e5d4689f405dE@GOTPCREL(%rip), %rbp
	jmp	.LBB4_4
.Ltmp24:
	.p2align	4
.LBB4_7:
	.file	10 "/home/np/.cargo/registry/src/index.crates.io-1949cf8c6b5b557f/getrandom-0.3.3/src/backends/.." "util_libc.rs"
	.loc	10 60 12 is_stmt 1
	testq	%r12, %r12
	je	.LBB4_8
.Ltmp25:
.LBB4_4:
	.loc	9 98 13
	movq	%r13, %rdi
	movq	%r12, %rsi
	xorl	%edx, %edx
	callq	*%r15
.Ltmp26:
	.loc	10 63 20
	testq	%rax, %rax
	jle	.LBB4_5
.Ltmp27:
	.file	11 "/rustc/ecade534c66478c51c5d3c1d3682dc4beb0ac972/library/core/src/num" "uint_macros.rs"
	.loc	11 704 16
	subq	%rax, %r12
.Ltmp28:
	.file	12 "/rustc/ecade534c66478c51c5d3c1d3682dc4beb0ac972/library/core/src" "result.rs"
	.loc	12 2009 9
	jb	.LBB4_12
.Ltmp29:
	.loc	10 65 0
	addq	%rax, %r13
.Ltmp30:
	.loc	12 2009 9
	jmp	.LBB4_7
.Ltmp31:
	.loc	12 0 9 is_stmt 0
.Ltmp32:
	.p2align	4
.LBB4_5:
	.loc	10 62 9 is_stmt 1
	cmpq	$-1, %rax
	jne	.LBB4_12
.Ltmp33:
	.loc	10 68 27
	callq	*%rbp
.Ltmp34:
	.loc	10 0 27 is_stmt 0
	cmpl	$-4, %eax
.Ltmp35:
	.file	13 "/home/np/.cargo/registry/src/index.crates.io-1949cf8c6b5b557f/getrandom-0.3.3/src" "error.rs"
	.loc	13 115 16 is_stmt 1
	je	.LBB4_7
	jmp	.LBB4_12
.Ltmp36:
.LBB4_1:
	.loc	9 89 17
	callq	*_ZN9getrandom8backends27linux_android_with_fallback4init17h04ff7c449f4a6b71E@GOTPCREL(%rip)
	movq	%rax, %r15
.Ltmp37:
	.loc	8 1619 9
	cmpq	$-1, %r15
.Ltmp38:
	.loc	9 92 8
	jne	.LBB4_3
.Ltmp39:
.LBB4_11:
	.loc	9 0 8 is_stmt 0
	movq	%rsp, %rdi
	.loc	9 93 9 is_stmt 1
	movl	$32, %esi
	callq	*_ZN9getrandom8backends27linux_android_with_fallback17use_file_fallback17h9211927a188feaf1E@GOTPCREL(%rip)
.Ltmp40:
	.loc	12 2009 15
	testl	%eax, %eax
	.loc	12 2009 9 is_stmt 0
	je	.LBB4_8
.Ltmp41:
.LBB4_12:
	.loc	5 226 35 is_stmt 1
	movq	48(%r14), %rax
	jmp	.LBB4_13
.Ltmp42:
.LBB4_8:
	.file	14 "/home/np/.cargo/registry/src/index.crates.io-1949cf8c6b5b557f/rand_core-0.9.3/src" "lib.rs"
	.loc	14 533 28
	movaps	(%rsp), %xmm0
	movaps	16(%rsp), %xmm1
	movaps	%xmm1, 48(%rsp)
	movaps	%xmm0, 32(%rsp)
.Ltmp43:
	.loc	14 533 9 is_stmt 0
	leaq	80(%rsp), %rdi
.Ltmp44:
	.file	15 "/home/np/.cargo/registry/src/index.crates.io-1949cf8c6b5b557f/rand_chacha-0.9.0/src" "guts.rs"
	.loc	15 75 9 is_stmt 1
	leaq	.Lalloc_85fc59111fd0cef7ef4093da3840b035(%rip), %rdx
.Ltmp45:
	.loc	15 0 9 is_stmt 0
	leaq	32(%rsp), %rsi
	.loc	15 75 9
	movl	$8, %ecx
	callq	*_ZN11rand_chacha4guts11init_chacha17he4f07b70577fd00dE@GOTPCREL(%rip)
.Ltmp46:
	.loc	5 210 39 is_stmt 1
	movq	48(%r14), %rax
	.loc	5 211 13
	movaps	80(%rsp), %xmm0
	movaps	96(%rsp), %xmm1
	movaps	112(%rsp), %xmm2
	movaps	%xmm0, (%r14)
	movaps	%xmm1, 16(%r14)
	movaps	%xmm2, 32(%r14)
.Ltmp47:
.LBB4_13:
	.loc	5 226 9
	addq	$-256, %rax
	movq	%rax, 56(%r14)
.Ltmp48:
	.loc	15 81 9
	movq	%r14, %rdi
	movl	$6, %esi
	movq	%rbx, %rdx
	callq	*_ZN11rand_chacha4guts11refill_wide17h7bc07d422e567fdcE@GOTPCREL(%rip)
.Ltmp49:
	.loc	5 228 6 epilogue_begin
	addq	$136, %rsp
	.cfi_def_cfa_offset 56
	popq	%rbx
.Ltmp50:
	.cfi_def_cfa_offset 48
	popq	%r12
	.cfi_def_cfa_offset 40
	popq	%r13
	.cfi_def_cfa_offset 32
	popq	%r14
.Ltmp51:
	.cfi_def_cfa_offset 24
	popq	%r15
	.cfi_def_cfa_offset 16
	popq	%rbp
	.cfi_def_cfa_offset 8
	retq
.Ltmp52:
.Lfunc_end4:
	.size	_ZN4rand4rngs9reseeding29ReseedingCore$LT$R$C$Rsdr$GT$19reseed_and_generate17ha6228666c915f093E, .Lfunc_end4-_ZN4rand4rngs9reseeding29ReseedingCore$LT$R$C$Rsdr$GT$19reseed_and_generate17ha6228666c915f093E
	.cfi_endproc
	.file	16 "/home/np/.cargo/registry/src/index.crates.io-1949cf8c6b5b557f/getrandom-0.3.3/src" "lib.rs"
	.file	17 "/home/np/.cargo/registry/src/index.crates.io-1949cf8c6b5b557f/rand_core-0.9.3/src" "os.rs"
	.file	18 "/rustc/ecade534c66478c51c5d3c1d3682dc4beb0ac972/library/core/src/slice" "index.rs"
	.file	19 "/rustc/ecade534c66478c51c5d3c1d3682dc4beb0ac972/library/core/src/slice" "mod.rs"
	.file	20 "/home/np/.cargo/registry/src/index.crates.io-1949cf8c6b5b557f/rand_chacha-0.9.0/src" "chacha.rs"

	.section	".text._ZN44_$LT$dp_ex..Dog$u20$as$u20$dp_ex..Animal$GT$5speak17h95a71617b8cd4b02E","ax",@progbits
	.p2align	4
	.type	_ZN44_$LT$dp_ex..Dog$u20$as$u20$dp_ex..Animal$GT$5speak17h95a71617b8cd4b02E,@function
_ZN44_$LT$dp_ex..Dog$u20$as$u20$dp_ex..Animal$GT$5speak17h95a71617b8cd4b02E:
.Lfunc_begin5:
	.file	21 "/home/np/hack/verifopt/dp-ex" "src/main.rs"
	.loc	21 10 0
	.cfi_startproc
	subq	$56, %rsp
	.cfi_def_cfa_offset 64
.Ltmp53:
	.file	22 "/rustc/ecade534c66478c51c5d3c1d3682dc4beb0ac972/library/core/src/fmt" "mod.rs"
	.loc	22 602 9 prologue_end
	leaq	.Lalloc_ec4fa215300b117d5ab20e2368000be2(%rip), %rax
.Ltmp54:
	movq	%rax, 8(%rsp)
	movq	$1, 16(%rsp)
	movq	$8, 24(%rsp)
	xorps	%xmm0, %xmm0
	movups	%xmm0, 32(%rsp)
	leaq	8(%rsp), %rdi
.Ltmp55:
	.loc	21 11 9
	callq	*_ZN3std2io5stdio6_print17he3d109100110923bE@GOTPCREL(%rip)
.Ltmp56:
	.loc	21 12 6 epilogue_begin
	addq	$56, %rsp
	.cfi_def_cfa_offset 8
	retq
.Ltmp57:
.Lfunc_end5:
	.size	_ZN44_$LT$dp_ex..Dog$u20$as$u20$dp_ex..Animal$GT$5speak17h95a71617b8cd4b02E, .Lfunc_end5-_ZN44_$LT$dp_ex..Dog$u20$as$u20$dp_ex..Animal$GT$5speak17h95a71617b8cd4b02E
	.cfi_endproc

	.section	".text._ZN44_$LT$dp_ex..Cat$u20$as$u20$dp_ex..Animal$GT$5speak17hfb6e878b47c18265E","ax",@progbits
	.p2align	4
	.type	_ZN44_$LT$dp_ex..Cat$u20$as$u20$dp_ex..Animal$GT$5speak17hfb6e878b47c18265E,@function
_ZN44_$LT$dp_ex..Cat$u20$as$u20$dp_ex..Animal$GT$5speak17hfb6e878b47c18265E:
.Lfunc_begin6:
	.loc	21 18 0
	.cfi_startproc
	subq	$56, %rsp
	.cfi_def_cfa_offset 64
.Ltmp58:
	.loc	22 602 9 prologue_end
	leaq	.Lalloc_000bc512779c9a763a8aa84ee52b6421(%rip), %rax
.Ltmp59:
	movq	%rax, 8(%rsp)
	movq	$1, 16(%rsp)
	movq	$8, 24(%rsp)
	xorps	%xmm0, %xmm0
	movups	%xmm0, 32(%rsp)
	leaq	8(%rsp), %rdi
.Ltmp60:
	.loc	21 19 9
	callq	*_ZN3std2io5stdio6_print17he3d109100110923bE@GOTPCREL(%rip)
.Ltmp61:
	.loc	21 20 6 epilogue_begin
	addq	$56, %rsp
	.cfi_def_cfa_offset 8
	retq
.Ltmp62:
.Lfunc_end6:
	.size	_ZN44_$LT$dp_ex..Cat$u20$as$u20$dp_ex..Animal$GT$5speak17hfb6e878b47c18265E, .Lfunc_end6-_ZN44_$LT$dp_ex..Cat$u20$as$u20$dp_ex..Animal$GT$5speak17hfb6e878b47c18265E
	.cfi_endproc

	.section	".text._ZN45_$LT$dp_ex..Bird$u20$as$u20$dp_ex..Animal$GT$5speak17h900f4f573272ed1cE","ax",@progbits
	.p2align	4
	.type	_ZN45_$LT$dp_ex..Bird$u20$as$u20$dp_ex..Animal$GT$5speak17h900f4f573272ed1cE,@function
_ZN45_$LT$dp_ex..Bird$u20$as$u20$dp_ex..Animal$GT$5speak17h900f4f573272ed1cE:
.Lfunc_begin7:
	.loc	21 26 0
	.cfi_startproc
	subq	$56, %rsp
	.cfi_def_cfa_offset 64
.Ltmp63:
	.loc	22 602 9 prologue_end
	leaq	.Lalloc_aa690a7f645d07b0914dfbca7e9c692c(%rip), %rax
.Ltmp64:
	movq	%rax, 8(%rsp)
	movq	$1, 16(%rsp)
	movq	$8, 24(%rsp)
	xorps	%xmm0, %xmm0
	movups	%xmm0, 32(%rsp)
	leaq	8(%rsp), %rdi
.Ltmp65:
	.loc	21 27 9
	callq	*_ZN3std2io5stdio6_print17he3d109100110923bE@GOTPCREL(%rip)
.Ltmp66:
	.loc	21 28 6 epilogue_begin
	addq	$56, %rsp
	.cfi_def_cfa_offset 8
	retq
.Ltmp67:
.Lfunc_end7:
	.size	_ZN45_$LT$dp_ex..Bird$u20$as$u20$dp_ex..Animal$GT$5speak17h900f4f573272ed1cE, .Lfunc_end7-_ZN45_$LT$dp_ex..Bird$u20$as$u20$dp_ex..Animal$GT$5speak17h900f4f573272ed1cE
	.cfi_endproc

	.section	.text._ZN5dp_ex4main17hc7990c7b9cee8a83E,"ax",@progbits
	.p2align	4
	.type	_ZN5dp_ex4main17hc7990c7b9cee8a83E,@function
_ZN5dp_ex4main17hc7990c7b9cee8a83E:
.Lfunc_begin8:
	.loc	21 76 0
	.cfi_startproc
	.cfi_personality 155, DW.ref.rust_eh_personality
	.cfi_lsda 27, .Lexception0
	pushq	%r15
	.cfi_def_cfa_offset 16
	pushq	%r14
	.cfi_def_cfa_offset 24
	pushq	%r13
	.cfi_def_cfa_offset 32
	pushq	%r12
	.cfi_def_cfa_offset 40
	pushq	%rbx
	.cfi_def_cfa_offset 48
	subq	$48, %rsp
	.cfi_def_cfa_offset 96
	.cfi_offset %rbx, -48
	.cfi_offset %r12, -40
	.cfi_offset %r13, -32
	.cfi_offset %r14, -24
	.cfi_offset %r15, -16
	.loc	21 34 20 prologue_end
	callq	*_ZN4rand4rngs6thread3rng17h70cca7a3940ce3c4E@GOTPCREL(%rip)
	movq	%rax, %r14
	movq	%rax, %r15
	movq	%rax, (%rsp)
.Ltmp80:
	.file	23 "/rustc/ecade534c66478c51c5d3c1d3682dc4beb0ac972/library/core/src" "cell.rs"
	.loc	23 2198 9
	leaq	16(%rax), %rbx
.Ltmp81:
	.file	24 "/home/np/.cargo/registry/src/index.crates.io-1949cf8c6b5b557f/rand_core-0.9.3/src" "block.rs"
	.loc	24 187 12
	movq	336(%rax), %rcx
	cmpq	$64, %rcx
.Ltmp82:
	.loc	24 187 12 is_stmt 0
	jb	.LBB8_5
.Ltmp83:
	.loc	24 179 9 is_stmt 1
	leaq	272(%r14), %rdi
.Ltmp84:
	.loc	5 163 12
	movq	328(%r15), %rax
	testq	%rax, %rax
	jle	.LBB8_3
.Ltmp85:
	.loc	5 170 9
	addq	$-256, %rax
	movq	%rax, 328(%r15)
.Ltmp86:
.Ltmp68:
	.loc	15 81 9
	movl	$6, %esi
	movq	%rbx, %rdx
	callq	*_ZN11rand_chacha4guts11refill_wide17h7bc07d422e567fdcE@GOTPCREL(%rip)
.Ltmp87:
.Ltmp69:
	.loc	15 0 9 is_stmt 0
	jmp	.LBB8_4
.Ltmp88:
.LBB8_3:
.Ltmp70:
	.loc	5 167 20 is_stmt 1
	movq	%rbx, %rsi
	callq	_ZN4rand4rngs9reseeding29ReseedingCore$LT$R$C$Rsdr$GT$19reseed_and_generate17ha6228666c915f093E
.Ltmp89:
.Ltmp71:
.LBB8_4:
	.loc	5 0 20 is_stmt 0
	xorl	%ecx, %ecx
.Ltmp90:
.LBB8_5:
	.loc	24 191 21 is_stmt 1
	movl	16(%r15,%rcx,4), %edx
.Ltmp91:
	.loc	24 192 9
	leaq	1(%rcx), %rax
	movq	%rax, 336(%r15)
.Ltmp92:
	.file	25 "/home/np/.cargo/registry/src/index.crates.io-1949cf8c6b5b557f/rand-0.9.2/src/distr" "utils.rs"
	.loc	25 29 27
	leaq	(%rdx,%rdx,2), %r13
.Ltmp93:
	.loc	25 30 18
	movq	%r13, %r12
	shrq	$32, %r12
.Ltmp94:
	.file	26 "/home/np/.cargo/registry/src/index.crates.io-1949cf8c6b5b557f/rand-0.9.2/src/distr" "uniform_int.rs"
	.loc	26 200 20
	cmpl	$-2, %r13d
	jb	.LBB8_12
.Ltmp95:
	.loc	24 187 12
	cmpq	$63, %rcx
	jne	.LBB8_11
.Ltmp96:
	.loc	24 179 9
	addq	$272, %r14
.Ltmp97:
	.loc	5 163 12
	movq	328(%r15), %rax
	testq	%rax, %rax
	jle	.LBB8_9
.Ltmp98:
	.loc	5 170 9
	addq	$-256, %rax
	movq	%rax, 328(%r15)
.Ltmp99:
.Ltmp72:
	.loc	15 81 9
	movq	%r14, %rdi
	movl	$6, %esi
	movq	%rbx, %rdx
	callq	*_ZN11rand_chacha4guts11refill_wide17h7bc07d422e567fdcE@GOTPCREL(%rip)
.Ltmp73:
	jmp	.LBB8_10
.Ltmp100:
.LBB8_9:
.Ltmp74:
	.loc	5 167 20
	movq	%r14, %rdi
	movq	%rbx, %rsi
	callq	_ZN4rand4rngs9reseeding29ReseedingCore$LT$R$C$Rsdr$GT$19reseed_and_generate17ha6228666c915f093E
.Ltmp101:
.Ltmp75:
.LBB8_10:
	.loc	5 0 20 is_stmt 0
	xorl	%eax, %eax
.Ltmp102:
.LBB8_11:
	.loc	24 191 21 is_stmt 1
	movl	16(%r15,%rax,4), %ecx
.Ltmp103:
	.loc	24 192 9
	incq	%rax
	movq	%rax, 336(%r15)
.Ltmp104:
	.loc	25 29 27
	leaq	(%rcx,%rcx,2), %rax
.Ltmp105:
	.loc	25 30 18
	shrq	$32, %rax
.Ltmp106:
	.loc	11 539 37
	addl	%eax, %r13d
.Ltmp107:
	.loc	26 205 21
	adcq	$0, %r12
.Ltmp108:
.LBB8_12:
	.loc	8 428 20
	movq	(%rsp), %rax
.Ltmp109:
	.file	27 "/rustc/ecade534c66478c51c5d3c1d3682dc4beb0ac972/library/core/src/mem" "mod.rs"
	.loc	27 865 9
	decq	(%rax)
.Ltmp110:
	.file	28 "/rustc/ecade534c66478c51c5d3c1d3682dc4beb0ac972/library/alloc/src" "rc.rs"
	.loc	28 2299 16
	jne	.LBB8_14
.Ltmp111:
	.loc	28 0 16 is_stmt 0
	movq	%rsp, %rdi
	.loc	28 2300 17 is_stmt 1
	callq	*_ZN5alloc2rc15Rc$LT$T$C$A$GT$9drop_slow17h8d92a5ccbffeb99aE@GOTPCREL(%rip)
.Ltmp112:
.LBB8_14:
	.loc	21 36 8
	cmpq	$1, %r12
	leaq	.Lvtable.3(%rip), %rax
	leaq	.Lvtable.4(%rip), %rcx
	cmoveq	%rax, %rcx
	testq	%r12, %r12
	leaq	.Lvtable.2(%rip), %rax
	cmovneq	%rcx, %rax
.Ltmp113:
	.loc	21 44 5
	movl	$1, %edi
	callq	*24(%rax)
.Ltmp114:
	.loc	22 602 9
	leaq	.Lalloc_000bc512779c9a763a8aa84ee52b6421(%rip), %rax
.Ltmp115:
	movq	%rax, (%rsp)
	movq	$1, 8(%rsp)
	movq	$8, 16(%rsp)
	xorps	%xmm0, %xmm0
	movups	%xmm0, 24(%rsp)
	movq	%rsp, %rdi
.Ltmp116:
	.loc	21 19 9
	callq	*_ZN3std2io5stdio6_print17he3d109100110923bE@GOTPCREL(%rip)
.Ltmp117:
	.loc	21 93 2 epilogue_begin
	addq	$48, %rsp
	.cfi_def_cfa_offset 48
	popq	%rbx
	.cfi_def_cfa_offset 40
	popq	%r12
.Ltmp118:
	.cfi_def_cfa_offset 32
	popq	%r13
	.cfi_def_cfa_offset 24
	popq	%r14
	.cfi_def_cfa_offset 16
	popq	%r15
	.cfi_def_cfa_offset 8
	retq
.Ltmp119:
.LBB8_15:
	.cfi_def_cfa_offset 96
.Ltmp76:
	.loc	21 0 2 is_stmt 0
	movq	%rax, %rbx
.Ltmp120:
	.loc	8 428 20 is_stmt 1
	movq	(%rsp), %rax
.Ltmp121:
	.loc	27 865 9
	decq	(%rax)
.Ltmp122:
	.loc	28 2299 16
	jne	.LBB8_17
.Ltmp123:
.Ltmp77:
	.loc	28 0 16 is_stmt 0
	movq	%rsp, %rdi
	.loc	28 2300 17 is_stmt 1
	callq	*_ZN5alloc2rc15Rc$LT$T$C$A$GT$9drop_slow17h8d92a5ccbffeb99aE@GOTPCREL(%rip)
.Ltmp124:
.Ltmp78:
.LBB8_17:
	.loc	28 0 17 is_stmt 0
	movq	%rbx, %rdi
	callq	_Unwind_Resume@PLT
.LBB8_18:
.Ltmp79:
	.loc	21 31 1 is_stmt 1
	callq	*_ZN4core9panicking16panic_in_cleanup17h4898e2af8dc1f529E@GOTPCREL(%rip)
.Ltmp125:
.Lfunc_end8:
	.size	_ZN5dp_ex4main17hc7990c7b9cee8a83E, .Lfunc_end8-_ZN5dp_ex4main17hc7990c7b9cee8a83E
	.cfi_endproc
	.file	29 "/home/np/.cargo/registry/src/index.crates.io-1949cf8c6b5b557f/rand-0.9.2/src/rngs" "thread.rs"
	.file	30 "/home/np/.cargo/registry/src/index.crates.io-1949cf8c6b5b557f/rand-0.9.2/src/distr" "integer.rs"
	.file	31 "/home/np/.cargo/registry/src/index.crates.io-1949cf8c6b5b557f/rand-0.9.2/src" "rng.rs"
	.file	32 "/home/np/.cargo/registry/src/index.crates.io-1949cf8c6b5b557f/rand-0.9.2/src/distr" "uniform.rs"
	.file	33 "/rustc/ecade534c66478c51c5d3c1d3682dc4beb0ac972/library/core/src/ptr" "mod.rs"
	.section	.gcc_except_table._ZN5dp_ex4main17hc7990c7b9cee8a83E,"a",@progbits
	.p2align	2, 0x0
GCC_except_table8:
.Lexception0:
	.byte	255
	.byte	155
	.uleb128 .Lttbase0-.Lttbaseref0
.Lttbaseref0:
	.byte	1
	.uleb128 .Lcst_end0-.Lcst_begin0
.Lcst_begin0:
	.uleb128 .Lfunc_begin8-.Lfunc_begin8
	.uleb128 .Ltmp68-.Lfunc_begin8
	.byte	0
	.byte	0
	.uleb128 .Ltmp68-.Lfunc_begin8
	.uleb128 .Ltmp75-.Ltmp68
	.uleb128 .Ltmp76-.Lfunc_begin8
	.byte	0
	.uleb128 .Ltmp75-.Lfunc_begin8
	.uleb128 .Ltmp77-.Ltmp75
	.byte	0
	.byte	0
	.uleb128 .Ltmp77-.Lfunc_begin8
	.uleb128 .Ltmp78-.Ltmp77
	.uleb128 .Ltmp79-.Lfunc_begin8
	.byte	1
	.uleb128 .Ltmp78-.Lfunc_begin8
	.uleb128 .Lfunc_end8-.Ltmp78
	.byte	0
	.byte	0
.Lcst_end0:
	.byte	127
	.byte	0
	.p2align	2, 0x0
.Lttbase0:
	.byte	0
	.p2align	2, 0x0

	.section	.text.main,"ax",@progbits
	.globl	main
	.p2align	4
	.type	main,@function
main:
.Lfunc_begin9:
	.cfi_startproc
	pushq	%rax
	.cfi_def_cfa_offset 16
	movq	%rsi, %rcx
	movq	__rustc_debug_gdb_scripts_section__@GOTPCREL(%rip), %rax
	movzbl	(%rax), %eax
	movslq	%edi, %rdx
	leaq	_ZN5dp_ex4main17hc7990c7b9cee8a83E(%rip), %rax
	movq	%rax, (%rsp)
	leaq	.Lvtable.0(%rip), %rsi
	movq	%rsp, %rdi
	xorl	%r8d, %r8d
	callq	*_ZN3std2rt19lang_start_internal17h179a86731aa5c4aaE@GOTPCREL(%rip)
	popq	%rcx
	.cfi_def_cfa_offset 8
	retq
.Lfunc_end9:
	.size	main, .Lfunc_end9-main
	.cfi_endproc

	.type	.Lvtable.0,@object
	.section	.data.rel.ro..Lvtable.0,"aw",@progbits
	.p2align	3, 0x0
.Lvtable.0:
	.asciz	"\000\000\000\000\000\000\000\000\b\000\000\000\000\000\000\000\b\000\000\000\000\000\000"
	.quad	_ZN4core3ops8function6FnOnce40call_once$u7b$$u7b$vtable.shim$u7d$$u7d$17ha781119b1797b6ceE
	.quad	_ZN3std2rt10lang_start28_$u7b$$u7b$closure$u7d$$u7d$17h35042c385834d7a7E
	.quad	_ZN3std2rt10lang_start28_$u7b$$u7b$closure$u7d$$u7d$17h35042c385834d7a7E
	.size	.Lvtable.0, 48

	.type	.Lalloc_85fc59111fd0cef7ef4093da3840b035,@object
	.section	.rodata.cst8,"aM",@progbits,8
.Lalloc_85fc59111fd0cef7ef4093da3840b035:
	.zero	8
	.size	.Lalloc_85fc59111fd0cef7ef4093da3840b035, 8

	.type	.Lalloc_2b182a67d4f9402d603ef3e7f72e2431,@object
	.section	.rodata..Lalloc_2b182a67d4f9402d603ef3e7f72e2431,"a",@progbits
.Lalloc_2b182a67d4f9402d603ef3e7f72e2431:
	.ascii	"woof\n"
	.size	.Lalloc_2b182a67d4f9402d603ef3e7f72e2431, 5

	.type	.Lalloc_ec4fa215300b117d5ab20e2368000be2,@object
	.section	.data.rel.ro..Lalloc_ec4fa215300b117d5ab20e2368000be2,"aw",@progbits
	.p2align	3, 0x0
.Lalloc_ec4fa215300b117d5ab20e2368000be2:
	.quad	.Lalloc_2b182a67d4f9402d603ef3e7f72e2431
	.asciz	"\005\000\000\000\000\000\000"
	.size	.Lalloc_ec4fa215300b117d5ab20e2368000be2, 16

	.type	.Lalloc_3f95fa5fe64159c0ca66f05c35f35619,@object
	.section	.rodata..Lalloc_3f95fa5fe64159c0ca66f05c35f35619,"a",@progbits
.Lalloc_3f95fa5fe64159c0ca66f05c35f35619:
	.ascii	"meow\n"
	.size	.Lalloc_3f95fa5fe64159c0ca66f05c35f35619, 5

	.type	.Lalloc_000bc512779c9a763a8aa84ee52b6421,@object
	.section	.data.rel.ro..Lalloc_000bc512779c9a763a8aa84ee52b6421,"aw",@progbits
	.p2align	3, 0x0
.Lalloc_000bc512779c9a763a8aa84ee52b6421:
	.quad	.Lalloc_3f95fa5fe64159c0ca66f05c35f35619
	.asciz	"\005\000\000\000\000\000\000"
	.size	.Lalloc_000bc512779c9a763a8aa84ee52b6421, 16

	.type	.Lalloc_97b892b1271fb0a1c9b8c8979f44bf66,@object
	.section	.rodata..Lalloc_97b892b1271fb0a1c9b8c8979f44bf66,"a",@progbits
.Lalloc_97b892b1271fb0a1c9b8c8979f44bf66:
	.ascii	"chirp\n"
	.size	.Lalloc_97b892b1271fb0a1c9b8c8979f44bf66, 6

	.type	.Lalloc_aa690a7f645d07b0914dfbca7e9c692c,@object
	.section	.data.rel.ro..Lalloc_aa690a7f645d07b0914dfbca7e9c692c,"aw",@progbits
	.p2align	3, 0x0
.Lalloc_aa690a7f645d07b0914dfbca7e9c692c:
	.quad	.Lalloc_97b892b1271fb0a1c9b8c8979f44bf66
	.asciz	"\006\000\000\000\000\000\000"
	.size	.Lalloc_aa690a7f645d07b0914dfbca7e9c692c, 16

	.type	.Lvtable.2,@object
	.section	.data.rel.ro..Lvtable.2,"aw",@progbits
	.p2align	3, 0x0
.Lvtable.2:
	.asciz	"\000\000\000\000\000\000\000\000\000\000\000\000\000\000\000\000\001\000\000\000\000\000\000"
	.quad	_ZN45_$LT$dp_ex..Bird$u20$as$u20$dp_ex..Animal$GT$5speak17h900f4f573272ed1cE
	.size	.Lvtable.2, 32

	.type	.Lvtable.3,@object
	.section	.data.rel.ro..Lvtable.3,"aw",@progbits
	.p2align	3, 0x0
.Lvtable.3:
	.asciz	"\000\000\000\000\000\000\000\000\000\000\000\000\000\000\000\000\001\000\000\000\000\000\000"
	.quad	_ZN44_$LT$dp_ex..Cat$u20$as$u20$dp_ex..Animal$GT$5speak17hfb6e878b47c18265E
	.size	.Lvtable.3, 32

	.type	.Lvtable.4,@object
	.section	.data.rel.ro..Lvtable.4,"aw",@progbits
	.p2align	3, 0x0
.Lvtable.4:
	.asciz	"\000\000\000\000\000\000\000\000\000\000\000\000\000\000\000\000\001\000\000\000\000\000\000"
	.quad	_ZN44_$LT$dp_ex..Dog$u20$as$u20$dp_ex..Animal$GT$5speak17h95a71617b8cd4b02E
	.size	.Lvtable.4, 32

	.type	__rustc_debug_gdb_scripts_section__,@object
	.section	.debug_gdb_scripts,"aMS",@progbits,1,unique,1
	.weak	__rustc_debug_gdb_scripts_section__
__rustc_debug_gdb_scripts_section__:
	.asciz	"\001gdb_load_rust_pretty_printers.py"
	.size	__rustc_debug_gdb_scripts_section__, 34

	.section	.data.rel.ro..Lvtable.0,"aw",@progbits
.Lsec_end0:
	.section	.data.rel.ro..Lvtable.2,"aw",@progbits
.Lsec_end1:
	.section	.data.rel.ro..Lvtable.3,"aw",@progbits
.Lsec_end2:
	.section	.data.rel.ro..Lvtable.4,"aw",@progbits
.Lsec_end3:
	.section	.text._ZN3std2rt10lang_start17h4be3234073074386E,"ax",@progbits
.Lsec_end4:
	.section	".text._ZN3std2rt10lang_start28_$u7b$$u7b$closure$u7d$$u7d$17h35042c385834d7a7E","ax",@progbits
.Lsec_end5:
	.section	.text._ZN3std3sys9backtrace28__rust_begin_short_backtrace17h4d6c13392805e6c7E,"ax",@progbits
.Lsec_end6:
	.section	".text._ZN4core3ops8function6FnOnce40call_once$u7b$$u7b$vtable.shim$u7d$$u7d$17ha781119b1797b6ceE","ax",@progbits
.Lsec_end7:
	.section	".text._ZN4rand4rngs9reseeding29ReseedingCore$LT$R$C$Rsdr$GT$19reseed_and_generate17ha6228666c915f093E","ax",@progbits
.Lsec_end8:
	.section	".text._ZN44_$LT$dp_ex..Dog$u20$as$u20$dp_ex..Animal$GT$5speak17h95a71617b8cd4b02E","ax",@progbits
.Lsec_end9:
	.section	".text._ZN44_$LT$dp_ex..Cat$u20$as$u20$dp_ex..Animal$GT$5speak17hfb6e878b47c18265E","ax",@progbits
.Lsec_end10:
	.section	".text._ZN45_$LT$dp_ex..Bird$u20$as$u20$dp_ex..Animal$GT$5speak17h900f4f573272ed1cE","ax",@progbits
.Lsec_end11:
	.section	.text._ZN5dp_ex4main17hc7990c7b9cee8a83E,"ax",@progbits
.Lsec_end12:
	.section	.data.DW.ref.rust_eh_personality,"awG",@progbits,DW.ref.rust_eh_personality,comdat
	.p2align	3, 0x0
	.type	DW.ref.rust_eh_personality,@object
	.size	DW.ref.rust_eh_personality, 8
DW.ref.rust_eh_personality:
	.quad	rust_eh_personality
	.ident	"rustc version 1.87.0-nightly (ecade534c 2025-03-14)"
	.section	".note.GNU-stack","",@progbits